
main.elf:     file format elf32-littleriscv


Disassembly of section .text:

00000000 <entry>:
       0:	ff010113          	addi	sp,sp,-16
       4:	00112623          	sw	ra,12(sp)
       8:	00812423          	sw	s0,8(sp)
       c:	01010413          	addi	s0,sp,16
      10:	00120137          	lui	sp,0x120
      14:	ffc10113          	addi	sp,sp,-4 # 11fffc <_end+0x1a3fc>
      18:	330000ef          	jal	ra,348 <main>
      1c:	00000013          	nop
      20:	00c12083          	lw	ra,12(sp)
      24:	00812403          	lw	s0,8(sp)
      28:	01010113          	addi	sp,sp,16
      2c:	00008067          	ret

00000030 <next>:
      30:	fe010113          	addi	sp,sp,-32
      34:	00112e23          	sw	ra,28(sp)
      38:	00812c23          	sw	s0,24(sp)
      3c:	02010413          	addi	s0,sp,32
      40:	fea42623          	sw	a0,-20(s0)
      44:	fec42783          	lw	a5,-20(s0)
      48:	00178793          	addi	a5,a5,1
      4c:	02300593          	li	a1,35
      50:	00078513          	mv	a0,a5
      54:	748050ef          	jal	ra,579c <__modsi3>
      58:	00050793          	mv	a5,a0
      5c:	00078513          	mv	a0,a5
      60:	01c12083          	lw	ra,28(sp)
      64:	01812403          	lw	s0,24(sp)
      68:	02010113          	addi	sp,sp,32
      6c:	00008067          	ret

00000070 <prev>:
      70:	fe010113          	addi	sp,sp,-32
      74:	00112e23          	sw	ra,28(sp)
      78:	00812c23          	sw	s0,24(sp)
      7c:	02010413          	addi	s0,sp,32
      80:	fea42623          	sw	a0,-20(s0)
      84:	fec42783          	lw	a5,-20(s0)
      88:	02278793          	addi	a5,a5,34
      8c:	02300593          	li	a1,35
      90:	00078513          	mv	a0,a5
      94:	708050ef          	jal	ra,579c <__modsi3>
      98:	00050793          	mv	a5,a0
      9c:	00078513          	mv	a0,a5
      a0:	01c12083          	lw	ra,28(sp)
      a4:	01812403          	lw	s0,24(sp)
      a8:	02010113          	addi	sp,sp,32
      ac:	00008067          	ret

000000b0 <exec>:
      b0:	fe010113          	addi	sp,sp,-32
      b4:	00112e23          	sw	ra,28(sp)
      b8:	00812c23          	sw	s0,24(sp)
      bc:	02010413          	addi	s0,sp,32
      c0:	fea42623          	sw	a0,-20(s0)
      c4:	00400613          	li	a2,4
      c8:	00100597          	auipc	a1,0x100
      cc:	42858593          	addi	a1,a1,1064 # 1004f0 <_etext+0xfa5b8>
      d0:	fec42503          	lw	a0,-20(s0)
      d4:	33c050ef          	jal	ra,5410 <kstrncmp>
      d8:	00050793          	mv	a5,a0
      dc:	00079e63          	bnez	a5,f8 <exec+0x48>
      e0:	fec42783          	lw	a5,-20(s0)
      e4:	00578793          	addi	a5,a5,5
      e8:	00078513          	mv	a0,a5
      ec:	634000ef          	jal	ra,720 <exec_echo>
      f0:	00000793          	li	a5,0
      f4:	1500006f          	j	244 <exec+0x194>
      f8:	00300613          	li	a2,3
      fc:	00100597          	auipc	a1,0x100
     100:	3fc58593          	addi	a1,a1,1020 # 1004f8 <_etext+0xfa5c0>
     104:	fec42503          	lw	a0,-20(s0)
     108:	308050ef          	jal	ra,5410 <kstrncmp>
     10c:	00050793          	mv	a5,a0
     110:	00079e63          	bnez	a5,12c <exec+0x7c>
     114:	fec42783          	lw	a5,-20(s0)
     118:	00478793          	addi	a5,a5,4
     11c:	00078513          	mv	a0,a5
     120:	4f4000ef          	jal	ra,614 <exec_fib>
     124:	00000793          	li	a5,0
     128:	11c0006f          	j	244 <exec+0x194>
     12c:	00400613          	li	a2,4
     130:	00100597          	auipc	a1,0x100
     134:	3cc58593          	addi	a1,a1,972 # 1004fc <_etext+0xfa5c4>
     138:	fec42503          	lw	a0,-20(s0)
     13c:	2d4050ef          	jal	ra,5410 <kstrncmp>
     140:	00050793          	mv	a5,a0
     144:	00079e63          	bnez	a5,160 <exec+0xb0>
     148:	fec42783          	lw	a5,-20(s0)
     14c:	00578793          	addi	a5,a5,5
     150:	00078513          	mv	a0,a5
     154:	681000ef          	jal	ra,fd4 <exec_eval>
     158:	00000793          	li	a5,0
     15c:	0e80006f          	j	244 <exec+0x194>
     160:	00500613          	li	a2,5
     164:	00100597          	auipc	a1,0x100
     168:	3a058593          	addi	a1,a1,928 # 100504 <_etext+0xfa5cc>
     16c:	fec42503          	lw	a0,-20(s0)
     170:	2a0050ef          	jal	ra,5410 <kstrncmp>
     174:	00050793          	mv	a5,a0
     178:	00079e63          	bnez	a5,194 <exec+0xe4>
     17c:	fec42783          	lw	a5,-20(s0)
     180:	00678793          	addi	a5,a5,6
     184:	00078513          	mv	a0,a5
     188:	5f0000ef          	jal	ra,778 <exec_clear>
     18c:	00000793          	li	a5,0
     190:	0b40006f          	j	244 <exec+0x194>
     194:	00500613          	li	a2,5
     198:	00100597          	auipc	a1,0x100
     19c:	37458593          	addi	a1,a1,884 # 10050c <_etext+0xfa5d4>
     1a0:	fec42503          	lw	a0,-20(s0)
     1a4:	26c050ef          	jal	ra,5410 <kstrncmp>
     1a8:	00050793          	mv	a5,a0
     1ac:	00079e63          	bnez	a5,1c8 <exec+0x118>
     1b0:	fec42783          	lw	a5,-20(s0)
     1b4:	00678793          	addi	a5,a5,6
     1b8:	00078513          	mv	a0,a5
     1bc:	6b1000ef          	jal	ra,106c <exec_gtest>
     1c0:	00000793          	li	a5,0
     1c4:	0800006f          	j	244 <exec+0x194>
     1c8:	00500613          	li	a2,5
     1cc:	00100597          	auipc	a1,0x100
     1d0:	34858593          	addi	a1,a1,840 # 100514 <_etext+0xfa5dc>
     1d4:	fec42503          	lw	a0,-20(s0)
     1d8:	238050ef          	jal	ra,5410 <kstrncmp>
     1dc:	00050793          	mv	a5,a0
     1e0:	00079e63          	bnez	a5,1fc <exec+0x14c>
     1e4:	fec42783          	lw	a5,-20(s0)
     1e8:	00678793          	addi	a5,a5,6
     1ec:	00078513          	mv	a0,a5
     1f0:	634010ef          	jal	ra,1824 <exec_vtest>
     1f4:	00000793          	li	a5,0
     1f8:	04c0006f          	j	244 <exec+0x194>
     1fc:	00900613          	li	a2,9
     200:	00100597          	auipc	a1,0x100
     204:	31c58593          	addi	a1,a1,796 # 10051c <_etext+0xfa5e4>
     208:	fec42503          	lw	a0,-20(s0)
     20c:	204050ef          	jal	ra,5410 <kstrncmp>
     210:	00050793          	mv	a5,a0
     214:	00079e63          	bnez	a5,230 <exec+0x180>
     218:	fec42783          	lw	a5,-20(s0)
     21c:	00a78793          	addi	a5,a5,10
     220:	00078513          	mv	a0,a5
     224:	614020ef          	jal	ra,2838 <exec_benchmark>
     228:	00000793          	li	a5,0
     22c:	0180006f          	j	244 <exec+0x194>
     230:	fec42583          	lw	a1,-20(s0)
     234:	00100517          	auipc	a0,0x100
     238:	2f450513          	addi	a0,a0,756 # 100528 <_etext+0xfa5f0>
     23c:	725040ef          	jal	ra,5160 <kprintf>
     240:	00100793          	li	a5,1
     244:	00078513          	mv	a0,a5
     248:	01c12083          	lw	ra,28(sp)
     24c:	01812403          	lw	s0,24(sp)
     250:	02010113          	addi	sp,sp,32
     254:	00008067          	ret

00000258 <clear_line>:
     258:	fe010113          	addi	sp,sp,-32
     25c:	00112e23          	sw	ra,28(sp)
     260:	00812c23          	sw	s0,24(sp)
     264:	02010413          	addi	s0,sp,32
     268:	fea42623          	sw	a0,-20(s0)
     26c:	0180006f          	j	284 <clear_line+0x2c>
     270:	00800513          	li	a0,8
     274:	155050ef          	jal	ra,5bc8 <putch>
     278:	fec42783          	lw	a5,-20(s0)
     27c:	fff78793          	addi	a5,a5,-1
     280:	fef42623          	sw	a5,-20(s0)
     284:	fec42783          	lw	a5,-20(s0)
     288:	fe0794e3          	bnez	a5,270 <clear_line+0x18>
     28c:	00000793          	li	a5,0
     290:	00078513          	mv	a0,a5
     294:	01c12083          	lw	ra,28(sp)
     298:	01812403          	lw	s0,24(sp)
     29c:	02010113          	addi	sp,sp,32
     2a0:	00008067          	ret

000002a4 <print_line>:
     2a4:	fd010113          	addi	sp,sp,-48
     2a8:	02112623          	sw	ra,44(sp)
     2ac:	02812423          	sw	s0,40(sp)
     2b0:	03010413          	addi	s0,sp,48
     2b4:	fca42e23          	sw	a0,-36(s0)
     2b8:	fe042623          	sw	zero,-20(s0)
     2bc:	0440006f          	j	300 <print_line+0x5c>
     2c0:	00105697          	auipc	a3,0x105
     2c4:	b0068693          	addi	a3,a3,-1280 # 104dc0 <cmd>
     2c8:	fdc42703          	lw	a4,-36(s0)
     2cc:	00070793          	mv	a5,a4
     2d0:	00479793          	slli	a5,a5,0x4
     2d4:	40e787b3          	sub	a5,a5,a4
     2d8:	00279793          	slli	a5,a5,0x2
     2dc:	00f68733          	add	a4,a3,a5
     2e0:	fec42783          	lw	a5,-20(s0)
     2e4:	00f707b3          	add	a5,a4,a5
     2e8:	0007c783          	lbu	a5,0(a5)
     2ec:	00078513          	mv	a0,a5
     2f0:	0d9050ef          	jal	ra,5bc8 <putch>
     2f4:	fec42783          	lw	a5,-20(s0)
     2f8:	00178793          	addi	a5,a5,1
     2fc:	fef42623          	sw	a5,-20(s0)
     300:	00105697          	auipc	a3,0x105
     304:	ac068693          	addi	a3,a3,-1344 # 104dc0 <cmd>
     308:	fdc42703          	lw	a4,-36(s0)
     30c:	00070793          	mv	a5,a4
     310:	00479793          	slli	a5,a5,0x4
     314:	40e787b3          	sub	a5,a5,a4
     318:	00279793          	slli	a5,a5,0x2
     31c:	00f68733          	add	a4,a3,a5
     320:	fec42783          	lw	a5,-20(s0)
     324:	00f707b3          	add	a5,a4,a5
     328:	0007c783          	lbu	a5,0(a5)
     32c:	f8079ae3          	bnez	a5,2c0 <print_line+0x1c>
     330:	fec42783          	lw	a5,-20(s0)
     334:	00078513          	mv	a0,a5
     338:	02c12083          	lw	ra,44(sp)
     33c:	02812403          	lw	s0,40(sp)
     340:	03010113          	addi	sp,sp,48
     344:	00008067          	ret

00000348 <main>:
     348:	fd010113          	addi	sp,sp,-48
     34c:	02112623          	sw	ra,44(sp)
     350:	02812423          	sw	s0,40(sp)
     354:	03010413          	addi	s0,sp,48
     358:	fe042623          	sw	zero,-20(s0)
     35c:	fe042423          	sw	zero,-24(s0)
     360:	fe042223          	sw	zero,-28(s0)
     364:	fe042023          	sw	zero,-32(s0)
     368:	494050ef          	jal	ra,57fc <gettimeofday>
     36c:	fca42e23          	sw	a0,-36(s0)
     370:	684050ef          	jal	ra,59f4 <vga_init>
     374:	00100517          	auipc	a0,0x100
     378:	1cc50513          	addi	a0,a0,460 # 100540 <_etext+0xfa608>
     37c:	32d050ef          	jal	ra,5ea8 <putstr>
     380:	47c050ef          	jal	ra,57fc <gettimeofday>
     384:	00050713          	mv	a4,a0
     388:	fdc42783          	lw	a5,-36(s0)
     38c:	40f70733          	sub	a4,a4,a5
     390:	000f47b7          	lui	a5,0xf4
     394:	24078793          	addi	a5,a5,576 # f4240 <_etext+0xee308>
     398:	00e7f863          	bgeu	a5,a4,3a8 <main+0x60>
     39c:	460050ef          	jal	ra,57fc <gettimeofday>
     3a0:	fca42e23          	sw	a0,-36(s0)
     3a4:	78c050ef          	jal	ra,5b30 <blink>
     3a8:	361050ef          	jal	ra,5f08 <readkey>
     3ac:	00050793          	mv	a5,a0
     3b0:	fcf40ba3          	sb	a5,-41(s0)
     3b4:	fd744783          	lbu	a5,-41(s0)
     3b8:	0b800713          	li	a4,184
     3bc:	02e78e63          	beq	a5,a4,3f8 <main+0xb0>
     3c0:	0b800713          	li	a4,184
     3c4:	1cf74a63          	blt	a4,a5,598 <main+0x250>
     3c8:	0b200713          	li	a4,178
     3cc:	06e78063          	beq	a5,a4,42c <main+0xe4>
     3d0:	0b200713          	li	a4,178
     3d4:	1cf74263          	blt	a4,a5,598 <main+0x250>
     3d8:	00d00713          	li	a4,13
     3dc:	0ce78a63          	beq	a5,a4,4b0 <main+0x168>
     3e0:	00d00713          	li	a4,13
     3e4:	1af74a63          	blt	a4,a5,598 <main+0x250>
     3e8:	20078263          	beqz	a5,5ec <main+0x2a4>
     3ec:	00800713          	li	a4,8
     3f0:	06e78863          	beq	a5,a4,460 <main+0x118>
     3f4:	1a40006f          	j	598 <main+0x250>
     3f8:	fe042703          	lw	a4,-32(s0)
     3fc:	fe842783          	lw	a5,-24(s0)
     400:	1ef70a63          	beq	a4,a5,5f4 <main+0x2ac>
     404:	fec42503          	lw	a0,-20(s0)
     408:	e51ff0ef          	jal	ra,258 <clear_line>
     40c:	fea42623          	sw	a0,-20(s0)
     410:	fe042503          	lw	a0,-32(s0)
     414:	c5dff0ef          	jal	ra,70 <prev>
     418:	fea42023          	sw	a0,-32(s0)
     41c:	fe042503          	lw	a0,-32(s0)
     420:	e85ff0ef          	jal	ra,2a4 <print_line>
     424:	fea42623          	sw	a0,-20(s0)
     428:	1cc0006f          	j	5f4 <main+0x2ac>
     42c:	fe042703          	lw	a4,-32(s0)
     430:	fe442783          	lw	a5,-28(s0)
     434:	1cf70463          	beq	a4,a5,5fc <main+0x2b4>
     438:	fec42503          	lw	a0,-20(s0)
     43c:	e1dff0ef          	jal	ra,258 <clear_line>
     440:	fea42623          	sw	a0,-20(s0)
     444:	fe042503          	lw	a0,-32(s0)
     448:	be9ff0ef          	jal	ra,30 <next>
     44c:	fea42023          	sw	a0,-32(s0)
     450:	fe042503          	lw	a0,-32(s0)
     454:	e51ff0ef          	jal	ra,2a4 <print_line>
     458:	fea42623          	sw	a0,-20(s0)
     45c:	1a00006f          	j	5fc <main+0x2b4>
     460:	fec42783          	lw	a5,-20(s0)
     464:	1a078063          	beqz	a5,604 <main+0x2bc>
     468:	fd744783          	lbu	a5,-41(s0)
     46c:	00078513          	mv	a0,a5
     470:	758050ef          	jal	ra,5bc8 <putch>
     474:	fec42783          	lw	a5,-20(s0)
     478:	fff78793          	addi	a5,a5,-1
     47c:	fef42623          	sw	a5,-20(s0)
     480:	00105697          	auipc	a3,0x105
     484:	94068693          	addi	a3,a3,-1728 # 104dc0 <cmd>
     488:	fe042703          	lw	a4,-32(s0)
     48c:	00070793          	mv	a5,a4
     490:	00479793          	slli	a5,a5,0x4
     494:	40e787b3          	sub	a5,a5,a4
     498:	00279793          	slli	a5,a5,0x2
     49c:	00f68733          	add	a4,a3,a5
     4a0:	fec42783          	lw	a5,-20(s0)
     4a4:	00f707b3          	add	a5,a4,a5
     4a8:	00078023          	sb	zero,0(a5)
     4ac:	1580006f          	j	604 <main+0x2bc>
     4b0:	00d00513          	li	a0,13
     4b4:	714050ef          	jal	ra,5bc8 <putch>
     4b8:	00105697          	auipc	a3,0x105
     4bc:	90868693          	addi	a3,a3,-1784 # 104dc0 <cmd>
     4c0:	fe042703          	lw	a4,-32(s0)
     4c4:	00070793          	mv	a5,a4
     4c8:	00479793          	slli	a5,a5,0x4
     4cc:	40e787b3          	sub	a5,a5,a4
     4d0:	00279793          	slli	a5,a5,0x2
     4d4:	00f68733          	add	a4,a3,a5
     4d8:	fec42783          	lw	a5,-20(s0)
     4dc:	00f707b3          	add	a5,a4,a5
     4e0:	00078023          	sb	zero,0(a5)
     4e4:	fe042703          	lw	a4,-32(s0)
     4e8:	00070793          	mv	a5,a4
     4ec:	00479793          	slli	a5,a5,0x4
     4f0:	40e787b3          	sub	a5,a5,a4
     4f4:	00279793          	slli	a5,a5,0x2
     4f8:	00105717          	auipc	a4,0x105
     4fc:	8c870713          	addi	a4,a4,-1848 # 104dc0 <cmd>
     500:	00e787b3          	add	a5,a5,a4
     504:	00078513          	mv	a0,a5
     508:	ba9ff0ef          	jal	ra,b0 <exec>
     50c:	fe042503          	lw	a0,-32(s0)
     510:	b21ff0ef          	jal	ra,30 <next>
     514:	fea42023          	sw	a0,-32(s0)
     518:	fe042783          	lw	a5,-32(s0)
     51c:	fef42223          	sw	a5,-28(s0)
     520:	fe442703          	lw	a4,-28(s0)
     524:	fe842783          	lw	a5,-24(s0)
     528:	00f71863          	bne	a4,a5,538 <main+0x1f0>
     52c:	fe842503          	lw	a0,-24(s0)
     530:	b01ff0ef          	jal	ra,30 <next>
     534:	fea42423          	sw	a0,-24(s0)
     538:	fe042623          	sw	zero,-20(s0)
     53c:	fc042c23          	sw	zero,-40(s0)
     540:	03c0006f          	j	57c <main+0x234>
     544:	00105697          	auipc	a3,0x105
     548:	87c68693          	addi	a3,a3,-1924 # 104dc0 <cmd>
     54c:	fe042703          	lw	a4,-32(s0)
     550:	00070793          	mv	a5,a4
     554:	00479793          	slli	a5,a5,0x4
     558:	40e787b3          	sub	a5,a5,a4
     55c:	00279793          	slli	a5,a5,0x2
     560:	00f68733          	add	a4,a3,a5
     564:	fd842783          	lw	a5,-40(s0)
     568:	00f707b3          	add	a5,a4,a5
     56c:	00078023          	sb	zero,0(a5)
     570:	fd842783          	lw	a5,-40(s0)
     574:	00178793          	addi	a5,a5,1
     578:	fcf42c23          	sw	a5,-40(s0)
     57c:	fd842703          	lw	a4,-40(s0)
     580:	03600793          	li	a5,54
     584:	fce7d0e3          	bge	a5,a4,544 <main+0x1fc>
     588:	00100517          	auipc	a0,0x100
     58c:	fb850513          	addi	a0,a0,-72 # 100540 <_etext+0xfa608>
     590:	119050ef          	jal	ra,5ea8 <putstr>
     594:	07c0006f          	j	610 <main+0x2c8>
     598:	fec42703          	lw	a4,-20(s0)
     59c:	03600793          	li	a5,54
     5a0:	06e7c663          	blt	a5,a4,60c <main+0x2c4>
     5a4:	fd744783          	lbu	a5,-41(s0)
     5a8:	00078513          	mv	a0,a5
     5ac:	61c050ef          	jal	ra,5bc8 <putch>
     5b0:	fec42703          	lw	a4,-20(s0)
     5b4:	00170793          	addi	a5,a4,1
     5b8:	fef42623          	sw	a5,-20(s0)
     5bc:	00105617          	auipc	a2,0x105
     5c0:	80460613          	addi	a2,a2,-2044 # 104dc0 <cmd>
     5c4:	fe042683          	lw	a3,-32(s0)
     5c8:	00068793          	mv	a5,a3
     5cc:	00479793          	slli	a5,a5,0x4
     5d0:	40d787b3          	sub	a5,a5,a3
     5d4:	00279793          	slli	a5,a5,0x2
     5d8:	00f607b3          	add	a5,a2,a5
     5dc:	00e787b3          	add	a5,a5,a4
     5e0:	fd744703          	lbu	a4,-41(s0)
     5e4:	00e78023          	sb	a4,0(a5)
     5e8:	0240006f          	j	60c <main+0x2c4>
     5ec:	00000013          	nop
     5f0:	d91ff06f          	j	380 <main+0x38>
     5f4:	00000013          	nop
     5f8:	d89ff06f          	j	380 <main+0x38>
     5fc:	00000013          	nop
     600:	d81ff06f          	j	380 <main+0x38>
     604:	00000013          	nop
     608:	d79ff06f          	j	380 <main+0x38>
     60c:	00000013          	nop
     610:	d71ff06f          	j	380 <main+0x38>

00000614 <exec_fib>:
     614:	fd010113          	addi	sp,sp,-48
     618:	02112623          	sw	ra,44(sp)
     61c:	02812423          	sw	s0,40(sp)
     620:	03010413          	addi	s0,sp,48
     624:	fca42e23          	sw	a0,-36(s0)
     628:	0100006f          	j	638 <exec_fib+0x24>
     62c:	fdc42783          	lw	a5,-36(s0)
     630:	00178793          	addi	a5,a5,1
     634:	fcf42e23          	sw	a5,-36(s0)
     638:	fdc42783          	lw	a5,-36(s0)
     63c:	0007c703          	lbu	a4,0(a5)
     640:	02000793          	li	a5,32
     644:	fef704e3          	beq	a4,a5,62c <exec_fib+0x18>
     648:	fe042623          	sw	zero,-20(s0)
     64c:	03c0006f          	j	688 <exec_fib+0x74>
     650:	fec42703          	lw	a4,-20(s0)
     654:	00070793          	mv	a5,a4
     658:	00279793          	slli	a5,a5,0x2
     65c:	00e787b3          	add	a5,a5,a4
     660:	00179793          	slli	a5,a5,0x1
     664:	00078713          	mv	a4,a5
     668:	fdc42783          	lw	a5,-36(s0)
     66c:	0007c783          	lbu	a5,0(a5)
     670:	00f707b3          	add	a5,a4,a5
     674:	fd078793          	addi	a5,a5,-48
     678:	fef42623          	sw	a5,-20(s0)
     67c:	fdc42783          	lw	a5,-36(s0)
     680:	00178793          	addi	a5,a5,1
     684:	fcf42e23          	sw	a5,-36(s0)
     688:	fdc42783          	lw	a5,-36(s0)
     68c:	0007c703          	lbu	a4,0(a5)
     690:	02f00793          	li	a5,47
     694:	00e7fa63          	bgeu	a5,a4,6a8 <exec_fib+0x94>
     698:	fdc42783          	lw	a5,-36(s0)
     69c:	0007c703          	lbu	a4,0(a5)
     6a0:	03900793          	li	a5,57
     6a4:	fae7f6e3          	bgeu	a5,a4,650 <exec_fib+0x3c>
     6a8:	00100793          	li	a5,1
     6ac:	fef42423          	sw	a5,-24(s0)
     6b0:	00100793          	li	a5,1
     6b4:	fef42223          	sw	a5,-28(s0)
     6b8:	00200793          	li	a5,2
     6bc:	fef42023          	sw	a5,-32(s0)
     6c0:	0300006f          	j	6f0 <exec_fib+0xdc>
     6c4:	fe442703          	lw	a4,-28(s0)
     6c8:	fe842783          	lw	a5,-24(s0)
     6cc:	00f707b3          	add	a5,a4,a5
     6d0:	fef42223          	sw	a5,-28(s0)
     6d4:	fe442703          	lw	a4,-28(s0)
     6d8:	fe842783          	lw	a5,-24(s0)
     6dc:	40f707b3          	sub	a5,a4,a5
     6e0:	fef42423          	sw	a5,-24(s0)
     6e4:	fe042783          	lw	a5,-32(s0)
     6e8:	00178793          	addi	a5,a5,1
     6ec:	fef42023          	sw	a5,-32(s0)
     6f0:	fe042703          	lw	a4,-32(s0)
     6f4:	fec42783          	lw	a5,-20(s0)
     6f8:	fce7d6e3          	bge	a5,a4,6c4 <exec_fib+0xb0>
     6fc:	fe442583          	lw	a1,-28(s0)
     700:	00100517          	auipc	a0,0x100
     704:	90050513          	addi	a0,a0,-1792 # 100000 <_etext+0xfa0c8>
     708:	259040ef          	jal	ra,5160 <kprintf>
     70c:	00000013          	nop
     710:	02c12083          	lw	ra,44(sp)
     714:	02812403          	lw	s0,40(sp)
     718:	03010113          	addi	sp,sp,48
     71c:	00008067          	ret

00000720 <exec_echo>:
     720:	fe010113          	addi	sp,sp,-32
     724:	00112e23          	sw	ra,28(sp)
     728:	00812c23          	sw	s0,24(sp)
     72c:	02010413          	addi	s0,sp,32
     730:	fea42623          	sw	a0,-20(s0)
     734:	0100006f          	j	744 <exec_echo+0x24>
     738:	fec42783          	lw	a5,-20(s0)
     73c:	00178793          	addi	a5,a5,1
     740:	fef42623          	sw	a5,-20(s0)
     744:	fec42783          	lw	a5,-20(s0)
     748:	0007c703          	lbu	a4,0(a5)
     74c:	02000793          	li	a5,32
     750:	fef704e3          	beq	a4,a5,738 <exec_echo+0x18>
     754:	fec42503          	lw	a0,-20(s0)
     758:	750050ef          	jal	ra,5ea8 <putstr>
     75c:	00a00513          	li	a0,10
     760:	468050ef          	jal	ra,5bc8 <putch>
     764:	00000013          	nop
     768:	01c12083          	lw	ra,28(sp)
     76c:	01812403          	lw	s0,24(sp)
     770:	02010113          	addi	sp,sp,32
     774:	00008067          	ret

00000778 <exec_clear>:
     778:	fe010113          	addi	sp,sp,-32
     77c:	00112e23          	sw	ra,28(sp)
     780:	00812c23          	sw	s0,24(sp)
     784:	02010413          	addi	s0,sp,32
     788:	fea42623          	sw	a0,-20(s0)
     78c:	268050ef          	jal	ra,59f4 <vga_init>
     790:	00000013          	nop
     794:	01c12083          	lw	ra,28(sp)
     798:	01812403          	lw	s0,24(sp)
     79c:	02010113          	addi	sp,sp,32
     7a0:	00008067          	ret

000007a4 <next_bracket>:
     7a4:	fd010113          	addi	sp,sp,-48
     7a8:	02812623          	sw	s0,44(sp)
     7ac:	03010413          	addi	s0,sp,48
     7b0:	fca42e23          	sw	a0,-36(s0)
     7b4:	00100793          	li	a5,1
     7b8:	fef42623          	sw	a5,-20(s0)
     7bc:	fdc42783          	lw	a5,-36(s0)
     7c0:	00178793          	addi	a5,a5,1
     7c4:	fcf42e23          	sw	a5,-36(s0)
     7c8:	0980006f          	j	860 <next_bracket+0xbc>
     7cc:	00100697          	auipc	a3,0x100
     7d0:	22c68693          	addi	a3,a3,556 # 1009f8 <tokens>
     7d4:	fdc42703          	lw	a4,-36(s0)
     7d8:	00070793          	mv	a5,a4
     7dc:	00179793          	slli	a5,a5,0x1
     7e0:	00e787b3          	add	a5,a5,a4
     7e4:	00279793          	slli	a5,a5,0x2
     7e8:	00f687b3          	add	a5,a3,a5
     7ec:	0007a703          	lw	a4,0(a5)
     7f0:	00100793          	li	a5,1
     7f4:	04f71e63          	bne	a4,a5,850 <next_bracket+0xac>
     7f8:	00100697          	auipc	a3,0x100
     7fc:	20068693          	addi	a3,a3,512 # 1009f8 <tokens>
     800:	fdc42703          	lw	a4,-36(s0)
     804:	00070793          	mv	a5,a4
     808:	00179793          	slli	a5,a5,0x1
     80c:	00e787b3          	add	a5,a5,a4
     810:	00279793          	slli	a5,a5,0x2
     814:	00f687b3          	add	a5,a3,a5
     818:	0047a783          	lw	a5,4(a5)
     81c:	02800713          	li	a4,40
     820:	00e78863          	beq	a5,a4,830 <next_bracket+0x8c>
     824:	02900713          	li	a4,41
     828:	00e78c63          	beq	a5,a4,840 <next_bracket+0x9c>
     82c:	0280006f          	j	854 <next_bracket+0xb0>
     830:	fec42783          	lw	a5,-20(s0)
     834:	00178793          	addi	a5,a5,1
     838:	fef42623          	sw	a5,-20(s0)
     83c:	0180006f          	j	854 <next_bracket+0xb0>
     840:	fec42783          	lw	a5,-20(s0)
     844:	fff78793          	addi	a5,a5,-1
     848:	fef42623          	sw	a5,-20(s0)
     84c:	0080006f          	j	854 <next_bracket+0xb0>
     850:	00000013          	nop
     854:	fdc42783          	lw	a5,-36(s0)
     858:	00178793          	addi	a5,a5,1
     85c:	fcf42e23          	sw	a5,-36(s0)
     860:	fec42783          	lw	a5,-20(s0)
     864:	f60794e3          	bnez	a5,7cc <next_bracket+0x28>
     868:	fdc42783          	lw	a5,-36(s0)
     86c:	00078513          	mv	a0,a5
     870:	02c12403          	lw	s0,44(sp)
     874:	03010113          	addi	sp,sp,48
     878:	00008067          	ret

0000087c <LB>:
     87c:	ff010113          	addi	sp,sp,-16
     880:	00812623          	sw	s0,12(sp)
     884:	00912423          	sw	s1,8(sp)
     888:	01010413          	addi	s0,sp,16
     88c:	00050493          	mv	s1,a0
     890:	0004a703          	lw	a4,0(s1)
     894:	00100793          	li	a5,1
     898:	00f71c63          	bne	a4,a5,8b0 <LB+0x34>
     89c:	0044a703          	lw	a4,4(s1)
     8a0:	02800793          	li	a5,40
     8a4:	00f71663          	bne	a4,a5,8b0 <LB+0x34>
     8a8:	00100793          	li	a5,1
     8ac:	0080006f          	j	8b4 <LB+0x38>
     8b0:	00000793          	li	a5,0
     8b4:	00078513          	mv	a0,a5
     8b8:	00c12403          	lw	s0,12(sp)
     8bc:	00812483          	lw	s1,8(sp)
     8c0:	01010113          	addi	sp,sp,16
     8c4:	00008067          	ret

000008c8 <RB>:
     8c8:	ff010113          	addi	sp,sp,-16
     8cc:	00812623          	sw	s0,12(sp)
     8d0:	00912423          	sw	s1,8(sp)
     8d4:	01010413          	addi	s0,sp,16
     8d8:	00050493          	mv	s1,a0
     8dc:	0004a703          	lw	a4,0(s1)
     8e0:	00100793          	li	a5,1
     8e4:	00f71c63          	bne	a4,a5,8fc <RB+0x34>
     8e8:	0044a703          	lw	a4,4(s1)
     8ec:	02900793          	li	a5,41
     8f0:	00f71663          	bne	a4,a5,8fc <RB+0x34>
     8f4:	00100793          	li	a5,1
     8f8:	0080006f          	j	900 <RB+0x38>
     8fc:	00000793          	li	a5,0
     900:	00078513          	mv	a0,a5
     904:	00c12403          	lw	s0,12(sp)
     908:	00812483          	lw	s1,8(sp)
     90c:	01010113          	addi	sp,sp,16
     910:	00008067          	ret

00000914 <ksm>:
     914:	fd010113          	addi	sp,sp,-48
     918:	02112623          	sw	ra,44(sp)
     91c:	02812423          	sw	s0,40(sp)
     920:	03010413          	addi	s0,sp,48
     924:	fca42e23          	sw	a0,-36(s0)
     928:	fcb42c23          	sw	a1,-40(s0)
     92c:	00100793          	li	a5,1
     930:	fef42623          	sw	a5,-20(s0)
     934:	0180006f          	j	94c <ksm+0x38>
     938:	fdc42583          	lw	a1,-36(s0)
     93c:	fec42503          	lw	a0,-20(s0)
     940:	3b5040ef          	jal	ra,54f4 <__mulsi3>
     944:	00050793          	mv	a5,a0
     948:	fef42623          	sw	a5,-20(s0)
     94c:	fd842783          	lw	a5,-40(s0)
     950:	fff78713          	addi	a4,a5,-1
     954:	fce42c23          	sw	a4,-40(s0)
     958:	fe0790e3          	bnez	a5,938 <ksm+0x24>
     95c:	fec42783          	lw	a5,-20(s0)
     960:	00078513          	mv	a0,a5
     964:	02c12083          	lw	ra,44(sp)
     968:	02812403          	lw	s0,40(sp)
     96c:	03010113          	addi	sp,sp,48
     970:	00008067          	ret

00000974 <eval>:
     974:	fc010113          	addi	sp,sp,-64
     978:	02112e23          	sw	ra,60(sp)
     97c:	02812c23          	sw	s0,56(sp)
     980:	04010413          	addi	s0,sp,64
     984:	fca42e23          	sw	a0,-36(s0)
     988:	fcb42c23          	sw	a1,-40(s0)
     98c:	fd842703          	lw	a4,-40(s0)
     990:	fdc42783          	lw	a5,-36(s0)
     994:	00e7c663          	blt	a5,a4,9a0 <eval+0x2c>
     998:	00000793          	li	a5,0
     99c:	3a80006f          	j	d44 <eval+0x3d0>
     9a0:	fdc42783          	lw	a5,-36(s0)
     9a4:	00178793          	addi	a5,a5,1
     9a8:	fd842703          	lw	a4,-40(s0)
     9ac:	02f71663          	bne	a4,a5,9d8 <eval+0x64>
     9b0:	00100697          	auipc	a3,0x100
     9b4:	04868693          	addi	a3,a3,72 # 1009f8 <tokens>
     9b8:	fdc42703          	lw	a4,-36(s0)
     9bc:	00070793          	mv	a5,a4
     9c0:	00179793          	slli	a5,a5,0x1
     9c4:	00e787b3          	add	a5,a5,a4
     9c8:	00279793          	slli	a5,a5,0x2
     9cc:	00f687b3          	add	a5,a3,a5
     9d0:	0087a783          	lw	a5,8(a5)
     9d4:	3700006f          	j	d44 <eval+0x3d0>
     9d8:	00100697          	auipc	a3,0x100
     9dc:	02068693          	addi	a3,a3,32 # 1009f8 <tokens>
     9e0:	fdc42703          	lw	a4,-36(s0)
     9e4:	00070793          	mv	a5,a4
     9e8:	00179793          	slli	a5,a5,0x1
     9ec:	00e787b3          	add	a5,a5,a4
     9f0:	00279793          	slli	a5,a5,0x2
     9f4:	00f687b3          	add	a5,a3,a5
     9f8:	0007a703          	lw	a4,0(a5)
     9fc:	fce42023          	sw	a4,-64(s0)
     a00:	0047a703          	lw	a4,4(a5)
     a04:	fce42223          	sw	a4,-60(s0)
     a08:	0087a783          	lw	a5,8(a5)
     a0c:	fcf42423          	sw	a5,-56(s0)
     a10:	fc040793          	addi	a5,s0,-64
     a14:	00078513          	mv	a0,a5
     a18:	e65ff0ef          	jal	ra,87c <LB>
     a1c:	00050793          	mv	a5,a0
     a20:	06078c63          	beqz	a5,a98 <eval+0x124>
     a24:	fd842783          	lw	a5,-40(s0)
     a28:	fff78713          	addi	a4,a5,-1
     a2c:	00100697          	auipc	a3,0x100
     a30:	fcc68693          	addi	a3,a3,-52 # 1009f8 <tokens>
     a34:	00070793          	mv	a5,a4
     a38:	00179793          	slli	a5,a5,0x1
     a3c:	00e787b3          	add	a5,a5,a4
     a40:	00279793          	slli	a5,a5,0x2
     a44:	00f687b3          	add	a5,a3,a5
     a48:	0007a703          	lw	a4,0(a5)
     a4c:	fce42023          	sw	a4,-64(s0)
     a50:	0047a703          	lw	a4,4(a5)
     a54:	fce42223          	sw	a4,-60(s0)
     a58:	0087a783          	lw	a5,8(a5)
     a5c:	fcf42423          	sw	a5,-56(s0)
     a60:	fc040793          	addi	a5,s0,-64
     a64:	00078513          	mv	a0,a5
     a68:	e61ff0ef          	jal	ra,8c8 <RB>
     a6c:	00050793          	mv	a5,a0
     a70:	02078463          	beqz	a5,a98 <eval+0x124>
     a74:	fdc42783          	lw	a5,-36(s0)
     a78:	00178713          	addi	a4,a5,1
     a7c:	fd842783          	lw	a5,-40(s0)
     a80:	fff78793          	addi	a5,a5,-1
     a84:	00078593          	mv	a1,a5
     a88:	00070513          	mv	a0,a4
     a8c:	ee9ff0ef          	jal	ra,974 <eval>
     a90:	00050793          	mv	a5,a0
     a94:	2b00006f          	j	d44 <eval+0x3d0>
     a98:	fdc42783          	lw	a5,-36(s0)
     a9c:	fef42623          	sw	a5,-20(s0)
     aa0:	fff00793          	li	a5,-1
     aa4:	fef42423          	sw	a5,-24(s0)
     aa8:	1980006f          	j	c40 <eval+0x2cc>
     aac:	00100697          	auipc	a3,0x100
     ab0:	f4c68693          	addi	a3,a3,-180 # 1009f8 <tokens>
     ab4:	fec42703          	lw	a4,-20(s0)
     ab8:	00070793          	mv	a5,a4
     abc:	00179793          	slli	a5,a5,0x1
     ac0:	00e787b3          	add	a5,a5,a4
     ac4:	00279793          	slli	a5,a5,0x2
     ac8:	00f687b3          	add	a5,a3,a5
     acc:	0007a703          	lw	a4,0(a5)
     ad0:	fce42023          	sw	a4,-64(s0)
     ad4:	0047a703          	lw	a4,4(a5)
     ad8:	fce42223          	sw	a4,-60(s0)
     adc:	0087a783          	lw	a5,8(a5)
     ae0:	fcf42423          	sw	a5,-56(s0)
     ae4:	fc040793          	addi	a5,s0,-64
     ae8:	00078513          	mv	a0,a5
     aec:	d91ff0ef          	jal	ra,87c <LB>
     af0:	00050793          	mv	a5,a0
     af4:	00078e63          	beqz	a5,b10 <eval+0x19c>
     af8:	fec42503          	lw	a0,-20(s0)
     afc:	ca9ff0ef          	jal	ra,7a4 <next_bracket>
     b00:	fea42623          	sw	a0,-20(s0)
     b04:	fec42703          	lw	a4,-20(s0)
     b08:	fd842783          	lw	a5,-40(s0)
     b0c:	14f70263          	beq	a4,a5,c50 <eval+0x2dc>
     b10:	00100697          	auipc	a3,0x100
     b14:	ee868693          	addi	a3,a3,-280 # 1009f8 <tokens>
     b18:	fec42703          	lw	a4,-20(s0)
     b1c:	00070793          	mv	a5,a4
     b20:	00179793          	slli	a5,a5,0x1
     b24:	00e787b3          	add	a5,a5,a4
     b28:	00279793          	slli	a5,a5,0x2
     b2c:	00f687b3          	add	a5,a3,a5
     b30:	0007a783          	lw	a5,0(a5)
     b34:	0e078e63          	beqz	a5,c30 <eval+0x2bc>
     b38:	fe842703          	lw	a4,-24(s0)
     b3c:	fff00793          	li	a5,-1
     b40:	06f70c63          	beq	a4,a5,bb8 <eval+0x244>
     b44:	00100697          	auipc	a3,0x100
     b48:	eb468693          	addi	a3,a3,-332 # 1009f8 <tokens>
     b4c:	fec42703          	lw	a4,-20(s0)
     b50:	00070793          	mv	a5,a4
     b54:	00179793          	slli	a5,a5,0x1
     b58:	00e787b3          	add	a5,a5,a4
     b5c:	00279793          	slli	a5,a5,0x2
     b60:	00f687b3          	add	a5,a3,a5
     b64:	0047a783          	lw	a5,4(a5)
     b68:	00100717          	auipc	a4,0x100
     b6c:	9e070713          	addi	a4,a4,-1568 # 100548 <prior>
     b70:	00279793          	slli	a5,a5,0x2
     b74:	00f707b3          	add	a5,a4,a5
     b78:	0007a683          	lw	a3,0(a5)
     b7c:	00100617          	auipc	a2,0x100
     b80:	e7c60613          	addi	a2,a2,-388 # 1009f8 <tokens>
     b84:	fe842703          	lw	a4,-24(s0)
     b88:	00070793          	mv	a5,a4
     b8c:	00179793          	slli	a5,a5,0x1
     b90:	00e787b3          	add	a5,a5,a4
     b94:	00279793          	slli	a5,a5,0x2
     b98:	00f607b3          	add	a5,a2,a5
     b9c:	0047a783          	lw	a5,4(a5)
     ba0:	00100717          	auipc	a4,0x100
     ba4:	9a870713          	addi	a4,a4,-1624 # 100548 <prior>
     ba8:	00279793          	slli	a5,a5,0x2
     bac:	00f707b3          	add	a5,a4,a5
     bb0:	0007a783          	lw	a5,0(a5)
     bb4:	00f6d663          	bge	a3,a5,bc0 <eval+0x24c>
     bb8:	fec42783          	lw	a5,-20(s0)
     bbc:	fef42423          	sw	a5,-24(s0)
     bc0:	fe842703          	lw	a4,-24(s0)
     bc4:	fff00793          	li	a5,-1
     bc8:	06f70663          	beq	a4,a5,c34 <eval+0x2c0>
     bcc:	00100697          	auipc	a3,0x100
     bd0:	e2c68693          	addi	a3,a3,-468 # 1009f8 <tokens>
     bd4:	fe842703          	lw	a4,-24(s0)
     bd8:	00070793          	mv	a5,a4
     bdc:	00179793          	slli	a5,a5,0x1
     be0:	00e787b3          	add	a5,a5,a4
     be4:	00279793          	slli	a5,a5,0x2
     be8:	00f687b3          	add	a5,a3,a5
     bec:	0047a703          	lw	a4,4(a5)
     bf0:	02d00793          	li	a5,45
     bf4:	04f71063          	bne	a4,a5,c34 <eval+0x2c0>
     bf8:	00100697          	auipc	a3,0x100
     bfc:	e0068693          	addi	a3,a3,-512 # 1009f8 <tokens>
     c00:	fec42703          	lw	a4,-20(s0)
     c04:	00070793          	mv	a5,a4
     c08:	00179793          	slli	a5,a5,0x1
     c0c:	00e787b3          	add	a5,a5,a4
     c10:	00279793          	slli	a5,a5,0x2
     c14:	00f687b3          	add	a5,a3,a5
     c18:	0047a703          	lw	a4,4(a5)
     c1c:	02b00793          	li	a5,43
     c20:	00f71a63          	bne	a4,a5,c34 <eval+0x2c0>
     c24:	fec42783          	lw	a5,-20(s0)
     c28:	fef42423          	sw	a5,-24(s0)
     c2c:	0080006f          	j	c34 <eval+0x2c0>
     c30:	00000013          	nop
     c34:	fec42783          	lw	a5,-20(s0)
     c38:	00178793          	addi	a5,a5,1
     c3c:	fef42623          	sw	a5,-20(s0)
     c40:	fec42703          	lw	a4,-20(s0)
     c44:	fd842783          	lw	a5,-40(s0)
     c48:	e6f712e3          	bne	a4,a5,aac <eval+0x138>
     c4c:	0080006f          	j	c54 <eval+0x2e0>
     c50:	00000013          	nop
     c54:	fe842583          	lw	a1,-24(s0)
     c58:	fdc42503          	lw	a0,-36(s0)
     c5c:	d19ff0ef          	jal	ra,974 <eval>
     c60:	fea42223          	sw	a0,-28(s0)
     c64:	fe842783          	lw	a5,-24(s0)
     c68:	00178793          	addi	a5,a5,1
     c6c:	fd842583          	lw	a1,-40(s0)
     c70:	00078513          	mv	a0,a5
     c74:	d01ff0ef          	jal	ra,974 <eval>
     c78:	fea42023          	sw	a0,-32(s0)
     c7c:	00100697          	auipc	a3,0x100
     c80:	d7c68693          	addi	a3,a3,-644 # 1009f8 <tokens>
     c84:	fe842703          	lw	a4,-24(s0)
     c88:	00070793          	mv	a5,a4
     c8c:	00179793          	slli	a5,a5,0x1
     c90:	00e787b3          	add	a5,a5,a4
     c94:	00279793          	slli	a5,a5,0x2
     c98:	00f687b3          	add	a5,a3,a5
     c9c:	0047a783          	lw	a5,4(a5)
     ca0:	05e00713          	li	a4,94
     ca4:	04e78063          	beq	a5,a4,ce4 <eval+0x370>
     ca8:	05e00713          	li	a4,94
     cac:	08f74a63          	blt	a4,a5,d40 <eval+0x3cc>
     cb0:	02f00713          	li	a4,47
     cb4:	04e78c63          	beq	a5,a4,d0c <eval+0x398>
     cb8:	02f00713          	li	a4,47
     cbc:	08f74263          	blt	a4,a5,d40 <eval+0x3cc>
     cc0:	02d00713          	li	a4,45
     cc4:	06e78663          	beq	a5,a4,d30 <eval+0x3bc>
     cc8:	02d00713          	li	a4,45
     ccc:	06f74a63          	blt	a4,a5,d40 <eval+0x3cc>
     cd0:	02a00713          	li	a4,42
     cd4:	02e78263          	beq	a5,a4,cf8 <eval+0x384>
     cd8:	02b00713          	li	a4,43
     cdc:	04e78263          	beq	a5,a4,d20 <eval+0x3ac>
     ce0:	0600006f          	j	d40 <eval+0x3cc>
     ce4:	fe042583          	lw	a1,-32(s0)
     ce8:	fe442503          	lw	a0,-28(s0)
     cec:	c29ff0ef          	jal	ra,914 <ksm>
     cf0:	00050793          	mv	a5,a0
     cf4:	0500006f          	j	d44 <eval+0x3d0>
     cf8:	fe042583          	lw	a1,-32(s0)
     cfc:	fe442503          	lw	a0,-28(s0)
     d00:	7f4040ef          	jal	ra,54f4 <__mulsi3>
     d04:	00050793          	mv	a5,a0
     d08:	03c0006f          	j	d44 <eval+0x3d0>
     d0c:	fe042583          	lw	a1,-32(s0)
     d10:	fe442503          	lw	a0,-28(s0)
     d14:	1c5040ef          	jal	ra,56d8 <__divsi3>
     d18:	00050793          	mv	a5,a0
     d1c:	0280006f          	j	d44 <eval+0x3d0>
     d20:	fe442703          	lw	a4,-28(s0)
     d24:	fe042783          	lw	a5,-32(s0)
     d28:	00f707b3          	add	a5,a4,a5
     d2c:	0180006f          	j	d44 <eval+0x3d0>
     d30:	fe442703          	lw	a4,-28(s0)
     d34:	fe042783          	lw	a5,-32(s0)
     d38:	40f707b3          	sub	a5,a4,a5
     d3c:	0080006f          	j	d44 <eval+0x3d0>
     d40:	00000793          	li	a5,0
     d44:	00078513          	mv	a0,a5
     d48:	03c12083          	lw	ra,60(sp)
     d4c:	03812403          	lw	s0,56(sp)
     d50:	04010113          	addi	sp,sp,64
     d54:	00008067          	ret

00000d58 <parse>:
     d58:	fa010113          	addi	sp,sp,-96
     d5c:	04812e23          	sw	s0,92(sp)
     d60:	06010413          	addi	s0,sp,96
     d64:	faa42623          	sw	a0,-84(s0)
     d68:	fab42423          	sw	a1,-88(s0)
     d6c:	fe042623          	sw	zero,-20(s0)
     d70:	fe042423          	sw	zero,-24(s0)
     d74:	fac42783          	lw	a5,-84(s0)
     d78:	fef42223          	sw	a5,-28(s0)
     d7c:	1a80006f          	j	f24 <parse+0x1cc>
     d80:	fe442783          	lw	a5,-28(s0)
     d84:	0007c783          	lbu	a5,0(a5)
     d88:	fef401a3          	sb	a5,-29(s0)
     d8c:	fe344703          	lbu	a4,-29(s0)
     d90:	02f00793          	li	a5,47
     d94:	04e7f263          	bgeu	a5,a4,dd8 <parse+0x80>
     d98:	fe344703          	lbu	a4,-29(s0)
     d9c:	03900793          	li	a5,57
     da0:	02e7ec63          	bltu	a5,a4,dd8 <parse+0x80>
     da4:	fec42703          	lw	a4,-20(s0)
     da8:	00070793          	mv	a5,a4
     dac:	00279793          	slli	a5,a5,0x2
     db0:	00e787b3          	add	a5,a5,a4
     db4:	00179793          	slli	a5,a5,0x1
     db8:	00078713          	mv	a4,a5
     dbc:	fe344783          	lbu	a5,-29(s0)
     dc0:	00f707b3          	add	a5,a4,a5
     dc4:	fd078793          	addi	a5,a5,-48
     dc8:	fef42623          	sw	a5,-20(s0)
     dcc:	00100793          	li	a5,1
     dd0:	fef42423          	sw	a5,-24(s0)
     dd4:	1440006f          	j	f18 <parse+0x1c0>
     dd8:	fe842783          	lw	a5,-24(s0)
     ddc:	08078863          	beqz	a5,e6c <parse+0x114>
     de0:	00105797          	auipc	a5,0x105
     de4:	81c78793          	addi	a5,a5,-2020 # 1055fc <ntok>
     de8:	0007a703          	lw	a4,0(a5)
     dec:	00170693          	addi	a3,a4,1
     df0:	00105797          	auipc	a5,0x105
     df4:	80c78793          	addi	a5,a5,-2036 # 1055fc <ntok>
     df8:	00d7a023          	sw	a3,0(a5)
     dfc:	00100697          	auipc	a3,0x100
     e00:	bfc68693          	addi	a3,a3,-1028 # 1009f8 <tokens>
     e04:	00070793          	mv	a5,a4
     e08:	00179793          	slli	a5,a5,0x1
     e0c:	00e787b3          	add	a5,a5,a4
     e10:	00279793          	slli	a5,a5,0x2
     e14:	00f687b3          	add	a5,a3,a5
     e18:	0007a023          	sw	zero,0(a5)
     e1c:	00100697          	auipc	a3,0x100
     e20:	bdc68693          	addi	a3,a3,-1060 # 1009f8 <tokens>
     e24:	00070793          	mv	a5,a4
     e28:	00179793          	slli	a5,a5,0x1
     e2c:	00e787b3          	add	a5,a5,a4
     e30:	00279793          	slli	a5,a5,0x2
     e34:	00f687b3          	add	a5,a3,a5
     e38:	fff00693          	li	a3,-1
     e3c:	00d7a223          	sw	a3,4(a5)
     e40:	00100697          	auipc	a3,0x100
     e44:	bb868693          	addi	a3,a3,-1096 # 1009f8 <tokens>
     e48:	00070793          	mv	a5,a4
     e4c:	00179793          	slli	a5,a5,0x1
     e50:	00e787b3          	add	a5,a5,a4
     e54:	00279793          	slli	a5,a5,0x2
     e58:	00f687b3          	add	a5,a3,a5
     e5c:	fec42703          	lw	a4,-20(s0)
     e60:	00e7a423          	sw	a4,8(a5)
     e64:	fe042623          	sw	zero,-20(s0)
     e68:	fe042423          	sw	zero,-24(s0)
     e6c:	fe344703          	lbu	a4,-29(s0)
     e70:	02000793          	li	a5,32
     e74:	0af70263          	beq	a4,a5,f18 <parse+0x1c0>
     e78:	fe344703          	lbu	a4,-29(s0)
     e7c:	00a00793          	li	a5,10
     e80:	08f70c63          	beq	a4,a5,f18 <parse+0x1c0>
     e84:	fe344703          	lbu	a4,-29(s0)
     e88:	00900793          	li	a5,9
     e8c:	08f70663          	beq	a4,a5,f18 <parse+0x1c0>
     e90:	00104797          	auipc	a5,0x104
     e94:	76c78793          	addi	a5,a5,1900 # 1055fc <ntok>
     e98:	0007a703          	lw	a4,0(a5)
     e9c:	00170693          	addi	a3,a4,1
     ea0:	00104797          	auipc	a5,0x104
     ea4:	75c78793          	addi	a5,a5,1884 # 1055fc <ntok>
     ea8:	00d7a023          	sw	a3,0(a5)
     eac:	fe344683          	lbu	a3,-29(s0)
     eb0:	00100617          	auipc	a2,0x100
     eb4:	b4860613          	addi	a2,a2,-1208 # 1009f8 <tokens>
     eb8:	00070793          	mv	a5,a4
     ebc:	00179793          	slli	a5,a5,0x1
     ec0:	00e787b3          	add	a5,a5,a4
     ec4:	00279793          	slli	a5,a5,0x2
     ec8:	00f607b3          	add	a5,a2,a5
     ecc:	00100613          	li	a2,1
     ed0:	00c7a023          	sw	a2,0(a5)
     ed4:	00100617          	auipc	a2,0x100
     ed8:	b2460613          	addi	a2,a2,-1244 # 1009f8 <tokens>
     edc:	00070793          	mv	a5,a4
     ee0:	00179793          	slli	a5,a5,0x1
     ee4:	00e787b3          	add	a5,a5,a4
     ee8:	00279793          	slli	a5,a5,0x2
     eec:	00f607b3          	add	a5,a2,a5
     ef0:	00d7a223          	sw	a3,4(a5)
     ef4:	00100697          	auipc	a3,0x100
     ef8:	b0468693          	addi	a3,a3,-1276 # 1009f8 <tokens>
     efc:	00070793          	mv	a5,a4
     f00:	00179793          	slli	a5,a5,0x1
     f04:	00e787b3          	add	a5,a5,a4
     f08:	00279793          	slli	a5,a5,0x2
     f0c:	00f687b3          	add	a5,a3,a5
     f10:	fff00713          	li	a4,-1
     f14:	00e7a423          	sw	a4,8(a5)
     f18:	fe442783          	lw	a5,-28(s0)
     f1c:	00178793          	addi	a5,a5,1
     f20:	fef42223          	sw	a5,-28(s0)
     f24:	fa842783          	lw	a5,-88(s0)
     f28:	fac42703          	lw	a4,-84(s0)
     f2c:	00f707b3          	add	a5,a4,a5
     f30:	fe442703          	lw	a4,-28(s0)
     f34:	e4f716e3          	bne	a4,a5,d80 <parse+0x28>
     f38:	fe842783          	lw	a5,-24(s0)
     f3c:	08078463          	beqz	a5,fc4 <parse+0x26c>
     f40:	00104797          	auipc	a5,0x104
     f44:	6bc78793          	addi	a5,a5,1724 # 1055fc <ntok>
     f48:	0007a703          	lw	a4,0(a5)
     f4c:	00170693          	addi	a3,a4,1
     f50:	00104797          	auipc	a5,0x104
     f54:	6ac78793          	addi	a5,a5,1708 # 1055fc <ntok>
     f58:	00d7a023          	sw	a3,0(a5)
     f5c:	00100697          	auipc	a3,0x100
     f60:	a9c68693          	addi	a3,a3,-1380 # 1009f8 <tokens>
     f64:	00070793          	mv	a5,a4
     f68:	00179793          	slli	a5,a5,0x1
     f6c:	00e787b3          	add	a5,a5,a4
     f70:	00279793          	slli	a5,a5,0x2
     f74:	00f687b3          	add	a5,a3,a5
     f78:	0007a023          	sw	zero,0(a5)
     f7c:	00100697          	auipc	a3,0x100
     f80:	a7c68693          	addi	a3,a3,-1412 # 1009f8 <tokens>
     f84:	00070793          	mv	a5,a4
     f88:	00179793          	slli	a5,a5,0x1
     f8c:	00e787b3          	add	a5,a5,a4
     f90:	00279793          	slli	a5,a5,0x2
     f94:	00f687b3          	add	a5,a3,a5
     f98:	fff00693          	li	a3,-1
     f9c:	00d7a223          	sw	a3,4(a5)
     fa0:	00100697          	auipc	a3,0x100
     fa4:	a5868693          	addi	a3,a3,-1448 # 1009f8 <tokens>
     fa8:	00070793          	mv	a5,a4
     fac:	00179793          	slli	a5,a5,0x1
     fb0:	00e787b3          	add	a5,a5,a4
     fb4:	00279793          	slli	a5,a5,0x2
     fb8:	00f687b3          	add	a5,a3,a5
     fbc:	fec42703          	lw	a4,-20(s0)
     fc0:	00e7a423          	sw	a4,8(a5)
     fc4:	00000013          	nop
     fc8:	05c12403          	lw	s0,92(sp)
     fcc:	06010113          	addi	sp,sp,96
     fd0:	00008067          	ret

00000fd4 <exec_eval>:
     fd4:	fe010113          	addi	sp,sp,-32
     fd8:	00112e23          	sw	ra,28(sp)
     fdc:	00812c23          	sw	s0,24(sp)
     fe0:	02010413          	addi	s0,sp,32
     fe4:	fea42623          	sw	a0,-20(s0)
     fe8:	0100006f          	j	ff8 <exec_eval+0x24>
     fec:	fec42783          	lw	a5,-20(s0)
     ff0:	00178793          	addi	a5,a5,1
     ff4:	fef42623          	sw	a5,-20(s0)
     ff8:	fec42783          	lw	a5,-20(s0)
     ffc:	0007c703          	lbu	a4,0(a5)
    1000:	02000793          	li	a5,32
    1004:	fef704e3          	beq	a4,a5,fec <exec_eval+0x18>
    1008:	00104797          	auipc	a5,0x104
    100c:	5f478793          	addi	a5,a5,1524 # 1055fc <ntok>
    1010:	0007a023          	sw	zero,0(a5)
    1014:	fec42503          	lw	a0,-20(s0)
    1018:	2f4040ef          	jal	ra,530c <kstrlen>
    101c:	00050793          	mv	a5,a0
    1020:	00078593          	mv	a1,a5
    1024:	fec42503          	lw	a0,-20(s0)
    1028:	d31ff0ef          	jal	ra,d58 <parse>
    102c:	00104797          	auipc	a5,0x104
    1030:	5d078793          	addi	a5,a5,1488 # 1055fc <ntok>
    1034:	0007a783          	lw	a5,0(a5)
    1038:	00078593          	mv	a1,a5
    103c:	00000513          	li	a0,0
    1040:	935ff0ef          	jal	ra,974 <eval>
    1044:	00050793          	mv	a5,a0
    1048:	00078593          	mv	a1,a5
    104c:	000ff517          	auipc	a0,0xff
    1050:	fb450513          	addi	a0,a0,-76 # 100000 <_etext+0xfa0c8>
    1054:	10c040ef          	jal	ra,5160 <kprintf>
    1058:	00000013          	nop
    105c:	01c12083          	lw	ra,28(sp)
    1060:	01812403          	lw	s0,24(sp)
    1064:	02010113          	addi	sp,sp,32
    1068:	00008067          	ret

0000106c <exec_gtest>:
    106c:	fd010113          	addi	sp,sp,-48
    1070:	02112623          	sw	ra,44(sp)
    1074:	02812423          	sw	s0,40(sp)
    1078:	03010413          	addi	s0,sp,48
    107c:	fca42e23          	sw	a0,-36(s0)
    1080:	0d5040ef          	jal	ra,5954 <swtch>
    1084:	00ff07b7          	lui	a5,0xff0
    1088:	fef42623          	sw	a5,-20(s0)
    108c:	770040ef          	jal	ra,57fc <gettimeofday>
    1090:	fea42423          	sw	a0,-24(s0)
    1094:	00f00613          	li	a2,15
    1098:	00000593          	li	a1,0
    109c:	00000513          	li	a0,0
    10a0:	788040ef          	jal	ra,5828 <draw>
    10a4:	00f00613          	li	a2,15
    10a8:	00100593          	li	a1,1
    10ac:	00000513          	li	a0,0
    10b0:	778040ef          	jal	ra,5828 <draw>
    10b4:	00f00613          	li	a2,15
    10b8:	00200593          	li	a1,2
    10bc:	00000513          	li	a0,0
    10c0:	768040ef          	jal	ra,5828 <draw>
    10c4:	00f00613          	li	a2,15
    10c8:	00300593          	li	a1,3
    10cc:	00000513          	li	a0,0
    10d0:	758040ef          	jal	ra,5828 <draw>
    10d4:	00f00613          	li	a2,15
    10d8:	00000593          	li	a1,0
    10dc:	00100513          	li	a0,1
    10e0:	748040ef          	jal	ra,5828 <draw>
    10e4:	00f00613          	li	a2,15
    10e8:	00100593          	li	a1,1
    10ec:	00100513          	li	a0,1
    10f0:	738040ef          	jal	ra,5828 <draw>
    10f4:	00f00613          	li	a2,15
    10f8:	00200593          	li	a1,2
    10fc:	00100513          	li	a0,1
    1100:	728040ef          	jal	ra,5828 <draw>
    1104:	00f00613          	li	a2,15
    1108:	00300593          	li	a1,3
    110c:	00100513          	li	a0,1
    1110:	718040ef          	jal	ra,5828 <draw>
    1114:	00f00613          	li	a2,15
    1118:	00000593          	li	a1,0
    111c:	00200513          	li	a0,2
    1120:	708040ef          	jal	ra,5828 <draw>
    1124:	00f00613          	li	a2,15
    1128:	00100593          	li	a1,1
    112c:	00200513          	li	a0,2
    1130:	6f8040ef          	jal	ra,5828 <draw>
    1134:	00f00613          	li	a2,15
    1138:	00200593          	li	a1,2
    113c:	00200513          	li	a0,2
    1140:	6e8040ef          	jal	ra,5828 <draw>
    1144:	00f00613          	li	a2,15
    1148:	00300593          	li	a1,3
    114c:	00200513          	li	a0,2
    1150:	6d8040ef          	jal	ra,5828 <draw>
    1154:	00f00613          	li	a2,15
    1158:	00000593          	li	a1,0
    115c:	00300513          	li	a0,3
    1160:	6c8040ef          	jal	ra,5828 <draw>
    1164:	00f00613          	li	a2,15
    1168:	00100593          	li	a1,1
    116c:	00300513          	li	a0,3
    1170:	6b8040ef          	jal	ra,5828 <draw>
    1174:	00f00613          	li	a2,15
    1178:	00200593          	li	a1,2
    117c:	00300513          	li	a0,3
    1180:	6a8040ef          	jal	ra,5828 <draw>
    1184:	00f00613          	li	a2,15
    1188:	00300593          	li	a1,3
    118c:	00300513          	li	a0,3
    1190:	698040ef          	jal	ra,5828 <draw>
    1194:	00f00613          	li	a2,15
    1198:	00000593          	li	a1,0
    119c:	00400513          	li	a0,4
    11a0:	688040ef          	jal	ra,5828 <draw>
    11a4:	00f00613          	li	a2,15
    11a8:	00100593          	li	a1,1
    11ac:	00400513          	li	a0,4
    11b0:	678040ef          	jal	ra,5828 <draw>
    11b4:	00f00613          	li	a2,15
    11b8:	00200593          	li	a1,2
    11bc:	00400513          	li	a0,4
    11c0:	668040ef          	jal	ra,5828 <draw>
    11c4:	00f00613          	li	a2,15
    11c8:	00300593          	li	a1,3
    11cc:	00400513          	li	a0,4
    11d0:	658040ef          	jal	ra,5828 <draw>
    11d4:	00f00613          	li	a2,15
    11d8:	00000593          	li	a1,0
    11dc:	00500513          	li	a0,5
    11e0:	648040ef          	jal	ra,5828 <draw>
    11e4:	00f00613          	li	a2,15
    11e8:	00100593          	li	a1,1
    11ec:	00500513          	li	a0,5
    11f0:	638040ef          	jal	ra,5828 <draw>
    11f4:	00f00613          	li	a2,15
    11f8:	00200593          	li	a1,2
    11fc:	00500513          	li	a0,5
    1200:	628040ef          	jal	ra,5828 <draw>
    1204:	00f00613          	li	a2,15
    1208:	00300593          	li	a1,3
    120c:	00500513          	li	a0,5
    1210:	618040ef          	jal	ra,5828 <draw>
    1214:	fe042223          	sw	zero,-28(s0)
    1218:	fe042023          	sw	zero,-32(s0)
    121c:	4ed040ef          	jal	ra,5f08 <readkey>
    1220:	00050793          	mv	a5,a0
    1224:	00078663          	beqz	a5,1230 <exec_gtest+0x1c4>
    1228:	72c040ef          	jal	ra,5954 <swtch>
    122c:	08c0006f          	j	12b8 <exec_gtest+0x24c>
    1230:	5cc040ef          	jal	ra,57fc <gettimeofday>
    1234:	00050713          	mv	a4,a0
    1238:	fe842783          	lw	a5,-24(s0)
    123c:	40f70733          	sub	a4,a4,a5
    1240:	000027b7          	lui	a5,0x2
    1244:	71078793          	addi	a5,a5,1808 # 2710 <core_list_mergesort+0x1f0>
    1248:	04e7fe63          	bgeu	a5,a4,12a4 <exec_gtest+0x238>
    124c:	5b0040ef          	jal	ra,57fc <gettimeofday>
    1250:	fea42423          	sw	a0,-24(s0)
    1254:	fec42703          	lw	a4,-20(s0)
    1258:	00f00793          	li	a5,15
    125c:	00f71a63          	bne	a4,a5,1270 <exec_gtest+0x204>
    1260:	000017b7          	lui	a5,0x1
    1264:	f0078793          	addi	a5,a5,-256 # f00 <parse+0x1a8>
    1268:	fef42623          	sw	a5,-20(s0)
    126c:	0100006f          	j	127c <exec_gtest+0x210>
    1270:	fec42783          	lw	a5,-20(s0)
    1274:	0047d793          	srli	a5,a5,0x4
    1278:	fef42623          	sw	a5,-20(s0)
    127c:	fe042783          	lw	a5,-32(s0)
    1280:	00178793          	addi	a5,a5,1
    1284:	07f7f793          	andi	a5,a5,127
    1288:	fef42023          	sw	a5,-32(s0)
    128c:	fe042783          	lw	a5,-32(s0)
    1290:	00079a63          	bnez	a5,12a4 <exec_gtest+0x238>
    1294:	fe442783          	lw	a5,-28(s0)
    1298:	00178793          	addi	a5,a5,1
    129c:	07f7f793          	andi	a5,a5,127
    12a0:	fef42223          	sw	a5,-28(s0)
    12a4:	fec42603          	lw	a2,-20(s0)
    12a8:	fe042583          	lw	a1,-32(s0)
    12ac:	fe442503          	lw	a0,-28(s0)
    12b0:	578040ef          	jal	ra,5828 <draw>
    12b4:	f69ff06f          	j	121c <exec_gtest+0x1b0>
    12b8:	02c12083          	lw	ra,44(sp)
    12bc:	02812403          	lw	s0,40(sp)
    12c0:	03010113          	addi	sp,sp,48
    12c4:	00008067          	ret

000012c8 <pixel>:
    12c8:	fe010113          	addi	sp,sp,-32
    12cc:	00812e23          	sw	s0,28(sp)
    12d0:	02010413          	addi	s0,sp,32
    12d4:	fea42623          	sw	a0,-20(s0)
    12d8:	feb42423          	sw	a1,-24(s0)
    12dc:	fec42223          	sw	a2,-28(s0)
    12e0:	fec42783          	lw	a5,-20(s0)
    12e4:	01079713          	slli	a4,a5,0x10
    12e8:	fe842783          	lw	a5,-24(s0)
    12ec:	00879793          	slli	a5,a5,0x8
    12f0:	00f76733          	or	a4,a4,a5
    12f4:	fe442783          	lw	a5,-28(s0)
    12f8:	00f767b3          	or	a5,a4,a5
    12fc:	00078513          	mv	a0,a5
    1300:	01c12403          	lw	s0,28(sp)
    1304:	02010113          	addi	sp,sp,32
    1308:	00008067          	ret

0000130c <R>:
    130c:	fe010113          	addi	sp,sp,-32
    1310:	00812e23          	sw	s0,28(sp)
    1314:	02010413          	addi	s0,sp,32
    1318:	fea42623          	sw	a0,-20(s0)
    131c:	fec42783          	lw	a5,-20(s0)
    1320:	0107d793          	srli	a5,a5,0x10
    1324:	00078513          	mv	a0,a5
    1328:	01c12403          	lw	s0,28(sp)
    132c:	02010113          	addi	sp,sp,32
    1330:	00008067          	ret

00001334 <G>:
    1334:	fe010113          	addi	sp,sp,-32
    1338:	00812e23          	sw	s0,28(sp)
    133c:	02010413          	addi	s0,sp,32
    1340:	fea42623          	sw	a0,-20(s0)
    1344:	fec42783          	lw	a5,-20(s0)
    1348:	0087d793          	srli	a5,a5,0x8
    134c:	0ff7f793          	andi	a5,a5,255
    1350:	00078513          	mv	a0,a5
    1354:	01c12403          	lw	s0,28(sp)
    1358:	02010113          	addi	sp,sp,32
    135c:	00008067          	ret

00001360 <B>:
    1360:	fe010113          	addi	sp,sp,-32
    1364:	00812e23          	sw	s0,28(sp)
    1368:	02010413          	addi	s0,sp,32
    136c:	fea42623          	sw	a0,-20(s0)
    1370:	fec42783          	lw	a5,-20(s0)
    1374:	0ff7f793          	andi	a5,a5,255
    1378:	00078513          	mv	a0,a5
    137c:	01c12403          	lw	s0,28(sp)
    1380:	02010113          	addi	sp,sp,32
    1384:	00008067          	ret

00001388 <convert>:
    1388:	fd010113          	addi	sp,sp,-48
    138c:	02112623          	sw	ra,44(sp)
    1390:	02812423          	sw	s0,40(sp)
    1394:	03010413          	addi	s0,sp,48
    1398:	fca42e23          	sw	a0,-36(s0)
    139c:	fdc42503          	lw	a0,-36(s0)
    13a0:	f6dff0ef          	jal	ra,130c <R>
    13a4:	00050793          	mv	a5,a0
    13a8:	0047d793          	srli	a5,a5,0x4
    13ac:	fef42623          	sw	a5,-20(s0)
    13b0:	fdc42503          	lw	a0,-36(s0)
    13b4:	f81ff0ef          	jal	ra,1334 <G>
    13b8:	00050793          	mv	a5,a0
    13bc:	0047d793          	srli	a5,a5,0x4
    13c0:	fef42423          	sw	a5,-24(s0)
    13c4:	fdc42503          	lw	a0,-36(s0)
    13c8:	f99ff0ef          	jal	ra,1360 <B>
    13cc:	00050793          	mv	a5,a0
    13d0:	0047d793          	srli	a5,a5,0x4
    13d4:	fef42223          	sw	a5,-28(s0)
    13d8:	fec42783          	lw	a5,-20(s0)
    13dc:	00879713          	slli	a4,a5,0x8
    13e0:	fe842783          	lw	a5,-24(s0)
    13e4:	00479793          	slli	a5,a5,0x4
    13e8:	00f76733          	or	a4,a4,a5
    13ec:	fe442783          	lw	a5,-28(s0)
    13f0:	00f767b3          	or	a5,a4,a5
    13f4:	00078513          	mv	a0,a5
    13f8:	02c12083          	lw	ra,44(sp)
    13fc:	02812403          	lw	s0,40(sp)
    1400:	03010113          	addi	sp,sp,48
    1404:	00008067          	ret

00001408 <redraw>:
    1408:	fd010113          	addi	sp,sp,-48
    140c:	02112623          	sw	ra,44(sp)
    1410:	02812423          	sw	s0,40(sp)
    1414:	02912223          	sw	s1,36(sp)
    1418:	03010413          	addi	s0,sp,48
    141c:	00500793          	li	a5,5
    1420:	fef42023          	sw	a5,-32(s0)
    1424:	00400793          	li	a5,4
    1428:	fcf42e23          	sw	a5,-36(s0)
    142c:	fdc42583          	lw	a1,-36(s0)
    1430:	fe042503          	lw	a0,-32(s0)
    1434:	0c0040ef          	jal	ra,54f4 <__mulsi3>
    1438:	00050793          	mv	a5,a0
    143c:	fcf42c23          	sw	a5,-40(s0)
    1440:	fe042423          	sw	zero,-24(s0)
    1444:	0d80006f          	j	151c <redraw+0x114>
    1448:	fe042623          	sw	zero,-20(s0)
    144c:	0b80006f          	j	1504 <redraw+0xfc>
    1450:	fe042223          	sw	zero,-28(s0)
    1454:	0580006f          	j	14ac <redraw+0xa4>
    1458:	00100717          	auipc	a4,0x100
    145c:	19470713          	addi	a4,a4,404 # 1015ec <canvas>
    1460:	fe842783          	lw	a5,-24(s0)
    1464:	00579693          	slli	a3,a5,0x5
    1468:	fec42783          	lw	a5,-20(s0)
    146c:	00f687b3          	add	a5,a3,a5
    1470:	00279793          	slli	a5,a5,0x2
    1474:	00f707b3          	add	a5,a4,a5
    1478:	0007a783          	lw	a5,0(a5)
    147c:	00078513          	mv	a0,a5
    1480:	f09ff0ef          	jal	ra,1388 <convert>
    1484:	00050693          	mv	a3,a0
    1488:	00102717          	auipc	a4,0x102
    148c:	16470713          	addi	a4,a4,356 # 1035ec <color_buf>
    1490:	fe442783          	lw	a5,-28(s0)
    1494:	00279793          	slli	a5,a5,0x2
    1498:	00f707b3          	add	a5,a4,a5
    149c:	00d7a023          	sw	a3,0(a5)
    14a0:	fe442783          	lw	a5,-28(s0)
    14a4:	00178793          	addi	a5,a5,1
    14a8:	fef42223          	sw	a5,-28(s0)
    14ac:	fe442703          	lw	a4,-28(s0)
    14b0:	fd842783          	lw	a5,-40(s0)
    14b4:	faf742e3          	blt	a4,a5,1458 <redraw+0x50>
    14b8:	fe042583          	lw	a1,-32(s0)
    14bc:	fec42503          	lw	a0,-20(s0)
    14c0:	034040ef          	jal	ra,54f4 <__mulsi3>
    14c4:	00050793          	mv	a5,a0
    14c8:	00078493          	mv	s1,a5
    14cc:	fdc42583          	lw	a1,-36(s0)
    14d0:	fe842503          	lw	a0,-24(s0)
    14d4:	020040ef          	jal	ra,54f4 <__mulsi3>
    14d8:	00050793          	mv	a5,a0
    14dc:	fdc42703          	lw	a4,-36(s0)
    14e0:	fe042683          	lw	a3,-32(s0)
    14e4:	00102617          	auipc	a2,0x102
    14e8:	10860613          	addi	a2,a2,264 # 1035ec <color_buf>
    14ec:	00078593          	mv	a1,a5
    14f0:	00048513          	mv	a0,s1
    14f4:	380040ef          	jal	ra,5874 <draw_rect>
    14f8:	fec42783          	lw	a5,-20(s0)
    14fc:	00178793          	addi	a5,a5,1
    1500:	fef42623          	sw	a5,-20(s0)
    1504:	fec42703          	lw	a4,-20(s0)
    1508:	01f00793          	li	a5,31
    150c:	f4e7d2e3          	bge	a5,a4,1450 <redraw+0x48>
    1510:	fe842783          	lw	a5,-24(s0)
    1514:	00178793          	addi	a5,a5,1
    1518:	fef42423          	sw	a5,-24(s0)
    151c:	fe842703          	lw	a4,-24(s0)
    1520:	01f00793          	li	a5,31
    1524:	f2e7d2e3          	bge	a5,a4,1448 <redraw+0x40>
    1528:	00000013          	nop
    152c:	00000013          	nop
    1530:	02c12083          	lw	ra,44(sp)
    1534:	02812403          	lw	s0,40(sp)
    1538:	02412483          	lw	s1,36(sp)
    153c:	03010113          	addi	sp,sp,48
    1540:	00008067          	ret

00001544 <p>:
    1544:	fd010113          	addi	sp,sp,-48
    1548:	02112623          	sw	ra,44(sp)
    154c:	02812423          	sw	s0,40(sp)
    1550:	03010413          	addi	s0,sp,48
    1554:	fca42e23          	sw	a0,-36(s0)
    1558:	fdc42783          	lw	a5,-36(s0)
    155c:	0ff7f793          	andi	a5,a5,255
    1560:	fef42623          	sw	a5,-20(s0)
    1564:	fec42703          	lw	a4,-20(s0)
    1568:	00070793          	mv	a5,a4
    156c:	00179793          	slli	a5,a5,0x1
    1570:	00e787b3          	add	a5,a5,a4
    1574:	00179793          	slli	a5,a5,0x1
    1578:	00078693          	mv	a3,a5
    157c:	fec42703          	lw	a4,-20(s0)
    1580:	00070793          	mv	a5,a4
    1584:	00379793          	slli	a5,a5,0x3
    1588:	40e787b3          	sub	a5,a5,a4
    158c:	fec42603          	lw	a2,-20(s0)
    1590:	00078593          	mv	a1,a5
    1594:	00068513          	mv	a0,a3
    1598:	d31ff0ef          	jal	ra,12c8 <pixel>
    159c:	00050793          	mv	a5,a0
    15a0:	00078513          	mv	a0,a5
    15a4:	02c12083          	lw	ra,44(sp)
    15a8:	02812403          	lw	s0,40(sp)
    15ac:	03010113          	addi	sp,sp,48
    15b0:	00008067          	ret

000015b4 <update>:
    15b4:	fc010113          	addi	sp,sp,-64
    15b8:	02112e23          	sw	ra,60(sp)
    15bc:	02812c23          	sw	s0,56(sp)
    15c0:	04010413          	addi	s0,sp,64
    15c4:	00103797          	auipc	a5,0x103
    15c8:	02878793          	addi	a5,a5,40 # 1045ec <tsc.2>
    15cc:	0007a783          	lw	a5,0(a5)
    15d0:	00178713          	addi	a4,a5,1
    15d4:	00103797          	auipc	a5,0x103
    15d8:	01878793          	addi	a5,a5,24 # 1045ec <tsc.2>
    15dc:	00e7a023          	sw	a4,0(a5)
    15e0:	fe042623          	sw	zero,-20(s0)
    15e4:	0540006f          	j	1638 <update+0x84>
    15e8:	fe042423          	sw	zero,-24(s0)
    15ec:	0340006f          	j	1620 <update+0x6c>
    15f0:	00101717          	auipc	a4,0x101
    15f4:	ffc70713          	addi	a4,a4,-4 # 1025ec <used>
    15f8:	fec42783          	lw	a5,-20(s0)
    15fc:	00579693          	slli	a3,a5,0x5
    1600:	fe842783          	lw	a5,-24(s0)
    1604:	00f687b3          	add	a5,a3,a5
    1608:	00279793          	slli	a5,a5,0x2
    160c:	00f707b3          	add	a5,a4,a5
    1610:	0007a023          	sw	zero,0(a5)
    1614:	fe842783          	lw	a5,-24(s0)
    1618:	00178793          	addi	a5,a5,1
    161c:	fef42423          	sw	a5,-24(s0)
    1620:	fe842703          	lw	a4,-24(s0)
    1624:	01f00793          	li	a5,31
    1628:	fce7d4e3          	bge	a5,a4,15f0 <update+0x3c>
    162c:	fec42783          	lw	a5,-20(s0)
    1630:	00178793          	addi	a5,a5,1
    1634:	fef42623          	sw	a5,-20(s0)
    1638:	fec42703          	lw	a4,-20(s0)
    163c:	01f00793          	li	a5,31
    1640:	fae7d4e3          	bge	a5,a4,15e8 <update+0x34>
    1644:	00103797          	auipc	a5,0x103
    1648:	fa878793          	addi	a5,a5,-88 # 1045ec <tsc.2>
    164c:	0007a783          	lw	a5,0(a5)
    1650:	fcf42823          	sw	a5,-48(s0)
    1654:	fd042503          	lw	a0,-48(s0)
    1658:	eedff0ef          	jal	ra,1544 <p>
    165c:	00050713          	mv	a4,a0
    1660:	00100797          	auipc	a5,0x100
    1664:	f8c78793          	addi	a5,a5,-116 # 1015ec <canvas>
    1668:	00e7a023          	sw	a4,0(a5)
    166c:	00101797          	auipc	a5,0x101
    1670:	f8078793          	addi	a5,a5,-128 # 1025ec <used>
    1674:	00100713          	li	a4,1
    1678:	00e7a023          	sw	a4,0(a5)
    167c:	fe042223          	sw	zero,-28(s0)
    1680:	fe042023          	sw	zero,-32(s0)
    1684:	fc042e23          	sw	zero,-36(s0)
    1688:	00100793          	li	a5,1
    168c:	fcf42c23          	sw	a5,-40(s0)
    1690:	1700006f          	j	1800 <update+0x24c>
    1694:	fc042a23          	sw	zero,-44(s0)
    1698:	1500006f          	j	17e8 <update+0x234>
    169c:	000ff717          	auipc	a4,0xff
    16a0:	2ac70713          	addi	a4,a4,684 # 100948 <dx.1>
    16a4:	fdc42783          	lw	a5,-36(s0)
    16a8:	00279793          	slli	a5,a5,0x2
    16ac:	00f707b3          	add	a5,a4,a5
    16b0:	0007a783          	lw	a5,0(a5)
    16b4:	fe442703          	lw	a4,-28(s0)
    16b8:	00f707b3          	add	a5,a4,a5
    16bc:	fcf42623          	sw	a5,-52(s0)
    16c0:	000ff717          	auipc	a4,0xff
    16c4:	29870713          	addi	a4,a4,664 # 100958 <dy.0>
    16c8:	fdc42783          	lw	a5,-36(s0)
    16cc:	00279793          	slli	a5,a5,0x2
    16d0:	00f707b3          	add	a5,a4,a5
    16d4:	0007a783          	lw	a5,0(a5)
    16d8:	fe042703          	lw	a4,-32(s0)
    16dc:	00f707b3          	add	a5,a4,a5
    16e0:	fcf42423          	sw	a5,-56(s0)
    16e4:	fcc42783          	lw	a5,-52(s0)
    16e8:	0c07ca63          	bltz	a5,17bc <update+0x208>
    16ec:	fcc42703          	lw	a4,-52(s0)
    16f0:	01f00793          	li	a5,31
    16f4:	0ce7c463          	blt	a5,a4,17bc <update+0x208>
    16f8:	fc842783          	lw	a5,-56(s0)
    16fc:	0c07c063          	bltz	a5,17bc <update+0x208>
    1700:	fc842703          	lw	a4,-56(s0)
    1704:	01f00793          	li	a5,31
    1708:	0ae7ca63          	blt	a5,a4,17bc <update+0x208>
    170c:	00101717          	auipc	a4,0x101
    1710:	ee070713          	addi	a4,a4,-288 # 1025ec <used>
    1714:	fcc42783          	lw	a5,-52(s0)
    1718:	00579693          	slli	a3,a5,0x5
    171c:	fc842783          	lw	a5,-56(s0)
    1720:	00f687b3          	add	a5,a3,a5
    1724:	00279793          	slli	a5,a5,0x2
    1728:	00f707b3          	add	a5,a4,a5
    172c:	0007a783          	lw	a5,0(a5)
    1730:	08079663          	bnez	a5,17bc <update+0x208>
    1734:	fcc42783          	lw	a5,-52(s0)
    1738:	fef42223          	sw	a5,-28(s0)
    173c:	fc842783          	lw	a5,-56(s0)
    1740:	fef42023          	sw	a5,-32(s0)
    1744:	00101717          	auipc	a4,0x101
    1748:	ea870713          	addi	a4,a4,-344 # 1025ec <used>
    174c:	fe442783          	lw	a5,-28(s0)
    1750:	00579693          	slli	a3,a5,0x5
    1754:	fe042783          	lw	a5,-32(s0)
    1758:	00f687b3          	add	a5,a3,a5
    175c:	00279793          	slli	a5,a5,0x2
    1760:	00f707b3          	add	a5,a4,a5
    1764:	00100713          	li	a4,1
    1768:	00e7a023          	sw	a4,0(a5)
    176c:	fd842783          	lw	a5,-40(s0)
    1770:	01f7d713          	srli	a4,a5,0x1f
    1774:	00f707b3          	add	a5,a4,a5
    1778:	4017d793          	srai	a5,a5,0x1
    177c:	00078713          	mv	a4,a5
    1780:	fd042783          	lw	a5,-48(s0)
    1784:	00f707b3          	add	a5,a4,a5
    1788:	00078513          	mv	a0,a5
    178c:	db9ff0ef          	jal	ra,1544 <p>
    1790:	00050613          	mv	a2,a0
    1794:	00100717          	auipc	a4,0x100
    1798:	e5870713          	addi	a4,a4,-424 # 1015ec <canvas>
    179c:	fe442783          	lw	a5,-28(s0)
    17a0:	00579693          	slli	a3,a5,0x5
    17a4:	fe042783          	lw	a5,-32(s0)
    17a8:	00f687b3          	add	a5,a3,a5
    17ac:	00279793          	slli	a5,a5,0x2
    17b0:	00f707b3          	add	a5,a4,a5
    17b4:	00c7a023          	sw	a2,0(a5)
    17b8:	03c0006f          	j	17f4 <update+0x240>
    17bc:	fdc42783          	lw	a5,-36(s0)
    17c0:	00178713          	addi	a4,a5,1
    17c4:	41f75793          	srai	a5,a4,0x1f
    17c8:	01e7d793          	srli	a5,a5,0x1e
    17cc:	00f70733          	add	a4,a4,a5
    17d0:	00377713          	andi	a4,a4,3
    17d4:	40f707b3          	sub	a5,a4,a5
    17d8:	fcf42e23          	sw	a5,-36(s0)
    17dc:	fd442783          	lw	a5,-44(s0)
    17e0:	00178793          	addi	a5,a5,1
    17e4:	fcf42a23          	sw	a5,-44(s0)
    17e8:	fd442703          	lw	a4,-44(s0)
    17ec:	00300793          	li	a5,3
    17f0:	eae7d6e3          	bge	a5,a4,169c <update+0xe8>
    17f4:	fd842783          	lw	a5,-40(s0)
    17f8:	00178793          	addi	a5,a5,1
    17fc:	fcf42c23          	sw	a5,-40(s0)
    1800:	fd842703          	lw	a4,-40(s0)
    1804:	3ff00793          	li	a5,1023
    1808:	e8e7d6e3          	bge	a5,a4,1694 <update+0xe0>
    180c:	00000013          	nop
    1810:	00000013          	nop
    1814:	03c12083          	lw	ra,60(sp)
    1818:	03812403          	lw	s0,56(sp)
    181c:	04010113          	addi	sp,sp,64
    1820:	00008067          	ret

00001824 <exec_vtest>:
    1824:	fd010113          	addi	sp,sp,-48
    1828:	02112623          	sw	ra,44(sp)
    182c:	02812423          	sw	s0,40(sp)
    1830:	03010413          	addi	s0,sp,48
    1834:	fca42e23          	sw	a0,-36(s0)
    1838:	11c040ef          	jal	ra,5954 <swtch>
    183c:	fe042623          	sw	zero,-20(s0)
    1840:	fe042423          	sw	zero,-24(s0)
    1844:	fe042223          	sw	zero,-28(s0)
    1848:	7b5030ef          	jal	ra,57fc <gettimeofday>
    184c:	00050793          	mv	a5,a0
    1850:	3e800593          	li	a1,1000
    1854:	00078513          	mv	a0,a5
    1858:	5c5030ef          	jal	ra,561c <__udivsi3>
    185c:	00050793          	mv	a5,a0
    1860:	fef42023          	sw	a5,-32(s0)
    1864:	6a4040ef          	jal	ra,5f08 <readkey>
    1868:	00050793          	mv	a5,a0
    186c:	00078663          	beqz	a5,1878 <exec_vtest+0x54>
    1870:	0e4040ef          	jal	ra,5954 <swtch>
    1874:	0580006f          	j	18cc <exec_vtest+0xa8>
    1878:	fe042703          	lw	a4,-32(s0)
    187c:	fec42783          	lw	a5,-20(s0)
    1880:	40f70733          	sub	a4,a4,a5
    1884:	04200793          	li	a5,66
    1888:	02e7f063          	bgeu	a5,a4,18a8 <exec_vtest+0x84>
    188c:	d29ff0ef          	jal	ra,15b4 <update>
    1890:	b79ff0ef          	jal	ra,1408 <redraw>
    1894:	fe042783          	lw	a5,-32(s0)
    1898:	fef42623          	sw	a5,-20(s0)
    189c:	fe442783          	lw	a5,-28(s0)
    18a0:	00178793          	addi	a5,a5,1
    18a4:	fef42223          	sw	a5,-28(s0)
    18a8:	fe042703          	lw	a4,-32(s0)
    18ac:	fe842783          	lw	a5,-24(s0)
    18b0:	40f70733          	sub	a4,a4,a5
    18b4:	3e800793          	li	a5,1000
    18b8:	f8e7f8e3          	bgeu	a5,a4,1848 <exec_vtest+0x24>
    18bc:	fe042783          	lw	a5,-32(s0)
    18c0:	fef42423          	sw	a5,-24(s0)
    18c4:	fe042223          	sw	zero,-28(s0)
    18c8:	f81ff06f          	j	1848 <exec_vtest+0x24>
    18cc:	02c12083          	lw	ra,44(sp)
    18d0:	02812403          	lw	s0,40(sp)
    18d4:	03010113          	addi	sp,sp,48
    18d8:	00008067          	ret

000018dc <calc_func>:
    18dc:	fd010113          	addi	sp,sp,-48
    18e0:	02112623          	sw	ra,44(sp)
    18e4:	02812423          	sw	s0,40(sp)
    18e8:	03010413          	addi	s0,sp,48
    18ec:	fca42e23          	sw	a0,-36(s0)
    18f0:	fcb42c23          	sw	a1,-40(s0)
    18f4:	fdc42783          	lw	a5,-36(s0)
    18f8:	0007d783          	lhu	a5,0(a5)
    18fc:	fef41523          	sh	a5,-22(s0)
    1900:	fea41783          	lh	a5,-22(s0)
    1904:	4077d793          	srai	a5,a5,0x7
    1908:	01079793          	slli	a5,a5,0x10
    190c:	4107d793          	srai	a5,a5,0x10
    1910:	0ff7f793          	andi	a5,a5,255
    1914:	0017f793          	andi	a5,a5,1
    1918:	fef404a3          	sb	a5,-23(s0)
    191c:	fe944783          	lbu	a5,-23(s0)
    1920:	00078c63          	beqz	a5,1938 <calc_func+0x5c>
    1924:	fea45783          	lhu	a5,-22(s0)
    1928:	07f7f793          	andi	a5,a5,127
    192c:	01079793          	slli	a5,a5,0x10
    1930:	4107d793          	srai	a5,a5,0x10
    1934:	18c0006f          	j	1ac0 <calc_func+0x1e4>
    1938:	fea45783          	lhu	a5,-22(s0)
    193c:	0077f793          	andi	a5,a5,7
    1940:	fef41323          	sh	a5,-26(s0)
    1944:	fea41783          	lh	a5,-22(s0)
    1948:	4037d793          	srai	a5,a5,0x3
    194c:	01079793          	slli	a5,a5,0x10
    1950:	4107d793          	srai	a5,a5,0x10
    1954:	00f7f793          	andi	a5,a5,15
    1958:	fef41623          	sh	a5,-20(s0)
    195c:	fec41783          	lh	a5,-20(s0)
    1960:	00479793          	slli	a5,a5,0x4
    1964:	01079713          	slli	a4,a5,0x10
    1968:	41075713          	srai	a4,a4,0x10
    196c:	fec45783          	lhu	a5,-20(s0)
    1970:	00f767b3          	or	a5,a4,a5
    1974:	fef41623          	sh	a5,-20(s0)
    1978:	fe641783          	lh	a5,-26(s0)
    197c:	00078863          	beqz	a5,198c <calc_func+0xb0>
    1980:	00100713          	li	a4,1
    1984:	06e78863          	beq	a5,a4,19f4 <calc_func+0x118>
    1988:	0b40006f          	j	1a3c <calc_func+0x160>
    198c:	fec41703          	lh	a4,-20(s0)
    1990:	02100793          	li	a5,33
    1994:	00e7c663          	blt	a5,a4,19a0 <calc_func+0xc4>
    1998:	02200793          	li	a5,34
    199c:	fef41623          	sh	a5,-20(s0)
    19a0:	fd842783          	lw	a5,-40(s0)
    19a4:	0187a503          	lw	a0,24(a5)
    19a8:	fd842783          	lw	a5,-40(s0)
    19ac:	0147a583          	lw	a1,20(a5)
    19b0:	fd842783          	lw	a5,-40(s0)
    19b4:	00079603          	lh	a2,0(a5)
    19b8:	fd842783          	lw	a5,-40(s0)
    19bc:	00279683          	lh	a3,2(a5)
    19c0:	fd842783          	lw	a5,-40(s0)
    19c4:	0387d783          	lhu	a5,56(a5)
    19c8:	fec41703          	lh	a4,-20(s0)
    19cc:	201020ef          	jal	ra,43cc <core_bench_state>
    19d0:	00050793          	mv	a5,a0
    19d4:	fef41723          	sh	a5,-18(s0)
    19d8:	fd842783          	lw	a5,-40(s0)
    19dc:	03e7d783          	lhu	a5,62(a5)
    19e0:	06079463          	bnez	a5,1a48 <calc_func+0x16c>
    19e4:	fee45703          	lhu	a4,-18(s0)
    19e8:	fd842783          	lw	a5,-40(s0)
    19ec:	02e79f23          	sh	a4,62(a5)
    19f0:	0580006f          	j	1a48 <calc_func+0x16c>
    19f4:	fd842783          	lw	a5,-40(s0)
    19f8:	02878713          	addi	a4,a5,40
    19fc:	fd842783          	lw	a5,-40(s0)
    1a00:	0387d683          	lhu	a3,56(a5)
    1a04:	fec41783          	lh	a5,-20(s0)
    1a08:	00068613          	mv	a2,a3
    1a0c:	00078593          	mv	a1,a5
    1a10:	00070513          	mv	a0,a4
    1a14:	3f1010ef          	jal	ra,3604 <core_bench_matrix>
    1a18:	00050793          	mv	a5,a0
    1a1c:	fef41723          	sh	a5,-18(s0)
    1a20:	fd842783          	lw	a5,-40(s0)
    1a24:	03c7d783          	lhu	a5,60(a5)
    1a28:	02079463          	bnez	a5,1a50 <calc_func+0x174>
    1a2c:	fee45703          	lhu	a4,-18(s0)
    1a30:	fd842783          	lw	a5,-40(s0)
    1a34:	02e79e23          	sh	a4,60(a5)
    1a38:	0180006f          	j	1a50 <calc_func+0x174>
    1a3c:	fea45783          	lhu	a5,-22(s0)
    1a40:	fef41723          	sh	a5,-18(s0)
    1a44:	0100006f          	j	1a54 <calc_func+0x178>
    1a48:	00000013          	nop
    1a4c:	0080006f          	j	1a54 <calc_func+0x178>
    1a50:	00000013          	nop
    1a54:	fee45703          	lhu	a4,-18(s0)
    1a58:	fd842783          	lw	a5,-40(s0)
    1a5c:	0387d783          	lhu	a5,56(a5)
    1a60:	00078593          	mv	a1,a5
    1a64:	00070513          	mv	a0,a4
    1a68:	454030ef          	jal	ra,4ebc <crcu16>
    1a6c:	00050793          	mv	a5,a0
    1a70:	00078713          	mv	a4,a5
    1a74:	fd842783          	lw	a5,-40(s0)
    1a78:	02e79c23          	sh	a4,56(a5)
    1a7c:	fee45783          	lhu	a5,-18(s0)
    1a80:	07f7f793          	andi	a5,a5,127
    1a84:	fef41723          	sh	a5,-18(s0)
    1a88:	fea45783          	lhu	a5,-22(s0)
    1a8c:	f007f793          	andi	a5,a5,-256
    1a90:	01079793          	slli	a5,a5,0x10
    1a94:	4107d793          	srai	a5,a5,0x10
    1a98:	0807e793          	ori	a5,a5,128
    1a9c:	01079713          	slli	a4,a5,0x10
    1aa0:	41075713          	srai	a4,a4,0x10
    1aa4:	fee45783          	lhu	a5,-18(s0)
    1aa8:	00f767b3          	or	a5,a4,a5
    1aac:	01079713          	slli	a4,a5,0x10
    1ab0:	41075713          	srai	a4,a4,0x10
    1ab4:	fdc42783          	lw	a5,-36(s0)
    1ab8:	00e79023          	sh	a4,0(a5)
    1abc:	fee41783          	lh	a5,-18(s0)
    1ac0:	00078513          	mv	a0,a5
    1ac4:	02c12083          	lw	ra,44(sp)
    1ac8:	02812403          	lw	s0,40(sp)
    1acc:	03010113          	addi	sp,sp,48
    1ad0:	00008067          	ret

00001ad4 <cmp_complex>:
    1ad4:	fd010113          	addi	sp,sp,-48
    1ad8:	02112623          	sw	ra,44(sp)
    1adc:	02812423          	sw	s0,40(sp)
    1ae0:	03010413          	addi	s0,sp,48
    1ae4:	fca42e23          	sw	a0,-36(s0)
    1ae8:	fcb42c23          	sw	a1,-40(s0)
    1aec:	fcc42a23          	sw	a2,-44(s0)
    1af0:	fdc42783          	lw	a5,-36(s0)
    1af4:	fd442583          	lw	a1,-44(s0)
    1af8:	00078513          	mv	a0,a5
    1afc:	de1ff0ef          	jal	ra,18dc <calc_func>
    1b00:	00050793          	mv	a5,a0
    1b04:	fef41723          	sh	a5,-18(s0)
    1b08:	fd842783          	lw	a5,-40(s0)
    1b0c:	fd442583          	lw	a1,-44(s0)
    1b10:	00078513          	mv	a0,a5
    1b14:	dc9ff0ef          	jal	ra,18dc <calc_func>
    1b18:	00050793          	mv	a5,a0
    1b1c:	fef41623          	sh	a5,-20(s0)
    1b20:	fee41703          	lh	a4,-18(s0)
    1b24:	fec41783          	lh	a5,-20(s0)
    1b28:	40f707b3          	sub	a5,a4,a5
    1b2c:	00078513          	mv	a0,a5
    1b30:	02c12083          	lw	ra,44(sp)
    1b34:	02812403          	lw	s0,40(sp)
    1b38:	03010113          	addi	sp,sp,48
    1b3c:	00008067          	ret

00001b40 <cmp_idx>:
    1b40:	fe010113          	addi	sp,sp,-32
    1b44:	00812e23          	sw	s0,28(sp)
    1b48:	02010413          	addi	s0,sp,32
    1b4c:	fea42623          	sw	a0,-20(s0)
    1b50:	feb42423          	sw	a1,-24(s0)
    1b54:	fec42223          	sw	a2,-28(s0)
    1b58:	fe442783          	lw	a5,-28(s0)
    1b5c:	08079e63          	bnez	a5,1bf8 <cmp_idx+0xb8>
    1b60:	fec42783          	lw	a5,-20(s0)
    1b64:	00079783          	lh	a5,0(a5)
    1b68:	f007f793          	andi	a5,a5,-256
    1b6c:	01079713          	slli	a4,a5,0x10
    1b70:	41075713          	srai	a4,a4,0x10
    1b74:	fec42783          	lw	a5,-20(s0)
    1b78:	00079783          	lh	a5,0(a5)
    1b7c:	01079793          	slli	a5,a5,0x10
    1b80:	0107d793          	srli	a5,a5,0x10
    1b84:	0087d793          	srli	a5,a5,0x8
    1b88:	01079793          	slli	a5,a5,0x10
    1b8c:	0107d793          	srli	a5,a5,0x10
    1b90:	01079793          	slli	a5,a5,0x10
    1b94:	4107d793          	srai	a5,a5,0x10
    1b98:	00f767b3          	or	a5,a4,a5
    1b9c:	01079713          	slli	a4,a5,0x10
    1ba0:	41075713          	srai	a4,a4,0x10
    1ba4:	fec42783          	lw	a5,-20(s0)
    1ba8:	00e79023          	sh	a4,0(a5)
    1bac:	fe842783          	lw	a5,-24(s0)
    1bb0:	00079783          	lh	a5,0(a5)
    1bb4:	f007f793          	andi	a5,a5,-256
    1bb8:	01079713          	slli	a4,a5,0x10
    1bbc:	41075713          	srai	a4,a4,0x10
    1bc0:	fe842783          	lw	a5,-24(s0)
    1bc4:	00079783          	lh	a5,0(a5)
    1bc8:	01079793          	slli	a5,a5,0x10
    1bcc:	0107d793          	srli	a5,a5,0x10
    1bd0:	0087d793          	srli	a5,a5,0x8
    1bd4:	01079793          	slli	a5,a5,0x10
    1bd8:	0107d793          	srli	a5,a5,0x10
    1bdc:	01079793          	slli	a5,a5,0x10
    1be0:	4107d793          	srai	a5,a5,0x10
    1be4:	00f767b3          	or	a5,a4,a5
    1be8:	01079713          	slli	a4,a5,0x10
    1bec:	41075713          	srai	a4,a4,0x10
    1bf0:	fe842783          	lw	a5,-24(s0)
    1bf4:	00e79023          	sh	a4,0(a5)
    1bf8:	fec42783          	lw	a5,-20(s0)
    1bfc:	00279783          	lh	a5,2(a5)
    1c00:	00078713          	mv	a4,a5
    1c04:	fe842783          	lw	a5,-24(s0)
    1c08:	00279783          	lh	a5,2(a5)
    1c0c:	40f707b3          	sub	a5,a4,a5
    1c10:	00078513          	mv	a0,a5
    1c14:	01c12403          	lw	s0,28(sp)
    1c18:	02010113          	addi	sp,sp,32
    1c1c:	00008067          	ret

00001c20 <copy_info>:
    1c20:	fe010113          	addi	sp,sp,-32
    1c24:	00812e23          	sw	s0,28(sp)
    1c28:	02010413          	addi	s0,sp,32
    1c2c:	fea42623          	sw	a0,-20(s0)
    1c30:	feb42423          	sw	a1,-24(s0)
    1c34:	fe842783          	lw	a5,-24(s0)
    1c38:	00079703          	lh	a4,0(a5)
    1c3c:	fec42783          	lw	a5,-20(s0)
    1c40:	00e79023          	sh	a4,0(a5)
    1c44:	fe842783          	lw	a5,-24(s0)
    1c48:	00279703          	lh	a4,2(a5)
    1c4c:	fec42783          	lw	a5,-20(s0)
    1c50:	00e79123          	sh	a4,2(a5)
    1c54:	00000013          	nop
    1c58:	01c12403          	lw	s0,28(sp)
    1c5c:	02010113          	addi	sp,sp,32
    1c60:	00008067          	ret

00001c64 <core_bench_list>:
    1c64:	fc010113          	addi	sp,sp,-64
    1c68:	02112e23          	sw	ra,60(sp)
    1c6c:	02812c23          	sw	s0,56(sp)
    1c70:	04010413          	addi	s0,sp,64
    1c74:	fca42623          	sw	a0,-52(s0)
    1c78:	00058793          	mv	a5,a1
    1c7c:	fcf41523          	sh	a5,-54(s0)
    1c80:	fe041723          	sh	zero,-18(s0)
    1c84:	fe041623          	sh	zero,-20(s0)
    1c88:	fe041523          	sh	zero,-22(s0)
    1c8c:	fcc42783          	lw	a5,-52(s0)
    1c90:	0247a783          	lw	a5,36(a5)
    1c94:	fef42223          	sw	a5,-28(s0)
    1c98:	fcc42783          	lw	a5,-52(s0)
    1c9c:	0047d783          	lhu	a5,4(a5)
    1ca0:	fcf41e23          	sh	a5,-36(s0)
    1ca4:	fc042823          	sw	zero,-48(s0)
    1ca8:	fca45783          	lhu	a5,-54(s0)
    1cac:	fcf41923          	sh	a5,-46(s0)
    1cb0:	fc041f23          	sh	zero,-34(s0)
    1cb4:	1780006f          	j	1e2c <core_bench_list+0x1c8>
    1cb8:	fde45783          	lhu	a5,-34(s0)
    1cbc:	0ff7f793          	andi	a5,a5,255
    1cc0:	01079793          	slli	a5,a5,0x10
    1cc4:	4107d793          	srai	a5,a5,0x10
    1cc8:	fcf41823          	sh	a5,-48(s0)
    1ccc:	fd040793          	addi	a5,s0,-48
    1cd0:	00078593          	mv	a1,a5
    1cd4:	fe442503          	lw	a0,-28(s0)
    1cd8:	748000ef          	jal	ra,2420 <core_list_find>
    1cdc:	fca42a23          	sw	a0,-44(s0)
    1ce0:	fe442503          	lw	a0,-28(s0)
    1ce4:	7e0000ef          	jal	ra,24c4 <core_list_reverse>
    1ce8:	fea42223          	sw	a0,-28(s0)
    1cec:	fd442783          	lw	a5,-44(s0)
    1cf0:	04079863          	bnez	a5,1d40 <core_bench_list+0xdc>
    1cf4:	fea45783          	lhu	a5,-22(s0)
    1cf8:	00178793          	addi	a5,a5,1
    1cfc:	fef41523          	sh	a5,-22(s0)
    1d00:	fe442783          	lw	a5,-28(s0)
    1d04:	0007a783          	lw	a5,0(a5)
    1d08:	0047a783          	lw	a5,4(a5)
    1d0c:	00079783          	lh	a5,0(a5)
    1d10:	4087d793          	srai	a5,a5,0x8
    1d14:	01079793          	slli	a5,a5,0x10
    1d18:	4107d793          	srai	a5,a5,0x10
    1d1c:	01079793          	slli	a5,a5,0x10
    1d20:	0107d793          	srli	a5,a5,0x10
    1d24:	0017f793          	andi	a5,a5,1
    1d28:	01079713          	slli	a4,a5,0x10
    1d2c:	01075713          	srli	a4,a4,0x10
    1d30:	fee45783          	lhu	a5,-18(s0)
    1d34:	00f707b3          	add	a5,a4,a5
    1d38:	fef41723          	sh	a5,-18(s0)
    1d3c:	0a80006f          	j	1de4 <core_bench_list+0x180>
    1d40:	fec45783          	lhu	a5,-20(s0)
    1d44:	00178793          	addi	a5,a5,1
    1d48:	fef41623          	sh	a5,-20(s0)
    1d4c:	fd442783          	lw	a5,-44(s0)
    1d50:	0047a783          	lw	a5,4(a5)
    1d54:	00079783          	lh	a5,0(a5)
    1d58:	01079793          	slli	a5,a5,0x10
    1d5c:	0107d793          	srli	a5,a5,0x10
    1d60:	0017f793          	andi	a5,a5,1
    1d64:	02078e63          	beqz	a5,1da0 <core_bench_list+0x13c>
    1d68:	fd442783          	lw	a5,-44(s0)
    1d6c:	0047a783          	lw	a5,4(a5)
    1d70:	00079783          	lh	a5,0(a5)
    1d74:	4097d793          	srai	a5,a5,0x9
    1d78:	01079793          	slli	a5,a5,0x10
    1d7c:	4107d793          	srai	a5,a5,0x10
    1d80:	01079793          	slli	a5,a5,0x10
    1d84:	0107d793          	srli	a5,a5,0x10
    1d88:	0017f793          	andi	a5,a5,1
    1d8c:	01079713          	slli	a4,a5,0x10
    1d90:	01075713          	srli	a4,a4,0x10
    1d94:	fee45783          	lhu	a5,-18(s0)
    1d98:	00f707b3          	add	a5,a4,a5
    1d9c:	fef41723          	sh	a5,-18(s0)
    1da0:	fd442783          	lw	a5,-44(s0)
    1da4:	0007a783          	lw	a5,0(a5)
    1da8:	02078e63          	beqz	a5,1de4 <core_bench_list+0x180>
    1dac:	fd442783          	lw	a5,-44(s0)
    1db0:	0007a783          	lw	a5,0(a5)
    1db4:	fef42023          	sw	a5,-32(s0)
    1db8:	fe042783          	lw	a5,-32(s0)
    1dbc:	0007a703          	lw	a4,0(a5)
    1dc0:	fd442783          	lw	a5,-44(s0)
    1dc4:	00e7a023          	sw	a4,0(a5)
    1dc8:	fe442783          	lw	a5,-28(s0)
    1dcc:	0007a703          	lw	a4,0(a5)
    1dd0:	fe042783          	lw	a5,-32(s0)
    1dd4:	00e7a023          	sw	a4,0(a5)
    1dd8:	fe442783          	lw	a5,-28(s0)
    1ddc:	fe042703          	lw	a4,-32(s0)
    1de0:	00e7a023          	sw	a4,0(a5)
    1de4:	fd241783          	lh	a5,-46(s0)
    1de8:	0207c463          	bltz	a5,1e10 <core_bench_list+0x1ac>
    1dec:	fd241783          	lh	a5,-46(s0)
    1df0:	01079793          	slli	a5,a5,0x10
    1df4:	0107d793          	srli	a5,a5,0x10
    1df8:	00178793          	addi	a5,a5,1
    1dfc:	01079793          	slli	a5,a5,0x10
    1e00:	0107d793          	srli	a5,a5,0x10
    1e04:	01079793          	slli	a5,a5,0x10
    1e08:	4107d793          	srai	a5,a5,0x10
    1e0c:	fcf41923          	sh	a5,-46(s0)
    1e10:	fde41783          	lh	a5,-34(s0)
    1e14:	01079793          	slli	a5,a5,0x10
    1e18:	0107d793          	srli	a5,a5,0x10
    1e1c:	00178793          	addi	a5,a5,1
    1e20:	01079793          	slli	a5,a5,0x10
    1e24:	0107d793          	srli	a5,a5,0x10
    1e28:	fcf41f23          	sh	a5,-34(s0)
    1e2c:	fde41703          	lh	a4,-34(s0)
    1e30:	fdc41783          	lh	a5,-36(s0)
    1e34:	e8f742e3          	blt	a4,a5,1cb8 <core_bench_list+0x54>
    1e38:	fec45783          	lhu	a5,-20(s0)
    1e3c:	00279793          	slli	a5,a5,0x2
    1e40:	01079713          	slli	a4,a5,0x10
    1e44:	01075713          	srli	a4,a4,0x10
    1e48:	fea45783          	lhu	a5,-22(s0)
    1e4c:	40f707b3          	sub	a5,a4,a5
    1e50:	01079713          	slli	a4,a5,0x10
    1e54:	01075713          	srli	a4,a4,0x10
    1e58:	fee45783          	lhu	a5,-18(s0)
    1e5c:	00f707b3          	add	a5,a4,a5
    1e60:	fef41723          	sh	a5,-18(s0)
    1e64:	fca41783          	lh	a5,-54(s0)
    1e68:	00f05e63          	blez	a5,1e84 <core_bench_list+0x220>
    1e6c:	fcc42603          	lw	a2,-52(s0)
    1e70:	00000597          	auipc	a1,0x0
    1e74:	c6458593          	addi	a1,a1,-924 # 1ad4 <cmp_complex>
    1e78:	fe442503          	lw	a0,-28(s0)
    1e7c:	6a4000ef          	jal	ra,2520 <core_list_mergesort>
    1e80:	fea42223          	sw	a0,-28(s0)
    1e84:	fe442783          	lw	a5,-28(s0)
    1e88:	0007a783          	lw	a5,0(a5)
    1e8c:	00078513          	mv	a0,a5
    1e90:	4b0000ef          	jal	ra,2340 <core_list_remove>
    1e94:	fca42c23          	sw	a0,-40(s0)
    1e98:	fd040793          	addi	a5,s0,-48
    1e9c:	00078593          	mv	a1,a5
    1ea0:	fe442503          	lw	a0,-28(s0)
    1ea4:	57c000ef          	jal	ra,2420 <core_list_find>
    1ea8:	fea42023          	sw	a0,-32(s0)
    1eac:	fe042783          	lw	a5,-32(s0)
    1eb0:	04079263          	bnez	a5,1ef4 <core_bench_list+0x290>
    1eb4:	fe442783          	lw	a5,-28(s0)
    1eb8:	0007a783          	lw	a5,0(a5)
    1ebc:	fef42023          	sw	a5,-32(s0)
    1ec0:	0340006f          	j	1ef4 <core_bench_list+0x290>
    1ec4:	fe442783          	lw	a5,-28(s0)
    1ec8:	0047a783          	lw	a5,4(a5)
    1ecc:	00079783          	lh	a5,0(a5)
    1ed0:	fee45703          	lhu	a4,-18(s0)
    1ed4:	00070593          	mv	a1,a4
    1ed8:	00078513          	mv	a0,a5
    1edc:	0e8030ef          	jal	ra,4fc4 <crc16>
    1ee0:	00050793          	mv	a5,a0
    1ee4:	fef41723          	sh	a5,-18(s0)
    1ee8:	fe042783          	lw	a5,-32(s0)
    1eec:	0007a783          	lw	a5,0(a5)
    1ef0:	fef42023          	sw	a5,-32(s0)
    1ef4:	fe042783          	lw	a5,-32(s0)
    1ef8:	fc0796e3          	bnez	a5,1ec4 <core_bench_list+0x260>
    1efc:	fe442783          	lw	a5,-28(s0)
    1f00:	0007a783          	lw	a5,0(a5)
    1f04:	00078593          	mv	a1,a5
    1f08:	fd842503          	lw	a0,-40(s0)
    1f0c:	4a8000ef          	jal	ra,23b4 <core_list_undo_remove>
    1f10:	fca42c23          	sw	a0,-40(s0)
    1f14:	00000613          	li	a2,0
    1f18:	00000597          	auipc	a1,0x0
    1f1c:	c2858593          	addi	a1,a1,-984 # 1b40 <cmp_idx>
    1f20:	fe442503          	lw	a0,-28(s0)
    1f24:	5fc000ef          	jal	ra,2520 <core_list_mergesort>
    1f28:	fea42223          	sw	a0,-28(s0)
    1f2c:	fe442783          	lw	a5,-28(s0)
    1f30:	0007a783          	lw	a5,0(a5)
    1f34:	fef42023          	sw	a5,-32(s0)
    1f38:	0340006f          	j	1f6c <core_bench_list+0x308>
    1f3c:	fe442783          	lw	a5,-28(s0)
    1f40:	0047a783          	lw	a5,4(a5)
    1f44:	00079783          	lh	a5,0(a5)
    1f48:	fee45703          	lhu	a4,-18(s0)
    1f4c:	00070593          	mv	a1,a4
    1f50:	00078513          	mv	a0,a5
    1f54:	070030ef          	jal	ra,4fc4 <crc16>
    1f58:	00050793          	mv	a5,a0
    1f5c:	fef41723          	sh	a5,-18(s0)
    1f60:	fe042783          	lw	a5,-32(s0)
    1f64:	0007a783          	lw	a5,0(a5)
    1f68:	fef42023          	sw	a5,-32(s0)
    1f6c:	fe042783          	lw	a5,-32(s0)
    1f70:	fc0796e3          	bnez	a5,1f3c <core_bench_list+0x2d8>
    1f74:	fee45783          	lhu	a5,-18(s0)
    1f78:	00078513          	mv	a0,a5
    1f7c:	03c12083          	lw	ra,60(sp)
    1f80:	03812403          	lw	s0,56(sp)
    1f84:	04010113          	addi	sp,sp,64
    1f88:	00008067          	ret

00001f8c <core_list_init>:
    1f8c:	fb010113          	addi	sp,sp,-80
    1f90:	04112623          	sw	ra,76(sp)
    1f94:	04812423          	sw	s0,72(sp)
    1f98:	05010413          	addi	s0,sp,80
    1f9c:	faa42e23          	sw	a0,-68(s0)
    1fa0:	fab42c23          	sw	a1,-72(s0)
    1fa4:	00060793          	mv	a5,a2
    1fa8:	faf41b23          	sh	a5,-74(s0)
    1fac:	01400793          	li	a5,20
    1fb0:	fef42223          	sw	a5,-28(s0)
    1fb4:	fe442583          	lw	a1,-28(s0)
    1fb8:	fbc42503          	lw	a0,-68(s0)
    1fbc:	660030ef          	jal	ra,561c <__udivsi3>
    1fc0:	00050793          	mv	a5,a0
    1fc4:	ffe78793          	addi	a5,a5,-2
    1fc8:	fef42023          	sw	a5,-32(s0)
    1fcc:	fb842703          	lw	a4,-72(s0)
    1fd0:	fe042783          	lw	a5,-32(s0)
    1fd4:	00379793          	slli	a5,a5,0x3
    1fd8:	00f707b3          	add	a5,a4,a5
    1fdc:	fcf42e23          	sw	a5,-36(s0)
    1fe0:	fdc42783          	lw	a5,-36(s0)
    1fe4:	fcf42423          	sw	a5,-56(s0)
    1fe8:	fc842703          	lw	a4,-56(s0)
    1fec:	fe042783          	lw	a5,-32(s0)
    1ff0:	00279793          	slli	a5,a5,0x2
    1ff4:	00f707b3          	add	a5,a4,a5
    1ff8:	fcf42c23          	sw	a5,-40(s0)
    1ffc:	fb842783          	lw	a5,-72(s0)
    2000:	fcf42a23          	sw	a5,-44(s0)
    2004:	fd442783          	lw	a5,-44(s0)
    2008:	0007a023          	sw	zero,0(a5)
    200c:	fc842703          	lw	a4,-56(s0)
    2010:	fd442783          	lw	a5,-44(s0)
    2014:	00e7a223          	sw	a4,4(a5)
    2018:	fd442783          	lw	a5,-44(s0)
    201c:	0047a783          	lw	a5,4(a5)
    2020:	00079123          	sh	zero,2(a5)
    2024:	fd442783          	lw	a5,-44(s0)
    2028:	0047a783          	lw	a5,4(a5)
    202c:	ffff8737          	lui	a4,0xffff8
    2030:	08070713          	addi	a4,a4,128 # ffff8080 <_end+0xffef2480>
    2034:	00e79023          	sh	a4,0(a5)
    2038:	fb842783          	lw	a5,-72(s0)
    203c:	00878793          	addi	a5,a5,8
    2040:	faf42c23          	sw	a5,-72(s0)
    2044:	fc842783          	lw	a5,-56(s0)
    2048:	00478793          	addi	a5,a5,4
    204c:	fcf42423          	sw	a5,-56(s0)
    2050:	ffff87b7          	lui	a5,0xffff8
    2054:	fff7c793          	not	a5,a5
    2058:	fcf41323          	sh	a5,-58(s0)
    205c:	fff00793          	li	a5,-1
    2060:	fcf41223          	sh	a5,-60(s0)
    2064:	fc840693          	addi	a3,s0,-56
    2068:	fb840613          	addi	a2,s0,-72
    206c:	fc440593          	addi	a1,s0,-60
    2070:	fd842783          	lw	a5,-40(s0)
    2074:	fdc42703          	lw	a4,-36(s0)
    2078:	fd442503          	lw	a0,-44(s0)
    207c:	1d8000ef          	jal	ra,2254 <core_list_insert_new>
    2080:	fe042623          	sw	zero,-20(s0)
    2084:	0a40006f          	j	2128 <core_list_init+0x19c>
    2088:	fec42783          	lw	a5,-20(s0)
    208c:	01079713          	slli	a4,a5,0x10
    2090:	01075713          	srli	a4,a4,0x10
    2094:	fb645783          	lhu	a5,-74(s0)
    2098:	00f747b3          	xor	a5,a4,a5
    209c:	01079793          	slli	a5,a5,0x10
    20a0:	0107d793          	srli	a5,a5,0x10
    20a4:	00f7f793          	andi	a5,a5,15
    20a8:	fcf41823          	sh	a5,-48(s0)
    20ac:	fd045783          	lhu	a5,-48(s0)
    20b0:	00379793          	slli	a5,a5,0x3
    20b4:	01079713          	slli	a4,a5,0x10
    20b8:	01075713          	srli	a4,a4,0x10
    20bc:	fec42783          	lw	a5,-20(s0)
    20c0:	01079793          	slli	a5,a5,0x10
    20c4:	0107d793          	srli	a5,a5,0x10
    20c8:	0077f793          	andi	a5,a5,7
    20cc:	01079793          	slli	a5,a5,0x10
    20d0:	0107d793          	srli	a5,a5,0x10
    20d4:	00f767b3          	or	a5,a4,a5
    20d8:	fcf41723          	sh	a5,-50(s0)
    20dc:	fce45783          	lhu	a5,-50(s0)
    20e0:	00879793          	slli	a5,a5,0x8
    20e4:	01079713          	slli	a4,a5,0x10
    20e8:	41075713          	srai	a4,a4,0x10
    20ec:	fce41783          	lh	a5,-50(s0)
    20f0:	00f767b3          	or	a5,a4,a5
    20f4:	01079793          	slli	a5,a5,0x10
    20f8:	4107d793          	srai	a5,a5,0x10
    20fc:	fcf41223          	sh	a5,-60(s0)
    2100:	fc840693          	addi	a3,s0,-56
    2104:	fb840613          	addi	a2,s0,-72
    2108:	fc440593          	addi	a1,s0,-60
    210c:	fd842783          	lw	a5,-40(s0)
    2110:	fdc42703          	lw	a4,-36(s0)
    2114:	fd442503          	lw	a0,-44(s0)
    2118:	13c000ef          	jal	ra,2254 <core_list_insert_new>
    211c:	fec42783          	lw	a5,-20(s0)
    2120:	00178793          	addi	a5,a5,1 # ffff8001 <_end+0xffef2401>
    2124:	fef42623          	sw	a5,-20(s0)
    2128:	fec42703          	lw	a4,-20(s0)
    212c:	fe042783          	lw	a5,-32(s0)
    2130:	f4f76ce3          	bltu	a4,a5,2088 <core_list_init+0xfc>
    2134:	fd442783          	lw	a5,-44(s0)
    2138:	0007a783          	lw	a5,0(a5)
    213c:	fef42423          	sw	a5,-24(s0)
    2140:	00100793          	li	a5,1
    2144:	fef42623          	sw	a5,-20(s0)
    2148:	0d00006f          	j	2218 <core_list_init+0x28c>
    214c:	fe042783          	lw	a5,-32(s0)
    2150:	00500593          	li	a1,5
    2154:	00078513          	mv	a0,a5
    2158:	4c4030ef          	jal	ra,561c <__udivsi3>
    215c:	00050793          	mv	a5,a0
    2160:	00078713          	mv	a4,a5
    2164:	fec42783          	lw	a5,-20(s0)
    2168:	02e7f463          	bgeu	a5,a4,2190 <core_list_init+0x204>
    216c:	fec42783          	lw	a5,-20(s0)
    2170:	00178713          	addi	a4,a5,1
    2174:	fee42623          	sw	a4,-20(s0)
    2178:	fe842703          	lw	a4,-24(s0)
    217c:	00472703          	lw	a4,4(a4)
    2180:	01079793          	slli	a5,a5,0x10
    2184:	4107d793          	srai	a5,a5,0x10
    2188:	00f71123          	sh	a5,2(a4)
    218c:	0800006f          	j	220c <core_list_init+0x280>
    2190:	fec42783          	lw	a5,-20(s0)
    2194:	00178713          	addi	a4,a5,1
    2198:	fee42623          	sw	a4,-20(s0)
    219c:	01079713          	slli	a4,a5,0x10
    21a0:	01075713          	srli	a4,a4,0x10
    21a4:	fb645783          	lhu	a5,-74(s0)
    21a8:	00f747b3          	xor	a5,a4,a5
    21ac:	fcf41923          	sh	a5,-46(s0)
    21b0:	fec42783          	lw	a5,-20(s0)
    21b4:	01079793          	slli	a5,a5,0x10
    21b8:	0107d793          	srli	a5,a5,0x10
    21bc:	00879793          	slli	a5,a5,0x8
    21c0:	01079793          	slli	a5,a5,0x10
    21c4:	0107d793          	srli	a5,a5,0x10
    21c8:	7007f793          	andi	a5,a5,1792
    21cc:	01079713          	slli	a4,a5,0x10
    21d0:	01075713          	srli	a4,a4,0x10
    21d4:	fd245783          	lhu	a5,-46(s0)
    21d8:	00f767b3          	or	a5,a4,a5
    21dc:	01079793          	slli	a5,a5,0x10
    21e0:	0107d793          	srli	a5,a5,0x10
    21e4:	01079693          	slli	a3,a5,0x10
    21e8:	4106d693          	srai	a3,a3,0x10
    21ec:	fe842783          	lw	a5,-24(s0)
    21f0:	0047a783          	lw	a5,4(a5)
    21f4:	00004737          	lui	a4,0x4
    21f8:	fff70713          	addi	a4,a4,-1 # 3fff <matrix_mul_matrix+0xff>
    21fc:	00e6f733          	and	a4,a3,a4
    2200:	01071713          	slli	a4,a4,0x10
    2204:	41075713          	srai	a4,a4,0x10
    2208:	00e79123          	sh	a4,2(a5)
    220c:	fe842783          	lw	a5,-24(s0)
    2210:	0007a783          	lw	a5,0(a5)
    2214:	fef42423          	sw	a5,-24(s0)
    2218:	fe842783          	lw	a5,-24(s0)
    221c:	0007a783          	lw	a5,0(a5)
    2220:	f20796e3          	bnez	a5,214c <core_list_init+0x1c0>
    2224:	00000613          	li	a2,0
    2228:	00000597          	auipc	a1,0x0
    222c:	91858593          	addi	a1,a1,-1768 # 1b40 <cmp_idx>
    2230:	fd442503          	lw	a0,-44(s0)
    2234:	2ec000ef          	jal	ra,2520 <core_list_mergesort>
    2238:	fca42a23          	sw	a0,-44(s0)
    223c:	fd442783          	lw	a5,-44(s0)
    2240:	00078513          	mv	a0,a5
    2244:	04c12083          	lw	ra,76(sp)
    2248:	04812403          	lw	s0,72(sp)
    224c:	05010113          	addi	sp,sp,80
    2250:	00008067          	ret

00002254 <core_list_insert_new>:
    2254:	fc010113          	addi	sp,sp,-64
    2258:	02112e23          	sw	ra,60(sp)
    225c:	02812c23          	sw	s0,56(sp)
    2260:	04010413          	addi	s0,sp,64
    2264:	fca42e23          	sw	a0,-36(s0)
    2268:	fcb42c23          	sw	a1,-40(s0)
    226c:	fcc42a23          	sw	a2,-44(s0)
    2270:	fcd42823          	sw	a3,-48(s0)
    2274:	fce42623          	sw	a4,-52(s0)
    2278:	fcf42423          	sw	a5,-56(s0)
    227c:	fd442783          	lw	a5,-44(s0)
    2280:	0007a783          	lw	a5,0(a5)
    2284:	00878793          	addi	a5,a5,8
    2288:	fcc42703          	lw	a4,-52(s0)
    228c:	00e7e663          	bltu	a5,a4,2298 <core_list_insert_new+0x44>
    2290:	00000793          	li	a5,0
    2294:	0980006f          	j	232c <core_list_insert_new+0xd8>
    2298:	fd042783          	lw	a5,-48(s0)
    229c:	0007a783          	lw	a5,0(a5)
    22a0:	00478793          	addi	a5,a5,4
    22a4:	fc842703          	lw	a4,-56(s0)
    22a8:	00e7e663          	bltu	a5,a4,22b4 <core_list_insert_new+0x60>
    22ac:	00000793          	li	a5,0
    22b0:	07c0006f          	j	232c <core_list_insert_new+0xd8>
    22b4:	fd442783          	lw	a5,-44(s0)
    22b8:	0007a783          	lw	a5,0(a5)
    22bc:	fef42623          	sw	a5,-20(s0)
    22c0:	fd442783          	lw	a5,-44(s0)
    22c4:	0007a783          	lw	a5,0(a5)
    22c8:	00878713          	addi	a4,a5,8
    22cc:	fd442783          	lw	a5,-44(s0)
    22d0:	00e7a023          	sw	a4,0(a5)
    22d4:	fdc42783          	lw	a5,-36(s0)
    22d8:	0007a703          	lw	a4,0(a5)
    22dc:	fec42783          	lw	a5,-20(s0)
    22e0:	00e7a023          	sw	a4,0(a5)
    22e4:	fdc42783          	lw	a5,-36(s0)
    22e8:	fec42703          	lw	a4,-20(s0)
    22ec:	00e7a023          	sw	a4,0(a5)
    22f0:	fd042783          	lw	a5,-48(s0)
    22f4:	0007a703          	lw	a4,0(a5)
    22f8:	fec42783          	lw	a5,-20(s0)
    22fc:	00e7a223          	sw	a4,4(a5)
    2300:	fd042783          	lw	a5,-48(s0)
    2304:	0007a783          	lw	a5,0(a5)
    2308:	00478713          	addi	a4,a5,4
    230c:	fd042783          	lw	a5,-48(s0)
    2310:	00e7a023          	sw	a4,0(a5)
    2314:	fec42783          	lw	a5,-20(s0)
    2318:	0047a783          	lw	a5,4(a5)
    231c:	fd842583          	lw	a1,-40(s0)
    2320:	00078513          	mv	a0,a5
    2324:	8fdff0ef          	jal	ra,1c20 <copy_info>
    2328:	fec42783          	lw	a5,-20(s0)
    232c:	00078513          	mv	a0,a5
    2330:	03c12083          	lw	ra,60(sp)
    2334:	03812403          	lw	s0,56(sp)
    2338:	04010113          	addi	sp,sp,64
    233c:	00008067          	ret

00002340 <core_list_remove>:
    2340:	fd010113          	addi	sp,sp,-48
    2344:	02812623          	sw	s0,44(sp)
    2348:	03010413          	addi	s0,sp,48
    234c:	fca42e23          	sw	a0,-36(s0)
    2350:	fdc42783          	lw	a5,-36(s0)
    2354:	0007a783          	lw	a5,0(a5)
    2358:	fef42623          	sw	a5,-20(s0)
    235c:	fdc42783          	lw	a5,-36(s0)
    2360:	0047a783          	lw	a5,4(a5)
    2364:	fef42423          	sw	a5,-24(s0)
    2368:	fec42783          	lw	a5,-20(s0)
    236c:	0047a703          	lw	a4,4(a5)
    2370:	fdc42783          	lw	a5,-36(s0)
    2374:	00e7a223          	sw	a4,4(a5)
    2378:	fec42783          	lw	a5,-20(s0)
    237c:	fe842703          	lw	a4,-24(s0)
    2380:	00e7a223          	sw	a4,4(a5)
    2384:	fdc42783          	lw	a5,-36(s0)
    2388:	0007a783          	lw	a5,0(a5)
    238c:	0007a703          	lw	a4,0(a5)
    2390:	fdc42783          	lw	a5,-36(s0)
    2394:	00e7a023          	sw	a4,0(a5)
    2398:	fec42783          	lw	a5,-20(s0)
    239c:	0007a023          	sw	zero,0(a5)
    23a0:	fec42783          	lw	a5,-20(s0)
    23a4:	00078513          	mv	a0,a5
    23a8:	02c12403          	lw	s0,44(sp)
    23ac:	03010113          	addi	sp,sp,48
    23b0:	00008067          	ret

000023b4 <core_list_undo_remove>:
    23b4:	fd010113          	addi	sp,sp,-48
    23b8:	02812623          	sw	s0,44(sp)
    23bc:	03010413          	addi	s0,sp,48
    23c0:	fca42e23          	sw	a0,-36(s0)
    23c4:	fcb42c23          	sw	a1,-40(s0)
    23c8:	fdc42783          	lw	a5,-36(s0)
    23cc:	0047a783          	lw	a5,4(a5)
    23d0:	fef42623          	sw	a5,-20(s0)
    23d4:	fd842783          	lw	a5,-40(s0)
    23d8:	0047a703          	lw	a4,4(a5)
    23dc:	fdc42783          	lw	a5,-36(s0)
    23e0:	00e7a223          	sw	a4,4(a5)
    23e4:	fd842783          	lw	a5,-40(s0)
    23e8:	fec42703          	lw	a4,-20(s0)
    23ec:	00e7a223          	sw	a4,4(a5)
    23f0:	fd842783          	lw	a5,-40(s0)
    23f4:	0007a703          	lw	a4,0(a5)
    23f8:	fdc42783          	lw	a5,-36(s0)
    23fc:	00e7a023          	sw	a4,0(a5)
    2400:	fd842783          	lw	a5,-40(s0)
    2404:	fdc42703          	lw	a4,-36(s0)
    2408:	00e7a023          	sw	a4,0(a5)
    240c:	fdc42783          	lw	a5,-36(s0)
    2410:	00078513          	mv	a0,a5
    2414:	02c12403          	lw	s0,44(sp)
    2418:	03010113          	addi	sp,sp,48
    241c:	00008067          	ret

00002420 <core_list_find>:
    2420:	fe010113          	addi	sp,sp,-32
    2424:	00812e23          	sw	s0,28(sp)
    2428:	02010413          	addi	s0,sp,32
    242c:	fea42623          	sw	a0,-20(s0)
    2430:	feb42423          	sw	a1,-24(s0)
    2434:	fe842783          	lw	a5,-24(s0)
    2438:	00279783          	lh	a5,2(a5)
    243c:	0407c463          	bltz	a5,2484 <core_list_find+0x64>
    2440:	0100006f          	j	2450 <core_list_find+0x30>
    2444:	fec42783          	lw	a5,-20(s0)
    2448:	0007a783          	lw	a5,0(a5)
    244c:	fef42623          	sw	a5,-20(s0)
    2450:	fec42783          	lw	a5,-20(s0)
    2454:	00078e63          	beqz	a5,2470 <core_list_find+0x50>
    2458:	fec42783          	lw	a5,-20(s0)
    245c:	0047a783          	lw	a5,4(a5)
    2460:	00279703          	lh	a4,2(a5)
    2464:	fe842783          	lw	a5,-24(s0)
    2468:	00279783          	lh	a5,2(a5)
    246c:	fcf71ce3          	bne	a4,a5,2444 <core_list_find+0x24>
    2470:	fec42783          	lw	a5,-20(s0)
    2474:	0400006f          	j	24b4 <core_list_find+0x94>
    2478:	fec42783          	lw	a5,-20(s0)
    247c:	0007a783          	lw	a5,0(a5)
    2480:	fef42623          	sw	a5,-20(s0)
    2484:	fec42783          	lw	a5,-20(s0)
    2488:	02078463          	beqz	a5,24b0 <core_list_find+0x90>
    248c:	fec42783          	lw	a5,-20(s0)
    2490:	0047a783          	lw	a5,4(a5)
    2494:	00079783          	lh	a5,0(a5)
    2498:	01079793          	slli	a5,a5,0x10
    249c:	0107d793          	srli	a5,a5,0x10
    24a0:	0ff7f793          	andi	a5,a5,255
    24a4:	fe842703          	lw	a4,-24(s0)
    24a8:	00071703          	lh	a4,0(a4)
    24ac:	fce796e3          	bne	a5,a4,2478 <core_list_find+0x58>
    24b0:	fec42783          	lw	a5,-20(s0)
    24b4:	00078513          	mv	a0,a5
    24b8:	01c12403          	lw	s0,28(sp)
    24bc:	02010113          	addi	sp,sp,32
    24c0:	00008067          	ret

000024c4 <core_list_reverse>:
    24c4:	fd010113          	addi	sp,sp,-48
    24c8:	02812623          	sw	s0,44(sp)
    24cc:	03010413          	addi	s0,sp,48
    24d0:	fca42e23          	sw	a0,-36(s0)
    24d4:	fe042623          	sw	zero,-20(s0)
    24d8:	02c0006f          	j	2504 <core_list_reverse+0x40>
    24dc:	fdc42783          	lw	a5,-36(s0)
    24e0:	0007a783          	lw	a5,0(a5)
    24e4:	fef42423          	sw	a5,-24(s0)
    24e8:	fdc42783          	lw	a5,-36(s0)
    24ec:	fec42703          	lw	a4,-20(s0)
    24f0:	00e7a023          	sw	a4,0(a5)
    24f4:	fdc42783          	lw	a5,-36(s0)
    24f8:	fef42623          	sw	a5,-20(s0)
    24fc:	fe842783          	lw	a5,-24(s0)
    2500:	fcf42e23          	sw	a5,-36(s0)
    2504:	fdc42783          	lw	a5,-36(s0)
    2508:	fc079ae3          	bnez	a5,24dc <core_list_reverse+0x18>
    250c:	fec42783          	lw	a5,-20(s0)
    2510:	00078513          	mv	a0,a5
    2514:	02c12403          	lw	s0,44(sp)
    2518:	03010113          	addi	sp,sp,48
    251c:	00008067          	ret

00002520 <core_list_mergesort>:
    2520:	fb010113          	addi	sp,sp,-80
    2524:	04112623          	sw	ra,76(sp)
    2528:	04812423          	sw	s0,72(sp)
    252c:	05010413          	addi	s0,sp,80
    2530:	faa42e23          	sw	a0,-68(s0)
    2534:	fab42c23          	sw	a1,-72(s0)
    2538:	fac42a23          	sw	a2,-76(s0)
    253c:	00100793          	li	a5,1
    2540:	fcf42e23          	sw	a5,-36(s0)
    2544:	fbc42783          	lw	a5,-68(s0)
    2548:	fef42623          	sw	a5,-20(s0)
    254c:	fa042e23          	sw	zero,-68(s0)
    2550:	fe042023          	sw	zero,-32(s0)
    2554:	fc042c23          	sw	zero,-40(s0)
    2558:	1880006f          	j	26e0 <core_list_mergesort+0x1c0>
    255c:	fd842783          	lw	a5,-40(s0)
    2560:	00178793          	addi	a5,a5,1
    2564:	fcf42c23          	sw	a5,-40(s0)
    2568:	fec42783          	lw	a5,-20(s0)
    256c:	fef42423          	sw	a5,-24(s0)
    2570:	fc042a23          	sw	zero,-44(s0)
    2574:	fc042623          	sw	zero,-52(s0)
    2578:	0300006f          	j	25a8 <core_list_mergesort+0x88>
    257c:	fd442783          	lw	a5,-44(s0)
    2580:	00178793          	addi	a5,a5,1
    2584:	fcf42a23          	sw	a5,-44(s0)
    2588:	fe842783          	lw	a5,-24(s0)
    258c:	0007a783          	lw	a5,0(a5)
    2590:	fef42423          	sw	a5,-24(s0)
    2594:	fe842783          	lw	a5,-24(s0)
    2598:	02078063          	beqz	a5,25b8 <core_list_mergesort+0x98>
    259c:	fcc42783          	lw	a5,-52(s0)
    25a0:	00178793          	addi	a5,a5,1
    25a4:	fcf42623          	sw	a5,-52(s0)
    25a8:	fcc42703          	lw	a4,-52(s0)
    25ac:	fdc42783          	lw	a5,-36(s0)
    25b0:	fcf746e3          	blt	a4,a5,257c <core_list_mergesort+0x5c>
    25b4:	0080006f          	j	25bc <core_list_mergesort+0x9c>
    25b8:	00000013          	nop
    25bc:	fdc42783          	lw	a5,-36(s0)
    25c0:	fcf42823          	sw	a5,-48(s0)
    25c4:	0fc0006f          	j	26c0 <core_list_mergesort+0x1a0>
    25c8:	fd442783          	lw	a5,-44(s0)
    25cc:	02079463          	bnez	a5,25f4 <core_list_mergesort+0xd4>
    25d0:	fe842783          	lw	a5,-24(s0)
    25d4:	fef42223          	sw	a5,-28(s0)
    25d8:	fe842783          	lw	a5,-24(s0)
    25dc:	0007a783          	lw	a5,0(a5)
    25e0:	fef42423          	sw	a5,-24(s0)
    25e4:	fd042783          	lw	a5,-48(s0)
    25e8:	fff78793          	addi	a5,a5,-1
    25ec:	fcf42823          	sw	a5,-48(s0)
    25f0:	0a80006f          	j	2698 <core_list_mergesort+0x178>
    25f4:	fd042783          	lw	a5,-48(s0)
    25f8:	00078663          	beqz	a5,2604 <core_list_mergesort+0xe4>
    25fc:	fe842783          	lw	a5,-24(s0)
    2600:	02079463          	bnez	a5,2628 <core_list_mergesort+0x108>
    2604:	fec42783          	lw	a5,-20(s0)
    2608:	fef42223          	sw	a5,-28(s0)
    260c:	fec42783          	lw	a5,-20(s0)
    2610:	0007a783          	lw	a5,0(a5)
    2614:	fef42623          	sw	a5,-20(s0)
    2618:	fd442783          	lw	a5,-44(s0)
    261c:	fff78793          	addi	a5,a5,-1
    2620:	fcf42a23          	sw	a5,-44(s0)
    2624:	0740006f          	j	2698 <core_list_mergesort+0x178>
    2628:	fec42783          	lw	a5,-20(s0)
    262c:	0047a703          	lw	a4,4(a5)
    2630:	fe842783          	lw	a5,-24(s0)
    2634:	0047a783          	lw	a5,4(a5)
    2638:	fb842683          	lw	a3,-72(s0)
    263c:	fb442603          	lw	a2,-76(s0)
    2640:	00078593          	mv	a1,a5
    2644:	00070513          	mv	a0,a4
    2648:	000680e7          	jalr	a3
    264c:	00050793          	mv	a5,a0
    2650:	02f04463          	bgtz	a5,2678 <core_list_mergesort+0x158>
    2654:	fec42783          	lw	a5,-20(s0)
    2658:	fef42223          	sw	a5,-28(s0)
    265c:	fec42783          	lw	a5,-20(s0)
    2660:	0007a783          	lw	a5,0(a5)
    2664:	fef42623          	sw	a5,-20(s0)
    2668:	fd442783          	lw	a5,-44(s0)
    266c:	fff78793          	addi	a5,a5,-1
    2670:	fcf42a23          	sw	a5,-44(s0)
    2674:	0240006f          	j	2698 <core_list_mergesort+0x178>
    2678:	fe842783          	lw	a5,-24(s0)
    267c:	fef42223          	sw	a5,-28(s0)
    2680:	fe842783          	lw	a5,-24(s0)
    2684:	0007a783          	lw	a5,0(a5)
    2688:	fef42423          	sw	a5,-24(s0)
    268c:	fd042783          	lw	a5,-48(s0)
    2690:	fff78793          	addi	a5,a5,-1
    2694:	fcf42823          	sw	a5,-48(s0)
    2698:	fe042783          	lw	a5,-32(s0)
    269c:	00078a63          	beqz	a5,26b0 <core_list_mergesort+0x190>
    26a0:	fe042783          	lw	a5,-32(s0)
    26a4:	fe442703          	lw	a4,-28(s0)
    26a8:	00e7a023          	sw	a4,0(a5)
    26ac:	00c0006f          	j	26b8 <core_list_mergesort+0x198>
    26b0:	fe442783          	lw	a5,-28(s0)
    26b4:	faf42e23          	sw	a5,-68(s0)
    26b8:	fe442783          	lw	a5,-28(s0)
    26bc:	fef42023          	sw	a5,-32(s0)
    26c0:	fd442783          	lw	a5,-44(s0)
    26c4:	f0f042e3          	bgtz	a5,25c8 <core_list_mergesort+0xa8>
    26c8:	fd042783          	lw	a5,-48(s0)
    26cc:	00f05663          	blez	a5,26d8 <core_list_mergesort+0x1b8>
    26d0:	fe842783          	lw	a5,-24(s0)
    26d4:	ee079ae3          	bnez	a5,25c8 <core_list_mergesort+0xa8>
    26d8:	fe842783          	lw	a5,-24(s0)
    26dc:	fef42623          	sw	a5,-20(s0)
    26e0:	fec42783          	lw	a5,-20(s0)
    26e4:	e6079ce3          	bnez	a5,255c <core_list_mergesort+0x3c>
    26e8:	fe042783          	lw	a5,-32(s0)
    26ec:	0007a023          	sw	zero,0(a5)
    26f0:	fd842703          	lw	a4,-40(s0)
    26f4:	00100793          	li	a5,1
    26f8:	00e7c663          	blt	a5,a4,2704 <core_list_mergesort+0x1e4>
    26fc:	fbc42783          	lw	a5,-68(s0)
    2700:	0140006f          	j	2714 <core_list_mergesort+0x1f4>
    2704:	fdc42783          	lw	a5,-36(s0)
    2708:	00179793          	slli	a5,a5,0x1
    270c:	fcf42e23          	sw	a5,-36(s0)
    2710:	e35ff06f          	j	2544 <core_list_mergesort+0x24>
    2714:	00078513          	mv	a0,a5
    2718:	04c12083          	lw	ra,76(sp)
    271c:	04812403          	lw	s0,72(sp)
    2720:	05010113          	addi	sp,sp,80
    2724:	00008067          	ret

00002728 <iterate>:
    2728:	fd010113          	addi	sp,sp,-48
    272c:	02112623          	sw	ra,44(sp)
    2730:	02812423          	sw	s0,40(sp)
    2734:	03010413          	addi	s0,sp,48
    2738:	fca42e23          	sw	a0,-36(s0)
    273c:	fdc42783          	lw	a5,-36(s0)
    2740:	fef42423          	sw	a5,-24(s0)
    2744:	fe842783          	lw	a5,-24(s0)
    2748:	01c7a783          	lw	a5,28(a5)
    274c:	fef42223          	sw	a5,-28(s0)
    2750:	fe842783          	lw	a5,-24(s0)
    2754:	02079c23          	sh	zero,56(a5)
    2758:	fe842783          	lw	a5,-24(s0)
    275c:	02079d23          	sh	zero,58(a5)
    2760:	fe842783          	lw	a5,-24(s0)
    2764:	02079e23          	sh	zero,60(a5)
    2768:	fe842783          	lw	a5,-24(s0)
    276c:	02079f23          	sh	zero,62(a5)
    2770:	fe042623          	sw	zero,-20(s0)
    2774:	0a00006f          	j	2814 <iterate+0xec>
    2778:	00100593          	li	a1,1
    277c:	fe842503          	lw	a0,-24(s0)
    2780:	ce4ff0ef          	jal	ra,1c64 <core_bench_list>
    2784:	00050793          	mv	a5,a0
    2788:	fef41123          	sh	a5,-30(s0)
    278c:	fe842783          	lw	a5,-24(s0)
    2790:	0387d703          	lhu	a4,56(a5)
    2794:	fe245783          	lhu	a5,-30(s0)
    2798:	00070593          	mv	a1,a4
    279c:	00078513          	mv	a0,a5
    27a0:	71c020ef          	jal	ra,4ebc <crcu16>
    27a4:	00050793          	mv	a5,a0
    27a8:	00078713          	mv	a4,a5
    27ac:	fe842783          	lw	a5,-24(s0)
    27b0:	02e79c23          	sh	a4,56(a5)
    27b4:	fff00593          	li	a1,-1
    27b8:	fe842503          	lw	a0,-24(s0)
    27bc:	ca8ff0ef          	jal	ra,1c64 <core_bench_list>
    27c0:	00050793          	mv	a5,a0
    27c4:	fef41123          	sh	a5,-30(s0)
    27c8:	fe842783          	lw	a5,-24(s0)
    27cc:	0387d703          	lhu	a4,56(a5)
    27d0:	fe245783          	lhu	a5,-30(s0)
    27d4:	00070593          	mv	a1,a4
    27d8:	00078513          	mv	a0,a5
    27dc:	6e0020ef          	jal	ra,4ebc <crcu16>
    27e0:	00050793          	mv	a5,a0
    27e4:	00078713          	mv	a4,a5
    27e8:	fe842783          	lw	a5,-24(s0)
    27ec:	02e79c23          	sh	a4,56(a5)
    27f0:	fec42783          	lw	a5,-20(s0)
    27f4:	00079a63          	bnez	a5,2808 <iterate+0xe0>
    27f8:	fe842783          	lw	a5,-24(s0)
    27fc:	0387d703          	lhu	a4,56(a5)
    2800:	fe842783          	lw	a5,-24(s0)
    2804:	02e79d23          	sh	a4,58(a5)
    2808:	fec42783          	lw	a5,-20(s0)
    280c:	00178793          	addi	a5,a5,1
    2810:	fef42623          	sw	a5,-20(s0)
    2814:	fec42703          	lw	a4,-20(s0)
    2818:	fe442783          	lw	a5,-28(s0)
    281c:	f4f76ee3          	bltu	a4,a5,2778 <iterate+0x50>
    2820:	00000793          	li	a5,0
    2824:	00078513          	mv	a0,a5
    2828:	02c12083          	lw	ra,44(sp)
    282c:	02812403          	lw	s0,40(sp)
    2830:	03010113          	addi	sp,sp,48
    2834:	00008067          	ret

00002838 <exec_benchmark>:
    2838:	f7010113          	addi	sp,sp,-144
    283c:	08112623          	sw	ra,140(sp)
    2840:	08812423          	sw	s0,136(sp)
    2844:	08912223          	sw	s1,132(sp)
    2848:	09010413          	addi	s0,sp,144
    284c:	f6a42e23          	sw	a0,-132(s0)
    2850:	fe041623          	sh	zero,-20(s0)
    2854:	fe041523          	sh	zero,-22(s0)
    2858:	fff00793          	li	a5,-1
    285c:	fef41423          	sh	a5,-24(s0)
    2860:	fe041323          	sh	zero,-26(s0)
    2864:	fc041b23          	sh	zero,-42(s0)
    2868:	3e800593          	li	a1,1000
    286c:	000fd517          	auipc	a0,0xfd
    2870:	7b050513          	addi	a0,a0,1968 # 10001c <_etext+0xfa0e4>
    2874:	0ed020ef          	jal	ra,5160 <kprintf>
    2878:	f8c40793          	addi	a5,s0,-116
    287c:	04278793          	addi	a5,a5,66
    2880:	00000613          	li	a2,0
    2884:	00000593          	li	a1,0
    2888:	00078513          	mv	a0,a5
    288c:	2e5010ef          	jal	ra,4370 <portable_init>
    2890:	00100513          	li	a0,1
    2894:	464020ef          	jal	ra,4cf8 <get_seed_32>
    2898:	00050793          	mv	a5,a0
    289c:	01079793          	slli	a5,a5,0x10
    28a0:	4107d793          	srai	a5,a5,0x10
    28a4:	f8f41623          	sh	a5,-116(s0)
    28a8:	00200513          	li	a0,2
    28ac:	44c020ef          	jal	ra,4cf8 <get_seed_32>
    28b0:	00050793          	mv	a5,a0
    28b4:	01079793          	slli	a5,a5,0x10
    28b8:	4107d793          	srai	a5,a5,0x10
    28bc:	f8f41723          	sh	a5,-114(s0)
    28c0:	00300513          	li	a0,3
    28c4:	434020ef          	jal	ra,4cf8 <get_seed_32>
    28c8:	00050793          	mv	a5,a0
    28cc:	01079793          	slli	a5,a5,0x10
    28d0:	4107d793          	srai	a5,a5,0x10
    28d4:	f8f41823          	sh	a5,-112(s0)
    28d8:	00400513          	li	a0,4
    28dc:	41c020ef          	jal	ra,4cf8 <get_seed_32>
    28e0:	00050793          	mv	a5,a0
    28e4:	faf42423          	sw	a5,-88(s0)
    28e8:	00500513          	li	a0,5
    28ec:	40c020ef          	jal	ra,4cf8 <get_seed_32>
    28f0:	00050793          	mv	a5,a0
    28f4:	faf42623          	sw	a5,-84(s0)
    28f8:	fac42783          	lw	a5,-84(s0)
    28fc:	00079663          	bnez	a5,2908 <exec_benchmark+0xd0>
    2900:	00700793          	li	a5,7
    2904:	faf42623          	sw	a5,-84(s0)
    2908:	f8c41783          	lh	a5,-116(s0)
    290c:	02079263          	bnez	a5,2930 <exec_benchmark+0xf8>
    2910:	f8e41783          	lh	a5,-114(s0)
    2914:	00079e63          	bnez	a5,2930 <exec_benchmark+0xf8>
    2918:	f9041783          	lh	a5,-112(s0)
    291c:	00079a63          	bnez	a5,2930 <exec_benchmark+0xf8>
    2920:	f8041623          	sh	zero,-116(s0)
    2924:	f8041723          	sh	zero,-114(s0)
    2928:	06600793          	li	a5,102
    292c:	f8f41823          	sh	a5,-112(s0)
    2930:	f8c41703          	lh	a4,-116(s0)
    2934:	00100793          	li	a5,1
    2938:	02f71a63          	bne	a4,a5,296c <exec_benchmark+0x134>
    293c:	f8e41783          	lh	a5,-114(s0)
    2940:	02079663          	bnez	a5,296c <exec_benchmark+0x134>
    2944:	f9041783          	lh	a5,-112(s0)
    2948:	02079263          	bnez	a5,296c <exec_benchmark+0x134>
    294c:	000037b7          	lui	a5,0x3
    2950:	41578793          	addi	a5,a5,1045 # 3415 <exec_benchmark+0xbdd>
    2954:	f8f41623          	sh	a5,-116(s0)
    2958:	000037b7          	lui	a5,0x3
    295c:	41578793          	addi	a5,a5,1045 # 3415 <exec_benchmark+0xbdd>
    2960:	f8f41723          	sh	a5,-114(s0)
    2964:	06600793          	li	a5,102
    2968:	f8f41823          	sh	a5,-112(s0)
    296c:	00102797          	auipc	a5,0x102
    2970:	c8478793          	addi	a5,a5,-892 # 1045f0 <static_memblk>
    2974:	f8f42a23          	sw	a5,-108(s0)
    2978:	7d000793          	li	a5,2000
    297c:	faf42223          	sw	a5,-92(s0)
    2980:	fc041623          	sh	zero,-52(s0)
    2984:	fe041723          	sh	zero,-18(s0)
    2988:	0380006f          	j	29c0 <exec_benchmark+0x188>
    298c:	fee45783          	lhu	a5,-18(s0)
    2990:	00100713          	li	a4,1
    2994:	00f717b3          	sll	a5,a4,a5
    2998:	00078713          	mv	a4,a5
    299c:	fac42783          	lw	a5,-84(s0)
    29a0:	00f777b3          	and	a5,a4,a5
    29a4:	00078863          	beqz	a5,29b4 <exec_benchmark+0x17c>
    29a8:	fea45783          	lhu	a5,-22(s0)
    29ac:	00178793          	addi	a5,a5,1
    29b0:	fef41523          	sh	a5,-22(s0)
    29b4:	fee45783          	lhu	a5,-18(s0)
    29b8:	00178793          	addi	a5,a5,1
    29bc:	fef41723          	sh	a5,-18(s0)
    29c0:	fee45703          	lhu	a4,-18(s0)
    29c4:	00200793          	li	a5,2
    29c8:	fce7f2e3          	bgeu	a5,a4,298c <exec_benchmark+0x154>
    29cc:	fe041723          	sh	zero,-18(s0)
    29d0:	0680006f          	j	2a38 <exec_benchmark+0x200>
    29d4:	fee45703          	lhu	a4,-18(s0)
    29d8:	00070793          	mv	a5,a4
    29dc:	00479793          	slli	a5,a5,0x4
    29e0:	00e787b3          	add	a5,a5,a4
    29e4:	00279793          	slli	a5,a5,0x2
    29e8:	ff040713          	addi	a4,s0,-16
    29ec:	00f707b3          	add	a5,a4,a5
    29f0:	fb47a783          	lw	a5,-76(a5)
    29f4:	fea45703          	lhu	a4,-22(s0)
    29f8:	fee45483          	lhu	s1,-18(s0)
    29fc:	00070593          	mv	a1,a4
    2a00:	00078513          	mv	a0,a5
    2a04:	419020ef          	jal	ra,561c <__udivsi3>
    2a08:	00050793          	mv	a5,a0
    2a0c:	00078713          	mv	a4,a5
    2a10:	00048793          	mv	a5,s1
    2a14:	00479793          	slli	a5,a5,0x4
    2a18:	009787b3          	add	a5,a5,s1
    2a1c:	00279793          	slli	a5,a5,0x2
    2a20:	ff040693          	addi	a3,s0,-16
    2a24:	00f687b3          	add	a5,a3,a5
    2a28:	fae7aa23          	sw	a4,-76(a5)
    2a2c:	fee45783          	lhu	a5,-18(s0)
    2a30:	00178793          	addi	a5,a5,1
    2a34:	fef41723          	sh	a5,-18(s0)
    2a38:	fee45783          	lhu	a5,-18(s0)
    2a3c:	f8078ce3          	beqz	a5,29d4 <exec_benchmark+0x19c>
    2a40:	fe041723          	sh	zero,-18(s0)
    2a44:	0c00006f          	j	2b04 <exec_benchmark+0x2cc>
    2a48:	fee45783          	lhu	a5,-18(s0)
    2a4c:	00100713          	li	a4,1
    2a50:	00f717b3          	sll	a5,a4,a5
    2a54:	00078713          	mv	a4,a5
    2a58:	fac42783          	lw	a5,-84(s0)
    2a5c:	00f777b3          	and	a5,a4,a5
    2a60:	08078c63          	beqz	a5,2af8 <exec_benchmark+0x2c0>
    2a64:	fe042023          	sw	zero,-32(s0)
    2a68:	07c0006f          	j	2ae4 <exec_benchmark+0x2ac>
    2a6c:	fe042703          	lw	a4,-32(s0)
    2a70:	00070793          	mv	a5,a4
    2a74:	00479793          	slli	a5,a5,0x4
    2a78:	00e787b3          	add	a5,a5,a4
    2a7c:	00279793          	slli	a5,a5,0x2
    2a80:	ff040713          	addi	a4,s0,-16
    2a84:	00f707b3          	add	a5,a4,a5
    2a88:	fa47a483          	lw	s1,-92(a5)
    2a8c:	fa442783          	lw	a5,-92(s0)
    2a90:	fec45703          	lhu	a4,-20(s0)
    2a94:	00070593          	mv	a1,a4
    2a98:	00078513          	mv	a0,a5
    2a9c:	259020ef          	jal	ra,54f4 <__mulsi3>
    2aa0:	00050793          	mv	a5,a0
    2aa4:	00078713          	mv	a4,a5
    2aa8:	fee45783          	lhu	a5,-18(s0)
    2aac:	00178613          	addi	a2,a5,1
    2ab0:	00e486b3          	add	a3,s1,a4
    2ab4:	fe042703          	lw	a4,-32(s0)
    2ab8:	00070793          	mv	a5,a4
    2abc:	00479793          	slli	a5,a5,0x4
    2ac0:	00e787b3          	add	a5,a5,a4
    2ac4:	00c787b3          	add	a5,a5,a2
    2ac8:	00279793          	slli	a5,a5,0x2
    2acc:	ff040713          	addi	a4,s0,-16
    2ad0:	00f707b3          	add	a5,a4,a5
    2ad4:	fad7a223          	sw	a3,-92(a5)
    2ad8:	fe042783          	lw	a5,-32(s0)
    2adc:	00178793          	addi	a5,a5,1
    2ae0:	fef42023          	sw	a5,-32(s0)
    2ae4:	fe042783          	lw	a5,-32(s0)
    2ae8:	f80782e3          	beqz	a5,2a6c <exec_benchmark+0x234>
    2aec:	fec45783          	lhu	a5,-20(s0)
    2af0:	00178793          	addi	a5,a5,1
    2af4:	fef41623          	sh	a5,-20(s0)
    2af8:	fee45783          	lhu	a5,-18(s0)
    2afc:	00178793          	addi	a5,a5,1
    2b00:	fef41723          	sh	a5,-18(s0)
    2b04:	fee45703          	lhu	a4,-18(s0)
    2b08:	00200793          	li	a5,2
    2b0c:	f2e7fee3          	bgeu	a5,a4,2a48 <exec_benchmark+0x210>
    2b10:	fe041723          	sh	zero,-18(s0)
    2b14:	1e80006f          	j	2cfc <exec_benchmark+0x4c4>
    2b18:	fee45703          	lhu	a4,-18(s0)
    2b1c:	00070793          	mv	a5,a4
    2b20:	00479793          	slli	a5,a5,0x4
    2b24:	00e787b3          	add	a5,a5,a4
    2b28:	00279793          	slli	a5,a5,0x2
    2b2c:	ff040713          	addi	a4,s0,-16
    2b30:	00f707b3          	add	a5,a4,a5
    2b34:	fbc7a783          	lw	a5,-68(a5)
    2b38:	0017f793          	andi	a5,a5,1
    2b3c:	06078c63          	beqz	a5,2bb4 <exec_benchmark+0x37c>
    2b40:	fa442683          	lw	a3,-92(s0)
    2b44:	fee45703          	lhu	a4,-18(s0)
    2b48:	00070793          	mv	a5,a4
    2b4c:	00479793          	slli	a5,a5,0x4
    2b50:	00e787b3          	add	a5,a5,a4
    2b54:	00279793          	slli	a5,a5,0x2
    2b58:	ff040713          	addi	a4,s0,-16
    2b5c:	00f707b3          	add	a5,a4,a5
    2b60:	fa87a583          	lw	a1,-88(a5)
    2b64:	fee45703          	lhu	a4,-18(s0)
    2b68:	00070793          	mv	a5,a4
    2b6c:	00479793          	slli	a5,a5,0x4
    2b70:	00e787b3          	add	a5,a5,a4
    2b74:	00279793          	slli	a5,a5,0x2
    2b78:	ff040713          	addi	a4,s0,-16
    2b7c:	00f707b3          	add	a5,a4,a5
    2b80:	f9c79783          	lh	a5,-100(a5)
    2b84:	fee45483          	lhu	s1,-18(s0)
    2b88:	00078613          	mv	a2,a5
    2b8c:	00068513          	mv	a0,a3
    2b90:	bfcff0ef          	jal	ra,1f8c <core_list_init>
    2b94:	00050713          	mv	a4,a0
    2b98:	00048793          	mv	a5,s1
    2b9c:	00479793          	slli	a5,a5,0x4
    2ba0:	009787b3          	add	a5,a5,s1
    2ba4:	00279793          	slli	a5,a5,0x2
    2ba8:	ff040693          	addi	a3,s0,-16
    2bac:	00f687b3          	add	a5,a3,a5
    2bb0:	fce7a023          	sw	a4,-64(a5)
    2bb4:	fee45703          	lhu	a4,-18(s0)
    2bb8:	00070793          	mv	a5,a4
    2bbc:	00479793          	slli	a5,a5,0x4
    2bc0:	00e787b3          	add	a5,a5,a4
    2bc4:	00279793          	slli	a5,a5,0x2
    2bc8:	ff040713          	addi	a4,s0,-16
    2bcc:	00f707b3          	add	a5,a4,a5
    2bd0:	fbc7a783          	lw	a5,-68(a5)
    2bd4:	0027f793          	andi	a5,a5,2
    2bd8:	0a078063          	beqz	a5,2c78 <exec_benchmark+0x440>
    2bdc:	fa442503          	lw	a0,-92(s0)
    2be0:	fee45703          	lhu	a4,-18(s0)
    2be4:	00070793          	mv	a5,a4
    2be8:	00479793          	slli	a5,a5,0x4
    2bec:	00e787b3          	add	a5,a5,a4
    2bf0:	00279793          	slli	a5,a5,0x2
    2bf4:	ff040713          	addi	a4,s0,-16
    2bf8:	00f707b3          	add	a5,a4,a5
    2bfc:	fac7a583          	lw	a1,-84(a5)
    2c00:	fee45703          	lhu	a4,-18(s0)
    2c04:	00070793          	mv	a5,a4
    2c08:	00479793          	slli	a5,a5,0x4
    2c0c:	00e787b3          	add	a5,a5,a4
    2c10:	00279793          	slli	a5,a5,0x2
    2c14:	ff040713          	addi	a4,s0,-16
    2c18:	00f707b3          	add	a5,a4,a5
    2c1c:	f9c79783          	lh	a5,-100(a5)
    2c20:	00078693          	mv	a3,a5
    2c24:	fee45703          	lhu	a4,-18(s0)
    2c28:	00070793          	mv	a5,a4
    2c2c:	00479793          	slli	a5,a5,0x4
    2c30:	00e787b3          	add	a5,a5,a4
    2c34:	00279793          	slli	a5,a5,0x2
    2c38:	ff040713          	addi	a4,s0,-16
    2c3c:	00f707b3          	add	a5,a4,a5
    2c40:	f9e79783          	lh	a5,-98(a5)
    2c44:	01079793          	slli	a5,a5,0x10
    2c48:	00f6e633          	or	a2,a3,a5
    2c4c:	fee45703          	lhu	a4,-18(s0)
    2c50:	f8c40693          	addi	a3,s0,-116
    2c54:	00070793          	mv	a5,a4
    2c58:	00479793          	slli	a5,a5,0x4
    2c5c:	00e787b3          	add	a5,a5,a4
    2c60:	00279793          	slli	a5,a5,0x2
    2c64:	02078793          	addi	a5,a5,32
    2c68:	00f687b3          	add	a5,a3,a5
    2c6c:	00878793          	addi	a5,a5,8
    2c70:	00078693          	mv	a3,a5
    2c74:	3f9000ef          	jal	ra,386c <core_init_matrix>
    2c78:	fee45703          	lhu	a4,-18(s0)
    2c7c:	00070793          	mv	a5,a4
    2c80:	00479793          	slli	a5,a5,0x4
    2c84:	00e787b3          	add	a5,a5,a4
    2c88:	00279793          	slli	a5,a5,0x2
    2c8c:	ff040713          	addi	a4,s0,-16
    2c90:	00f707b3          	add	a5,a4,a5
    2c94:	fbc7a783          	lw	a5,-68(a5)
    2c98:	0047f793          	andi	a5,a5,4
    2c9c:	04078a63          	beqz	a5,2cf0 <exec_benchmark+0x4b8>
    2ca0:	fa442683          	lw	a3,-92(s0)
    2ca4:	fee45703          	lhu	a4,-18(s0)
    2ca8:	00070793          	mv	a5,a4
    2cac:	00479793          	slli	a5,a5,0x4
    2cb0:	00e787b3          	add	a5,a5,a4
    2cb4:	00279793          	slli	a5,a5,0x2
    2cb8:	ff040713          	addi	a4,s0,-16
    2cbc:	00f707b3          	add	a5,a4,a5
    2cc0:	f9c79583          	lh	a1,-100(a5)
    2cc4:	fee45703          	lhu	a4,-18(s0)
    2cc8:	00070793          	mv	a5,a4
    2ccc:	00479793          	slli	a5,a5,0x4
    2cd0:	00e787b3          	add	a5,a5,a4
    2cd4:	00279793          	slli	a5,a5,0x2
    2cd8:	ff040713          	addi	a4,s0,-16
    2cdc:	00f707b3          	add	a5,a4,a5
    2ce0:	fb07a783          	lw	a5,-80(a5)
    2ce4:	00078613          	mv	a2,a5
    2ce8:	00068513          	mv	a0,a3
    2cec:	18d010ef          	jal	ra,4678 <core_init_state>
    2cf0:	fee45783          	lhu	a5,-18(s0)
    2cf4:	00178793          	addi	a5,a5,1
    2cf8:	fef41723          	sh	a5,-18(s0)
    2cfc:	fee45783          	lhu	a5,-18(s0)
    2d00:	e0078ce3          	beqz	a5,2b18 <exec_benchmark+0x2e0>
    2d04:	fa842783          	lw	a5,-88(s0)
    2d08:	0a079063          	bnez	a5,2da8 <exec_benchmark+0x570>
    2d0c:	fc042e23          	sw	zero,-36(s0)
    2d10:	00100793          	li	a5,1
    2d14:	faf42423          	sw	a5,-88(s0)
    2d18:	0440006f          	j	2d5c <exec_benchmark+0x524>
    2d1c:	fa842703          	lw	a4,-88(s0)
    2d20:	00070793          	mv	a5,a4
    2d24:	00279793          	slli	a5,a5,0x2
    2d28:	00e787b3          	add	a5,a5,a4
    2d2c:	00179793          	slli	a5,a5,0x1
    2d30:	faf42423          	sw	a5,-88(s0)
    2d34:	570010ef          	jal	ra,42a4 <start_time>
    2d38:	f8c40793          	addi	a5,s0,-116
    2d3c:	00078513          	mv	a0,a5
    2d40:	9e9ff0ef          	jal	ra,2728 <iterate>
    2d44:	598010ef          	jal	ra,42dc <stop_time>
    2d48:	5cc010ef          	jal	ra,4314 <get_time>
    2d4c:	00050793          	mv	a5,a0
    2d50:	00078513          	mv	a0,a5
    2d54:	5f8010ef          	jal	ra,434c <time_in_secs>
    2d58:	fca42e23          	sw	a0,-36(s0)
    2d5c:	fdc42783          	lw	a5,-36(s0)
    2d60:	fa078ee3          	beqz	a5,2d1c <exec_benchmark+0x4e4>
    2d64:	fdc42783          	lw	a5,-36(s0)
    2d68:	fcf42c23          	sw	a5,-40(s0)
    2d6c:	fd842783          	lw	a5,-40(s0)
    2d70:	00079663          	bnez	a5,2d7c <exec_benchmark+0x544>
    2d74:	00100793          	li	a5,1
    2d78:	fcf42c23          	sw	a5,-40(s0)
    2d7c:	fa842483          	lw	s1,-88(s0)
    2d80:	fd842583          	lw	a1,-40(s0)
    2d84:	00a00513          	li	a0,10
    2d88:	095020ef          	jal	ra,561c <__udivsi3>
    2d8c:	00050793          	mv	a5,a0
    2d90:	00178793          	addi	a5,a5,1
    2d94:	00078593          	mv	a1,a5
    2d98:	00048513          	mv	a0,s1
    2d9c:	758020ef          	jal	ra,54f4 <__mulsi3>
    2da0:	00050793          	mv	a5,a0
    2da4:	faf42423          	sw	a5,-88(s0)
    2da8:	4fc010ef          	jal	ra,42a4 <start_time>
    2dac:	f8c40793          	addi	a5,s0,-116
    2db0:	00078513          	mv	a0,a5
    2db4:	975ff0ef          	jal	ra,2728 <iterate>
    2db8:	524010ef          	jal	ra,42dc <stop_time>
    2dbc:	558010ef          	jal	ra,4314 <get_time>
    2dc0:	fca42823          	sw	a0,-48(s0)
    2dc4:	f8c41783          	lh	a5,-116(s0)
    2dc8:	fd645703          	lhu	a4,-42(s0)
    2dcc:	00070593          	mv	a1,a4
    2dd0:	00078513          	mv	a0,a5
    2dd4:	1f0020ef          	jal	ra,4fc4 <crc16>
    2dd8:	00050793          	mv	a5,a0
    2ddc:	fcf41b23          	sh	a5,-42(s0)
    2de0:	f8e41783          	lh	a5,-114(s0)
    2de4:	fd645703          	lhu	a4,-42(s0)
    2de8:	00070593          	mv	a1,a4
    2dec:	00078513          	mv	a0,a5
    2df0:	1d4020ef          	jal	ra,4fc4 <crc16>
    2df4:	00050793          	mv	a5,a0
    2df8:	fcf41b23          	sh	a5,-42(s0)
    2dfc:	f9041783          	lh	a5,-112(s0)
    2e00:	fd645703          	lhu	a4,-42(s0)
    2e04:	00070593          	mv	a1,a4
    2e08:	00078513          	mv	a0,a5
    2e0c:	1b8020ef          	jal	ra,4fc4 <crc16>
    2e10:	00050793          	mv	a5,a0
    2e14:	fcf41b23          	sh	a5,-42(s0)
    2e18:	fa442783          	lw	a5,-92(s0)
    2e1c:	01079793          	slli	a5,a5,0x10
    2e20:	4107d793          	srai	a5,a5,0x10
    2e24:	fd645703          	lhu	a4,-42(s0)
    2e28:	00070593          	mv	a1,a4
    2e2c:	00078513          	mv	a0,a5
    2e30:	194020ef          	jal	ra,4fc4 <crc16>
    2e34:	00050793          	mv	a5,a0
    2e38:	fcf41b23          	sh	a5,-42(s0)
    2e3c:	fd645783          	lhu	a5,-42(s0)
    2e40:	0000f737          	lui	a4,0xf
    2e44:	9f570713          	addi	a4,a4,-1547 # e9f5 <_etext+0x8abd>
    2e48:	0ae78063          	beq	a5,a4,2ee8 <exec_benchmark+0x6b0>
    2e4c:	0000f737          	lui	a4,0xf
    2e50:	9f570713          	addi	a4,a4,-1547 # e9f5 <_etext+0x8abd>
    2e54:	0cf74263          	blt	a4,a5,2f18 <exec_benchmark+0x6e0>
    2e58:	00009737          	lui	a4,0x9
    2e5c:	a0270713          	addi	a4,a4,-1534 # 8a02 <_etext+0x2aca>
    2e60:	04e78263          	beq	a5,a4,2ea4 <exec_benchmark+0x66c>
    2e64:	00009737          	lui	a4,0x9
    2e68:	a0270713          	addi	a4,a4,-1534 # 8a02 <_etext+0x2aca>
    2e6c:	0af74663          	blt	a4,a5,2f18 <exec_benchmark+0x6e0>
    2e70:	00008737          	lui	a4,0x8
    2e74:	b0570713          	addi	a4,a4,-1275 # 7b05 <_etext+0x1bcd>
    2e78:	04e78063          	beq	a5,a4,2eb8 <exec_benchmark+0x680>
    2e7c:	00008737          	lui	a4,0x8
    2e80:	b0570713          	addi	a4,a4,-1275 # 7b05 <_etext+0x1bcd>
    2e84:	08f74a63          	blt	a4,a5,2f18 <exec_benchmark+0x6e0>
    2e88:	00002737          	lui	a4,0x2
    2e8c:	8f270713          	addi	a4,a4,-1806 # 18f2 <calc_func+0x16>
    2e90:	06e78863          	beq	a5,a4,2f00 <exec_benchmark+0x6c8>
    2e94:	00005737          	lui	a4,0x5
    2e98:	eaf70713          	addi	a4,a4,-337 # 4eaf <crcu8+0xf3>
    2e9c:	02e78a63          	beq	a5,a4,2ed0 <exec_benchmark+0x698>
    2ea0:	0780006f          	j	2f18 <exec_benchmark+0x6e0>
    2ea4:	fe041423          	sh	zero,-24(s0)
    2ea8:	000fd517          	auipc	a0,0xfd
    2eac:	19850513          	addi	a0,a0,408 # 100040 <_etext+0xfa108>
    2eb0:	2b0020ef          	jal	ra,5160 <kprintf>
    2eb4:	0700006f          	j	2f24 <exec_benchmark+0x6ec>
    2eb8:	00100793          	li	a5,1
    2ebc:	fef41423          	sh	a5,-24(s0)
    2ec0:	000fd517          	auipc	a0,0xfd
    2ec4:	1b050513          	addi	a0,a0,432 # 100070 <_etext+0xfa138>
    2ec8:	298020ef          	jal	ra,5160 <kprintf>
    2ecc:	0580006f          	j	2f24 <exec_benchmark+0x6ec>
    2ed0:	00200793          	li	a5,2
    2ed4:	fef41423          	sh	a5,-24(s0)
    2ed8:	000fd517          	auipc	a0,0xfd
    2edc:	1c450513          	addi	a0,a0,452 # 10009c <_etext+0xfa164>
    2ee0:	280020ef          	jal	ra,5160 <kprintf>
    2ee4:	0400006f          	j	2f24 <exec_benchmark+0x6ec>
    2ee8:	00300793          	li	a5,3
    2eec:	fef41423          	sh	a5,-24(s0)
    2ef0:	000fd517          	auipc	a0,0xfd
    2ef4:	1e050513          	addi	a0,a0,480 # 1000d0 <_etext+0xfa198>
    2ef8:	268020ef          	jal	ra,5160 <kprintf>
    2efc:	0280006f          	j	2f24 <exec_benchmark+0x6ec>
    2f00:	00400793          	li	a5,4
    2f04:	fef41423          	sh	a5,-24(s0)
    2f08:	000fd517          	auipc	a0,0xfd
    2f0c:	1f850513          	addi	a0,a0,504 # 100100 <_etext+0xfa1c8>
    2f10:	250020ef          	jal	ra,5160 <kprintf>
    2f14:	0100006f          	j	2f24 <exec_benchmark+0x6ec>
    2f18:	fff00793          	li	a5,-1
    2f1c:	fef41323          	sh	a5,-26(s0)
    2f20:	00000013          	nop
    2f24:	fe841783          	lh	a5,-24(s0)
    2f28:	3a07c663          	bltz	a5,32d4 <exec_benchmark+0xa9c>
    2f2c:	fe041723          	sh	zero,-18(s0)
    2f30:	3900006f          	j	32c0 <exec_benchmark+0xa88>
    2f34:	fee45703          	lhu	a4,-18(s0)
    2f38:	00070793          	mv	a5,a4
    2f3c:	00479793          	slli	a5,a5,0x4
    2f40:	00e787b3          	add	a5,a5,a4
    2f44:	00279793          	slli	a5,a5,0x2
    2f48:	ff040713          	addi	a4,s0,-16
    2f4c:	00f707b3          	add	a5,a4,a5
    2f50:	fc079e23          	sh	zero,-36(a5)
    2f54:	fee45703          	lhu	a4,-18(s0)
    2f58:	00070793          	mv	a5,a4
    2f5c:	00479793          	slli	a5,a5,0x4
    2f60:	00e787b3          	add	a5,a5,a4
    2f64:	00279793          	slli	a5,a5,0x2
    2f68:	ff040713          	addi	a4,s0,-16
    2f6c:	00f707b3          	add	a5,a4,a5
    2f70:	fbc7a783          	lw	a5,-68(a5)
    2f74:	0017f793          	andi	a5,a5,1
    2f78:	0e078463          	beqz	a5,3060 <exec_benchmark+0x828>
    2f7c:	fee45703          	lhu	a4,-18(s0)
    2f80:	00070793          	mv	a5,a4
    2f84:	00479793          	slli	a5,a5,0x4
    2f88:	00e787b3          	add	a5,a5,a4
    2f8c:	00279793          	slli	a5,a5,0x2
    2f90:	ff040713          	addi	a4,s0,-16
    2f94:	00f707b3          	add	a5,a4,a5
    2f98:	fd67d703          	lhu	a4,-42(a5)
    2f9c:	fe841783          	lh	a5,-24(s0)
    2fa0:	000fe697          	auipc	a3,0xfe
    2fa4:	9c868693          	addi	a3,a3,-1592 # 100968 <list_known_crc>
    2fa8:	00179793          	slli	a5,a5,0x1
    2fac:	00f687b3          	add	a5,a3,a5
    2fb0:	0007d783          	lhu	a5,0(a5)
    2fb4:	0af70663          	beq	a4,a5,3060 <exec_benchmark+0x828>
    2fb8:	fee45583          	lhu	a1,-18(s0)
    2fbc:	fee45703          	lhu	a4,-18(s0)
    2fc0:	00070793          	mv	a5,a4
    2fc4:	00479793          	slli	a5,a5,0x4
    2fc8:	00e787b3          	add	a5,a5,a4
    2fcc:	00279793          	slli	a5,a5,0x2
    2fd0:	ff040713          	addi	a4,s0,-16
    2fd4:	00f707b3          	add	a5,a4,a5
    2fd8:	fd67d783          	lhu	a5,-42(a5)
    2fdc:	00078613          	mv	a2,a5
    2fe0:	fe841783          	lh	a5,-24(s0)
    2fe4:	000fe717          	auipc	a4,0xfe
    2fe8:	98470713          	addi	a4,a4,-1660 # 100968 <list_known_crc>
    2fec:	00179793          	slli	a5,a5,0x1
    2ff0:	00f707b3          	add	a5,a4,a5
    2ff4:	0007d783          	lhu	a5,0(a5)
    2ff8:	00078693          	mv	a3,a5
    2ffc:	000fd517          	auipc	a0,0xfd
    3000:	13050513          	addi	a0,a0,304 # 10012c <_etext+0xfa1f4>
    3004:	15c020ef          	jal	ra,5160 <kprintf>
    3008:	fee45703          	lhu	a4,-18(s0)
    300c:	00070793          	mv	a5,a4
    3010:	00479793          	slli	a5,a5,0x4
    3014:	00e787b3          	add	a5,a5,a4
    3018:	00279793          	slli	a5,a5,0x2
    301c:	ff040693          	addi	a3,s0,-16
    3020:	00f687b3          	add	a5,a3,a5
    3024:	fdc79783          	lh	a5,-36(a5)
    3028:	01079793          	slli	a5,a5,0x10
    302c:	0107d793          	srli	a5,a5,0x10
    3030:	00178793          	addi	a5,a5,1
    3034:	01079793          	slli	a5,a5,0x10
    3038:	0107d793          	srli	a5,a5,0x10
    303c:	01079693          	slli	a3,a5,0x10
    3040:	4106d693          	srai	a3,a3,0x10
    3044:	00070793          	mv	a5,a4
    3048:	00479793          	slli	a5,a5,0x4
    304c:	00e787b3          	add	a5,a5,a4
    3050:	00279793          	slli	a5,a5,0x2
    3054:	ff040713          	addi	a4,s0,-16
    3058:	00f707b3          	add	a5,a4,a5
    305c:	fcd79e23          	sh	a3,-36(a5)
    3060:	fee45703          	lhu	a4,-18(s0)
    3064:	00070793          	mv	a5,a4
    3068:	00479793          	slli	a5,a5,0x4
    306c:	00e787b3          	add	a5,a5,a4
    3070:	00279793          	slli	a5,a5,0x2
    3074:	ff040713          	addi	a4,s0,-16
    3078:	00f707b3          	add	a5,a4,a5
    307c:	fbc7a783          	lw	a5,-68(a5)
    3080:	0027f793          	andi	a5,a5,2
    3084:	0e078463          	beqz	a5,316c <exec_benchmark+0x934>
    3088:	fee45703          	lhu	a4,-18(s0)
    308c:	00070793          	mv	a5,a4
    3090:	00479793          	slli	a5,a5,0x4
    3094:	00e787b3          	add	a5,a5,a4
    3098:	00279793          	slli	a5,a5,0x2
    309c:	ff040713          	addi	a4,s0,-16
    30a0:	00f707b3          	add	a5,a4,a5
    30a4:	fd87d703          	lhu	a4,-40(a5)
    30a8:	fe841783          	lh	a5,-24(s0)
    30ac:	000fe697          	auipc	a3,0xfe
    30b0:	8c868693          	addi	a3,a3,-1848 # 100974 <matrix_known_crc>
    30b4:	00179793          	slli	a5,a5,0x1
    30b8:	00f687b3          	add	a5,a3,a5
    30bc:	0007d783          	lhu	a5,0(a5)
    30c0:	0af70663          	beq	a4,a5,316c <exec_benchmark+0x934>
    30c4:	fee45583          	lhu	a1,-18(s0)
    30c8:	fee45703          	lhu	a4,-18(s0)
    30cc:	00070793          	mv	a5,a4
    30d0:	00479793          	slli	a5,a5,0x4
    30d4:	00e787b3          	add	a5,a5,a4
    30d8:	00279793          	slli	a5,a5,0x2
    30dc:	ff040713          	addi	a4,s0,-16
    30e0:	00f707b3          	add	a5,a4,a5
    30e4:	fd87d783          	lhu	a5,-40(a5)
    30e8:	00078613          	mv	a2,a5
    30ec:	fe841783          	lh	a5,-24(s0)
    30f0:	000fe717          	auipc	a4,0xfe
    30f4:	88470713          	addi	a4,a4,-1916 # 100974 <matrix_known_crc>
    30f8:	00179793          	slli	a5,a5,0x1
    30fc:	00f707b3          	add	a5,a4,a5
    3100:	0007d783          	lhu	a5,0(a5)
    3104:	00078693          	mv	a3,a5
    3108:	000fd517          	auipc	a0,0xfd
    310c:	05450513          	addi	a0,a0,84 # 10015c <_etext+0xfa224>
    3110:	050020ef          	jal	ra,5160 <kprintf>
    3114:	fee45703          	lhu	a4,-18(s0)
    3118:	00070793          	mv	a5,a4
    311c:	00479793          	slli	a5,a5,0x4
    3120:	00e787b3          	add	a5,a5,a4
    3124:	00279793          	slli	a5,a5,0x2
    3128:	ff040693          	addi	a3,s0,-16
    312c:	00f687b3          	add	a5,a3,a5
    3130:	fdc79783          	lh	a5,-36(a5)
    3134:	01079793          	slli	a5,a5,0x10
    3138:	0107d793          	srli	a5,a5,0x10
    313c:	00178793          	addi	a5,a5,1
    3140:	01079793          	slli	a5,a5,0x10
    3144:	0107d793          	srli	a5,a5,0x10
    3148:	01079693          	slli	a3,a5,0x10
    314c:	4106d693          	srai	a3,a3,0x10
    3150:	00070793          	mv	a5,a4
    3154:	00479793          	slli	a5,a5,0x4
    3158:	00e787b3          	add	a5,a5,a4
    315c:	00279793          	slli	a5,a5,0x2
    3160:	ff040713          	addi	a4,s0,-16
    3164:	00f707b3          	add	a5,a4,a5
    3168:	fcd79e23          	sh	a3,-36(a5)
    316c:	fee45703          	lhu	a4,-18(s0)
    3170:	00070793          	mv	a5,a4
    3174:	00479793          	slli	a5,a5,0x4
    3178:	00e787b3          	add	a5,a5,a4
    317c:	00279793          	slli	a5,a5,0x2
    3180:	ff040713          	addi	a4,s0,-16
    3184:	00f707b3          	add	a5,a4,a5
    3188:	fbc7a783          	lw	a5,-68(a5)
    318c:	0047f793          	andi	a5,a5,4
    3190:	0e078463          	beqz	a5,3278 <exec_benchmark+0xa40>
    3194:	fee45703          	lhu	a4,-18(s0)
    3198:	00070793          	mv	a5,a4
    319c:	00479793          	slli	a5,a5,0x4
    31a0:	00e787b3          	add	a5,a5,a4
    31a4:	00279793          	slli	a5,a5,0x2
    31a8:	ff040713          	addi	a4,s0,-16
    31ac:	00f707b3          	add	a5,a4,a5
    31b0:	fda7d703          	lhu	a4,-38(a5)
    31b4:	fe841783          	lh	a5,-24(s0)
    31b8:	000fd697          	auipc	a3,0xfd
    31bc:	7c868693          	addi	a3,a3,1992 # 100980 <state_known_crc>
    31c0:	00179793          	slli	a5,a5,0x1
    31c4:	00f687b3          	add	a5,a3,a5
    31c8:	0007d783          	lhu	a5,0(a5)
    31cc:	0af70663          	beq	a4,a5,3278 <exec_benchmark+0xa40>
    31d0:	fee45583          	lhu	a1,-18(s0)
    31d4:	fee45703          	lhu	a4,-18(s0)
    31d8:	00070793          	mv	a5,a4
    31dc:	00479793          	slli	a5,a5,0x4
    31e0:	00e787b3          	add	a5,a5,a4
    31e4:	00279793          	slli	a5,a5,0x2
    31e8:	ff040713          	addi	a4,s0,-16
    31ec:	00f707b3          	add	a5,a4,a5
    31f0:	fda7d783          	lhu	a5,-38(a5)
    31f4:	00078613          	mv	a2,a5
    31f8:	fe841783          	lh	a5,-24(s0)
    31fc:	000fd717          	auipc	a4,0xfd
    3200:	78470713          	addi	a4,a4,1924 # 100980 <state_known_crc>
    3204:	00179793          	slli	a5,a5,0x1
    3208:	00f707b3          	add	a5,a4,a5
    320c:	0007d783          	lhu	a5,0(a5)
    3210:	00078693          	mv	a3,a5
    3214:	000fd517          	auipc	a0,0xfd
    3218:	f7c50513          	addi	a0,a0,-132 # 100190 <_etext+0xfa258>
    321c:	745010ef          	jal	ra,5160 <kprintf>
    3220:	fee45703          	lhu	a4,-18(s0)
    3224:	00070793          	mv	a5,a4
    3228:	00479793          	slli	a5,a5,0x4
    322c:	00e787b3          	add	a5,a5,a4
    3230:	00279793          	slli	a5,a5,0x2
    3234:	ff040693          	addi	a3,s0,-16
    3238:	00f687b3          	add	a5,a3,a5
    323c:	fdc79783          	lh	a5,-36(a5)
    3240:	01079793          	slli	a5,a5,0x10
    3244:	0107d793          	srli	a5,a5,0x10
    3248:	00178793          	addi	a5,a5,1
    324c:	01079793          	slli	a5,a5,0x10
    3250:	0107d793          	srli	a5,a5,0x10
    3254:	01079693          	slli	a3,a5,0x10
    3258:	4106d693          	srai	a3,a3,0x10
    325c:	00070793          	mv	a5,a4
    3260:	00479793          	slli	a5,a5,0x4
    3264:	00e787b3          	add	a5,a5,a4
    3268:	00279793          	slli	a5,a5,0x2
    326c:	ff040713          	addi	a4,s0,-16
    3270:	00f707b3          	add	a5,a4,a5
    3274:	fcd79e23          	sh	a3,-36(a5)
    3278:	fee45703          	lhu	a4,-18(s0)
    327c:	00070793          	mv	a5,a4
    3280:	00479793          	slli	a5,a5,0x4
    3284:	00e787b3          	add	a5,a5,a4
    3288:	00279793          	slli	a5,a5,0x2
    328c:	ff040713          	addi	a4,s0,-16
    3290:	00f707b3          	add	a5,a4,a5
    3294:	fdc79783          	lh	a5,-36(a5)
    3298:	01079713          	slli	a4,a5,0x10
    329c:	01075713          	srli	a4,a4,0x10
    32a0:	fe645783          	lhu	a5,-26(s0)
    32a4:	00f707b3          	add	a5,a4,a5
    32a8:	01079793          	slli	a5,a5,0x10
    32ac:	0107d793          	srli	a5,a5,0x10
    32b0:	fef41323          	sh	a5,-26(s0)
    32b4:	fee45783          	lhu	a5,-18(s0)
    32b8:	00178793          	addi	a5,a5,1
    32bc:	fef41723          	sh	a5,-18(s0)
    32c0:	fee45703          	lhu	a4,-18(s0)
    32c4:	000fd797          	auipc	a5,0xfd
    32c8:	71c78793          	addi	a5,a5,1820 # 1009e0 <default_num_contexts>
    32cc:	0007a783          	lw	a5,0(a5)
    32d0:	c6f762e3          	bltu	a4,a5,2f34 <exec_benchmark+0x6fc>
    32d4:	541010ef          	jal	ra,5014 <check_data_types>
    32d8:	00050793          	mv	a5,a0
    32dc:	01079713          	slli	a4,a5,0x10
    32e0:	01075713          	srli	a4,a4,0x10
    32e4:	fe645783          	lhu	a5,-26(s0)
    32e8:	00f707b3          	add	a5,a4,a5
    32ec:	01079793          	slli	a5,a5,0x10
    32f0:	0107d793          	srli	a5,a5,0x10
    32f4:	fef41323          	sh	a5,-26(s0)
    32f8:	fa442783          	lw	a5,-92(s0)
    32fc:	00078593          	mv	a1,a5
    3300:	000fd517          	auipc	a0,0xfd
    3304:	ec050513          	addi	a0,a0,-320 # 1001c0 <_etext+0xfa288>
    3308:	659010ef          	jal	ra,5160 <kprintf>
    330c:	fd042503          	lw	a0,-48(s0)
    3310:	03c010ef          	jal	ra,434c <time_in_secs>
    3314:	00050793          	mv	a5,a0
    3318:	00078593          	mv	a1,a5
    331c:	000fd517          	auipc	a0,0xfd
    3320:	ebc50513          	addi	a0,a0,-324 # 1001d8 <_etext+0xfa2a0>
    3324:	63d010ef          	jal	ra,5160 <kprintf>
    3328:	fa842703          	lw	a4,-88(s0)
    332c:	000fd797          	auipc	a5,0xfd
    3330:	6b478793          	addi	a5,a5,1716 # 1009e0 <default_num_contexts>
    3334:	0007a783          	lw	a5,0(a5)
    3338:	00078593          	mv	a1,a5
    333c:	00070513          	mv	a0,a4
    3340:	1b4020ef          	jal	ra,54f4 <__mulsi3>
    3344:	00050793          	mv	a5,a0
    3348:	00078593          	mv	a1,a5
    334c:	000fd517          	auipc	a0,0xfd
    3350:	ea450513          	addi	a0,a0,-348 # 1001f0 <_etext+0xfa2b8>
    3354:	60d010ef          	jal	ra,5160 <kprintf>
    3358:	000fd597          	auipc	a1,0xfd
    335c:	eb058593          	addi	a1,a1,-336 # 100208 <_etext+0xfa2d0>
    3360:	000fd517          	auipc	a0,0xfd
    3364:	eb450513          	addi	a0,a0,-332 # 100214 <_etext+0xfa2dc>
    3368:	5f9010ef          	jal	ra,5160 <kprintf>
    336c:	fd645783          	lhu	a5,-42(s0)
    3370:	00078593          	mv	a1,a5
    3374:	000fd517          	auipc	a0,0xfd
    3378:	eb850513          	addi	a0,a0,-328 # 10022c <_etext+0xfa2f4>
    337c:	5e5010ef          	jal	ra,5160 <kprintf>
    3380:	fac42783          	lw	a5,-84(s0)
    3384:	0017f793          	andi	a5,a5,1
    3388:	06078263          	beqz	a5,33ec <exec_benchmark+0xbb4>
    338c:	fe041723          	sh	zero,-18(s0)
    3390:	0480006f          	j	33d8 <exec_benchmark+0xba0>
    3394:	fee45683          	lhu	a3,-18(s0)
    3398:	fee45703          	lhu	a4,-18(s0)
    339c:	00070793          	mv	a5,a4
    33a0:	00479793          	slli	a5,a5,0x4
    33a4:	00e787b3          	add	a5,a5,a4
    33a8:	00279793          	slli	a5,a5,0x2
    33ac:	ff040713          	addi	a4,s0,-16
    33b0:	00f707b3          	add	a5,a4,a5
    33b4:	fd67d783          	lhu	a5,-42(a5)
    33b8:	00078613          	mv	a2,a5
    33bc:	00068593          	mv	a1,a3
    33c0:	000fd517          	auipc	a0,0xfd
    33c4:	e8850513          	addi	a0,a0,-376 # 100248 <_etext+0xfa310>
    33c8:	599010ef          	jal	ra,5160 <kprintf>
    33cc:	fee45783          	lhu	a5,-18(s0)
    33d0:	00178793          	addi	a5,a5,1
    33d4:	fef41723          	sh	a5,-18(s0)
    33d8:	fee45703          	lhu	a4,-18(s0)
    33dc:	000fd797          	auipc	a5,0xfd
    33e0:	60478793          	addi	a5,a5,1540 # 1009e0 <default_num_contexts>
    33e4:	0007a783          	lw	a5,0(a5)
    33e8:	faf766e3          	bltu	a4,a5,3394 <exec_benchmark+0xb5c>
    33ec:	fac42783          	lw	a5,-84(s0)
    33f0:	0027f793          	andi	a5,a5,2
    33f4:	06078263          	beqz	a5,3458 <exec_benchmark+0xc20>
    33f8:	fe041723          	sh	zero,-18(s0)
    33fc:	0480006f          	j	3444 <exec_benchmark+0xc0c>
    3400:	fee45683          	lhu	a3,-18(s0)
    3404:	fee45703          	lhu	a4,-18(s0)
    3408:	00070793          	mv	a5,a4
    340c:	00479793          	slli	a5,a5,0x4
    3410:	00e787b3          	add	a5,a5,a4
    3414:	00279793          	slli	a5,a5,0x2
    3418:	ff040713          	addi	a4,s0,-16
    341c:	00f707b3          	add	a5,a4,a5
    3420:	fd87d783          	lhu	a5,-40(a5)
    3424:	00078613          	mv	a2,a5
    3428:	00068593          	mv	a1,a3
    342c:	000fd517          	auipc	a0,0xfd
    3430:	e3850513          	addi	a0,a0,-456 # 100264 <_etext+0xfa32c>
    3434:	52d010ef          	jal	ra,5160 <kprintf>
    3438:	fee45783          	lhu	a5,-18(s0)
    343c:	00178793          	addi	a5,a5,1
    3440:	fef41723          	sh	a5,-18(s0)
    3444:	fee45703          	lhu	a4,-18(s0)
    3448:	000fd797          	auipc	a5,0xfd
    344c:	59878793          	addi	a5,a5,1432 # 1009e0 <default_num_contexts>
    3450:	0007a783          	lw	a5,0(a5)
    3454:	faf766e3          	bltu	a4,a5,3400 <exec_benchmark+0xbc8>
    3458:	fac42783          	lw	a5,-84(s0)
    345c:	0047f793          	andi	a5,a5,4
    3460:	06078263          	beqz	a5,34c4 <exec_benchmark+0xc8c>
    3464:	fe041723          	sh	zero,-18(s0)
    3468:	0480006f          	j	34b0 <exec_benchmark+0xc78>
    346c:	fee45683          	lhu	a3,-18(s0)
    3470:	fee45703          	lhu	a4,-18(s0)
    3474:	00070793          	mv	a5,a4
    3478:	00479793          	slli	a5,a5,0x4
    347c:	00e787b3          	add	a5,a5,a4
    3480:	00279793          	slli	a5,a5,0x2
    3484:	ff040713          	addi	a4,s0,-16
    3488:	00f707b3          	add	a5,a4,a5
    348c:	fda7d783          	lhu	a5,-38(a5)
    3490:	00078613          	mv	a2,a5
    3494:	00068593          	mv	a1,a3
    3498:	000fd517          	auipc	a0,0xfd
    349c:	de850513          	addi	a0,a0,-536 # 100280 <_etext+0xfa348>
    34a0:	4c1010ef          	jal	ra,5160 <kprintf>
    34a4:	fee45783          	lhu	a5,-18(s0)
    34a8:	00178793          	addi	a5,a5,1
    34ac:	fef41723          	sh	a5,-18(s0)
    34b0:	fee45703          	lhu	a4,-18(s0)
    34b4:	000fd797          	auipc	a5,0xfd
    34b8:	52c78793          	addi	a5,a5,1324 # 1009e0 <default_num_contexts>
    34bc:	0007a783          	lw	a5,0(a5)
    34c0:	faf766e3          	bltu	a4,a5,346c <exec_benchmark+0xc34>
    34c4:	fe041723          	sh	zero,-18(s0)
    34c8:	0480006f          	j	3510 <exec_benchmark+0xcd8>
    34cc:	fee45683          	lhu	a3,-18(s0)
    34d0:	fee45703          	lhu	a4,-18(s0)
    34d4:	00070793          	mv	a5,a4
    34d8:	00479793          	slli	a5,a5,0x4
    34dc:	00e787b3          	add	a5,a5,a4
    34e0:	00279793          	slli	a5,a5,0x2
    34e4:	ff040713          	addi	a4,s0,-16
    34e8:	00f707b3          	add	a5,a4,a5
    34ec:	fd47d783          	lhu	a5,-44(a5)
    34f0:	00078613          	mv	a2,a5
    34f4:	00068593          	mv	a1,a3
    34f8:	000fd517          	auipc	a0,0xfd
    34fc:	da450513          	addi	a0,a0,-604 # 10029c <_etext+0xfa364>
    3500:	461010ef          	jal	ra,5160 <kprintf>
    3504:	fee45783          	lhu	a5,-18(s0)
    3508:	00178793          	addi	a5,a5,1
    350c:	fef41723          	sh	a5,-18(s0)
    3510:	fee45703          	lhu	a4,-18(s0)
    3514:	000fd797          	auipc	a5,0xfd
    3518:	4cc78793          	addi	a5,a5,1228 # 1009e0 <default_num_contexts>
    351c:	0007a783          	lw	a5,0(a5)
    3520:	faf766e3          	bltu	a4,a5,34cc <exec_benchmark+0xc94>
    3524:	fd042783          	lw	a5,-48(s0)
    3528:	00078593          	mv	a1,a5
    352c:	000fd517          	auipc	a0,0xfd
    3530:	d8c50513          	addi	a0,a0,-628 # 1002b8 <_etext+0xfa380>
    3534:	42d010ef          	jal	ra,5160 <kprintf>
    3538:	fe641783          	lh	a5,-26(s0)
    353c:	06079c63          	bnez	a5,35b4 <exec_benchmark+0xd7c>
    3540:	000fd517          	auipc	a0,0xfd
    3544:	d8c50513          	addi	a0,a0,-628 # 1002cc <_etext+0xfa394>
    3548:	419010ef          	jal	ra,5160 <kprintf>
    354c:	fd042503          	lw	a0,-48(s0)
    3550:	5fd000ef          	jal	ra,434c <time_in_secs>
    3554:	00050713          	mv	a4,a0
    3558:	002c97b7          	lui	a5,0x2c9
    355c:	00070593          	mv	a1,a4
    3560:	3b878513          	addi	a0,a5,952 # 2c93b8 <_end+0x1c37b8>
    3564:	0b8020ef          	jal	ra,561c <__udivsi3>
    3568:	00050793          	mv	a5,a0
    356c:	00078713          	mv	a4,a5
    3570:	00070793          	mv	a5,a4
    3574:	00579793          	slli	a5,a5,0x5
    3578:	40e787b3          	sub	a5,a5,a4
    357c:	00279793          	slli	a5,a5,0x2
    3580:	00e787b3          	add	a5,a5,a4
    3584:	00379793          	slli	a5,a5,0x3
    3588:	3e800593          	li	a1,1000
    358c:	00078513          	mv	a0,a5
    3590:	08c020ef          	jal	ra,561c <__udivsi3>
    3594:	00050793          	mv	a5,a0
    3598:	00078593          	mv	a1,a5
    359c:	000fd517          	auipc	a0,0xfd
    35a0:	d6450513          	addi	a0,a0,-668 # 100300 <_etext+0xfa3c8>
    35a4:	3bd010ef          	jal	ra,5160 <kprintf>
    35a8:	000fd517          	auipc	a0,0xfd
    35ac:	d7850513          	addi	a0,a0,-648 # 100320 <_etext+0xfa3e8>
    35b0:	3b1010ef          	jal	ra,5160 <kprintf>
    35b4:	fe641783          	lh	a5,-26(s0)
    35b8:	00f05863          	blez	a5,35c8 <exec_benchmark+0xd90>
    35bc:	000fd517          	auipc	a0,0xfd
    35c0:	d9c50513          	addi	a0,a0,-612 # 100358 <_etext+0xfa420>
    35c4:	39d010ef          	jal	ra,5160 <kprintf>
    35c8:	fe641783          	lh	a5,-26(s0)
    35cc:	0007d863          	bgez	a5,35dc <exec_benchmark+0xda4>
    35d0:	000fd517          	auipc	a0,0xfd
    35d4:	d9c50513          	addi	a0,a0,-612 # 10036c <_etext+0xfa434>
    35d8:	389010ef          	jal	ra,5160 <kprintf>
    35dc:	f8c40793          	addi	a5,s0,-116
    35e0:	04278793          	addi	a5,a5,66
    35e4:	00078513          	mv	a0,a5
    35e8:	5bd000ef          	jal	ra,43a4 <portable_fini>
    35ec:	00000013          	nop
    35f0:	08c12083          	lw	ra,140(sp)
    35f4:	08812403          	lw	s0,136(sp)
    35f8:	08412483          	lw	s1,132(sp)
    35fc:	09010113          	addi	sp,sp,144
    3600:	00008067          	ret

00003604 <core_bench_matrix>:
    3604:	fc010113          	addi	sp,sp,-64
    3608:	02112e23          	sw	ra,60(sp)
    360c:	02812c23          	sw	s0,56(sp)
    3610:	04010413          	addi	s0,sp,64
    3614:	fca42623          	sw	a0,-52(s0)
    3618:	00058793          	mv	a5,a1
    361c:	00060713          	mv	a4,a2
    3620:	fcf41523          	sh	a5,-54(s0)
    3624:	00070793          	mv	a5,a4
    3628:	fcf41423          	sh	a5,-56(s0)
    362c:	fcc42783          	lw	a5,-52(s0)
    3630:	0007a783          	lw	a5,0(a5)
    3634:	fef42623          	sw	a5,-20(s0)
    3638:	fcc42783          	lw	a5,-52(s0)
    363c:	00c7a783          	lw	a5,12(a5)
    3640:	fef42423          	sw	a5,-24(s0)
    3644:	fcc42783          	lw	a5,-52(s0)
    3648:	0047a783          	lw	a5,4(a5)
    364c:	fef42223          	sw	a5,-28(s0)
    3650:	fcc42783          	lw	a5,-52(s0)
    3654:	0087a783          	lw	a5,8(a5)
    3658:	fef42023          	sw	a5,-32(s0)
    365c:	fca45783          	lhu	a5,-54(s0)
    3660:	fcf41f23          	sh	a5,-34(s0)
    3664:	fde41783          	lh	a5,-34(s0)
    3668:	00078713          	mv	a4,a5
    366c:	fe042683          	lw	a3,-32(s0)
    3670:	fe442603          	lw	a2,-28(s0)
    3674:	fe842583          	lw	a1,-24(s0)
    3678:	fec42503          	lw	a0,-20(s0)
    367c:	03c000ef          	jal	ra,36b8 <matrix_test>
    3680:	00050793          	mv	a5,a0
    3684:	00078713          	mv	a4,a5
    3688:	fc845783          	lhu	a5,-56(s0)
    368c:	00078593          	mv	a1,a5
    3690:	00070513          	mv	a0,a4
    3694:	131010ef          	jal	ra,4fc4 <crc16>
    3698:	00050793          	mv	a5,a0
    369c:	fcf41423          	sh	a5,-56(s0)
    36a0:	fc845783          	lhu	a5,-56(s0)
    36a4:	00078513          	mv	a0,a5
    36a8:	03c12083          	lw	ra,60(sp)
    36ac:	03812403          	lw	s0,56(sp)
    36b0:	04010113          	addi	sp,sp,64
    36b4:	00008067          	ret

000036b8 <matrix_test>:
    36b8:	fc010113          	addi	sp,sp,-64
    36bc:	02112e23          	sw	ra,60(sp)
    36c0:	02812c23          	sw	s0,56(sp)
    36c4:	04010413          	addi	s0,sp,64
    36c8:	fca42e23          	sw	a0,-36(s0)
    36cc:	fcb42c23          	sw	a1,-40(s0)
    36d0:	fcc42a23          	sw	a2,-44(s0)
    36d4:	fcd42823          	sw	a3,-48(s0)
    36d8:	00070793          	mv	a5,a4
    36dc:	fcf41723          	sh	a5,-50(s0)
    36e0:	fe041723          	sh	zero,-18(s0)
    36e4:	fce45703          	lhu	a4,-50(s0)
    36e8:	fffff7b7          	lui	a5,0xfffff
    36ec:	00f767b3          	or	a5,a4,a5
    36f0:	fef41623          	sh	a5,-20(s0)
    36f4:	fce41783          	lh	a5,-50(s0)
    36f8:	00078613          	mv	a2,a5
    36fc:	fd442583          	lw	a1,-44(s0)
    3700:	fdc42503          	lw	a0,-36(s0)
    3704:	5ec000ef          	jal	ra,3cf0 <matrix_add_const>
    3708:	fce41783          	lh	a5,-50(s0)
    370c:	00078693          	mv	a3,a5
    3710:	fd442603          	lw	a2,-44(s0)
    3714:	fd842583          	lw	a1,-40(s0)
    3718:	fdc42503          	lw	a0,-36(s0)
    371c:	4d0000ef          	jal	ra,3bec <matrix_mul_const>
    3720:	fec41783          	lh	a5,-20(s0)
    3724:	00078613          	mv	a2,a5
    3728:	fd842583          	lw	a1,-40(s0)
    372c:	fdc42503          	lw	a0,-36(s0)
    3730:	398000ef          	jal	ra,3ac8 <matrix_sum>
    3734:	00050793          	mv	a5,a0
    3738:	00078713          	mv	a4,a5
    373c:	fee45783          	lhu	a5,-18(s0)
    3740:	00078593          	mv	a1,a5
    3744:	00070513          	mv	a0,a4
    3748:	07d010ef          	jal	ra,4fc4 <crc16>
    374c:	00050793          	mv	a5,a0
    3750:	fef41723          	sh	a5,-18(s0)
    3754:	fd042683          	lw	a3,-48(s0)
    3758:	fd442603          	lw	a2,-44(s0)
    375c:	fd842583          	lw	a1,-40(s0)
    3760:	fdc42503          	lw	a0,-36(s0)
    3764:	684000ef          	jal	ra,3de8 <matrix_mul_vect>
    3768:	fec41783          	lh	a5,-20(s0)
    376c:	00078613          	mv	a2,a5
    3770:	fd842583          	lw	a1,-40(s0)
    3774:	fdc42503          	lw	a0,-36(s0)
    3778:	350000ef          	jal	ra,3ac8 <matrix_sum>
    377c:	00050793          	mv	a5,a0
    3780:	00078713          	mv	a4,a5
    3784:	fee45783          	lhu	a5,-18(s0)
    3788:	00078593          	mv	a1,a5
    378c:	00070513          	mv	a0,a4
    3790:	035010ef          	jal	ra,4fc4 <crc16>
    3794:	00050793          	mv	a5,a0
    3798:	fef41723          	sh	a5,-18(s0)
    379c:	fd042683          	lw	a3,-48(s0)
    37a0:	fd442603          	lw	a2,-44(s0)
    37a4:	fd842583          	lw	a1,-40(s0)
    37a8:	fdc42503          	lw	a0,-36(s0)
    37ac:	754000ef          	jal	ra,3f00 <matrix_mul_matrix>
    37b0:	fec41783          	lh	a5,-20(s0)
    37b4:	00078613          	mv	a2,a5
    37b8:	fd842583          	lw	a1,-40(s0)
    37bc:	fdc42503          	lw	a0,-36(s0)
    37c0:	308000ef          	jal	ra,3ac8 <matrix_sum>
    37c4:	00050793          	mv	a5,a0
    37c8:	00078713          	mv	a4,a5
    37cc:	fee45783          	lhu	a5,-18(s0)
    37d0:	00078593          	mv	a1,a5
    37d4:	00070513          	mv	a0,a4
    37d8:	7ec010ef          	jal	ra,4fc4 <crc16>
    37dc:	00050793          	mv	a5,a0
    37e0:	fef41723          	sh	a5,-18(s0)
    37e4:	fd042683          	lw	a3,-48(s0)
    37e8:	fd442603          	lw	a2,-44(s0)
    37ec:	fd842583          	lw	a1,-40(s0)
    37f0:	fdc42503          	lw	a0,-36(s0)
    37f4:	0ad000ef          	jal	ra,40a0 <matrix_mul_matrix_bitextract>
    37f8:	fec41783          	lh	a5,-20(s0)
    37fc:	00078613          	mv	a2,a5
    3800:	fd842583          	lw	a1,-40(s0)
    3804:	fdc42503          	lw	a0,-36(s0)
    3808:	2c0000ef          	jal	ra,3ac8 <matrix_sum>
    380c:	00050793          	mv	a5,a0
    3810:	00078713          	mv	a4,a5
    3814:	fee45783          	lhu	a5,-18(s0)
    3818:	00078593          	mv	a1,a5
    381c:	00070513          	mv	a0,a4
    3820:	7a4010ef          	jal	ra,4fc4 <crc16>
    3824:	00050793          	mv	a5,a0
    3828:	fef41723          	sh	a5,-18(s0)
    382c:	fce45783          	lhu	a5,-50(s0)
    3830:	40f007b3          	neg	a5,a5
    3834:	01079793          	slli	a5,a5,0x10
    3838:	0107d793          	srli	a5,a5,0x10
    383c:	01079793          	slli	a5,a5,0x10
    3840:	4107d793          	srai	a5,a5,0x10
    3844:	00078613          	mv	a2,a5
    3848:	fd442583          	lw	a1,-44(s0)
    384c:	fdc42503          	lw	a0,-36(s0)
    3850:	4a0000ef          	jal	ra,3cf0 <matrix_add_const>
    3854:	fee41783          	lh	a5,-18(s0)
    3858:	00078513          	mv	a0,a5
    385c:	03c12083          	lw	ra,60(sp)
    3860:	03812403          	lw	s0,56(sp)
    3864:	04010113          	addi	sp,sp,64
    3868:	00008067          	ret

0000386c <core_init_matrix>:
    386c:	fc010113          	addi	sp,sp,-64
    3870:	02112e23          	sw	ra,60(sp)
    3874:	02812c23          	sw	s0,56(sp)
    3878:	04010413          	addi	s0,sp,64
    387c:	fca42623          	sw	a0,-52(s0)
    3880:	fcb42423          	sw	a1,-56(s0)
    3884:	fcc42223          	sw	a2,-60(s0)
    3888:	fcd42023          	sw	a3,-64(s0)
    388c:	fe042023          	sw	zero,-32(s0)
    3890:	00100793          	li	a5,1
    3894:	fef42623          	sw	a5,-20(s0)
    3898:	fe042423          	sw	zero,-24(s0)
    389c:	fe042223          	sw	zero,-28(s0)
    38a0:	fc442783          	lw	a5,-60(s0)
    38a4:	02079a63          	bnez	a5,38d8 <core_init_matrix+0x6c>
    38a8:	00100793          	li	a5,1
    38ac:	fcf42223          	sw	a5,-60(s0)
    38b0:	0280006f          	j	38d8 <core_init_matrix+0x6c>
    38b4:	fe842783          	lw	a5,-24(s0)
    38b8:	00178793          	addi	a5,a5,1 # fffff001 <_end+0xffef9401>
    38bc:	fef42423          	sw	a5,-24(s0)
    38c0:	fe842583          	lw	a1,-24(s0)
    38c4:	fe842503          	lw	a0,-24(s0)
    38c8:	42d010ef          	jal	ra,54f4 <__mulsi3>
    38cc:	00050793          	mv	a5,a0
    38d0:	00379793          	slli	a5,a5,0x3
    38d4:	fef42223          	sw	a5,-28(s0)
    38d8:	fe442703          	lw	a4,-28(s0)
    38dc:	fcc42783          	lw	a5,-52(s0)
    38e0:	fcf76ae3          	bltu	a4,a5,38b4 <core_init_matrix+0x48>
    38e4:	fe842783          	lw	a5,-24(s0)
    38e8:	fff78793          	addi	a5,a5,-1
    38ec:	fef42023          	sw	a5,-32(s0)
    38f0:	fc842783          	lw	a5,-56(s0)
    38f4:	fff78793          	addi	a5,a5,-1
    38f8:	ffc7f793          	andi	a5,a5,-4
    38fc:	00478793          	addi	a5,a5,4
    3900:	fcf42e23          	sw	a5,-36(s0)
    3904:	fe042583          	lw	a1,-32(s0)
    3908:	fe042503          	lw	a0,-32(s0)
    390c:	3e9010ef          	jal	ra,54f4 <__mulsi3>
    3910:	00050793          	mv	a5,a0
    3914:	00179793          	slli	a5,a5,0x1
    3918:	fdc42703          	lw	a4,-36(s0)
    391c:	00f707b3          	add	a5,a4,a5
    3920:	fcf42c23          	sw	a5,-40(s0)
    3924:	fe042423          	sw	zero,-24(s0)
    3928:	1240006f          	j	3a4c <core_init_matrix+0x1e0>
    392c:	fe042223          	sw	zero,-28(s0)
    3930:	1040006f          	j	3a34 <core_init_matrix+0x1c8>
    3934:	fc442583          	lw	a1,-60(s0)
    3938:	fec42503          	lw	a0,-20(s0)
    393c:	3b9010ef          	jal	ra,54f4 <__mulsi3>
    3940:	00050793          	mv	a5,a0
    3944:	00078713          	mv	a4,a5
    3948:	41f75793          	srai	a5,a4,0x1f
    394c:	0107d793          	srli	a5,a5,0x10
    3950:	00f706b3          	add	a3,a4,a5
    3954:	00010737          	lui	a4,0x10
    3958:	fff70713          	addi	a4,a4,-1 # ffff <_etext+0xa0c7>
    395c:	00e6f733          	and	a4,a3,a4
    3960:	40f707b3          	sub	a5,a4,a5
    3964:	fcf42223          	sw	a5,-60(s0)
    3968:	fc442783          	lw	a5,-60(s0)
    396c:	01079713          	slli	a4,a5,0x10
    3970:	01075713          	srli	a4,a4,0x10
    3974:	fec42783          	lw	a5,-20(s0)
    3978:	01079793          	slli	a5,a5,0x10
    397c:	0107d793          	srli	a5,a5,0x10
    3980:	00f707b3          	add	a5,a4,a5
    3984:	01079793          	slli	a5,a5,0x10
    3988:	0107d793          	srli	a5,a5,0x10
    398c:	fcf41b23          	sh	a5,-42(s0)
    3990:	fe042583          	lw	a1,-32(s0)
    3994:	fe842503          	lw	a0,-24(s0)
    3998:	35d010ef          	jal	ra,54f4 <__mulsi3>
    399c:	00050793          	mv	a5,a0
    39a0:	00078713          	mv	a4,a5
    39a4:	fe442783          	lw	a5,-28(s0)
    39a8:	00f707b3          	add	a5,a4,a5
    39ac:	00179793          	slli	a5,a5,0x1
    39b0:	fd842703          	lw	a4,-40(s0)
    39b4:	00f707b3          	add	a5,a4,a5
    39b8:	fd645703          	lhu	a4,-42(s0)
    39bc:	00e79023          	sh	a4,0(a5)
    39c0:	fec42783          	lw	a5,-20(s0)
    39c4:	01079713          	slli	a4,a5,0x10
    39c8:	01075713          	srli	a4,a4,0x10
    39cc:	fd645783          	lhu	a5,-42(s0)
    39d0:	00f707b3          	add	a5,a4,a5
    39d4:	01079793          	slli	a5,a5,0x10
    39d8:	0107d793          	srli	a5,a5,0x10
    39dc:	fcf41b23          	sh	a5,-42(s0)
    39e0:	fd645783          	lhu	a5,-42(s0)
    39e4:	0ff7f793          	andi	a5,a5,255
    39e8:	fcf41b23          	sh	a5,-42(s0)
    39ec:	fe042583          	lw	a1,-32(s0)
    39f0:	fe842503          	lw	a0,-24(s0)
    39f4:	301010ef          	jal	ra,54f4 <__mulsi3>
    39f8:	00050793          	mv	a5,a0
    39fc:	00078713          	mv	a4,a5
    3a00:	fe442783          	lw	a5,-28(s0)
    3a04:	00f707b3          	add	a5,a4,a5
    3a08:	00179793          	slli	a5,a5,0x1
    3a0c:	fdc42703          	lw	a4,-36(s0)
    3a10:	00f707b3          	add	a5,a4,a5
    3a14:	fd645703          	lhu	a4,-42(s0)
    3a18:	00e79023          	sh	a4,0(a5)
    3a1c:	fec42783          	lw	a5,-20(s0)
    3a20:	00178793          	addi	a5,a5,1
    3a24:	fef42623          	sw	a5,-20(s0)
    3a28:	fe442783          	lw	a5,-28(s0)
    3a2c:	00178793          	addi	a5,a5,1
    3a30:	fef42223          	sw	a5,-28(s0)
    3a34:	fe442703          	lw	a4,-28(s0)
    3a38:	fe042783          	lw	a5,-32(s0)
    3a3c:	eef76ce3          	bltu	a4,a5,3934 <core_init_matrix+0xc8>
    3a40:	fe842783          	lw	a5,-24(s0)
    3a44:	00178793          	addi	a5,a5,1
    3a48:	fef42423          	sw	a5,-24(s0)
    3a4c:	fe842703          	lw	a4,-24(s0)
    3a50:	fe042783          	lw	a5,-32(s0)
    3a54:	ecf76ce3          	bltu	a4,a5,392c <core_init_matrix+0xc0>
    3a58:	fc042783          	lw	a5,-64(s0)
    3a5c:	fdc42703          	lw	a4,-36(s0)
    3a60:	00e7a223          	sw	a4,4(a5)
    3a64:	fc042783          	lw	a5,-64(s0)
    3a68:	fd842703          	lw	a4,-40(s0)
    3a6c:	00e7a423          	sw	a4,8(a5)
    3a70:	fe042583          	lw	a1,-32(s0)
    3a74:	fe042503          	lw	a0,-32(s0)
    3a78:	27d010ef          	jal	ra,54f4 <__mulsi3>
    3a7c:	00050793          	mv	a5,a0
    3a80:	00179793          	slli	a5,a5,0x1
    3a84:	fd842703          	lw	a4,-40(s0)
    3a88:	00f707b3          	add	a5,a4,a5
    3a8c:	fff78793          	addi	a5,a5,-1
    3a90:	ffc7f793          	andi	a5,a5,-4
    3a94:	00478793          	addi	a5,a5,4
    3a98:	00078713          	mv	a4,a5
    3a9c:	fc042783          	lw	a5,-64(s0)
    3aa0:	00e7a623          	sw	a4,12(a5)
    3aa4:	fe042703          	lw	a4,-32(s0)
    3aa8:	fc042783          	lw	a5,-64(s0)
    3aac:	00e7a023          	sw	a4,0(a5)
    3ab0:	fe042783          	lw	a5,-32(s0)
    3ab4:	00078513          	mv	a0,a5
    3ab8:	03c12083          	lw	ra,60(sp)
    3abc:	03812403          	lw	s0,56(sp)
    3ac0:	04010113          	addi	sp,sp,64
    3ac4:	00008067          	ret

00003ac8 <matrix_sum>:
    3ac8:	fc010113          	addi	sp,sp,-64
    3acc:	02112e23          	sw	ra,60(sp)
    3ad0:	02812c23          	sw	s0,56(sp)
    3ad4:	04010413          	addi	s0,sp,64
    3ad8:	fca42623          	sw	a0,-52(s0)
    3adc:	fcb42423          	sw	a1,-56(s0)
    3ae0:	00060793          	mv	a5,a2
    3ae4:	fcf41323          	sh	a5,-58(s0)
    3ae8:	fe042623          	sw	zero,-20(s0)
    3aec:	fe042423          	sw	zero,-24(s0)
    3af0:	fc042c23          	sw	zero,-40(s0)
    3af4:	fe041323          	sh	zero,-26(s0)
    3af8:	fe042023          	sw	zero,-32(s0)
    3afc:	0cc0006f          	j	3bc8 <matrix_sum+0x100>
    3b00:	fc042e23          	sw	zero,-36(s0)
    3b04:	0ac0006f          	j	3bb0 <matrix_sum+0xe8>
    3b08:	fcc42583          	lw	a1,-52(s0)
    3b0c:	fe042503          	lw	a0,-32(s0)
    3b10:	1e5010ef          	jal	ra,54f4 <__mulsi3>
    3b14:	00050793          	mv	a5,a0
    3b18:	00078713          	mv	a4,a5
    3b1c:	fdc42783          	lw	a5,-36(s0)
    3b20:	00f707b3          	add	a5,a4,a5
    3b24:	00279793          	slli	a5,a5,0x2
    3b28:	fc842703          	lw	a4,-56(s0)
    3b2c:	00f707b3          	add	a5,a4,a5
    3b30:	0007a783          	lw	a5,0(a5)
    3b34:	fcf42c23          	sw	a5,-40(s0)
    3b38:	fec42703          	lw	a4,-20(s0)
    3b3c:	fd842783          	lw	a5,-40(s0)
    3b40:	00f707b3          	add	a5,a4,a5
    3b44:	fef42623          	sw	a5,-20(s0)
    3b48:	fc641783          	lh	a5,-58(s0)
    3b4c:	fec42703          	lw	a4,-20(s0)
    3b50:	02e7d063          	bge	a5,a4,3b70 <matrix_sum+0xa8>
    3b54:	fe645783          	lhu	a5,-26(s0)
    3b58:	00a78793          	addi	a5,a5,10
    3b5c:	01079793          	slli	a5,a5,0x10
    3b60:	0107d793          	srli	a5,a5,0x10
    3b64:	fef41323          	sh	a5,-26(s0)
    3b68:	fe042623          	sw	zero,-20(s0)
    3b6c:	0300006f          	j	3b9c <matrix_sum+0xd4>
    3b70:	fd842703          	lw	a4,-40(s0)
    3b74:	fe842783          	lw	a5,-24(s0)
    3b78:	00e7a7b3          	slt	a5,a5,a4
    3b7c:	0ff7f793          	andi	a5,a5,255
    3b80:	01079713          	slli	a4,a5,0x10
    3b84:	01075713          	srli	a4,a4,0x10
    3b88:	fe645783          	lhu	a5,-26(s0)
    3b8c:	00f707b3          	add	a5,a4,a5
    3b90:	01079793          	slli	a5,a5,0x10
    3b94:	0107d793          	srli	a5,a5,0x10
    3b98:	fef41323          	sh	a5,-26(s0)
    3b9c:	fd842783          	lw	a5,-40(s0)
    3ba0:	fef42423          	sw	a5,-24(s0)
    3ba4:	fdc42783          	lw	a5,-36(s0)
    3ba8:	00178793          	addi	a5,a5,1
    3bac:	fcf42e23          	sw	a5,-36(s0)
    3bb0:	fdc42703          	lw	a4,-36(s0)
    3bb4:	fcc42783          	lw	a5,-52(s0)
    3bb8:	f4f768e3          	bltu	a4,a5,3b08 <matrix_sum+0x40>
    3bbc:	fe042783          	lw	a5,-32(s0)
    3bc0:	00178793          	addi	a5,a5,1
    3bc4:	fef42023          	sw	a5,-32(s0)
    3bc8:	fe042703          	lw	a4,-32(s0)
    3bcc:	fcc42783          	lw	a5,-52(s0)
    3bd0:	f2f768e3          	bltu	a4,a5,3b00 <matrix_sum+0x38>
    3bd4:	fe641783          	lh	a5,-26(s0)
    3bd8:	00078513          	mv	a0,a5
    3bdc:	03c12083          	lw	ra,60(sp)
    3be0:	03812403          	lw	s0,56(sp)
    3be4:	04010113          	addi	sp,sp,64
    3be8:	00008067          	ret

00003bec <matrix_mul_const>:
    3bec:	fc010113          	addi	sp,sp,-64
    3bf0:	02112e23          	sw	ra,60(sp)
    3bf4:	02812c23          	sw	s0,56(sp)
    3bf8:	02912a23          	sw	s1,52(sp)
    3bfc:	03212823          	sw	s2,48(sp)
    3c00:	03312623          	sw	s3,44(sp)
    3c04:	04010413          	addi	s0,sp,64
    3c08:	fca42623          	sw	a0,-52(s0)
    3c0c:	fcb42423          	sw	a1,-56(s0)
    3c10:	fcc42223          	sw	a2,-60(s0)
    3c14:	00068793          	mv	a5,a3
    3c18:	fcf41123          	sh	a5,-62(s0)
    3c1c:	fc042e23          	sw	zero,-36(s0)
    3c20:	0a00006f          	j	3cc0 <matrix_mul_const+0xd4>
    3c24:	fc042c23          	sw	zero,-40(s0)
    3c28:	0800006f          	j	3ca8 <matrix_mul_const+0xbc>
    3c2c:	fcc42583          	lw	a1,-52(s0)
    3c30:	fdc42503          	lw	a0,-36(s0)
    3c34:	0c1010ef          	jal	ra,54f4 <__mulsi3>
    3c38:	00050793          	mv	a5,a0
    3c3c:	00078713          	mv	a4,a5
    3c40:	fd842783          	lw	a5,-40(s0)
    3c44:	00f707b3          	add	a5,a4,a5
    3c48:	00179793          	slli	a5,a5,0x1
    3c4c:	fc442703          	lw	a4,-60(s0)
    3c50:	00f707b3          	add	a5,a4,a5
    3c54:	00079783          	lh	a5,0(a5)
    3c58:	00078993          	mv	s3,a5
    3c5c:	fc241903          	lh	s2,-62(s0)
    3c60:	fcc42583          	lw	a1,-52(s0)
    3c64:	fdc42503          	lw	a0,-36(s0)
    3c68:	08d010ef          	jal	ra,54f4 <__mulsi3>
    3c6c:	00050793          	mv	a5,a0
    3c70:	00078713          	mv	a4,a5
    3c74:	fd842783          	lw	a5,-40(s0)
    3c78:	00f707b3          	add	a5,a4,a5
    3c7c:	00279793          	slli	a5,a5,0x2
    3c80:	fc842703          	lw	a4,-56(s0)
    3c84:	00f704b3          	add	s1,a4,a5
    3c88:	00090593          	mv	a1,s2
    3c8c:	00098513          	mv	a0,s3
    3c90:	065010ef          	jal	ra,54f4 <__mulsi3>
    3c94:	00050793          	mv	a5,a0
    3c98:	00f4a023          	sw	a5,0(s1)
    3c9c:	fd842783          	lw	a5,-40(s0)
    3ca0:	00178793          	addi	a5,a5,1
    3ca4:	fcf42c23          	sw	a5,-40(s0)
    3ca8:	fd842703          	lw	a4,-40(s0)
    3cac:	fcc42783          	lw	a5,-52(s0)
    3cb0:	f6f76ee3          	bltu	a4,a5,3c2c <matrix_mul_const+0x40>
    3cb4:	fdc42783          	lw	a5,-36(s0)
    3cb8:	00178793          	addi	a5,a5,1
    3cbc:	fcf42e23          	sw	a5,-36(s0)
    3cc0:	fdc42703          	lw	a4,-36(s0)
    3cc4:	fcc42783          	lw	a5,-52(s0)
    3cc8:	f4f76ee3          	bltu	a4,a5,3c24 <matrix_mul_const+0x38>
    3ccc:	00000013          	nop
    3cd0:	00000013          	nop
    3cd4:	03c12083          	lw	ra,60(sp)
    3cd8:	03812403          	lw	s0,56(sp)
    3cdc:	03412483          	lw	s1,52(sp)
    3ce0:	03012903          	lw	s2,48(sp)
    3ce4:	02c12983          	lw	s3,44(sp)
    3ce8:	04010113          	addi	sp,sp,64
    3cec:	00008067          	ret

00003cf0 <matrix_add_const>:
    3cf0:	fd010113          	addi	sp,sp,-48
    3cf4:	02112623          	sw	ra,44(sp)
    3cf8:	02812423          	sw	s0,40(sp)
    3cfc:	02912223          	sw	s1,36(sp)
    3d00:	03010413          	addi	s0,sp,48
    3d04:	fca42e23          	sw	a0,-36(s0)
    3d08:	fcb42c23          	sw	a1,-40(s0)
    3d0c:	00060793          	mv	a5,a2
    3d10:	fcf41b23          	sh	a5,-42(s0)
    3d14:	fe042623          	sw	zero,-20(s0)
    3d18:	0a80006f          	j	3dc0 <matrix_add_const+0xd0>
    3d1c:	fe042423          	sw	zero,-24(s0)
    3d20:	0880006f          	j	3da8 <matrix_add_const+0xb8>
    3d24:	fdc42583          	lw	a1,-36(s0)
    3d28:	fec42503          	lw	a0,-20(s0)
    3d2c:	7c8010ef          	jal	ra,54f4 <__mulsi3>
    3d30:	00050793          	mv	a5,a0
    3d34:	00078713          	mv	a4,a5
    3d38:	fe842783          	lw	a5,-24(s0)
    3d3c:	00f707b3          	add	a5,a4,a5
    3d40:	00179793          	slli	a5,a5,0x1
    3d44:	fd842703          	lw	a4,-40(s0)
    3d48:	00f707b3          	add	a5,a4,a5
    3d4c:	00079783          	lh	a5,0(a5)
    3d50:	01079713          	slli	a4,a5,0x10
    3d54:	01075713          	srli	a4,a4,0x10
    3d58:	fd645783          	lhu	a5,-42(s0)
    3d5c:	00f707b3          	add	a5,a4,a5
    3d60:	01079493          	slli	s1,a5,0x10
    3d64:	0104d493          	srli	s1,s1,0x10
    3d68:	fdc42583          	lw	a1,-36(s0)
    3d6c:	fec42503          	lw	a0,-20(s0)
    3d70:	784010ef          	jal	ra,54f4 <__mulsi3>
    3d74:	00050793          	mv	a5,a0
    3d78:	00078713          	mv	a4,a5
    3d7c:	fe842783          	lw	a5,-24(s0)
    3d80:	00f707b3          	add	a5,a4,a5
    3d84:	00179793          	slli	a5,a5,0x1
    3d88:	fd842703          	lw	a4,-40(s0)
    3d8c:	00f707b3          	add	a5,a4,a5
    3d90:	01049713          	slli	a4,s1,0x10
    3d94:	41075713          	srai	a4,a4,0x10
    3d98:	00e79023          	sh	a4,0(a5)
    3d9c:	fe842783          	lw	a5,-24(s0)
    3da0:	00178793          	addi	a5,a5,1
    3da4:	fef42423          	sw	a5,-24(s0)
    3da8:	fe842703          	lw	a4,-24(s0)
    3dac:	fdc42783          	lw	a5,-36(s0)
    3db0:	f6f76ae3          	bltu	a4,a5,3d24 <matrix_add_const+0x34>
    3db4:	fec42783          	lw	a5,-20(s0)
    3db8:	00178793          	addi	a5,a5,1
    3dbc:	fef42623          	sw	a5,-20(s0)
    3dc0:	fec42703          	lw	a4,-20(s0)
    3dc4:	fdc42783          	lw	a5,-36(s0)
    3dc8:	f4f76ae3          	bltu	a4,a5,3d1c <matrix_add_const+0x2c>
    3dcc:	00000013          	nop
    3dd0:	00000013          	nop
    3dd4:	02c12083          	lw	ra,44(sp)
    3dd8:	02812403          	lw	s0,40(sp)
    3ddc:	02412483          	lw	s1,36(sp)
    3de0:	03010113          	addi	sp,sp,48
    3de4:	00008067          	ret

00003de8 <matrix_mul_vect>:
    3de8:	fd010113          	addi	sp,sp,-48
    3dec:	02112623          	sw	ra,44(sp)
    3df0:	02812423          	sw	s0,40(sp)
    3df4:	02912223          	sw	s1,36(sp)
    3df8:	03010413          	addi	s0,sp,48
    3dfc:	fca42e23          	sw	a0,-36(s0)
    3e00:	fcb42c23          	sw	a1,-40(s0)
    3e04:	fcc42a23          	sw	a2,-44(s0)
    3e08:	fcd42823          	sw	a3,-48(s0)
    3e0c:	fe042623          	sw	zero,-20(s0)
    3e10:	0c80006f          	j	3ed8 <matrix_mul_vect+0xf0>
    3e14:	fec42783          	lw	a5,-20(s0)
    3e18:	00279793          	slli	a5,a5,0x2
    3e1c:	fd842703          	lw	a4,-40(s0)
    3e20:	00f707b3          	add	a5,a4,a5
    3e24:	0007a023          	sw	zero,0(a5)
    3e28:	fe042423          	sw	zero,-24(s0)
    3e2c:	0940006f          	j	3ec0 <matrix_mul_vect+0xd8>
    3e30:	fec42783          	lw	a5,-20(s0)
    3e34:	00279793          	slli	a5,a5,0x2
    3e38:	fd842703          	lw	a4,-40(s0)
    3e3c:	00f707b3          	add	a5,a4,a5
    3e40:	0007a483          	lw	s1,0(a5)
    3e44:	fdc42583          	lw	a1,-36(s0)
    3e48:	fec42503          	lw	a0,-20(s0)
    3e4c:	6a8010ef          	jal	ra,54f4 <__mulsi3>
    3e50:	00050793          	mv	a5,a0
    3e54:	00078713          	mv	a4,a5
    3e58:	fe842783          	lw	a5,-24(s0)
    3e5c:	00f707b3          	add	a5,a4,a5
    3e60:	00179793          	slli	a5,a5,0x1
    3e64:	fd442703          	lw	a4,-44(s0)
    3e68:	00f707b3          	add	a5,a4,a5
    3e6c:	00079783          	lh	a5,0(a5)
    3e70:	00078693          	mv	a3,a5
    3e74:	fe842783          	lw	a5,-24(s0)
    3e78:	00179793          	slli	a5,a5,0x1
    3e7c:	fd042703          	lw	a4,-48(s0)
    3e80:	00f707b3          	add	a5,a4,a5
    3e84:	00079783          	lh	a5,0(a5)
    3e88:	00078593          	mv	a1,a5
    3e8c:	00068513          	mv	a0,a3
    3e90:	664010ef          	jal	ra,54f4 <__mulsi3>
    3e94:	00050793          	mv	a5,a0
    3e98:	00078693          	mv	a3,a5
    3e9c:	fec42783          	lw	a5,-20(s0)
    3ea0:	00279793          	slli	a5,a5,0x2
    3ea4:	fd842703          	lw	a4,-40(s0)
    3ea8:	00f707b3          	add	a5,a4,a5
    3eac:	00d48733          	add	a4,s1,a3
    3eb0:	00e7a023          	sw	a4,0(a5)
    3eb4:	fe842783          	lw	a5,-24(s0)
    3eb8:	00178793          	addi	a5,a5,1
    3ebc:	fef42423          	sw	a5,-24(s0)
    3ec0:	fe842703          	lw	a4,-24(s0)
    3ec4:	fdc42783          	lw	a5,-36(s0)
    3ec8:	f6f764e3          	bltu	a4,a5,3e30 <matrix_mul_vect+0x48>
    3ecc:	fec42783          	lw	a5,-20(s0)
    3ed0:	00178793          	addi	a5,a5,1
    3ed4:	fef42623          	sw	a5,-20(s0)
    3ed8:	fec42703          	lw	a4,-20(s0)
    3edc:	fdc42783          	lw	a5,-36(s0)
    3ee0:	f2f76ae3          	bltu	a4,a5,3e14 <matrix_mul_vect+0x2c>
    3ee4:	00000013          	nop
    3ee8:	00000013          	nop
    3eec:	02c12083          	lw	ra,44(sp)
    3ef0:	02812403          	lw	s0,40(sp)
    3ef4:	02412483          	lw	s1,36(sp)
    3ef8:	03010113          	addi	sp,sp,48
    3efc:	00008067          	ret

00003f00 <matrix_mul_matrix>:
    3f00:	fd010113          	addi	sp,sp,-48
    3f04:	02112623          	sw	ra,44(sp)
    3f08:	02812423          	sw	s0,40(sp)
    3f0c:	02912223          	sw	s1,36(sp)
    3f10:	03212023          	sw	s2,32(sp)
    3f14:	03010413          	addi	s0,sp,48
    3f18:	fca42e23          	sw	a0,-36(s0)
    3f1c:	fcb42c23          	sw	a1,-40(s0)
    3f20:	fcc42a23          	sw	a2,-44(s0)
    3f24:	fcd42823          	sw	a3,-48(s0)
    3f28:	fe042623          	sw	zero,-20(s0)
    3f2c:	1480006f          	j	4074 <matrix_mul_matrix+0x174>
    3f30:	fe042423          	sw	zero,-24(s0)
    3f34:	1280006f          	j	405c <matrix_mul_matrix+0x15c>
    3f38:	fdc42583          	lw	a1,-36(s0)
    3f3c:	fec42503          	lw	a0,-20(s0)
    3f40:	5b4010ef          	jal	ra,54f4 <__mulsi3>
    3f44:	00050793          	mv	a5,a0
    3f48:	00078713          	mv	a4,a5
    3f4c:	fe842783          	lw	a5,-24(s0)
    3f50:	00f707b3          	add	a5,a4,a5
    3f54:	00279793          	slli	a5,a5,0x2
    3f58:	fd842703          	lw	a4,-40(s0)
    3f5c:	00f707b3          	add	a5,a4,a5
    3f60:	0007a023          	sw	zero,0(a5)
    3f64:	fe042223          	sw	zero,-28(s0)
    3f68:	0dc0006f          	j	4044 <matrix_mul_matrix+0x144>
    3f6c:	fdc42583          	lw	a1,-36(s0)
    3f70:	fec42503          	lw	a0,-20(s0)
    3f74:	580010ef          	jal	ra,54f4 <__mulsi3>
    3f78:	00050793          	mv	a5,a0
    3f7c:	00078713          	mv	a4,a5
    3f80:	fe842783          	lw	a5,-24(s0)
    3f84:	00f707b3          	add	a5,a4,a5
    3f88:	00279793          	slli	a5,a5,0x2
    3f8c:	fd842703          	lw	a4,-40(s0)
    3f90:	00f707b3          	add	a5,a4,a5
    3f94:	0007a483          	lw	s1,0(a5)
    3f98:	fdc42583          	lw	a1,-36(s0)
    3f9c:	fec42503          	lw	a0,-20(s0)
    3fa0:	554010ef          	jal	ra,54f4 <__mulsi3>
    3fa4:	00050793          	mv	a5,a0
    3fa8:	00078713          	mv	a4,a5
    3fac:	fe442783          	lw	a5,-28(s0)
    3fb0:	00f707b3          	add	a5,a4,a5
    3fb4:	00179793          	slli	a5,a5,0x1
    3fb8:	fd442703          	lw	a4,-44(s0)
    3fbc:	00f707b3          	add	a5,a4,a5
    3fc0:	00079783          	lh	a5,0(a5)
    3fc4:	00078913          	mv	s2,a5
    3fc8:	fdc42583          	lw	a1,-36(s0)
    3fcc:	fe442503          	lw	a0,-28(s0)
    3fd0:	524010ef          	jal	ra,54f4 <__mulsi3>
    3fd4:	00050793          	mv	a5,a0
    3fd8:	00078713          	mv	a4,a5
    3fdc:	fe842783          	lw	a5,-24(s0)
    3fe0:	00f707b3          	add	a5,a4,a5
    3fe4:	00179793          	slli	a5,a5,0x1
    3fe8:	fd042703          	lw	a4,-48(s0)
    3fec:	00f707b3          	add	a5,a4,a5
    3ff0:	00079783          	lh	a5,0(a5)
    3ff4:	00078593          	mv	a1,a5
    3ff8:	00090513          	mv	a0,s2
    3ffc:	4f8010ef          	jal	ra,54f4 <__mulsi3>
    4000:	00050793          	mv	a5,a0
    4004:	00078913          	mv	s2,a5
    4008:	fdc42583          	lw	a1,-36(s0)
    400c:	fec42503          	lw	a0,-20(s0)
    4010:	4e4010ef          	jal	ra,54f4 <__mulsi3>
    4014:	00050793          	mv	a5,a0
    4018:	00078713          	mv	a4,a5
    401c:	fe842783          	lw	a5,-24(s0)
    4020:	00f707b3          	add	a5,a4,a5
    4024:	00279793          	slli	a5,a5,0x2
    4028:	fd842703          	lw	a4,-40(s0)
    402c:	00f707b3          	add	a5,a4,a5
    4030:	01248733          	add	a4,s1,s2
    4034:	00e7a023          	sw	a4,0(a5)
    4038:	fe442783          	lw	a5,-28(s0)
    403c:	00178793          	addi	a5,a5,1
    4040:	fef42223          	sw	a5,-28(s0)
    4044:	fe442703          	lw	a4,-28(s0)
    4048:	fdc42783          	lw	a5,-36(s0)
    404c:	f2f760e3          	bltu	a4,a5,3f6c <matrix_mul_matrix+0x6c>
    4050:	fe842783          	lw	a5,-24(s0)
    4054:	00178793          	addi	a5,a5,1
    4058:	fef42423          	sw	a5,-24(s0)
    405c:	fe842703          	lw	a4,-24(s0)
    4060:	fdc42783          	lw	a5,-36(s0)
    4064:	ecf76ae3          	bltu	a4,a5,3f38 <matrix_mul_matrix+0x38>
    4068:	fec42783          	lw	a5,-20(s0)
    406c:	00178793          	addi	a5,a5,1
    4070:	fef42623          	sw	a5,-20(s0)
    4074:	fec42703          	lw	a4,-20(s0)
    4078:	fdc42783          	lw	a5,-36(s0)
    407c:	eaf76ae3          	bltu	a4,a5,3f30 <matrix_mul_matrix+0x30>
    4080:	00000013          	nop
    4084:	00000013          	nop
    4088:	02c12083          	lw	ra,44(sp)
    408c:	02812403          	lw	s0,40(sp)
    4090:	02412483          	lw	s1,36(sp)
    4094:	02012903          	lw	s2,32(sp)
    4098:	03010113          	addi	sp,sp,48
    409c:	00008067          	ret

000040a0 <matrix_mul_matrix_bitextract>:
    40a0:	fd010113          	addi	sp,sp,-48
    40a4:	02112623          	sw	ra,44(sp)
    40a8:	02812423          	sw	s0,40(sp)
    40ac:	02912223          	sw	s1,36(sp)
    40b0:	03010413          	addi	s0,sp,48
    40b4:	fca42e23          	sw	a0,-36(s0)
    40b8:	fcb42c23          	sw	a1,-40(s0)
    40bc:	fcc42a23          	sw	a2,-44(s0)
    40c0:	fcd42823          	sw	a3,-48(s0)
    40c4:	fe042623          	sw	zero,-20(s0)
    40c8:	1780006f          	j	4240 <matrix_mul_matrix_bitextract+0x1a0>
    40cc:	fe042423          	sw	zero,-24(s0)
    40d0:	1580006f          	j	4228 <matrix_mul_matrix_bitextract+0x188>
    40d4:	fdc42583          	lw	a1,-36(s0)
    40d8:	fec42503          	lw	a0,-20(s0)
    40dc:	418010ef          	jal	ra,54f4 <__mulsi3>
    40e0:	00050793          	mv	a5,a0
    40e4:	00078713          	mv	a4,a5
    40e8:	fe842783          	lw	a5,-24(s0)
    40ec:	00f707b3          	add	a5,a4,a5
    40f0:	00279793          	slli	a5,a5,0x2
    40f4:	fd842703          	lw	a4,-40(s0)
    40f8:	00f707b3          	add	a5,a4,a5
    40fc:	0007a023          	sw	zero,0(a5)
    4100:	fe042223          	sw	zero,-28(s0)
    4104:	10c0006f          	j	4210 <matrix_mul_matrix_bitextract+0x170>
    4108:	fdc42583          	lw	a1,-36(s0)
    410c:	fec42503          	lw	a0,-20(s0)
    4110:	3e4010ef          	jal	ra,54f4 <__mulsi3>
    4114:	00050793          	mv	a5,a0
    4118:	00078713          	mv	a4,a5
    411c:	fe442783          	lw	a5,-28(s0)
    4120:	00f707b3          	add	a5,a4,a5
    4124:	00179793          	slli	a5,a5,0x1
    4128:	fd442703          	lw	a4,-44(s0)
    412c:	00f707b3          	add	a5,a4,a5
    4130:	00079783          	lh	a5,0(a5)
    4134:	00078493          	mv	s1,a5
    4138:	fdc42583          	lw	a1,-36(s0)
    413c:	fe442503          	lw	a0,-28(s0)
    4140:	3b4010ef          	jal	ra,54f4 <__mulsi3>
    4144:	00050793          	mv	a5,a0
    4148:	00078713          	mv	a4,a5
    414c:	fe842783          	lw	a5,-24(s0)
    4150:	00f707b3          	add	a5,a4,a5
    4154:	00179793          	slli	a5,a5,0x1
    4158:	fd042703          	lw	a4,-48(s0)
    415c:	00f707b3          	add	a5,a4,a5
    4160:	00079783          	lh	a5,0(a5)
    4164:	00078593          	mv	a1,a5
    4168:	00048513          	mv	a0,s1
    416c:	388010ef          	jal	ra,54f4 <__mulsi3>
    4170:	00050793          	mv	a5,a0
    4174:	fef42023          	sw	a5,-32(s0)
    4178:	fdc42583          	lw	a1,-36(s0)
    417c:	fec42503          	lw	a0,-20(s0)
    4180:	374010ef          	jal	ra,54f4 <__mulsi3>
    4184:	00050793          	mv	a5,a0
    4188:	00078713          	mv	a4,a5
    418c:	fe842783          	lw	a5,-24(s0)
    4190:	00f707b3          	add	a5,a4,a5
    4194:	00279793          	slli	a5,a5,0x2
    4198:	fd842703          	lw	a4,-40(s0)
    419c:	00f707b3          	add	a5,a4,a5
    41a0:	0007a783          	lw	a5,0(a5)
    41a4:	00078493          	mv	s1,a5
    41a8:	fe042783          	lw	a5,-32(s0)
    41ac:	4027d793          	srai	a5,a5,0x2
    41b0:	00f7f713          	andi	a4,a5,15
    41b4:	fe042783          	lw	a5,-32(s0)
    41b8:	4057d793          	srai	a5,a5,0x5
    41bc:	07f7f793          	andi	a5,a5,127
    41c0:	00078593          	mv	a1,a5
    41c4:	00070513          	mv	a0,a4
    41c8:	32c010ef          	jal	ra,54f4 <__mulsi3>
    41cc:	00050793          	mv	a5,a0
    41d0:	00f484b3          	add	s1,s1,a5
    41d4:	fdc42583          	lw	a1,-36(s0)
    41d8:	fec42503          	lw	a0,-20(s0)
    41dc:	318010ef          	jal	ra,54f4 <__mulsi3>
    41e0:	00050793          	mv	a5,a0
    41e4:	00078713          	mv	a4,a5
    41e8:	fe842783          	lw	a5,-24(s0)
    41ec:	00f707b3          	add	a5,a4,a5
    41f0:	00279793          	slli	a5,a5,0x2
    41f4:	fd842703          	lw	a4,-40(s0)
    41f8:	00f707b3          	add	a5,a4,a5
    41fc:	00048713          	mv	a4,s1
    4200:	00e7a023          	sw	a4,0(a5)
    4204:	fe442783          	lw	a5,-28(s0)
    4208:	00178793          	addi	a5,a5,1
    420c:	fef42223          	sw	a5,-28(s0)
    4210:	fe442703          	lw	a4,-28(s0)
    4214:	fdc42783          	lw	a5,-36(s0)
    4218:	eef768e3          	bltu	a4,a5,4108 <matrix_mul_matrix_bitextract+0x68>
    421c:	fe842783          	lw	a5,-24(s0)
    4220:	00178793          	addi	a5,a5,1
    4224:	fef42423          	sw	a5,-24(s0)
    4228:	fe842703          	lw	a4,-24(s0)
    422c:	fdc42783          	lw	a5,-36(s0)
    4230:	eaf762e3          	bltu	a4,a5,40d4 <matrix_mul_matrix_bitextract+0x34>
    4234:	fec42783          	lw	a5,-20(s0)
    4238:	00178793          	addi	a5,a5,1
    423c:	fef42623          	sw	a5,-20(s0)
    4240:	fec42703          	lw	a4,-20(s0)
    4244:	fdc42783          	lw	a5,-36(s0)
    4248:	e8f762e3          	bltu	a4,a5,40cc <matrix_mul_matrix_bitextract+0x2c>
    424c:	00000013          	nop
    4250:	00000013          	nop
    4254:	02c12083          	lw	ra,44(sp)
    4258:	02812403          	lw	s0,40(sp)
    425c:	02412483          	lw	s1,36(sp)
    4260:	03010113          	addi	sp,sp,48
    4264:	00008067          	ret

00004268 <uptime_ms>:
    4268:	ff010113          	addi	sp,sp,-16
    426c:	00112623          	sw	ra,12(sp)
    4270:	00812423          	sw	s0,8(sp)
    4274:	01010413          	addi	s0,sp,16
    4278:	584010ef          	jal	ra,57fc <gettimeofday>
    427c:	00050793          	mv	a5,a0
    4280:	3e800593          	li	a1,1000
    4284:	00078513          	mv	a0,a5
    4288:	394010ef          	jal	ra,561c <__udivsi3>
    428c:	00050793          	mv	a5,a0
    4290:	00078513          	mv	a0,a5
    4294:	00c12083          	lw	ra,12(sp)
    4298:	00812403          	lw	s0,8(sp)
    429c:	01010113          	addi	sp,sp,16
    42a0:	00008067          	ret

000042a4 <start_time>:
    42a4:	ff010113          	addi	sp,sp,-16
    42a8:	00112623          	sw	ra,12(sp)
    42ac:	00812423          	sw	s0,8(sp)
    42b0:	01010413          	addi	s0,sp,16
    42b4:	fb5ff0ef          	jal	ra,4268 <uptime_ms>
    42b8:	00050713          	mv	a4,a0
    42bc:	00101797          	auipc	a5,0x101
    42c0:	35078793          	addi	a5,a5,848 # 10560c <start_time_val>
    42c4:	00e7a023          	sw	a4,0(a5)
    42c8:	00000013          	nop
    42cc:	00c12083          	lw	ra,12(sp)
    42d0:	00812403          	lw	s0,8(sp)
    42d4:	01010113          	addi	sp,sp,16
    42d8:	00008067          	ret

000042dc <stop_time>:
    42dc:	ff010113          	addi	sp,sp,-16
    42e0:	00112623          	sw	ra,12(sp)
    42e4:	00812423          	sw	s0,8(sp)
    42e8:	01010413          	addi	s0,sp,16
    42ec:	f7dff0ef          	jal	ra,4268 <uptime_ms>
    42f0:	00050713          	mv	a4,a0
    42f4:	00101797          	auipc	a5,0x101
    42f8:	31c78793          	addi	a5,a5,796 # 105610 <stop_time_val>
    42fc:	00e7a023          	sw	a4,0(a5)
    4300:	00000013          	nop
    4304:	00c12083          	lw	ra,12(sp)
    4308:	00812403          	lw	s0,8(sp)
    430c:	01010113          	addi	sp,sp,16
    4310:	00008067          	ret

00004314 <get_time>:
    4314:	ff010113          	addi	sp,sp,-16
    4318:	00812623          	sw	s0,12(sp)
    431c:	01010413          	addi	s0,sp,16
    4320:	00101797          	auipc	a5,0x101
    4324:	2f078793          	addi	a5,a5,752 # 105610 <stop_time_val>
    4328:	0007a703          	lw	a4,0(a5)
    432c:	00101797          	auipc	a5,0x101
    4330:	2e078793          	addi	a5,a5,736 # 10560c <start_time_val>
    4334:	0007a783          	lw	a5,0(a5)
    4338:	40f707b3          	sub	a5,a4,a5
    433c:	00078513          	mv	a0,a5
    4340:	00c12403          	lw	s0,12(sp)
    4344:	01010113          	addi	sp,sp,16
    4348:	00008067          	ret

0000434c <time_in_secs>:
    434c:	fe010113          	addi	sp,sp,-32
    4350:	00812e23          	sw	s0,28(sp)
    4354:	02010413          	addi	s0,sp,32
    4358:	fea42623          	sw	a0,-20(s0)
    435c:	fec42783          	lw	a5,-20(s0)
    4360:	00078513          	mv	a0,a5
    4364:	01c12403          	lw	s0,28(sp)
    4368:	02010113          	addi	sp,sp,32
    436c:	00008067          	ret

00004370 <portable_init>:
    4370:	fe010113          	addi	sp,sp,-32
    4374:	00812e23          	sw	s0,28(sp)
    4378:	02010413          	addi	s0,sp,32
    437c:	fea42623          	sw	a0,-20(s0)
    4380:	feb42423          	sw	a1,-24(s0)
    4384:	fec42223          	sw	a2,-28(s0)
    4388:	fec42783          	lw	a5,-20(s0)
    438c:	00100713          	li	a4,1
    4390:	00e78023          	sb	a4,0(a5)
    4394:	00000013          	nop
    4398:	01c12403          	lw	s0,28(sp)
    439c:	02010113          	addi	sp,sp,32
    43a0:	00008067          	ret

000043a4 <portable_fini>:
    43a4:	fe010113          	addi	sp,sp,-32
    43a8:	00812e23          	sw	s0,28(sp)
    43ac:	02010413          	addi	s0,sp,32
    43b0:	fea42623          	sw	a0,-20(s0)
    43b4:	fec42783          	lw	a5,-20(s0)
    43b8:	00078023          	sb	zero,0(a5)
    43bc:	00000013          	nop
    43c0:	01c12403          	lw	s0,28(sp)
    43c4:	02010113          	addi	sp,sp,32
    43c8:	00008067          	ret

000043cc <core_bench_state>:
    43cc:	f9010113          	addi	sp,sp,-112
    43d0:	06112623          	sw	ra,108(sp)
    43d4:	06812423          	sw	s0,104(sp)
    43d8:	07010413          	addi	s0,sp,112
    43dc:	f8a42e23          	sw	a0,-100(s0)
    43e0:	f8b42c23          	sw	a1,-104(s0)
    43e4:	00060593          	mv	a1,a2
    43e8:	00068613          	mv	a2,a3
    43ec:	00070693          	mv	a3,a4
    43f0:	00078713          	mv	a4,a5
    43f4:	00058793          	mv	a5,a1
    43f8:	f8f41b23          	sh	a5,-106(s0)
    43fc:	00060793          	mv	a5,a2
    4400:	f8f41a23          	sh	a5,-108(s0)
    4404:	00068793          	mv	a5,a3
    4408:	f8f41923          	sh	a5,-110(s0)
    440c:	00070793          	mv	a5,a4
    4410:	f8f41823          	sh	a5,-112(s0)
    4414:	f9842783          	lw	a5,-104(s0)
    4418:	faf42023          	sw	a5,-96(s0)
    441c:	fe042623          	sw	zero,-20(s0)
    4420:	04c0006f          	j	446c <core_bench_state+0xa0>
    4424:	fec42783          	lw	a5,-20(s0)
    4428:	00279793          	slli	a5,a5,0x2
    442c:	ff040713          	addi	a4,s0,-16
    4430:	00f707b3          	add	a5,a4,a5
    4434:	fa07aa23          	sw	zero,-76(a5)
    4438:	fec42783          	lw	a5,-20(s0)
    443c:	00279793          	slli	a5,a5,0x2
    4440:	ff040713          	addi	a4,s0,-16
    4444:	00f707b3          	add	a5,a4,a5
    4448:	fb47a703          	lw	a4,-76(a5)
    444c:	fec42783          	lw	a5,-20(s0)
    4450:	00279793          	slli	a5,a5,0x2
    4454:	ff040693          	addi	a3,s0,-16
    4458:	00f687b3          	add	a5,a3,a5
    445c:	fce7aa23          	sw	a4,-44(a5)
    4460:	fec42783          	lw	a5,-20(s0)
    4464:	00178793          	addi	a5,a5,1
    4468:	fef42623          	sw	a5,-20(s0)
    446c:	fec42703          	lw	a4,-20(s0)
    4470:	00700793          	li	a5,7
    4474:	fae7f8e3          	bgeu	a5,a4,4424 <core_bench_state+0x58>
    4478:	0480006f          	j	44c0 <core_bench_state+0xf4>
    447c:	fa440713          	addi	a4,s0,-92
    4480:	fa040793          	addi	a5,s0,-96
    4484:	00070593          	mv	a1,a4
    4488:	00078513          	mv	a0,a5
    448c:	4c4000ef          	jal	ra,4950 <core_state_transition>
    4490:	fea42223          	sw	a0,-28(s0)
    4494:	fe442783          	lw	a5,-28(s0)
    4498:	00279793          	slli	a5,a5,0x2
    449c:	ff040713          	addi	a4,s0,-16
    44a0:	00f707b3          	add	a5,a4,a5
    44a4:	fd47a783          	lw	a5,-44(a5)
    44a8:	00178713          	addi	a4,a5,1
    44ac:	fe442783          	lw	a5,-28(s0)
    44b0:	00279793          	slli	a5,a5,0x2
    44b4:	ff040693          	addi	a3,s0,-16
    44b8:	00f687b3          	add	a5,a3,a5
    44bc:	fce7aa23          	sw	a4,-44(a5)
    44c0:	fa042783          	lw	a5,-96(s0)
    44c4:	0007c783          	lbu	a5,0(a5)
    44c8:	fa079ae3          	bnez	a5,447c <core_bench_state+0xb0>
    44cc:	f9842783          	lw	a5,-104(s0)
    44d0:	faf42023          	sw	a5,-96(s0)
    44d4:	0440006f          	j	4518 <core_bench_state+0x14c>
    44d8:	fa042783          	lw	a5,-96(s0)
    44dc:	0007c703          	lbu	a4,0(a5)
    44e0:	02c00793          	li	a5,44
    44e4:	02f70263          	beq	a4,a5,4508 <core_bench_state+0x13c>
    44e8:	fa042783          	lw	a5,-96(s0)
    44ec:	0007c683          	lbu	a3,0(a5)
    44f0:	f9645783          	lhu	a5,-106(s0)
    44f4:	0ff7f713          	andi	a4,a5,255
    44f8:	fa042783          	lw	a5,-96(s0)
    44fc:	00e6c733          	xor	a4,a3,a4
    4500:	0ff77713          	andi	a4,a4,255
    4504:	00e78023          	sb	a4,0(a5)
    4508:	fa042703          	lw	a4,-96(s0)
    450c:	f9241783          	lh	a5,-110(s0)
    4510:	00f707b3          	add	a5,a4,a5
    4514:	faf42023          	sw	a5,-96(s0)
    4518:	f9842703          	lw	a4,-104(s0)
    451c:	f9c42783          	lw	a5,-100(s0)
    4520:	00f70733          	add	a4,a4,a5
    4524:	fa042783          	lw	a5,-96(s0)
    4528:	fae7e8e3          	bltu	a5,a4,44d8 <core_bench_state+0x10c>
    452c:	f9842783          	lw	a5,-104(s0)
    4530:	faf42023          	sw	a5,-96(s0)
    4534:	0480006f          	j	457c <core_bench_state+0x1b0>
    4538:	fa440713          	addi	a4,s0,-92
    453c:	fa040793          	addi	a5,s0,-96
    4540:	00070593          	mv	a1,a4
    4544:	00078513          	mv	a0,a5
    4548:	408000ef          	jal	ra,4950 <core_state_transition>
    454c:	fea42423          	sw	a0,-24(s0)
    4550:	fe842783          	lw	a5,-24(s0)
    4554:	00279793          	slli	a5,a5,0x2
    4558:	ff040713          	addi	a4,s0,-16
    455c:	00f707b3          	add	a5,a4,a5
    4560:	fd47a783          	lw	a5,-44(a5)
    4564:	00178713          	addi	a4,a5,1
    4568:	fe842783          	lw	a5,-24(s0)
    456c:	00279793          	slli	a5,a5,0x2
    4570:	ff040693          	addi	a3,s0,-16
    4574:	00f687b3          	add	a5,a3,a5
    4578:	fce7aa23          	sw	a4,-44(a5)
    457c:	fa042783          	lw	a5,-96(s0)
    4580:	0007c783          	lbu	a5,0(a5)
    4584:	fa079ae3          	bnez	a5,4538 <core_bench_state+0x16c>
    4588:	f9842783          	lw	a5,-104(s0)
    458c:	faf42023          	sw	a5,-96(s0)
    4590:	0440006f          	j	45d4 <core_bench_state+0x208>
    4594:	fa042783          	lw	a5,-96(s0)
    4598:	0007c703          	lbu	a4,0(a5)
    459c:	02c00793          	li	a5,44
    45a0:	02f70263          	beq	a4,a5,45c4 <core_bench_state+0x1f8>
    45a4:	fa042783          	lw	a5,-96(s0)
    45a8:	0007c683          	lbu	a3,0(a5)
    45ac:	f9445783          	lhu	a5,-108(s0)
    45b0:	0ff7f713          	andi	a4,a5,255
    45b4:	fa042783          	lw	a5,-96(s0)
    45b8:	00e6c733          	xor	a4,a3,a4
    45bc:	0ff77713          	andi	a4,a4,255
    45c0:	00e78023          	sb	a4,0(a5)
    45c4:	fa042703          	lw	a4,-96(s0)
    45c8:	f9241783          	lh	a5,-110(s0)
    45cc:	00f707b3          	add	a5,a4,a5
    45d0:	faf42023          	sw	a5,-96(s0)
    45d4:	f9842703          	lw	a4,-104(s0)
    45d8:	f9c42783          	lw	a5,-100(s0)
    45dc:	00f70733          	add	a4,a4,a5
    45e0:	fa042783          	lw	a5,-96(s0)
    45e4:	fae7e8e3          	bltu	a5,a4,4594 <core_bench_state+0x1c8>
    45e8:	fe042623          	sw	zero,-20(s0)
    45ec:	0680006f          	j	4654 <core_bench_state+0x288>
    45f0:	fec42783          	lw	a5,-20(s0)
    45f4:	00279793          	slli	a5,a5,0x2
    45f8:	ff040713          	addi	a4,s0,-16
    45fc:	00f707b3          	add	a5,a4,a5
    4600:	fd47a783          	lw	a5,-44(a5)
    4604:	f9045703          	lhu	a4,-112(s0)
    4608:	00070593          	mv	a1,a4
    460c:	00078513          	mv	a0,a5
    4610:	135000ef          	jal	ra,4f44 <crcu32>
    4614:	00050793          	mv	a5,a0
    4618:	f8f41823          	sh	a5,-112(s0)
    461c:	fec42783          	lw	a5,-20(s0)
    4620:	00279793          	slli	a5,a5,0x2
    4624:	ff040713          	addi	a4,s0,-16
    4628:	00f707b3          	add	a5,a4,a5
    462c:	fb47a783          	lw	a5,-76(a5)
    4630:	f9045703          	lhu	a4,-112(s0)
    4634:	00070593          	mv	a1,a4
    4638:	00078513          	mv	a0,a5
    463c:	109000ef          	jal	ra,4f44 <crcu32>
    4640:	00050793          	mv	a5,a0
    4644:	f8f41823          	sh	a5,-112(s0)
    4648:	fec42783          	lw	a5,-20(s0)
    464c:	00178793          	addi	a5,a5,1
    4650:	fef42623          	sw	a5,-20(s0)
    4654:	fec42703          	lw	a4,-20(s0)
    4658:	00700793          	li	a5,7
    465c:	f8e7fae3          	bgeu	a5,a4,45f0 <core_bench_state+0x224>
    4660:	f9045783          	lhu	a5,-112(s0)
    4664:	00078513          	mv	a0,a5
    4668:	06c12083          	lw	ra,108(sp)
    466c:	06812403          	lw	s0,104(sp)
    4670:	07010113          	addi	sp,sp,112
    4674:	00008067          	ret

00004678 <core_init_state>:
    4678:	fd010113          	addi	sp,sp,-48
    467c:	02812623          	sw	s0,44(sp)
    4680:	03010413          	addi	s0,sp,48
    4684:	fca42e23          	sw	a0,-36(s0)
    4688:	00058793          	mv	a5,a1
    468c:	fcc42a23          	sw	a2,-44(s0)
    4690:	fcf41d23          	sh	a5,-38(s0)
    4694:	fe042623          	sw	zero,-20(s0)
    4698:	fe042423          	sw	zero,-24(s0)
    469c:	fe042023          	sw	zero,-32(s0)
    46a0:	fdc42783          	lw	a5,-36(s0)
    46a4:	fff78793          	addi	a5,a5,-1
    46a8:	fcf42e23          	sw	a5,-36(s0)
    46ac:	fe042423          	sw	zero,-24(s0)
    46b0:	1ec0006f          	j	489c <core_init_state+0x224>
    46b4:	fe842783          	lw	a5,-24(s0)
    46b8:	06078e63          	beqz	a5,4734 <core_init_state+0xbc>
    46bc:	fe042223          	sw	zero,-28(s0)
    46c0:	0380006f          	j	46f8 <core_init_state+0x80>
    46c4:	fe042703          	lw	a4,-32(s0)
    46c8:	fe442783          	lw	a5,-28(s0)
    46cc:	00f70733          	add	a4,a4,a5
    46d0:	fec42683          	lw	a3,-20(s0)
    46d4:	fe442783          	lw	a5,-28(s0)
    46d8:	00f687b3          	add	a5,a3,a5
    46dc:	fd442683          	lw	a3,-44(s0)
    46e0:	00f687b3          	add	a5,a3,a5
    46e4:	00074703          	lbu	a4,0(a4)
    46e8:	00e78023          	sb	a4,0(a5)
    46ec:	fe442783          	lw	a5,-28(s0)
    46f0:	00178793          	addi	a5,a5,1
    46f4:	fef42223          	sw	a5,-28(s0)
    46f8:	fe442703          	lw	a4,-28(s0)
    46fc:	fe842783          	lw	a5,-24(s0)
    4700:	fcf762e3          	bltu	a4,a5,46c4 <core_init_state+0x4c>
    4704:	fec42703          	lw	a4,-20(s0)
    4708:	fe442783          	lw	a5,-28(s0)
    470c:	00f707b3          	add	a5,a4,a5
    4710:	fd442703          	lw	a4,-44(s0)
    4714:	00f707b3          	add	a5,a4,a5
    4718:	02c00713          	li	a4,44
    471c:	00e78023          	sb	a4,0(a5)
    4720:	fe842703          	lw	a4,-24(s0)
    4724:	fec42783          	lw	a5,-20(s0)
    4728:	00f707b3          	add	a5,a4,a5
    472c:	00178793          	addi	a5,a5,1
    4730:	fef42623          	sw	a5,-20(s0)
    4734:	fda41783          	lh	a5,-38(s0)
    4738:	01079793          	slli	a5,a5,0x10
    473c:	0107d793          	srli	a5,a5,0x10
    4740:	00178793          	addi	a5,a5,1
    4744:	01079793          	slli	a5,a5,0x10
    4748:	0107d793          	srli	a5,a5,0x10
    474c:	fcf41d23          	sh	a5,-38(s0)
    4750:	fda45783          	lhu	a5,-38(s0)
    4754:	0077f793          	andi	a5,a5,7
    4758:	00700713          	li	a4,7
    475c:	0ee78e63          	beq	a5,a4,4858 <core_init_state+0x1e0>
    4760:	00700713          	li	a4,7
    4764:	12f74a63          	blt	a4,a5,4898 <core_init_state+0x220>
    4768:	00600713          	li	a4,6
    476c:	12f74663          	blt	a4,a5,4898 <core_init_state+0x220>
    4770:	00500713          	li	a4,5
    4774:	0ae7d263          	bge	a5,a4,4818 <core_init_state+0x1a0>
    4778:	00200713          	li	a4,2
    477c:	00f74663          	blt	a4,a5,4788 <core_init_state+0x110>
    4780:	0007dc63          	bgez	a5,4798 <core_init_state+0x120>
    4784:	1140006f          	j	4898 <core_init_state+0x220>
    4788:	ffd78713          	addi	a4,a5,-3
    478c:	00100793          	li	a5,1
    4790:	10e7e463          	bltu	a5,a4,4898 <core_init_state+0x220>
    4794:	0440006f          	j	47d8 <core_init_state+0x160>
    4798:	fda41783          	lh	a5,-38(s0)
    479c:	4037d793          	srai	a5,a5,0x3
    47a0:	01079793          	slli	a5,a5,0x10
    47a4:	4107d793          	srai	a5,a5,0x10
    47a8:	01079793          	slli	a5,a5,0x10
    47ac:	0107d793          	srli	a5,a5,0x10
    47b0:	0037f793          	andi	a5,a5,3
    47b4:	000fc717          	auipc	a4,0xfc
    47b8:	1e470713          	addi	a4,a4,484 # 100998 <intpat>
    47bc:	00279793          	slli	a5,a5,0x2
    47c0:	00f707b3          	add	a5,a4,a5
    47c4:	0007a783          	lw	a5,0(a5)
    47c8:	fef42023          	sw	a5,-32(s0)
    47cc:	00400793          	li	a5,4
    47d0:	fef42423          	sw	a5,-24(s0)
    47d4:	0c80006f          	j	489c <core_init_state+0x224>
    47d8:	fda41783          	lh	a5,-38(s0)
    47dc:	4037d793          	srai	a5,a5,0x3
    47e0:	01079793          	slli	a5,a5,0x10
    47e4:	4107d793          	srai	a5,a5,0x10
    47e8:	01079793          	slli	a5,a5,0x10
    47ec:	0107d793          	srli	a5,a5,0x10
    47f0:	0037f793          	andi	a5,a5,3
    47f4:	000fc717          	auipc	a4,0xfc
    47f8:	1b470713          	addi	a4,a4,436 # 1009a8 <floatpat>
    47fc:	00279793          	slli	a5,a5,0x2
    4800:	00f707b3          	add	a5,a4,a5
    4804:	0007a783          	lw	a5,0(a5)
    4808:	fef42023          	sw	a5,-32(s0)
    480c:	00800793          	li	a5,8
    4810:	fef42423          	sw	a5,-24(s0)
    4814:	0880006f          	j	489c <core_init_state+0x224>
    4818:	fda41783          	lh	a5,-38(s0)
    481c:	4037d793          	srai	a5,a5,0x3
    4820:	01079793          	slli	a5,a5,0x10
    4824:	4107d793          	srai	a5,a5,0x10
    4828:	01079793          	slli	a5,a5,0x10
    482c:	0107d793          	srli	a5,a5,0x10
    4830:	0037f793          	andi	a5,a5,3
    4834:	000fc717          	auipc	a4,0xfc
    4838:	18470713          	addi	a4,a4,388 # 1009b8 <scipat>
    483c:	00279793          	slli	a5,a5,0x2
    4840:	00f707b3          	add	a5,a4,a5
    4844:	0007a783          	lw	a5,0(a5)
    4848:	fef42023          	sw	a5,-32(s0)
    484c:	00800793          	li	a5,8
    4850:	fef42423          	sw	a5,-24(s0)
    4854:	0480006f          	j	489c <core_init_state+0x224>
    4858:	fda41783          	lh	a5,-38(s0)
    485c:	4037d793          	srai	a5,a5,0x3
    4860:	01079793          	slli	a5,a5,0x10
    4864:	4107d793          	srai	a5,a5,0x10
    4868:	01079793          	slli	a5,a5,0x10
    486c:	0107d793          	srli	a5,a5,0x10
    4870:	0037f793          	andi	a5,a5,3
    4874:	000fc717          	auipc	a4,0xfc
    4878:	15470713          	addi	a4,a4,340 # 1009c8 <errpat>
    487c:	00279793          	slli	a5,a5,0x2
    4880:	00f707b3          	add	a5,a4,a5
    4884:	0007a783          	lw	a5,0(a5)
    4888:	fef42023          	sw	a5,-32(s0)
    488c:	00800793          	li	a5,8
    4890:	fef42423          	sw	a5,-24(s0)
    4894:	0080006f          	j	489c <core_init_state+0x224>
    4898:	00000013          	nop
    489c:	fec42703          	lw	a4,-20(s0)
    48a0:	fe842783          	lw	a5,-24(s0)
    48a4:	00f707b3          	add	a5,a4,a5
    48a8:	00178793          	addi	a5,a5,1
    48ac:	fdc42703          	lw	a4,-36(s0)
    48b0:	e0e7e2e3          	bltu	a5,a4,46b4 <core_init_state+0x3c>
    48b4:	fdc42783          	lw	a5,-36(s0)
    48b8:	00178793          	addi	a5,a5,1
    48bc:	fcf42e23          	sw	a5,-36(s0)
    48c0:	0200006f          	j	48e0 <core_init_state+0x268>
    48c4:	fd442703          	lw	a4,-44(s0)
    48c8:	fec42783          	lw	a5,-20(s0)
    48cc:	00f707b3          	add	a5,a4,a5
    48d0:	00078023          	sb	zero,0(a5)
    48d4:	fec42783          	lw	a5,-20(s0)
    48d8:	00178793          	addi	a5,a5,1
    48dc:	fef42623          	sw	a5,-20(s0)
    48e0:	fec42703          	lw	a4,-20(s0)
    48e4:	fdc42783          	lw	a5,-36(s0)
    48e8:	fcf76ee3          	bltu	a4,a5,48c4 <core_init_state+0x24c>
    48ec:	00000013          	nop
    48f0:	00000013          	nop
    48f4:	02c12403          	lw	s0,44(sp)
    48f8:	03010113          	addi	sp,sp,48
    48fc:	00008067          	ret

00004900 <ee_isdigit>:
    4900:	fd010113          	addi	sp,sp,-48
    4904:	02812623          	sw	s0,44(sp)
    4908:	03010413          	addi	s0,sp,48
    490c:	00050793          	mv	a5,a0
    4910:	fcf40fa3          	sb	a5,-33(s0)
    4914:	fdf44783          	lbu	a5,-33(s0)
    4918:	0307b793          	sltiu	a5,a5,48
    491c:	0017c793          	xori	a5,a5,1
    4920:	0ff7f713          	andi	a4,a5,255
    4924:	fdf44783          	lbu	a5,-33(s0)
    4928:	03a7b793          	sltiu	a5,a5,58
    492c:	0ff7f793          	andi	a5,a5,255
    4930:	00f777b3          	and	a5,a4,a5
    4934:	0ff7f793          	andi	a5,a5,255
    4938:	fef407a3          	sb	a5,-17(s0)
    493c:	fef44783          	lbu	a5,-17(s0)
    4940:	00078513          	mv	a0,a5
    4944:	02c12403          	lw	s0,44(sp)
    4948:	03010113          	addi	sp,sp,48
    494c:	00008067          	ret

00004950 <core_state_transition>:
    4950:	fd010113          	addi	sp,sp,-48
    4954:	02112623          	sw	ra,44(sp)
    4958:	02812423          	sw	s0,40(sp)
    495c:	03010413          	addi	s0,sp,48
    4960:	fca42e23          	sw	a0,-36(s0)
    4964:	fcb42c23          	sw	a1,-40(s0)
    4968:	fdc42783          	lw	a5,-36(s0)
    496c:	0007a783          	lw	a5,0(a5)
    4970:	fef42623          	sw	a5,-20(s0)
    4974:	fe042423          	sw	zero,-24(s0)
    4978:	3440006f          	j	4cbc <core_state_transition+0x36c>
    497c:	fec42783          	lw	a5,-20(s0)
    4980:	0007c783          	lbu	a5,0(a5)
    4984:	fef403a3          	sb	a5,-25(s0)
    4988:	fe744703          	lbu	a4,-25(s0)
    498c:	02c00793          	li	a5,44
    4990:	00f71a63          	bne	a4,a5,49a4 <core_state_transition+0x54>
    4994:	fec42783          	lw	a5,-20(s0)
    4998:	00178793          	addi	a5,a5,1
    499c:	fef42623          	sw	a5,-20(s0)
    49a0:	3340006f          	j	4cd4 <core_state_transition+0x384>
    49a4:	fe842703          	lw	a4,-24(s0)
    49a8:	00700793          	li	a5,7
    49ac:	2ee7e463          	bltu	a5,a4,4c94 <core_state_transition+0x344>
    49b0:	fe842783          	lw	a5,-24(s0)
    49b4:	00279713          	slli	a4,a5,0x2
    49b8:	000fc797          	auipc	a5,0xfc
    49bc:	ac878793          	addi	a5,a5,-1336 # 100480 <_etext+0xfa548>
    49c0:	00f707b3          	add	a5,a4,a5
    49c4:	0007a703          	lw	a4,0(a5)
    49c8:	000fc797          	auipc	a5,0xfc
    49cc:	ab878793          	addi	a5,a5,-1352 # 100480 <_etext+0xfa548>
    49d0:	00f707b3          	add	a5,a4,a5
    49d4:	00078067          	jr	a5
    49d8:	fe744783          	lbu	a5,-25(s0)
    49dc:	00078513          	mv	a0,a5
    49e0:	f21ff0ef          	jal	ra,4900 <ee_isdigit>
    49e4:	00050793          	mv	a5,a0
    49e8:	00078863          	beqz	a5,49f8 <core_state_transition+0xa8>
    49ec:	00400793          	li	a5,4
    49f0:	fef42423          	sw	a5,-24(s0)
    49f4:	05c0006f          	j	4a50 <core_state_transition+0x100>
    49f8:	fe744703          	lbu	a4,-25(s0)
    49fc:	02b00793          	li	a5,43
    4a00:	00f70863          	beq	a4,a5,4a10 <core_state_transition+0xc0>
    4a04:	fe744703          	lbu	a4,-25(s0)
    4a08:	02d00793          	li	a5,45
    4a0c:	00f71863          	bne	a4,a5,4a1c <core_state_transition+0xcc>
    4a10:	00200793          	li	a5,2
    4a14:	fef42423          	sw	a5,-24(s0)
    4a18:	0380006f          	j	4a50 <core_state_transition+0x100>
    4a1c:	fe744703          	lbu	a4,-25(s0)
    4a20:	02e00793          	li	a5,46
    4a24:	00f71863          	bne	a4,a5,4a34 <core_state_transition+0xe4>
    4a28:	00500793          	li	a5,5
    4a2c:	fef42423          	sw	a5,-24(s0)
    4a30:	0200006f          	j	4a50 <core_state_transition+0x100>
    4a34:	00100793          	li	a5,1
    4a38:	fef42423          	sw	a5,-24(s0)
    4a3c:	fd842783          	lw	a5,-40(s0)
    4a40:	00478793          	addi	a5,a5,4
    4a44:	0007a703          	lw	a4,0(a5)
    4a48:	00170713          	addi	a4,a4,1
    4a4c:	00e7a023          	sw	a4,0(a5)
    4a50:	fd842783          	lw	a5,-40(s0)
    4a54:	0007a783          	lw	a5,0(a5)
    4a58:	00178713          	addi	a4,a5,1
    4a5c:	fd842783          	lw	a5,-40(s0)
    4a60:	00e7a023          	sw	a4,0(a5)
    4a64:	24c0006f          	j	4cb0 <core_state_transition+0x360>
    4a68:	fe744783          	lbu	a5,-25(s0)
    4a6c:	00078513          	mv	a0,a5
    4a70:	e91ff0ef          	jal	ra,4900 <ee_isdigit>
    4a74:	00050793          	mv	a5,a0
    4a78:	02078263          	beqz	a5,4a9c <core_state_transition+0x14c>
    4a7c:	00400793          	li	a5,4
    4a80:	fef42423          	sw	a5,-24(s0)
    4a84:	fd842783          	lw	a5,-40(s0)
    4a88:	00878793          	addi	a5,a5,8
    4a8c:	0007a703          	lw	a4,0(a5)
    4a90:	00170713          	addi	a4,a4,1
    4a94:	00e7a023          	sw	a4,0(a5)
    4a98:	2180006f          	j	4cb0 <core_state_transition+0x360>
    4a9c:	fe744703          	lbu	a4,-25(s0)
    4aa0:	02e00793          	li	a5,46
    4aa4:	02f71263          	bne	a4,a5,4ac8 <core_state_transition+0x178>
    4aa8:	00500793          	li	a5,5
    4aac:	fef42423          	sw	a5,-24(s0)
    4ab0:	fd842783          	lw	a5,-40(s0)
    4ab4:	00878793          	addi	a5,a5,8
    4ab8:	0007a703          	lw	a4,0(a5)
    4abc:	00170713          	addi	a4,a4,1
    4ac0:	00e7a023          	sw	a4,0(a5)
    4ac4:	1ec0006f          	j	4cb0 <core_state_transition+0x360>
    4ac8:	00100793          	li	a5,1
    4acc:	fef42423          	sw	a5,-24(s0)
    4ad0:	fd842783          	lw	a5,-40(s0)
    4ad4:	00878793          	addi	a5,a5,8
    4ad8:	0007a703          	lw	a4,0(a5)
    4adc:	00170713          	addi	a4,a4,1
    4ae0:	00e7a023          	sw	a4,0(a5)
    4ae4:	1cc0006f          	j	4cb0 <core_state_transition+0x360>
    4ae8:	fe744703          	lbu	a4,-25(s0)
    4aec:	02e00793          	li	a5,46
    4af0:	02f71263          	bne	a4,a5,4b14 <core_state_transition+0x1c4>
    4af4:	00500793          	li	a5,5
    4af8:	fef42423          	sw	a5,-24(s0)
    4afc:	fd842783          	lw	a5,-40(s0)
    4b00:	01078793          	addi	a5,a5,16
    4b04:	0007a703          	lw	a4,0(a5)
    4b08:	00170713          	addi	a4,a4,1
    4b0c:	00e7a023          	sw	a4,0(a5)
    4b10:	18c0006f          	j	4c9c <core_state_transition+0x34c>
    4b14:	fe744783          	lbu	a5,-25(s0)
    4b18:	00078513          	mv	a0,a5
    4b1c:	de5ff0ef          	jal	ra,4900 <ee_isdigit>
    4b20:	00050793          	mv	a5,a0
    4b24:	16079c63          	bnez	a5,4c9c <core_state_transition+0x34c>
    4b28:	00100793          	li	a5,1
    4b2c:	fef42423          	sw	a5,-24(s0)
    4b30:	fd842783          	lw	a5,-40(s0)
    4b34:	01078793          	addi	a5,a5,16
    4b38:	0007a703          	lw	a4,0(a5)
    4b3c:	00170713          	addi	a4,a4,1
    4b40:	00e7a023          	sw	a4,0(a5)
    4b44:	1580006f          	j	4c9c <core_state_transition+0x34c>
    4b48:	fe744703          	lbu	a4,-25(s0)
    4b4c:	04500793          	li	a5,69
    4b50:	00f70863          	beq	a4,a5,4b60 <core_state_transition+0x210>
    4b54:	fe744703          	lbu	a4,-25(s0)
    4b58:	06500793          	li	a5,101
    4b5c:	02f71263          	bne	a4,a5,4b80 <core_state_transition+0x230>
    4b60:	00300793          	li	a5,3
    4b64:	fef42423          	sw	a5,-24(s0)
    4b68:	fd842783          	lw	a5,-40(s0)
    4b6c:	01478793          	addi	a5,a5,20
    4b70:	0007a703          	lw	a4,0(a5)
    4b74:	00170713          	addi	a4,a4,1
    4b78:	00e7a023          	sw	a4,0(a5)
    4b7c:	1280006f          	j	4ca4 <core_state_transition+0x354>
    4b80:	fe744783          	lbu	a5,-25(s0)
    4b84:	00078513          	mv	a0,a5
    4b88:	d79ff0ef          	jal	ra,4900 <ee_isdigit>
    4b8c:	00050793          	mv	a5,a0
    4b90:	10079a63          	bnez	a5,4ca4 <core_state_transition+0x354>
    4b94:	00100793          	li	a5,1
    4b98:	fef42423          	sw	a5,-24(s0)
    4b9c:	fd842783          	lw	a5,-40(s0)
    4ba0:	01478793          	addi	a5,a5,20
    4ba4:	0007a703          	lw	a4,0(a5)
    4ba8:	00170713          	addi	a4,a4,1
    4bac:	00e7a023          	sw	a4,0(a5)
    4bb0:	0f40006f          	j	4ca4 <core_state_transition+0x354>
    4bb4:	fe744703          	lbu	a4,-25(s0)
    4bb8:	02b00793          	li	a5,43
    4bbc:	00f70863          	beq	a4,a5,4bcc <core_state_transition+0x27c>
    4bc0:	fe744703          	lbu	a4,-25(s0)
    4bc4:	02d00793          	li	a5,45
    4bc8:	02f71263          	bne	a4,a5,4bec <core_state_transition+0x29c>
    4bcc:	00600793          	li	a5,6
    4bd0:	fef42423          	sw	a5,-24(s0)
    4bd4:	fd842783          	lw	a5,-40(s0)
    4bd8:	00c78793          	addi	a5,a5,12
    4bdc:	0007a703          	lw	a4,0(a5)
    4be0:	00170713          	addi	a4,a4,1
    4be4:	00e7a023          	sw	a4,0(a5)
    4be8:	0c80006f          	j	4cb0 <core_state_transition+0x360>
    4bec:	00100793          	li	a5,1
    4bf0:	fef42423          	sw	a5,-24(s0)
    4bf4:	fd842783          	lw	a5,-40(s0)
    4bf8:	00c78793          	addi	a5,a5,12
    4bfc:	0007a703          	lw	a4,0(a5)
    4c00:	00170713          	addi	a4,a4,1
    4c04:	00e7a023          	sw	a4,0(a5)
    4c08:	0a80006f          	j	4cb0 <core_state_transition+0x360>
    4c0c:	fe744783          	lbu	a5,-25(s0)
    4c10:	00078513          	mv	a0,a5
    4c14:	cedff0ef          	jal	ra,4900 <ee_isdigit>
    4c18:	00050793          	mv	a5,a0
    4c1c:	02078263          	beqz	a5,4c40 <core_state_transition+0x2f0>
    4c20:	00700793          	li	a5,7
    4c24:	fef42423          	sw	a5,-24(s0)
    4c28:	fd842783          	lw	a5,-40(s0)
    4c2c:	01878793          	addi	a5,a5,24
    4c30:	0007a703          	lw	a4,0(a5)
    4c34:	00170713          	addi	a4,a4,1
    4c38:	00e7a023          	sw	a4,0(a5)
    4c3c:	0740006f          	j	4cb0 <core_state_transition+0x360>
    4c40:	00100793          	li	a5,1
    4c44:	fef42423          	sw	a5,-24(s0)
    4c48:	fd842783          	lw	a5,-40(s0)
    4c4c:	01878793          	addi	a5,a5,24
    4c50:	0007a703          	lw	a4,0(a5)
    4c54:	00170713          	addi	a4,a4,1
    4c58:	00e7a023          	sw	a4,0(a5)
    4c5c:	0540006f          	j	4cb0 <core_state_transition+0x360>
    4c60:	fe744783          	lbu	a5,-25(s0)
    4c64:	00078513          	mv	a0,a5
    4c68:	c99ff0ef          	jal	ra,4900 <ee_isdigit>
    4c6c:	00050793          	mv	a5,a0
    4c70:	02079e63          	bnez	a5,4cac <core_state_transition+0x35c>
    4c74:	00100793          	li	a5,1
    4c78:	fef42423          	sw	a5,-24(s0)
    4c7c:	fd842783          	lw	a5,-40(s0)
    4c80:	00478793          	addi	a5,a5,4
    4c84:	0007a703          	lw	a4,0(a5)
    4c88:	00170713          	addi	a4,a4,1
    4c8c:	00e7a023          	sw	a4,0(a5)
    4c90:	01c0006f          	j	4cac <core_state_transition+0x35c>
    4c94:	00000013          	nop
    4c98:	0180006f          	j	4cb0 <core_state_transition+0x360>
    4c9c:	00000013          	nop
    4ca0:	0100006f          	j	4cb0 <core_state_transition+0x360>
    4ca4:	00000013          	nop
    4ca8:	0080006f          	j	4cb0 <core_state_transition+0x360>
    4cac:	00000013          	nop
    4cb0:	fec42783          	lw	a5,-20(s0)
    4cb4:	00178793          	addi	a5,a5,1
    4cb8:	fef42623          	sw	a5,-20(s0)
    4cbc:	fec42783          	lw	a5,-20(s0)
    4cc0:	0007c783          	lbu	a5,0(a5)
    4cc4:	00078863          	beqz	a5,4cd4 <core_state_transition+0x384>
    4cc8:	fe842703          	lw	a4,-24(s0)
    4ccc:	00100793          	li	a5,1
    4cd0:	caf716e3          	bne	a4,a5,497c <core_state_transition+0x2c>
    4cd4:	fdc42783          	lw	a5,-36(s0)
    4cd8:	fec42703          	lw	a4,-20(s0)
    4cdc:	00e7a023          	sw	a4,0(a5)
    4ce0:	fe842783          	lw	a5,-24(s0)
    4ce4:	00078513          	mv	a0,a5
    4ce8:	02c12083          	lw	ra,44(sp)
    4cec:	02812403          	lw	s0,40(sp)
    4cf0:	03010113          	addi	sp,sp,48
    4cf4:	00008067          	ret

00004cf8 <get_seed_32>:
    4cf8:	fd010113          	addi	sp,sp,-48
    4cfc:	02812623          	sw	s0,44(sp)
    4d00:	03010413          	addi	s0,sp,48
    4d04:	fca42e23          	sw	a0,-36(s0)
    4d08:	fdc42703          	lw	a4,-36(s0)
    4d0c:	00500793          	li	a5,5
    4d10:	08e7e863          	bltu	a5,a4,4da0 <get_seed_32+0xa8>
    4d14:	fdc42783          	lw	a5,-36(s0)
    4d18:	00279713          	slli	a4,a5,0x2
    4d1c:	000fb797          	auipc	a5,0xfb
    4d20:	78478793          	addi	a5,a5,1924 # 1004a0 <_etext+0xfa568>
    4d24:	00f707b3          	add	a5,a4,a5
    4d28:	0007a703          	lw	a4,0(a5)
    4d2c:	000fb797          	auipc	a5,0xfb
    4d30:	77478793          	addi	a5,a5,1908 # 1004a0 <_etext+0xfa568>
    4d34:	00f707b3          	add	a5,a4,a5
    4d38:	00078067          	jr	a5
    4d3c:	00101797          	auipc	a5,0x101
    4d40:	8c478793          	addi	a5,a5,-1852 # 105600 <seed1_volatile>
    4d44:	0007a783          	lw	a5,0(a5)
    4d48:	fef42623          	sw	a5,-20(s0)
    4d4c:	05c0006f          	j	4da8 <get_seed_32+0xb0>
    4d50:	00101797          	auipc	a5,0x101
    4d54:	8b478793          	addi	a5,a5,-1868 # 105604 <seed2_volatile>
    4d58:	0007a783          	lw	a5,0(a5)
    4d5c:	fef42623          	sw	a5,-20(s0)
    4d60:	0480006f          	j	4da8 <get_seed_32+0xb0>
    4d64:	000fc797          	auipc	a5,0xfc
    4d68:	c7478793          	addi	a5,a5,-908 # 1009d8 <seed3_volatile>
    4d6c:	0007a783          	lw	a5,0(a5)
    4d70:	fef42623          	sw	a5,-20(s0)
    4d74:	0340006f          	j	4da8 <get_seed_32+0xb0>
    4d78:	000fc797          	auipc	a5,0xfc
    4d7c:	c6478793          	addi	a5,a5,-924 # 1009dc <seed4_volatile>
    4d80:	0007a783          	lw	a5,0(a5)
    4d84:	fef42623          	sw	a5,-20(s0)
    4d88:	0200006f          	j	4da8 <get_seed_32+0xb0>
    4d8c:	00101797          	auipc	a5,0x101
    4d90:	87c78793          	addi	a5,a5,-1924 # 105608 <seed5_volatile>
    4d94:	0007a783          	lw	a5,0(a5)
    4d98:	fef42623          	sw	a5,-20(s0)
    4d9c:	00c0006f          	j	4da8 <get_seed_32+0xb0>
    4da0:	fe042623          	sw	zero,-20(s0)
    4da4:	00000013          	nop
    4da8:	fec42783          	lw	a5,-20(s0)
    4dac:	00078513          	mv	a0,a5
    4db0:	02c12403          	lw	s0,44(sp)
    4db4:	03010113          	addi	sp,sp,48
    4db8:	00008067          	ret

00004dbc <crcu8>:
    4dbc:	fd010113          	addi	sp,sp,-48
    4dc0:	02812623          	sw	s0,44(sp)
    4dc4:	03010413          	addi	s0,sp,48
    4dc8:	00050793          	mv	a5,a0
    4dcc:	00058713          	mv	a4,a1
    4dd0:	fcf40fa3          	sb	a5,-33(s0)
    4dd4:	00070793          	mv	a5,a4
    4dd8:	fcf41e23          	sh	a5,-36(s0)
    4ddc:	fe0407a3          	sb	zero,-17(s0)
    4de0:	fe0406a3          	sb	zero,-19(s0)
    4de4:	fe040723          	sb	zero,-18(s0)
    4de8:	fe0407a3          	sb	zero,-17(s0)
    4dec:	0b00006f          	j	4e9c <crcu8+0xe0>
    4df0:	fdc45783          	lhu	a5,-36(s0)
    4df4:	01879713          	slli	a4,a5,0x18
    4df8:	41875713          	srai	a4,a4,0x18
    4dfc:	fdf40783          	lb	a5,-33(s0)
    4e00:	00f747b3          	xor	a5,a4,a5
    4e04:	01879793          	slli	a5,a5,0x18
    4e08:	4187d793          	srai	a5,a5,0x18
    4e0c:	0ff7f793          	andi	a5,a5,255
    4e10:	0017f793          	andi	a5,a5,1
    4e14:	fef406a3          	sb	a5,-19(s0)
    4e18:	fdf44783          	lbu	a5,-33(s0)
    4e1c:	0017d793          	srli	a5,a5,0x1
    4e20:	fcf40fa3          	sb	a5,-33(s0)
    4e24:	fed44703          	lbu	a4,-19(s0)
    4e28:	00100793          	li	a5,1
    4e2c:	02f71263          	bne	a4,a5,4e50 <crcu8+0x94>
    4e30:	fdc45703          	lhu	a4,-36(s0)
    4e34:	000047b7          	lui	a5,0x4
    4e38:	00278793          	addi	a5,a5,2 # 4002 <matrix_mul_matrix+0x102>
    4e3c:	00f747b3          	xor	a5,a4,a5
    4e40:	fcf41e23          	sh	a5,-36(s0)
    4e44:	00100793          	li	a5,1
    4e48:	fef40723          	sb	a5,-18(s0)
    4e4c:	0080006f          	j	4e54 <crcu8+0x98>
    4e50:	fe040723          	sb	zero,-18(s0)
    4e54:	fdc45783          	lhu	a5,-36(s0)
    4e58:	0017d793          	srli	a5,a5,0x1
    4e5c:	fcf41e23          	sh	a5,-36(s0)
    4e60:	fee44783          	lbu	a5,-18(s0)
    4e64:	00078c63          	beqz	a5,4e7c <crcu8+0xc0>
    4e68:	fdc45703          	lhu	a4,-36(s0)
    4e6c:	ffff87b7          	lui	a5,0xffff8
    4e70:	00f767b3          	or	a5,a4,a5
    4e74:	fcf41e23          	sh	a5,-36(s0)
    4e78:	0180006f          	j	4e90 <crcu8+0xd4>
    4e7c:	fdc45703          	lhu	a4,-36(s0)
    4e80:	000087b7          	lui	a5,0x8
    4e84:	fff78793          	addi	a5,a5,-1 # 7fff <_etext+0x20c7>
    4e88:	00f777b3          	and	a5,a4,a5
    4e8c:	fcf41e23          	sh	a5,-36(s0)
    4e90:	fef44783          	lbu	a5,-17(s0)
    4e94:	00178793          	addi	a5,a5,1
    4e98:	fef407a3          	sb	a5,-17(s0)
    4e9c:	fef44703          	lbu	a4,-17(s0)
    4ea0:	00700793          	li	a5,7
    4ea4:	f4e7f6e3          	bgeu	a5,a4,4df0 <crcu8+0x34>
    4ea8:	fdc45783          	lhu	a5,-36(s0)
    4eac:	00078513          	mv	a0,a5
    4eb0:	02c12403          	lw	s0,44(sp)
    4eb4:	03010113          	addi	sp,sp,48
    4eb8:	00008067          	ret

00004ebc <crcu16>:
    4ebc:	fe010113          	addi	sp,sp,-32
    4ec0:	00112e23          	sw	ra,28(sp)
    4ec4:	00812c23          	sw	s0,24(sp)
    4ec8:	02010413          	addi	s0,sp,32
    4ecc:	00050793          	mv	a5,a0
    4ed0:	00058713          	mv	a4,a1
    4ed4:	fef41723          	sh	a5,-18(s0)
    4ed8:	00070793          	mv	a5,a4
    4edc:	fef41623          	sh	a5,-20(s0)
    4ee0:	fee45783          	lhu	a5,-18(s0)
    4ee4:	0ff7f793          	andi	a5,a5,255
    4ee8:	fec45703          	lhu	a4,-20(s0)
    4eec:	00070593          	mv	a1,a4
    4ef0:	00078513          	mv	a0,a5
    4ef4:	ec9ff0ef          	jal	ra,4dbc <crcu8>
    4ef8:	00050793          	mv	a5,a0
    4efc:	fef41623          	sh	a5,-20(s0)
    4f00:	fee45783          	lhu	a5,-18(s0)
    4f04:	0087d793          	srli	a5,a5,0x8
    4f08:	01079793          	slli	a5,a5,0x10
    4f0c:	0107d793          	srli	a5,a5,0x10
    4f10:	0ff7f793          	andi	a5,a5,255
    4f14:	fec45703          	lhu	a4,-20(s0)
    4f18:	00070593          	mv	a1,a4
    4f1c:	00078513          	mv	a0,a5
    4f20:	e9dff0ef          	jal	ra,4dbc <crcu8>
    4f24:	00050793          	mv	a5,a0
    4f28:	fef41623          	sh	a5,-20(s0)
    4f2c:	fec45783          	lhu	a5,-20(s0)
    4f30:	00078513          	mv	a0,a5
    4f34:	01c12083          	lw	ra,28(sp)
    4f38:	01812403          	lw	s0,24(sp)
    4f3c:	02010113          	addi	sp,sp,32
    4f40:	00008067          	ret

00004f44 <crcu32>:
    4f44:	fe010113          	addi	sp,sp,-32
    4f48:	00112e23          	sw	ra,28(sp)
    4f4c:	00812c23          	sw	s0,24(sp)
    4f50:	02010413          	addi	s0,sp,32
    4f54:	fea42623          	sw	a0,-20(s0)
    4f58:	00058793          	mv	a5,a1
    4f5c:	fef41523          	sh	a5,-22(s0)
    4f60:	fec42783          	lw	a5,-20(s0)
    4f64:	01079793          	slli	a5,a5,0x10
    4f68:	4107d793          	srai	a5,a5,0x10
    4f6c:	fea45703          	lhu	a4,-22(s0)
    4f70:	00070593          	mv	a1,a4
    4f74:	00078513          	mv	a0,a5
    4f78:	04c000ef          	jal	ra,4fc4 <crc16>
    4f7c:	00050793          	mv	a5,a0
    4f80:	fef41523          	sh	a5,-22(s0)
    4f84:	fec42783          	lw	a5,-20(s0)
    4f88:	0107d793          	srli	a5,a5,0x10
    4f8c:	01079793          	slli	a5,a5,0x10
    4f90:	4107d793          	srai	a5,a5,0x10
    4f94:	fea45703          	lhu	a4,-22(s0)
    4f98:	00070593          	mv	a1,a4
    4f9c:	00078513          	mv	a0,a5
    4fa0:	024000ef          	jal	ra,4fc4 <crc16>
    4fa4:	00050793          	mv	a5,a0
    4fa8:	fef41523          	sh	a5,-22(s0)
    4fac:	fea45783          	lhu	a5,-22(s0)
    4fb0:	00078513          	mv	a0,a5
    4fb4:	01c12083          	lw	ra,28(sp)
    4fb8:	01812403          	lw	s0,24(sp)
    4fbc:	02010113          	addi	sp,sp,32
    4fc0:	00008067          	ret

00004fc4 <crc16>:
    4fc4:	fe010113          	addi	sp,sp,-32
    4fc8:	00112e23          	sw	ra,28(sp)
    4fcc:	00812c23          	sw	s0,24(sp)
    4fd0:	02010413          	addi	s0,sp,32
    4fd4:	00050793          	mv	a5,a0
    4fd8:	00058713          	mv	a4,a1
    4fdc:	fef41723          	sh	a5,-18(s0)
    4fe0:	00070793          	mv	a5,a4
    4fe4:	fef41623          	sh	a5,-20(s0)
    4fe8:	fee45783          	lhu	a5,-18(s0)
    4fec:	fec45703          	lhu	a4,-20(s0)
    4ff0:	00070593          	mv	a1,a4
    4ff4:	00078513          	mv	a0,a5
    4ff8:	ec5ff0ef          	jal	ra,4ebc <crcu16>
    4ffc:	00050793          	mv	a5,a0
    5000:	00078513          	mv	a0,a5
    5004:	01c12083          	lw	ra,28(sp)
    5008:	01812403          	lw	s0,24(sp)
    500c:	02010113          	addi	sp,sp,32
    5010:	00008067          	ret

00005014 <check_data_types>:
    5014:	fe010113          	addi	sp,sp,-32
    5018:	00112e23          	sw	ra,28(sp)
    501c:	00812c23          	sw	s0,24(sp)
    5020:	02010413          	addi	s0,sp,32
    5024:	fe0407a3          	sb	zero,-17(s0)
    5028:	fef44783          	lbu	a5,-17(s0)
    502c:	00078863          	beqz	a5,503c <check_data_types+0x28>
    5030:	000fb517          	auipc	a0,0xfb
    5034:	48850513          	addi	a0,a0,1160 # 1004b8 <_etext+0xfa580>
    5038:	128000ef          	jal	ra,5160 <kprintf>
    503c:	fef44783          	lbu	a5,-17(s0)
    5040:	00078513          	mv	a0,a5
    5044:	01c12083          	lw	ra,28(sp)
    5048:	01812403          	lw	s0,24(sp)
    504c:	02010113          	addi	sp,sp,32
    5050:	00008067          	ret

00005054 <putu_>:
    5054:	fe010113          	addi	sp,sp,-32
    5058:	00112e23          	sw	ra,28(sp)
    505c:	00812c23          	sw	s0,24(sp)
    5060:	02010413          	addi	s0,sp,32
    5064:	fea42623          	sw	a0,-20(s0)
    5068:	fec42783          	lw	a5,-20(s0)
    506c:	04078663          	beqz	a5,50b8 <putu_+0x64>
    5070:	fec42783          	lw	a5,-20(s0)
    5074:	00a00593          	li	a1,10
    5078:	00078513          	mv	a0,a5
    507c:	5a0000ef          	jal	ra,561c <__udivsi3>
    5080:	00050793          	mv	a5,a0
    5084:	00078513          	mv	a0,a5
    5088:	fcdff0ef          	jal	ra,5054 <putu_>
    508c:	fec42783          	lw	a5,-20(s0)
    5090:	00a00593          	li	a1,10
    5094:	00078513          	mv	a0,a5
    5098:	4c8000ef          	jal	ra,5560 <__umodsi3>
    509c:	00050793          	mv	a5,a0
    50a0:	0ff7f793          	andi	a5,a5,255
    50a4:	03078793          	addi	a5,a5,48
    50a8:	0ff7f793          	andi	a5,a5,255
    50ac:	00078513          	mv	a0,a5
    50b0:	319000ef          	jal	ra,5bc8 <putch>
    50b4:	0080006f          	j	50bc <putu_+0x68>
    50b8:	00000013          	nop
    50bc:	01c12083          	lw	ra,28(sp)
    50c0:	01812403          	lw	s0,24(sp)
    50c4:	02010113          	addi	sp,sp,32
    50c8:	00008067          	ret

000050cc <putu>:
    50cc:	fe010113          	addi	sp,sp,-32
    50d0:	00112e23          	sw	ra,28(sp)
    50d4:	00812c23          	sw	s0,24(sp)
    50d8:	02010413          	addi	s0,sp,32
    50dc:	fea42623          	sw	a0,-20(s0)
    50e0:	fec42783          	lw	a5,-20(s0)
    50e4:	00079863          	bnez	a5,50f4 <putu+0x28>
    50e8:	03000513          	li	a0,48
    50ec:	2dd000ef          	jal	ra,5bc8 <putch>
    50f0:	00c0006f          	j	50fc <putu+0x30>
    50f4:	fec42503          	lw	a0,-20(s0)
    50f8:	f5dff0ef          	jal	ra,5054 <putu_>
    50fc:	00000013          	nop
    5100:	01c12083          	lw	ra,28(sp)
    5104:	01812403          	lw	s0,24(sp)
    5108:	02010113          	addi	sp,sp,32
    510c:	00008067          	ret

00005110 <puti>:
    5110:	fe010113          	addi	sp,sp,-32
    5114:	00112e23          	sw	ra,28(sp)
    5118:	00812c23          	sw	s0,24(sp)
    511c:	02010413          	addi	s0,sp,32
    5120:	fea42623          	sw	a0,-20(s0)
    5124:	fec42783          	lw	a5,-20(s0)
    5128:	0007dc63          	bgez	a5,5140 <puti+0x30>
    512c:	fec42783          	lw	a5,-20(s0)
    5130:	40f007b3          	neg	a5,a5
    5134:	fef42623          	sw	a5,-20(s0)
    5138:	02d00513          	li	a0,45
    513c:	28d000ef          	jal	ra,5bc8 <putch>
    5140:	fec42783          	lw	a5,-20(s0)
    5144:	00078513          	mv	a0,a5
    5148:	f85ff0ef          	jal	ra,50cc <putu>
    514c:	00000013          	nop
    5150:	01c12083          	lw	ra,28(sp)
    5154:	01812403          	lw	s0,24(sp)
    5158:	02010113          	addi	sp,sp,32
    515c:	00008067          	ret

00005160 <kprintf>:
    5160:	fb010113          	addi	sp,sp,-80
    5164:	02112623          	sw	ra,44(sp)
    5168:	02812423          	sw	s0,40(sp)
    516c:	03010413          	addi	s0,sp,48
    5170:	fca42e23          	sw	a0,-36(s0)
    5174:	00b42223          	sw	a1,4(s0)
    5178:	00c42423          	sw	a2,8(s0)
    517c:	00d42623          	sw	a3,12(s0)
    5180:	00e42823          	sw	a4,16(s0)
    5184:	00f42a23          	sw	a5,20(s0)
    5188:	01042c23          	sw	a6,24(s0)
    518c:	01142e23          	sw	a7,28(s0)
    5190:	02040793          	addi	a5,s0,32
    5194:	fcf42c23          	sw	a5,-40(s0)
    5198:	fd842783          	lw	a5,-40(s0)
    519c:	fe478793          	addi	a5,a5,-28
    51a0:	fef42423          	sw	a5,-24(s0)
    51a4:	fdc42783          	lw	a5,-36(s0)
    51a8:	fef42623          	sw	a5,-20(s0)
    51ac:	10c0006f          	j	52b8 <kprintf+0x158>
    51b0:	fec42783          	lw	a5,-20(s0)
    51b4:	0007c703          	lbu	a4,0(a5)
    51b8:	02500793          	li	a5,37
    51bc:	00f70c63          	beq	a4,a5,51d4 <kprintf+0x74>
    51c0:	fec42783          	lw	a5,-20(s0)
    51c4:	0007c783          	lbu	a5,0(a5)
    51c8:	00078513          	mv	a0,a5
    51cc:	1fd000ef          	jal	ra,5bc8 <putch>
    51d0:	0dc0006f          	j	52ac <kprintf+0x14c>
    51d4:	fec42783          	lw	a5,-20(s0)
    51d8:	00178793          	addi	a5,a5,1
    51dc:	fef42623          	sw	a5,-20(s0)
    51e0:	fec42783          	lw	a5,-20(s0)
    51e4:	0007c783          	lbu	a5,0(a5)
    51e8:	07500713          	li	a4,117
    51ec:	06e78663          	beq	a5,a4,5258 <kprintf+0xf8>
    51f0:	07500713          	li	a4,117
    51f4:	0af74c63          	blt	a4,a5,52ac <kprintf+0x14c>
    51f8:	07300713          	li	a4,115
    51fc:	08e78a63          	beq	a5,a4,5290 <kprintf+0x130>
    5200:	07300713          	li	a4,115
    5204:	0af74463          	blt	a4,a5,52ac <kprintf+0x14c>
    5208:	06400713          	li	a4,100
    520c:	06e78463          	beq	a5,a4,5274 <kprintf+0x114>
    5210:	06400713          	li	a4,100
    5214:	08f74c63          	blt	a4,a5,52ac <kprintf+0x14c>
    5218:	02500713          	li	a4,37
    521c:	00e78863          	beq	a5,a4,522c <kprintf+0xcc>
    5220:	06300713          	li	a4,99
    5224:	00e78a63          	beq	a5,a4,5238 <kprintf+0xd8>
    5228:	0840006f          	j	52ac <kprintf+0x14c>
    522c:	02500513          	li	a0,37
    5230:	199000ef          	jal	ra,5bc8 <putch>
    5234:	0780006f          	j	52ac <kprintf+0x14c>
    5238:	fe842783          	lw	a5,-24(s0)
    523c:	00478713          	addi	a4,a5,4
    5240:	fee42423          	sw	a4,-24(s0)
    5244:	0007a783          	lw	a5,0(a5)
    5248:	0ff7f793          	andi	a5,a5,255
    524c:	00078513          	mv	a0,a5
    5250:	179000ef          	jal	ra,5bc8 <putch>
    5254:	0580006f          	j	52ac <kprintf+0x14c>
    5258:	fe842783          	lw	a5,-24(s0)
    525c:	00478713          	addi	a4,a5,4
    5260:	fee42423          	sw	a4,-24(s0)
    5264:	0007a783          	lw	a5,0(a5)
    5268:	00078513          	mv	a0,a5
    526c:	e61ff0ef          	jal	ra,50cc <putu>
    5270:	03c0006f          	j	52ac <kprintf+0x14c>
    5274:	fe842783          	lw	a5,-24(s0)
    5278:	00478713          	addi	a4,a5,4
    527c:	fee42423          	sw	a4,-24(s0)
    5280:	0007a783          	lw	a5,0(a5)
    5284:	00078513          	mv	a0,a5
    5288:	e89ff0ef          	jal	ra,5110 <puti>
    528c:	0200006f          	j	52ac <kprintf+0x14c>
    5290:	fe842783          	lw	a5,-24(s0)
    5294:	00478713          	addi	a4,a5,4
    5298:	fee42423          	sw	a4,-24(s0)
    529c:	0007a783          	lw	a5,0(a5)
    52a0:	00078513          	mv	a0,a5
    52a4:	405000ef          	jal	ra,5ea8 <putstr>
    52a8:	00000013          	nop
    52ac:	fec42783          	lw	a5,-20(s0)
    52b0:	00178793          	addi	a5,a5,1
    52b4:	fef42623          	sw	a5,-20(s0)
    52b8:	fec42783          	lw	a5,-20(s0)
    52bc:	0007c783          	lbu	a5,0(a5)
    52c0:	ee0798e3          	bnez	a5,51b0 <kprintf+0x50>
    52c4:	00000013          	nop
    52c8:	00000013          	nop
    52cc:	02c12083          	lw	ra,44(sp)
    52d0:	02812403          	lw	s0,40(sp)
    52d4:	05010113          	addi	sp,sp,80
    52d8:	00008067          	ret

000052dc <kputs>:
    52dc:	fe010113          	addi	sp,sp,-32
    52e0:	00112e23          	sw	ra,28(sp)
    52e4:	00812c23          	sw	s0,24(sp)
    52e8:	02010413          	addi	s0,sp,32
    52ec:	fea42623          	sw	a0,-20(s0)
    52f0:	fec42503          	lw	a0,-20(s0)
    52f4:	3b5000ef          	jal	ra,5ea8 <putstr>
    52f8:	00000013          	nop
    52fc:	01c12083          	lw	ra,28(sp)
    5300:	01812403          	lw	s0,24(sp)
    5304:	02010113          	addi	sp,sp,32
    5308:	00008067          	ret

0000530c <kstrlen>:
    530c:	fd010113          	addi	sp,sp,-48
    5310:	02812623          	sw	s0,44(sp)
    5314:	03010413          	addi	s0,sp,48
    5318:	fca42e23          	sw	a0,-36(s0)
    531c:	fe042623          	sw	zero,-20(s0)
    5320:	0100006f          	j	5330 <kstrlen+0x24>
    5324:	fec42783          	lw	a5,-20(s0)
    5328:	00178793          	addi	a5,a5,1
    532c:	fef42623          	sw	a5,-20(s0)
    5330:	fec42783          	lw	a5,-20(s0)
    5334:	fdc42703          	lw	a4,-36(s0)
    5338:	00f707b3          	add	a5,a4,a5
    533c:	0007c783          	lbu	a5,0(a5)
    5340:	fe0792e3          	bnez	a5,5324 <kstrlen+0x18>
    5344:	fec42783          	lw	a5,-20(s0)
    5348:	00078513          	mv	a0,a5
    534c:	02c12403          	lw	s0,44(sp)
    5350:	03010113          	addi	sp,sp,48
    5354:	00008067          	ret

00005358 <kstrcmp>:
    5358:	fd010113          	addi	sp,sp,-48
    535c:	02812623          	sw	s0,44(sp)
    5360:	03010413          	addi	s0,sp,48
    5364:	fca42e23          	sw	a0,-36(s0)
    5368:	fcb42c23          	sw	a1,-40(s0)
    536c:	fdc42783          	lw	a5,-36(s0)
    5370:	fef42623          	sw	a5,-20(s0)
    5374:	fd842783          	lw	a5,-40(s0)
    5378:	fef42423          	sw	a5,-24(s0)
    537c:	01c0006f          	j	5398 <kstrcmp+0x40>
    5380:	fec42783          	lw	a5,-20(s0)
    5384:	00178793          	addi	a5,a5,1
    5388:	fef42623          	sw	a5,-20(s0)
    538c:	fe842783          	lw	a5,-24(s0)
    5390:	00178793          	addi	a5,a5,1
    5394:	fef42423          	sw	a5,-24(s0)
    5398:	fec42783          	lw	a5,-20(s0)
    539c:	0007c703          	lbu	a4,0(a5)
    53a0:	fe842783          	lw	a5,-24(s0)
    53a4:	0007c783          	lbu	a5,0(a5)
    53a8:	00f71e63          	bne	a4,a5,53c4 <kstrcmp+0x6c>
    53ac:	fec42783          	lw	a5,-20(s0)
    53b0:	0007c783          	lbu	a5,0(a5)
    53b4:	00078863          	beqz	a5,53c4 <kstrcmp+0x6c>
    53b8:	fe842783          	lw	a5,-24(s0)
    53bc:	0007c783          	lbu	a5,0(a5)
    53c0:	fc0790e3          	bnez	a5,5380 <kstrcmp+0x28>
    53c4:	fec42783          	lw	a5,-20(s0)
    53c8:	0007c703          	lbu	a4,0(a5)
    53cc:	fe842783          	lw	a5,-24(s0)
    53d0:	0007c783          	lbu	a5,0(a5)
    53d4:	00f71663          	bne	a4,a5,53e0 <kstrcmp+0x88>
    53d8:	00000793          	li	a5,0
    53dc:	0240006f          	j	5400 <kstrcmp+0xa8>
    53e0:	fec42783          	lw	a5,-20(s0)
    53e4:	0007c703          	lbu	a4,0(a5)
    53e8:	fe842783          	lw	a5,-24(s0)
    53ec:	0007c783          	lbu	a5,0(a5)
    53f0:	00e7f663          	bgeu	a5,a4,53fc <kstrcmp+0xa4>
    53f4:	00100793          	li	a5,1
    53f8:	0080006f          	j	5400 <kstrcmp+0xa8>
    53fc:	fff00793          	li	a5,-1
    5400:	00078513          	mv	a0,a5
    5404:	02c12403          	lw	s0,44(sp)
    5408:	03010113          	addi	sp,sp,48
    540c:	00008067          	ret

00005410 <kstrncmp>:
    5410:	fd010113          	addi	sp,sp,-48
    5414:	02812623          	sw	s0,44(sp)
    5418:	03010413          	addi	s0,sp,48
    541c:	fca42e23          	sw	a0,-36(s0)
    5420:	fcb42c23          	sw	a1,-40(s0)
    5424:	fcc42a23          	sw	a2,-44(s0)
    5428:	fe042623          	sw	zero,-20(s0)
    542c:	fdc42783          	lw	a5,-36(s0)
    5430:	fef42423          	sw	a5,-24(s0)
    5434:	fd842783          	lw	a5,-40(s0)
    5438:	fef42223          	sw	a5,-28(s0)
    543c:	0280006f          	j	5464 <kstrncmp+0x54>
    5440:	fe842783          	lw	a5,-24(s0)
    5444:	00178793          	addi	a5,a5,1
    5448:	fef42423          	sw	a5,-24(s0)
    544c:	fe442783          	lw	a5,-28(s0)
    5450:	00178793          	addi	a5,a5,1
    5454:	fef42223          	sw	a5,-28(s0)
    5458:	fec42783          	lw	a5,-20(s0)
    545c:	00178793          	addi	a5,a5,1
    5460:	fef42623          	sw	a5,-20(s0)
    5464:	fe842783          	lw	a5,-24(s0)
    5468:	0007c703          	lbu	a4,0(a5)
    546c:	fe442783          	lw	a5,-28(s0)
    5470:	0007c783          	lbu	a5,0(a5)
    5474:	02f71463          	bne	a4,a5,549c <kstrncmp+0x8c>
    5478:	fe842783          	lw	a5,-24(s0)
    547c:	0007c783          	lbu	a5,0(a5)
    5480:	00078e63          	beqz	a5,549c <kstrncmp+0x8c>
    5484:	fe442783          	lw	a5,-28(s0)
    5488:	0007c783          	lbu	a5,0(a5)
    548c:	00078863          	beqz	a5,549c <kstrncmp+0x8c>
    5490:	fec42703          	lw	a4,-20(s0)
    5494:	fd442783          	lw	a5,-44(s0)
    5498:	faf744e3          	blt	a4,a5,5440 <kstrncmp+0x30>
    549c:	fe842783          	lw	a5,-24(s0)
    54a0:	0007c703          	lbu	a4,0(a5)
    54a4:	fe442783          	lw	a5,-28(s0)
    54a8:	0007c783          	lbu	a5,0(a5)
    54ac:	00f70863          	beq	a4,a5,54bc <kstrncmp+0xac>
    54b0:	fec42703          	lw	a4,-20(s0)
    54b4:	fd442783          	lw	a5,-44(s0)
    54b8:	00f71663          	bne	a4,a5,54c4 <kstrncmp+0xb4>
    54bc:	00000793          	li	a5,0
    54c0:	0240006f          	j	54e4 <kstrncmp+0xd4>
    54c4:	fe842783          	lw	a5,-24(s0)
    54c8:	0007c703          	lbu	a4,0(a5)
    54cc:	fe442783          	lw	a5,-28(s0)
    54d0:	0007c783          	lbu	a5,0(a5)
    54d4:	00e7f663          	bgeu	a5,a4,54e0 <kstrncmp+0xd0>
    54d8:	00100793          	li	a5,1
    54dc:	0080006f          	j	54e4 <kstrncmp+0xd4>
    54e0:	fff00793          	li	a5,-1
    54e4:	00078513          	mv	a0,a5
    54e8:	02c12403          	lw	s0,44(sp)
    54ec:	03010113          	addi	sp,sp,48
    54f0:	00008067          	ret

000054f4 <__mulsi3>:
    54f4:	fd010113          	addi	sp,sp,-48
    54f8:	02812623          	sw	s0,44(sp)
    54fc:	03010413          	addi	s0,sp,48
    5500:	fca42e23          	sw	a0,-36(s0)
    5504:	fcb42c23          	sw	a1,-40(s0)
    5508:	fe042623          	sw	zero,-20(s0)
    550c:	0380006f          	j	5544 <__mulsi3+0x50>
    5510:	fdc42783          	lw	a5,-36(s0)
    5514:	0017f793          	andi	a5,a5,1
    5518:	00078a63          	beqz	a5,552c <__mulsi3+0x38>
    551c:	fec42703          	lw	a4,-20(s0)
    5520:	fd842783          	lw	a5,-40(s0)
    5524:	00f707b3          	add	a5,a4,a5
    5528:	fef42623          	sw	a5,-20(s0)
    552c:	fdc42783          	lw	a5,-36(s0)
    5530:	0017d793          	srli	a5,a5,0x1
    5534:	fcf42e23          	sw	a5,-36(s0)
    5538:	fd842783          	lw	a5,-40(s0)
    553c:	00179793          	slli	a5,a5,0x1
    5540:	fcf42c23          	sw	a5,-40(s0)
    5544:	fdc42783          	lw	a5,-36(s0)
    5548:	fc0794e3          	bnez	a5,5510 <__mulsi3+0x1c>
    554c:	fec42783          	lw	a5,-20(s0)
    5550:	00078513          	mv	a0,a5
    5554:	02c12403          	lw	s0,44(sp)
    5558:	03010113          	addi	sp,sp,48
    555c:	00008067          	ret

00005560 <__umodsi3>:
    5560:	fd010113          	addi	sp,sp,-48
    5564:	02812623          	sw	s0,44(sp)
    5568:	03010413          	addi	s0,sp,48
    556c:	fca42e23          	sw	a0,-36(s0)
    5570:	fcb42c23          	sw	a1,-40(s0)
    5574:	00100793          	li	a5,1
    5578:	fef42623          	sw	a5,-20(s0)
    557c:	fe042423          	sw	zero,-24(s0)
    5580:	01c0006f          	j	559c <__umodsi3+0x3c>
    5584:	fd842783          	lw	a5,-40(s0)
    5588:	00179793          	slli	a5,a5,0x1
    558c:	fcf42c23          	sw	a5,-40(s0)
    5590:	fec42783          	lw	a5,-20(s0)
    5594:	00179793          	slli	a5,a5,0x1
    5598:	fef42623          	sw	a5,-20(s0)
    559c:	fd842703          	lw	a4,-40(s0)
    55a0:	fdc42783          	lw	a5,-36(s0)
    55a4:	04f77e63          	bgeu	a4,a5,5600 <__umodsi3+0xa0>
    55a8:	fec42783          	lw	a5,-20(s0)
    55ac:	04078a63          	beqz	a5,5600 <__umodsi3+0xa0>
    55b0:	fd842783          	lw	a5,-40(s0)
    55b4:	fc07d8e3          	bgez	a5,5584 <__umodsi3+0x24>
    55b8:	0480006f          	j	5600 <__umodsi3+0xa0>
    55bc:	fdc42703          	lw	a4,-36(s0)
    55c0:	fd842783          	lw	a5,-40(s0)
    55c4:	02f76263          	bltu	a4,a5,55e8 <__umodsi3+0x88>
    55c8:	fdc42703          	lw	a4,-36(s0)
    55cc:	fd842783          	lw	a5,-40(s0)
    55d0:	40f707b3          	sub	a5,a4,a5
    55d4:	fcf42e23          	sw	a5,-36(s0)
    55d8:	fe842703          	lw	a4,-24(s0)
    55dc:	fec42783          	lw	a5,-20(s0)
    55e0:	00f767b3          	or	a5,a4,a5
    55e4:	fef42423          	sw	a5,-24(s0)
    55e8:	fec42783          	lw	a5,-20(s0)
    55ec:	0017d793          	srli	a5,a5,0x1
    55f0:	fef42623          	sw	a5,-20(s0)
    55f4:	fd842783          	lw	a5,-40(s0)
    55f8:	0017d793          	srli	a5,a5,0x1
    55fc:	fcf42c23          	sw	a5,-40(s0)
    5600:	fec42783          	lw	a5,-20(s0)
    5604:	fa079ce3          	bnez	a5,55bc <__umodsi3+0x5c>
    5608:	fdc42783          	lw	a5,-36(s0)
    560c:	00078513          	mv	a0,a5
    5610:	02c12403          	lw	s0,44(sp)
    5614:	03010113          	addi	sp,sp,48
    5618:	00008067          	ret

0000561c <__udivsi3>:
    561c:	fd010113          	addi	sp,sp,-48
    5620:	02812623          	sw	s0,44(sp)
    5624:	03010413          	addi	s0,sp,48
    5628:	fca42e23          	sw	a0,-36(s0)
    562c:	fcb42c23          	sw	a1,-40(s0)
    5630:	00100793          	li	a5,1
    5634:	fef42623          	sw	a5,-20(s0)
    5638:	fe042423          	sw	zero,-24(s0)
    563c:	01c0006f          	j	5658 <__udivsi3+0x3c>
    5640:	fd842783          	lw	a5,-40(s0)
    5644:	00179793          	slli	a5,a5,0x1
    5648:	fcf42c23          	sw	a5,-40(s0)
    564c:	fec42783          	lw	a5,-20(s0)
    5650:	00179793          	slli	a5,a5,0x1
    5654:	fef42623          	sw	a5,-20(s0)
    5658:	fd842703          	lw	a4,-40(s0)
    565c:	fdc42783          	lw	a5,-36(s0)
    5660:	04f77e63          	bgeu	a4,a5,56bc <__udivsi3+0xa0>
    5664:	fec42783          	lw	a5,-20(s0)
    5668:	04078a63          	beqz	a5,56bc <__udivsi3+0xa0>
    566c:	fd842783          	lw	a5,-40(s0)
    5670:	fc07d8e3          	bgez	a5,5640 <__udivsi3+0x24>
    5674:	0480006f          	j	56bc <__udivsi3+0xa0>
    5678:	fdc42703          	lw	a4,-36(s0)
    567c:	fd842783          	lw	a5,-40(s0)
    5680:	02f76263          	bltu	a4,a5,56a4 <__udivsi3+0x88>
    5684:	fdc42703          	lw	a4,-36(s0)
    5688:	fd842783          	lw	a5,-40(s0)
    568c:	40f707b3          	sub	a5,a4,a5
    5690:	fcf42e23          	sw	a5,-36(s0)
    5694:	fe842703          	lw	a4,-24(s0)
    5698:	fec42783          	lw	a5,-20(s0)
    569c:	00f767b3          	or	a5,a4,a5
    56a0:	fef42423          	sw	a5,-24(s0)
    56a4:	fec42783          	lw	a5,-20(s0)
    56a8:	0017d793          	srli	a5,a5,0x1
    56ac:	fef42623          	sw	a5,-20(s0)
    56b0:	fd842783          	lw	a5,-40(s0)
    56b4:	0017d793          	srli	a5,a5,0x1
    56b8:	fcf42c23          	sw	a5,-40(s0)
    56bc:	fec42783          	lw	a5,-20(s0)
    56c0:	fa079ce3          	bnez	a5,5678 <__udivsi3+0x5c>
    56c4:	fe842783          	lw	a5,-24(s0)
    56c8:	00078513          	mv	a0,a5
    56cc:	02c12403          	lw	s0,44(sp)
    56d0:	03010113          	addi	sp,sp,48
    56d4:	00008067          	ret

000056d8 <__divsi3>:
    56d8:	fe010113          	addi	sp,sp,-32
    56dc:	00112e23          	sw	ra,28(sp)
    56e0:	00812c23          	sw	s0,24(sp)
    56e4:	02010413          	addi	s0,sp,32
    56e8:	fea42623          	sw	a0,-20(s0)
    56ec:	feb42423          	sw	a1,-24(s0)
    56f0:	fec42783          	lw	a5,-20(s0)
    56f4:	00078663          	beqz	a5,5700 <__divsi3+0x28>
    56f8:	fe842783          	lw	a5,-24(s0)
    56fc:	00079663          	bnez	a5,5708 <__divsi3+0x30>
    5700:	00000793          	li	a5,0
