
main.elf:     file format elf32-littleriscv


Disassembly of section .text:

00000000 <entry>:
   0:	ff010113          	addi	sp,sp,-16
   4:	00112623          	sw	ra,12(sp)
   8:	00812423          	sw	s0,8(sp)
   c:	01010413          	addi	s0,sp,16
  10:	00120137          	lui	sp,0x120
  14:	ffc10113          	addi	sp,sp,-4 # 11fffc <_end+0x1f7fc>
  18:	018000ef          	jal	ra,30 <main>
  1c:	00000013          	nop
  20:	00c12083          	lw	ra,12(sp)
  24:	00812403          	lw	s0,8(sp)
  28:	01010113          	addi	sp,sp,16
  2c:	00008067          	ret

00000030 <main>:
  30:	ff010113          	addi	sp,sp,-16
  34:	00112623          	sw	ra,12(sp)
  38:	00812423          	sw	s0,8(sp)
  3c:	01010413          	addi	s0,sp,16
  40:	234000ef          	jal	ra,274 <vga_init>
  44:	00100517          	auipc	a0,0x100
  48:	fbc50513          	addi	a0,a0,-68 # 100000 <hello>
  4c:	55c000ef          	jal	ra,5a8 <putstr>
  50:	00100517          	auipc	a0,0x100
  54:	fdc50513          	addi	a0,a0,-36 # 10002c <nyan>
  58:	550000ef          	jal	ra,5a8 <putstr>
  5c:	00100517          	auipc	a0,0x100
  60:	fb450513          	addi	a0,a0,-76 # 100010 <nunhehheh>
  64:	544000ef          	jal	ra,5a8 <putstr>
  68:	00100517          	auipc	a0,0x100
  6c:	f9850513          	addi	a0,a0,-104 # 100000 <hello>
  70:	538000ef          	jal	ra,5a8 <putstr>
  74:	00100517          	auipc	a0,0x100
  78:	fb850513          	addi	a0,a0,-72 # 10002c <nyan>
  7c:	52c000ef          	jal	ra,5a8 <putstr>
  80:	00100517          	auipc	a0,0x100
  84:	f9050513          	addi	a0,a0,-112 # 100010 <nunhehheh>
  88:	520000ef          	jal	ra,5a8 <putstr>
  8c:	fddff06f          	j	68 <main+0x38>

00000090 <__mulsi3>:
  90:	fd010113          	addi	sp,sp,-48
  94:	02812623          	sw	s0,44(sp)
  98:	03010413          	addi	s0,sp,48
  9c:	fca42e23          	sw	a0,-36(s0)
  a0:	fcb42c23          	sw	a1,-40(s0)
  a4:	fe042623          	sw	zero,-20(s0)
  a8:	0380006f          	j	e0 <__mulsi3+0x50>
  ac:	fdc42783          	lw	a5,-36(s0)
  b0:	0017f793          	andi	a5,a5,1
  b4:	00078a63          	beqz	a5,c8 <__mulsi3+0x38>
  b8:	fec42703          	lw	a4,-20(s0)
  bc:	fd842783          	lw	a5,-40(s0)
  c0:	00f707b3          	add	a5,a4,a5
  c4:	fef42623          	sw	a5,-20(s0)
  c8:	fdc42783          	lw	a5,-36(s0)
  cc:	0017d793          	srli	a5,a5,0x1
  d0:	fcf42e23          	sw	a5,-36(s0)
  d4:	fd842783          	lw	a5,-40(s0)
  d8:	00179793          	slli	a5,a5,0x1
  dc:	fcf42c23          	sw	a5,-40(s0)
  e0:	fdc42783          	lw	a5,-36(s0)
  e4:	fc0794e3          	bnez	a5,ac <__mulsi3+0x1c>
  e8:	fec42783          	lw	a5,-20(s0)
  ec:	00078513          	mv	a0,a5
  f0:	02c12403          	lw	s0,44(sp)
  f4:	03010113          	addi	sp,sp,48
  f8:	00008067          	ret

000000fc <__umodsi3>:
  fc:	fd010113          	addi	sp,sp,-48
 100:	02812623          	sw	s0,44(sp)
 104:	03010413          	addi	s0,sp,48
 108:	fca42e23          	sw	a0,-36(s0)
 10c:	fcb42c23          	sw	a1,-40(s0)
 110:	00100793          	li	a5,1
 114:	fef42623          	sw	a5,-20(s0)
 118:	fe042423          	sw	zero,-24(s0)
 11c:	01c0006f          	j	138 <__umodsi3+0x3c>
 120:	fd842783          	lw	a5,-40(s0)
 124:	00179793          	slli	a5,a5,0x1
 128:	fcf42c23          	sw	a5,-40(s0)
 12c:	fec42783          	lw	a5,-20(s0)
 130:	00179793          	slli	a5,a5,0x1
 134:	fef42623          	sw	a5,-20(s0)
 138:	fd842703          	lw	a4,-40(s0)
 13c:	fdc42783          	lw	a5,-36(s0)
 140:	04f77e63          	bgeu	a4,a5,19c <__umodsi3+0xa0>
 144:	fec42783          	lw	a5,-20(s0)
 148:	04078a63          	beqz	a5,19c <__umodsi3+0xa0>
 14c:	fd842783          	lw	a5,-40(s0)
 150:	fc07d8e3          	bgez	a5,120 <__umodsi3+0x24>
 154:	0480006f          	j	19c <__umodsi3+0xa0>
 158:	fdc42703          	lw	a4,-36(s0)
 15c:	fd842783          	lw	a5,-40(s0)
 160:	02f76263          	bltu	a4,a5,184 <__umodsi3+0x88>
 164:	fdc42703          	lw	a4,-36(s0)
 168:	fd842783          	lw	a5,-40(s0)
 16c:	40f707b3          	sub	a5,a4,a5
 170:	fcf42e23          	sw	a5,-36(s0)
 174:	fe842703          	lw	a4,-24(s0)
 178:	fec42783          	lw	a5,-20(s0)
 17c:	00f767b3          	or	a5,a4,a5
 180:	fef42423          	sw	a5,-24(s0)
 184:	fec42783          	lw	a5,-20(s0)
 188:	0017d793          	srli	a5,a5,0x1
 18c:	fef42623          	sw	a5,-20(s0)
 190:	fd842783          	lw	a5,-40(s0)
 194:	0017d793          	srli	a5,a5,0x1
 198:	fcf42c23          	sw	a5,-40(s0)
 19c:	fec42783          	lw	a5,-20(s0)
 1a0:	fa079ce3          	bnez	a5,158 <__umodsi3+0x5c>
 1a4:	fdc42783          	lw	a5,-36(s0)
 1a8:	00078513          	mv	a0,a5
 1ac:	02c12403          	lw	s0,44(sp)
 1b0:	03010113          	addi	sp,sp,48
 1b4:	00008067          	ret

000001b8 <__udivsi3>:
 1b8:	fd010113          	addi	sp,sp,-48
 1bc:	02812623          	sw	s0,44(sp)
 1c0:	03010413          	addi	s0,sp,48
 1c4:	fca42e23          	sw	a0,-36(s0)
 1c8:	fcb42c23          	sw	a1,-40(s0)
 1cc:	00100793          	li	a5,1
 1d0:	fef42623          	sw	a5,-20(s0)
 1d4:	fe042423          	sw	zero,-24(s0)
 1d8:	01c0006f          	j	1f4 <__udivsi3+0x3c>
 1dc:	fd842783          	lw	a5,-40(s0)
 1e0:	00179793          	slli	a5,a5,0x1
 1e4:	fcf42c23          	sw	a5,-40(s0)
 1e8:	fec42783          	lw	a5,-20(s0)
 1ec:	00179793          	slli	a5,a5,0x1
 1f0:	fef42623          	sw	a5,-20(s0)
 1f4:	fd842703          	lw	a4,-40(s0)
 1f8:	fdc42783          	lw	a5,-36(s0)
 1fc:	04f77e63          	bgeu	a4,a5,258 <__udivsi3+0xa0>
 200:	fec42783          	lw	a5,-20(s0)
 204:	04078a63          	beqz	a5,258 <__udivsi3+0xa0>
 208:	fd842783          	lw	a5,-40(s0)
 20c:	fc07d8e3          	bgez	a5,1dc <__udivsi3+0x24>
 210:	0480006f          	j	258 <__udivsi3+0xa0>
 214:	fdc42703          	lw	a4,-36(s0)
 218:	fd842783          	lw	a5,-40(s0)
 21c:	02f76263          	bltu	a4,a5,240 <__udivsi3+0x88>
 220:	fdc42703          	lw	a4,-36(s0)
 224:	fd842783          	lw	a5,-40(s0)
 228:	40f707b3          	sub	a5,a4,a5
 22c:	fcf42e23          	sw	a5,-36(s0)
 230:	fe842703          	lw	a4,-24(s0)
 234:	fec42783          	lw	a5,-20(s0)
 238:	00f767b3          	or	a5,a4,a5
 23c:	fef42423          	sw	a5,-24(s0)
 240:	fec42783          	lw	a5,-20(s0)
 244:	0017d793          	srli	a5,a5,0x1
 248:	fef42623          	sw	a5,-20(s0)
 24c:	fd842783          	lw	a5,-40(s0)
 250:	0017d793          	srli	a5,a5,0x1
 254:	fcf42c23          	sw	a5,-40(s0)
 258:	fec42783          	lw	a5,-20(s0)
 25c:	fa079ce3          	bnez	a5,214 <__udivsi3+0x5c>
 260:	fe842783          	lw	a5,-24(s0)
 264:	00078513          	mv	a0,a5
 268:	02c12403          	lw	s0,44(sp)
 26c:	03010113          	addi	sp,sp,48
 270:	00008067          	ret

00000274 <vga_init>:
 274:	fe010113          	addi	sp,sp,-32
 278:	00812e23          	sw	s0,28(sp)
 27c:	02010413          	addi	s0,sp,32
 280:	00100797          	auipc	a5,0x100
 284:	db878793          	addi	a5,a5,-584 # 100038 <vga_line>
 288:	0007a023          	sw	zero,0(a5)
 28c:	00100797          	auipc	a5,0x100
 290:	db078793          	addi	a5,a5,-592 # 10003c <vga_ch>
 294:	0007a023          	sw	zero,0(a5)
 298:	fe042623          	sw	zero,-20(s0)
 29c:	0540006f          	j	2f0 <vga_init+0x7c>
 2a0:	fe042423          	sw	zero,-24(s0)
 2a4:	0340006f          	j	2d8 <vga_init+0x64>
 2a8:	00100797          	auipc	a5,0x100
 2ac:	d8c78793          	addi	a5,a5,-628 # 100034 <vga_start>
 2b0:	0007a783          	lw	a5,0(a5)
 2b4:	fec42703          	lw	a4,-20(s0)
 2b8:	00771693          	slli	a3,a4,0x7
 2bc:	fe842703          	lw	a4,-24(s0)
 2c0:	00e68733          	add	a4,a3,a4
 2c4:	00e787b3          	add	a5,a5,a4
 2c8:	00078023          	sb	zero,0(a5)
 2cc:	fe842783          	lw	a5,-24(s0)
 2d0:	00178793          	addi	a5,a5,1
 2d4:	fef42423          	sw	a5,-24(s0)
 2d8:	fe842703          	lw	a4,-24(s0)
 2dc:	04500793          	li	a5,69
 2e0:	fce7d4e3          	bge	a5,a4,2a8 <vga_init+0x34>
 2e4:	fec42783          	lw	a5,-20(s0)
 2e8:	00178793          	addi	a5,a5,1
 2ec:	fef42623          	sw	a5,-20(s0)
 2f0:	fec42703          	lw	a4,-20(s0)
 2f4:	01d00793          	li	a5,29
 2f8:	fae7d4e3          	bge	a5,a4,2a0 <vga_init+0x2c>
 2fc:	00000013          	nop
 300:	01c12403          	lw	s0,28(sp)
 304:	02010113          	addi	sp,sp,32
 308:	00008067          	ret

0000030c <vga_roll>:
 30c:	fe010113          	addi	sp,sp,-32
 310:	00812e23          	sw	s0,28(sp)
 314:	02010413          	addi	s0,sp,32
 318:	fe042623          	sw	zero,-20(s0)
 31c:	07c0006f          	j	398 <vga_roll+0x8c>
 320:	fe042423          	sw	zero,-24(s0)
 324:	05c0006f          	j	380 <vga_roll+0x74>
 328:	00100797          	auipc	a5,0x100
 32c:	d0c78793          	addi	a5,a5,-756 # 100034 <vga_start>
 330:	0007a783          	lw	a5,0(a5)
 334:	fec42703          	lw	a4,-20(s0)
 338:	00170713          	addi	a4,a4,1
 33c:	00771693          	slli	a3,a4,0x7
 340:	fe842703          	lw	a4,-24(s0)
 344:	00e68733          	add	a4,a3,a4
 348:	00e78733          	add	a4,a5,a4
 34c:	00100797          	auipc	a5,0x100
 350:	ce878793          	addi	a5,a5,-792 # 100034 <vga_start>
 354:	0007a783          	lw	a5,0(a5)
 358:	fec42683          	lw	a3,-20(s0)
 35c:	00769613          	slli	a2,a3,0x7
 360:	fe842683          	lw	a3,-24(s0)
 364:	00d606b3          	add	a3,a2,a3
 368:	00d787b3          	add	a5,a5,a3
 36c:	00074703          	lbu	a4,0(a4)
 370:	00e78023          	sb	a4,0(a5)
 374:	fe842783          	lw	a5,-24(s0)
 378:	00178793          	addi	a5,a5,1
 37c:	fef42423          	sw	a5,-24(s0)
 380:	fe842703          	lw	a4,-24(s0)
 384:	04500793          	li	a5,69
 388:	fae7d0e3          	bge	a5,a4,328 <vga_roll+0x1c>
 38c:	fec42783          	lw	a5,-20(s0)
 390:	00178793          	addi	a5,a5,1
 394:	fef42623          	sw	a5,-20(s0)
 398:	fec42703          	lw	a4,-20(s0)
 39c:	01c00793          	li	a5,28
 3a0:	f8e7d0e3          	bge	a5,a4,320 <vga_roll+0x14>
 3a4:	00000013          	nop
 3a8:	01c12403          	lw	s0,28(sp)
 3ac:	02010113          	addi	sp,sp,32
 3b0:	00008067          	ret

000003b4 <putch>:
 3b4:	fe010113          	addi	sp,sp,-32
 3b8:	00112e23          	sw	ra,28(sp)
 3bc:	00812c23          	sw	s0,24(sp)
 3c0:	02010413          	addi	s0,sp,32
 3c4:	00050793          	mv	a5,a0
 3c8:	fef407a3          	sb	a5,-17(s0)
 3cc:	fef44783          	lbu	a5,-17(s0)
 3d0:	00800713          	li	a4,8
 3d4:	00e78863          	beq	a5,a4,3e4 <putch+0x30>
 3d8:	00a00713          	li	a4,10
 3dc:	0ae78e63          	beq	a5,a4,498 <putch+0xe4>
 3e0:	0fc0006f          	j	4dc <putch+0x128>
 3e4:	00100797          	auipc	a5,0x100
 3e8:	c5478793          	addi	a5,a5,-940 # 100038 <vga_line>
 3ec:	0007a783          	lw	a5,0(a5)
 3f0:	00079a63          	bnez	a5,404 <putch+0x50>
 3f4:	00100797          	auipc	a5,0x100
 3f8:	c4878793          	addi	a5,a5,-952 # 10003c <vga_ch>
 3fc:	0007a783          	lw	a5,0(a5)
 400:	18078463          	beqz	a5,588 <putch+0x1d4>
 404:	00100797          	auipc	a5,0x100
 408:	c3078793          	addi	a5,a5,-976 # 100034 <vga_start>
 40c:	0007a783          	lw	a5,0(a5)
 410:	00100717          	auipc	a4,0x100
 414:	c2870713          	addi	a4,a4,-984 # 100038 <vga_line>
 418:	00072703          	lw	a4,0(a4)
 41c:	00771693          	slli	a3,a4,0x7
 420:	00100717          	auipc	a4,0x100
 424:	c1c70713          	addi	a4,a4,-996 # 10003c <vga_ch>
 428:	00072703          	lw	a4,0(a4)
 42c:	00e68733          	add	a4,a3,a4
 430:	00e787b3          	add	a5,a5,a4
 434:	00078023          	sb	zero,0(a5)
 438:	00100797          	auipc	a5,0x100
 43c:	c0478793          	addi	a5,a5,-1020 # 10003c <vga_ch>
 440:	0007a783          	lw	a5,0(a5)
 444:	02079a63          	bnez	a5,478 <putch+0xc4>
 448:	00100797          	auipc	a5,0x100
 44c:	bf078793          	addi	a5,a5,-1040 # 100038 <vga_line>
 450:	0007a783          	lw	a5,0(a5)
 454:	fff78713          	addi	a4,a5,-1
 458:	00100797          	auipc	a5,0x100
 45c:	be078793          	addi	a5,a5,-1056 # 100038 <vga_line>
 460:	00e7a023          	sw	a4,0(a5)
 464:	00100797          	auipc	a5,0x100
 468:	bd878793          	addi	a5,a5,-1064 # 10003c <vga_ch>
 46c:	04500713          	li	a4,69
 470:	00e7a023          	sw	a4,0(a5)
 474:	1140006f          	j	588 <putch+0x1d4>
 478:	00100797          	auipc	a5,0x100
 47c:	bc478793          	addi	a5,a5,-1084 # 10003c <vga_ch>
 480:	0007a783          	lw	a5,0(a5)
 484:	fff78713          	addi	a4,a5,-1
 488:	00100797          	auipc	a5,0x100
 48c:	bb478793          	addi	a5,a5,-1100 # 10003c <vga_ch>
 490:	00e7a023          	sw	a4,0(a5)
 494:	0f40006f          	j	588 <putch+0x1d4>
 498:	00100797          	auipc	a5,0x100
 49c:	ba078793          	addi	a5,a5,-1120 # 100038 <vga_line>
 4a0:	0007a783          	lw	a5,0(a5)
 4a4:	00178713          	addi	a4,a5,1
 4a8:	00100797          	auipc	a5,0x100
 4ac:	b9078793          	addi	a5,a5,-1136 # 100038 <vga_line>
 4b0:	00e7a023          	sw	a4,0(a5)
 4b4:	00100797          	auipc	a5,0x100
 4b8:	b8478793          	addi	a5,a5,-1148 # 100038 <vga_line>
 4bc:	0007a703          	lw	a4,0(a5)
 4c0:	01d00793          	li	a5,29
 4c4:	00e7d463          	bge	a5,a4,4cc <putch+0x118>
 4c8:	e45ff0ef          	jal	ra,30c <vga_roll>
 4cc:	00100797          	auipc	a5,0x100
 4d0:	b7078793          	addi	a5,a5,-1168 # 10003c <vga_ch>
 4d4:	0007a023          	sw	zero,0(a5)
 4d8:	0bc0006f          	j	594 <putch+0x1e0>
 4dc:	00100797          	auipc	a5,0x100
 4e0:	b5878793          	addi	a5,a5,-1192 # 100034 <vga_start>
 4e4:	0007a783          	lw	a5,0(a5)
 4e8:	00100717          	auipc	a4,0x100
 4ec:	b5070713          	addi	a4,a4,-1200 # 100038 <vga_line>
 4f0:	00072703          	lw	a4,0(a4)
 4f4:	00771693          	slli	a3,a4,0x7
 4f8:	00100717          	auipc	a4,0x100
 4fc:	b4470713          	addi	a4,a4,-1212 # 10003c <vga_ch>
 500:	00072703          	lw	a4,0(a4)
 504:	00e68733          	add	a4,a3,a4
 508:	00e787b3          	add	a5,a5,a4
 50c:	fef44703          	lbu	a4,-17(s0)
 510:	00e78023          	sb	a4,0(a5)
 514:	00100797          	auipc	a5,0x100
 518:	b2878793          	addi	a5,a5,-1240 # 10003c <vga_ch>
 51c:	0007a783          	lw	a5,0(a5)
 520:	00178713          	addi	a4,a5,1
 524:	00100797          	auipc	a5,0x100
 528:	b1878793          	addi	a5,a5,-1256 # 10003c <vga_ch>
 52c:	00e7a023          	sw	a4,0(a5)
 530:	00100797          	auipc	a5,0x100
 534:	b0c78793          	addi	a5,a5,-1268 # 10003c <vga_ch>
 538:	0007a703          	lw	a4,0(a5)
 53c:	04500793          	li	a5,69
 540:	04e7d863          	bge	a5,a4,590 <putch+0x1dc>
 544:	00100797          	auipc	a5,0x100
 548:	af478793          	addi	a5,a5,-1292 # 100038 <vga_line>
 54c:	0007a783          	lw	a5,0(a5)
 550:	00178713          	addi	a4,a5,1
 554:	00100797          	auipc	a5,0x100
 558:	ae478793          	addi	a5,a5,-1308 # 100038 <vga_line>
 55c:	00e7a023          	sw	a4,0(a5)
 560:	00100797          	auipc	a5,0x100
 564:	ad878793          	addi	a5,a5,-1320 # 100038 <vga_line>
 568:	0007a703          	lw	a4,0(a5)
 56c:	01d00793          	li	a5,29
 570:	00e7d463          	bge	a5,a4,578 <putch+0x1c4>
 574:	d99ff0ef          	jal	ra,30c <vga_roll>
 578:	00100797          	auipc	a5,0x100
 57c:	ac478793          	addi	a5,a5,-1340 # 10003c <vga_ch>
 580:	0007a023          	sw	zero,0(a5)
 584:	00c0006f          	j	590 <putch+0x1dc>
 588:	00000013          	nop
 58c:	0080006f          	j	594 <putch+0x1e0>
 590:	00000013          	nop
 594:	00000013          	nop
 598:	01c12083          	lw	ra,28(sp)
 59c:	01812403          	lw	s0,24(sp)
 5a0:	02010113          	addi	sp,sp,32
 5a4:	00008067          	ret

000005a8 <putstr>:
 5a8:	fd010113          	addi	sp,sp,-48
 5ac:	02112623          	sw	ra,44(sp)
 5b0:	02812423          	sw	s0,40(sp)
 5b4:	03010413          	addi	s0,sp,48
 5b8:	fca42e23          	sw	a0,-36(s0)
 5bc:	fdc42783          	lw	a5,-36(s0)
 5c0:	fef42623          	sw	a5,-20(s0)
 5c4:	0200006f          	j	5e4 <putstr+0x3c>
 5c8:	fec42783          	lw	a5,-20(s0)
 5cc:	0007c783          	lbu	a5,0(a5)
 5d0:	00078513          	mv	a0,a5
 5d4:	de1ff0ef          	jal	ra,3b4 <putch>
 5d8:	fec42783          	lw	a5,-20(s0)
 5dc:	00178793          	addi	a5,a5,1
 5e0:	fef42623          	sw	a5,-20(s0)
 5e4:	fec42783          	lw	a5,-20(s0)
 5e8:	0007c783          	lbu	a5,0(a5)
 5ec:	fc079ee3          	bnez	a5,5c8 <putstr+0x20>
 5f0:	00000013          	nop
 5f4:	02c12083          	lw	ra,44(sp)
 5f8:	02812403          	lw	s0,40(sp)
 5fc:	03010113          	addi	sp,sp,48
 600:	00008067          	ret

Disassembly of section .data:

00100000 <hello>:
  100000:	6548                	flw	fa0,12(a0)
  100002:	6c6c                	flw	fa1,92(s0)
  100004:	6f57206f          	j	172ef8 <_end+0x726f8>
  100008:	6c72                	flw	fs8,28(sp)
  10000a:	2164                	fld	fs1,192(a0)
  10000c:	000a                	c.slli	zero,0x2
  10000e:	0000                	unimp

00100010 <nunhehheh>:
  100010:	754e                	flw	fa0,240(sp)
  100012:	686e                	flw	fa6,216(sp)
  100014:	6865                	lui	a6,0x19
  100016:	6568                	flw	fa0,76(a0)
  100018:	6168                	flw	fa0,68(a0)
  10001a:	6161                	addi	sp,sp,80
  10001c:	6161                	addi	sp,sp,80
  10001e:	6161                	addi	sp,sp,80
  100020:	6161                	addi	sp,sp,80
  100022:	6861                	lui	a6,0x18
  100024:	6868                	flw	fa0,84(s0)
  100026:	0a21                	addi	s4,s4,8
  100028:	0000                	unimp

Disassembly of section .sdata:

0010002c <nyan>:
  10002c:	794e                	flw	fs2,240(sp)
  10002e:	6e61                	lui	t3,0x18
  100030:	0a21                	addi	s4,s4,8
  100032:	0000                	unimp

00100034 <vga_start>:
  100034:	0000                	unimp
  100036:	0020                	addi	s0,sp,8

Disassembly of section .bss:

00100038 <vga_line>:
  100038:	0000                	unimp
  10003a:	0000                	unimp

0010003c <vga_ch>:
  10003c:	0000                	unimp
  10003e:	0000                	unimp

Disassembly of section .comment:

00000000 <.comment>:
   0:	3a434347          	fmsub.d	ft6,ft6,ft4,ft7,rmm
   4:	2820                	fld	fs0,80(s0)
   6:	2029                	jal	10 <entry+0x10>
   8:	2e38                	fld	fa4,88(a2)
   a:	00302e33          	sgtz	t3,gp

Disassembly of section .riscv.attributes:

00000000 <.riscv.attributes>:
   0:	2041                	jal	80 <main+0x50>
   2:	0000                	unimp
   4:	7200                	flw	fs0,32(a2)
   6:	7369                	lui	t1,0xffffa
   8:	01007663          	bgeu	zero,a6,14 <entry+0x14>
   c:	0016                	c.slli	zero,0x5
   e:	0000                	unimp
  10:	1004                	addi	s1,sp,32
  12:	7205                	lui	tp,0xfffe1
  14:	3376                	fld	ft6,376(sp)
  16:	6932                	flw	fs2,12(sp)
  18:	7032                	flw	ft0,44(sp)
  1a:	5f30                	lw	a2,120(a4)
  1c:	326d                	jal	fffff9c6 <_end+0xffeff1c6>
  1e:	3070                	fld	fa2,224(s0)
  20:	00              	Address 0x0000000000000020 is out of bounds.

