
main.elf:     file format elf32-littleriscv


Disassembly of section .text:

00000000 <entry>:
       0:	ff010113          	addi	sp,sp,-16
       4:	00112623          	sw	ra,12(sp)
       8:	00812423          	sw	s0,8(sp)
       c:	01010413          	addi	s0,sp,16
      10:	00120137          	lui	sp,0x120
      14:	ffc10113          	addi	sp,sp,-4 # 11fffc <_end+0x1affc>
      18:	364000ef          	jal	ra,37c <main>
      1c:	00000013          	nop
      20:	00c12083          	lw	ra,12(sp)
      24:	00812403          	lw	s0,8(sp)
      28:	01010113          	addi	sp,sp,16
      2c:	00008067          	ret

00000030 <next>:
      30:	fe010113          	addi	sp,sp,-32
      34:	00112e23          	sw	ra,28(sp)
      38:	00812c23          	sw	s0,24(sp)
      3c:	02010413          	addi	s0,sp,32
      40:	fea42623          	sw	a0,-20(s0)
      44:	fec42783          	lw	a5,-20(s0)
      48:	00178793          	addi	a5,a5,1
      4c:	02300593          	li	a1,35
      50:	00078513          	mv	a0,a5
      54:	1c0020ef          	jal	ra,2214 <__modsi3>
      58:	00050793          	mv	a5,a0
      5c:	00078513          	mv	a0,a5
      60:	01c12083          	lw	ra,28(sp)
      64:	01812403          	lw	s0,24(sp)
      68:	02010113          	addi	sp,sp,32
      6c:	00008067          	ret

00000070 <prev>:
      70:	fe010113          	addi	sp,sp,-32
      74:	00112e23          	sw	ra,28(sp)
      78:	00812c23          	sw	s0,24(sp)
      7c:	02010413          	addi	s0,sp,32
      80:	fea42623          	sw	a0,-20(s0)
      84:	fec42783          	lw	a5,-20(s0)
      88:	02278793          	addi	a5,a5,34
      8c:	02300593          	li	a1,35
      90:	00078513          	mv	a0,a5
      94:	180020ef          	jal	ra,2214 <__modsi3>
      98:	00050793          	mv	a5,a0
      9c:	00078513          	mv	a0,a5
      a0:	01c12083          	lw	ra,28(sp)
      a4:	01812403          	lw	s0,24(sp)
      a8:	02010113          	addi	sp,sp,32
      ac:	00008067          	ret

000000b0 <exec>:
      b0:	fe010113          	addi	sp,sp,-32
      b4:	00112e23          	sw	ra,28(sp)
      b8:	00812c23          	sw	s0,24(sp)
      bc:	02010413          	addi	s0,sp,32
      c0:	fea42623          	sw	a0,-20(s0)
      c4:	00400613          	li	a2,4
      c8:	00100597          	auipc	a1,0x100
      cc:	f9058593          	addi	a1,a1,-112 # 100058 <_etext+0xfd564>
      d0:	fec42503          	lw	a0,-20(s0)
      d4:	5b5010ef          	jal	ra,1e88 <kstrncmp>
      d8:	00050793          	mv	a5,a0
      dc:	00079e63          	bnez	a5,f8 <exec+0x48>
      e0:	fec42783          	lw	a5,-20(s0)
      e4:	00578793          	addi	a5,a5,5
      e8:	00078513          	mv	a0,a5
      ec:	658000ef          	jal	ra,744 <exec_echo>
      f0:	00000793          	li	a5,0
      f4:	1840006f          	j	278 <exec+0x1c8>
      f8:	00300613          	li	a2,3
      fc:	00100597          	auipc	a1,0x100
     100:	f6458593          	addi	a1,a1,-156 # 100060 <_etext+0xfd56c>
     104:	fec42503          	lw	a0,-20(s0)
     108:	581010ef          	jal	ra,1e88 <kstrncmp>
     10c:	00050793          	mv	a5,a0
     110:	00079e63          	bnez	a5,12c <exec+0x7c>
     114:	fec42783          	lw	a5,-20(s0)
     118:	00478793          	addi	a5,a5,4
     11c:	00078513          	mv	a0,a5
     120:	518000ef          	jal	ra,638 <exec_fib>
     124:	00000793          	li	a5,0
     128:	1500006f          	j	278 <exec+0x1c8>
     12c:	00400613          	li	a2,4
     130:	00100597          	auipc	a1,0x100
     134:	f3458593          	addi	a1,a1,-204 # 100064 <_etext+0xfd570>
     138:	fec42503          	lw	a0,-20(s0)
     13c:	54d010ef          	jal	ra,1e88 <kstrncmp>
     140:	00050793          	mv	a5,a0
     144:	00079e63          	bnez	a5,160 <exec+0xb0>
     148:	fec42783          	lw	a5,-20(s0)
     14c:	00578793          	addi	a5,a5,5
     150:	00078513          	mv	a0,a5
     154:	695000ef          	jal	ra,fe8 <exec_eval>
     158:	00000793          	li	a5,0
     15c:	11c0006f          	j	278 <exec+0x1c8>
     160:	00500613          	li	a2,5
     164:	00100597          	auipc	a1,0x100
     168:	f0858593          	addi	a1,a1,-248 # 10006c <_etext+0xfd578>
     16c:	fec42503          	lw	a0,-20(s0)
     170:	519010ef          	jal	ra,1e88 <kstrncmp>
     174:	00050793          	mv	a5,a0
     178:	00079e63          	bnez	a5,194 <exec+0xe4>
     17c:	fec42783          	lw	a5,-20(s0)
     180:	00678793          	addi	a5,a5,6
     184:	00078513          	mv	a0,a5
     188:	614000ef          	jal	ra,79c <exec_clear>
     18c:	00000793          	li	a5,0
     190:	0e80006f          	j	278 <exec+0x1c8>
     194:	00500613          	li	a2,5
     198:	00100597          	auipc	a1,0x100
     19c:	edc58593          	addi	a1,a1,-292 # 100074 <_etext+0xfd580>
     1a0:	fec42503          	lw	a0,-20(s0)
     1a4:	4e5010ef          	jal	ra,1e88 <kstrncmp>
     1a8:	00050793          	mv	a5,a0
     1ac:	00079e63          	bnez	a5,1c8 <exec+0x118>
     1b0:	fec42783          	lw	a5,-20(s0)
     1b4:	00678793          	addi	a5,a5,6
     1b8:	00078513          	mv	a0,a5
     1bc:	6c5000ef          	jal	ra,1080 <exec_gtest>
     1c0:	00000793          	li	a5,0
     1c4:	0b40006f          	j	278 <exec+0x1c8>
     1c8:	00500613          	li	a2,5
     1cc:	00100597          	auipc	a1,0x100
     1d0:	eb058593          	addi	a1,a1,-336 # 10007c <_etext+0xfd588>
     1d4:	fec42503          	lw	a0,-20(s0)
     1d8:	4b1010ef          	jal	ra,1e88 <kstrncmp>
     1dc:	00050793          	mv	a5,a0
     1e0:	00079e63          	bnez	a5,1fc <exec+0x14c>
     1e4:	fec42783          	lw	a5,-20(s0)
     1e8:	00678793          	addi	a5,a5,6
     1ec:	00078513          	mv	a0,a5
     1f0:	64c010ef          	jal	ra,183c <exec_vtest>
     1f4:	00000793          	li	a5,0
     1f8:	0800006f          	j	278 <exec+0x1c8>
     1fc:	00700613          	li	a2,7
     200:	00100597          	auipc	a1,0x100
     204:	e8458593          	addi	a1,a1,-380 # 100084 <_etext+0xfd590>
     208:	fec42503          	lw	a0,-20(s0)
     20c:	47d010ef          	jal	ra,1e88 <kstrncmp>
     210:	00050793          	mv	a5,a0
     214:	00079e63          	bnez	a5,230 <exec+0x180>
     218:	fec42783          	lw	a5,-20(s0)
     21c:	00878793          	addi	a5,a5,8
     220:	00078513          	mv	a0,a5
     224:	6d8010ef          	jal	ra,18fc <exec_devtest>
     228:	00000793          	li	a5,0
     22c:	04c0006f          	j	278 <exec+0x1c8>
     230:	00400613          	li	a2,4
     234:	00100597          	auipc	a1,0x100
     238:	e5858593          	addi	a1,a1,-424 # 10008c <_etext+0xfd598>
     23c:	fec42503          	lw	a0,-20(s0)
     240:	449010ef          	jal	ra,1e88 <kstrncmp>
     244:	00050793          	mv	a5,a0
     248:	00079e63          	bnez	a5,264 <exec+0x1b4>
     24c:	fec42783          	lw	a5,-20(s0)
     250:	00578793          	addi	a5,a5,5
     254:	00078513          	mv	a0,a5
     258:	04d010ef          	jal	ra,1aa4 <exec_time>
     25c:	00000793          	li	a5,0
     260:	0180006f          	j	278 <exec+0x1c8>
     264:	fec42583          	lw	a1,-20(s0)
     268:	00100517          	auipc	a0,0x100
     26c:	e2c50513          	addi	a0,a0,-468 # 100094 <_etext+0xfd5a0>
     270:	181010ef          	jal	ra,1bf0 <kprintf>
     274:	00100793          	li	a5,1
     278:	00078513          	mv	a0,a5
     27c:	01c12083          	lw	ra,28(sp)
     280:	01812403          	lw	s0,24(sp)
     284:	02010113          	addi	sp,sp,32
     288:	00008067          	ret

0000028c <clear_line>:
     28c:	fe010113          	addi	sp,sp,-32
     290:	00112e23          	sw	ra,28(sp)
     294:	00812c23          	sw	s0,24(sp)
     298:	02010413          	addi	s0,sp,32
     29c:	fea42623          	sw	a0,-20(s0)
     2a0:	0180006f          	j	2b8 <clear_line+0x2c>
     2a4:	00800513          	li	a0,8
     2a8:	388020ef          	jal	ra,2630 <putch>
     2ac:	fec42783          	lw	a5,-20(s0)
     2b0:	fff78793          	addi	a5,a5,-1
     2b4:	fef42623          	sw	a5,-20(s0)
     2b8:	fec42783          	lw	a5,-20(s0)
     2bc:	fe0794e3          	bnez	a5,2a4 <clear_line+0x18>
     2c0:	00000793          	li	a5,0
     2c4:	00078513          	mv	a0,a5
     2c8:	01c12083          	lw	ra,28(sp)
     2cc:	01812403          	lw	s0,24(sp)
     2d0:	02010113          	addi	sp,sp,32
     2d4:	00008067          	ret

000002d8 <print_line>:
     2d8:	fd010113          	addi	sp,sp,-48
     2dc:	02112623          	sw	ra,44(sp)
     2e0:	02812423          	sw	s0,40(sp)
     2e4:	03010413          	addi	s0,sp,48
     2e8:	fca42e23          	sw	a0,-36(s0)
     2ec:	fe042623          	sw	zero,-20(s0)
     2f0:	0440006f          	j	334 <print_line+0x5c>
     2f4:	00103697          	auipc	a3,0x103
     2f8:	20868693          	addi	a3,a3,520 # 1034fc <cmd>
     2fc:	fdc42703          	lw	a4,-36(s0)
     300:	00070793          	mv	a5,a4
     304:	00479793          	slli	a5,a5,0x4
     308:	40e787b3          	sub	a5,a5,a4
     30c:	00279793          	slli	a5,a5,0x2
     310:	00f68733          	add	a4,a3,a5
     314:	fec42783          	lw	a5,-20(s0)
     318:	00f707b3          	add	a5,a4,a5
     31c:	0007c783          	lbu	a5,0(a5)
     320:	00078513          	mv	a0,a5
     324:	30c020ef          	jal	ra,2630 <putch>
     328:	fec42783          	lw	a5,-20(s0)
     32c:	00178793          	addi	a5,a5,1
     330:	fef42623          	sw	a5,-20(s0)
     334:	00103697          	auipc	a3,0x103
     338:	1c868693          	addi	a3,a3,456 # 1034fc <cmd>
     33c:	fdc42703          	lw	a4,-36(s0)
     340:	00070793          	mv	a5,a4
     344:	00479793          	slli	a5,a5,0x4
     348:	40e787b3          	sub	a5,a5,a4
     34c:	00279793          	slli	a5,a5,0x2
     350:	00f68733          	add	a4,a3,a5
     354:	fec42783          	lw	a5,-20(s0)
     358:	00f707b3          	add	a5,a4,a5
     35c:	0007c783          	lbu	a5,0(a5)
     360:	f8079ae3          	bnez	a5,2f4 <print_line+0x1c>
     364:	fec42783          	lw	a5,-20(s0)
     368:	00078513          	mv	a0,a5
     36c:	02c12083          	lw	ra,44(sp)
     370:	02812403          	lw	s0,40(sp)
     374:	03010113          	addi	sp,sp,48
     378:	00008067          	ret

0000037c <main>:
     37c:	fd010113          	addi	sp,sp,-48
     380:	02112623          	sw	ra,44(sp)
     384:	02812423          	sw	s0,40(sp)
     388:	03010413          	addi	s0,sp,48
     38c:	fe042623          	sw	zero,-20(s0)
     390:	fe042423          	sw	zero,-24(s0)
     394:	fe042223          	sw	zero,-28(s0)
     398:	fe042023          	sw	zero,-32(s0)
     39c:	6d9010ef          	jal	ra,2274 <gettimeofday>
     3a0:	fca42e23          	sw	a0,-36(s0)
     3a4:	0c0020ef          	jal	ra,2464 <vga_init>
     3a8:	00100517          	auipc	a0,0x100
     3ac:	d0450513          	addi	a0,a0,-764 # 1000ac <_etext+0xfd5b8>
     3b0:	560020ef          	jal	ra,2910 <putstr>
     3b4:	6c1010ef          	jal	ra,2274 <gettimeofday>
     3b8:	00050713          	mv	a4,a0
     3bc:	fdc42783          	lw	a5,-36(s0)
     3c0:	40f70733          	sub	a4,a4,a5
     3c4:	000f47b7          	lui	a5,0xf4
     3c8:	24078793          	addi	a5,a5,576 # f4240 <_etext+0xf174c>
     3cc:	00e7f863          	bgeu	a5,a4,3dc <main+0x60>
     3d0:	6a5010ef          	jal	ra,2274 <gettimeofday>
     3d4:	fca42e23          	sw	a0,-36(s0)
     3d8:	1c0020ef          	jal	ra,2598 <blink>
     3dc:	590020ef          	jal	ra,296c <readkey>
     3e0:	00050793          	mv	a5,a0
     3e4:	fcf40ba3          	sb	a5,-41(s0)
     3e8:	fd744783          	lbu	a5,-41(s0)
     3ec:	00d00713          	li	a4,13
     3f0:	0ee78263          	beq	a5,a4,4d4 <main+0x158>
     3f4:	00d00713          	li	a4,13
     3f8:	00f74a63          	blt	a4,a5,40c <main+0x90>
     3fc:	20078a63          	beqz	a5,610 <main+0x294>
     400:	00800713          	li	a4,8
     404:	08e78063          	beq	a5,a4,484 <main+0x108>
     408:	1b40006f          	j	5bc <main+0x240>
     40c:	0b200713          	li	a4,178
     410:	04e78063          	beq	a5,a4,450 <main+0xd4>
     414:	0b800713          	li	a4,184
     418:	1ae79263          	bne	a5,a4,5bc <main+0x240>
     41c:	fe042703          	lw	a4,-32(s0)
     420:	fe842783          	lw	a5,-24(s0)
     424:	1ef70a63          	beq	a4,a5,618 <main+0x29c>
     428:	fec42503          	lw	a0,-20(s0)
     42c:	e61ff0ef          	jal	ra,28c <clear_line>
     430:	fea42623          	sw	a0,-20(s0)
     434:	fe042503          	lw	a0,-32(s0)
     438:	c39ff0ef          	jal	ra,70 <prev>
     43c:	fea42023          	sw	a0,-32(s0)
     440:	fe042503          	lw	a0,-32(s0)
     444:	e95ff0ef          	jal	ra,2d8 <print_line>
     448:	fea42623          	sw	a0,-20(s0)
     44c:	1cc0006f          	j	618 <main+0x29c>
     450:	fe042703          	lw	a4,-32(s0)
     454:	fe442783          	lw	a5,-28(s0)
     458:	1cf70463          	beq	a4,a5,620 <main+0x2a4>
     45c:	fec42503          	lw	a0,-20(s0)
     460:	e2dff0ef          	jal	ra,28c <clear_line>
     464:	fea42623          	sw	a0,-20(s0)
     468:	fe042503          	lw	a0,-32(s0)
     46c:	bc5ff0ef          	jal	ra,30 <next>
     470:	fea42023          	sw	a0,-32(s0)
     474:	fe042503          	lw	a0,-32(s0)
     478:	e61ff0ef          	jal	ra,2d8 <print_line>
     47c:	fea42623          	sw	a0,-20(s0)
     480:	1a00006f          	j	620 <main+0x2a4>
     484:	fec42783          	lw	a5,-20(s0)
     488:	1a078063          	beqz	a5,628 <main+0x2ac>
     48c:	fd744783          	lbu	a5,-41(s0)
     490:	00078513          	mv	a0,a5
     494:	19c020ef          	jal	ra,2630 <putch>
     498:	fec42783          	lw	a5,-20(s0)
     49c:	fff78793          	addi	a5,a5,-1
     4a0:	fef42623          	sw	a5,-20(s0)
     4a4:	00103697          	auipc	a3,0x103
     4a8:	05868693          	addi	a3,a3,88 # 1034fc <cmd>
     4ac:	fe042703          	lw	a4,-32(s0)
     4b0:	00070793          	mv	a5,a4
     4b4:	00479793          	slli	a5,a5,0x4
     4b8:	40e787b3          	sub	a5,a5,a4
     4bc:	00279793          	slli	a5,a5,0x2
     4c0:	00f68733          	add	a4,a3,a5
     4c4:	fec42783          	lw	a5,-20(s0)
     4c8:	00f707b3          	add	a5,a4,a5
     4cc:	00078023          	sb	zero,0(a5)
     4d0:	1580006f          	j	628 <main+0x2ac>
     4d4:	00d00513          	li	a0,13
     4d8:	158020ef          	jal	ra,2630 <putch>
     4dc:	00103697          	auipc	a3,0x103
     4e0:	02068693          	addi	a3,a3,32 # 1034fc <cmd>
     4e4:	fe042703          	lw	a4,-32(s0)
     4e8:	00070793          	mv	a5,a4
     4ec:	00479793          	slli	a5,a5,0x4
     4f0:	40e787b3          	sub	a5,a5,a4
     4f4:	00279793          	slli	a5,a5,0x2
     4f8:	00f68733          	add	a4,a3,a5
     4fc:	fec42783          	lw	a5,-20(s0)
     500:	00f707b3          	add	a5,a4,a5
     504:	00078023          	sb	zero,0(a5)
     508:	fe042703          	lw	a4,-32(s0)
     50c:	00070793          	mv	a5,a4
     510:	00479793          	slli	a5,a5,0x4
     514:	40e787b3          	sub	a5,a5,a4
     518:	00279793          	slli	a5,a5,0x2
     51c:	00103717          	auipc	a4,0x103
     520:	fe070713          	addi	a4,a4,-32 # 1034fc <cmd>
     524:	00e787b3          	add	a5,a5,a4
     528:	00078513          	mv	a0,a5
     52c:	b85ff0ef          	jal	ra,b0 <exec>
     530:	fe042503          	lw	a0,-32(s0)
     534:	afdff0ef          	jal	ra,30 <next>
     538:	fea42023          	sw	a0,-32(s0)
     53c:	fe042783          	lw	a5,-32(s0)
     540:	fef42223          	sw	a5,-28(s0)
     544:	fe442703          	lw	a4,-28(s0)
     548:	fe842783          	lw	a5,-24(s0)
     54c:	00f71863          	bne	a4,a5,55c <main+0x1e0>
     550:	fe842503          	lw	a0,-24(s0)
     554:	addff0ef          	jal	ra,30 <next>
     558:	fea42423          	sw	a0,-24(s0)
     55c:	fe042623          	sw	zero,-20(s0)
     560:	fc042c23          	sw	zero,-40(s0)
     564:	03c0006f          	j	5a0 <main+0x224>
     568:	00103697          	auipc	a3,0x103
     56c:	f9468693          	addi	a3,a3,-108 # 1034fc <cmd>
     570:	fe042703          	lw	a4,-32(s0)
     574:	00070793          	mv	a5,a4
     578:	00479793          	slli	a5,a5,0x4
     57c:	40e787b3          	sub	a5,a5,a4
     580:	00279793          	slli	a5,a5,0x2
     584:	00f68733          	add	a4,a3,a5
     588:	fd842783          	lw	a5,-40(s0)
     58c:	00f707b3          	add	a5,a4,a5
     590:	00078023          	sb	zero,0(a5)
     594:	fd842783          	lw	a5,-40(s0)
     598:	00178793          	addi	a5,a5,1
     59c:	fcf42c23          	sw	a5,-40(s0)
     5a0:	fd842703          	lw	a4,-40(s0)
     5a4:	03600793          	li	a5,54
     5a8:	fce7d0e3          	bge	a5,a4,568 <main+0x1ec>
     5ac:	00100517          	auipc	a0,0x100
     5b0:	b0050513          	addi	a0,a0,-1280 # 1000ac <_etext+0xfd5b8>
     5b4:	35c020ef          	jal	ra,2910 <putstr>
     5b8:	07c0006f          	j	634 <main+0x2b8>
     5bc:	fec42703          	lw	a4,-20(s0)
     5c0:	03600793          	li	a5,54
     5c4:	06e7c663          	blt	a5,a4,630 <main+0x2b4>
     5c8:	fd744783          	lbu	a5,-41(s0)
     5cc:	00078513          	mv	a0,a5
     5d0:	060020ef          	jal	ra,2630 <putch>
     5d4:	fec42703          	lw	a4,-20(s0)
     5d8:	00170793          	addi	a5,a4,1
     5dc:	fef42623          	sw	a5,-20(s0)
     5e0:	00103617          	auipc	a2,0x103
     5e4:	f1c60613          	addi	a2,a2,-228 # 1034fc <cmd>
     5e8:	fe042683          	lw	a3,-32(s0)
     5ec:	00068793          	mv	a5,a3
     5f0:	00479793          	slli	a5,a5,0x4
     5f4:	40d787b3          	sub	a5,a5,a3
     5f8:	00279793          	slli	a5,a5,0x2
     5fc:	00f607b3          	add	a5,a2,a5
     600:	00e787b3          	add	a5,a5,a4
     604:	fd744703          	lbu	a4,-41(s0)
     608:	00e78023          	sb	a4,0(a5)
     60c:	0240006f          	j	630 <main+0x2b4>
     610:	00000013          	nop
     614:	da1ff06f          	j	3b4 <main+0x38>
     618:	00000013          	nop
     61c:	d99ff06f          	j	3b4 <main+0x38>
     620:	00000013          	nop
     624:	d91ff06f          	j	3b4 <main+0x38>
     628:	00000013          	nop
     62c:	d89ff06f          	j	3b4 <main+0x38>
     630:	00000013          	nop
     634:	d81ff06f          	j	3b4 <main+0x38>

00000638 <exec_fib>:
     638:	fd010113          	addi	sp,sp,-48
     63c:	02112623          	sw	ra,44(sp)
     640:	02812423          	sw	s0,40(sp)
     644:	03010413          	addi	s0,sp,48
     648:	fca42e23          	sw	a0,-36(s0)
     64c:	0100006f          	j	65c <exec_fib+0x24>
     650:	fdc42783          	lw	a5,-36(s0)
     654:	00178793          	addi	a5,a5,1
     658:	fcf42e23          	sw	a5,-36(s0)
     65c:	fdc42783          	lw	a5,-36(s0)
     660:	0007c703          	lbu	a4,0(a5)
     664:	02000793          	li	a5,32
     668:	fef704e3          	beq	a4,a5,650 <exec_fib+0x18>
     66c:	fe042623          	sw	zero,-20(s0)
     670:	03c0006f          	j	6ac <exec_fib+0x74>
     674:	fec42703          	lw	a4,-20(s0)
     678:	00070793          	mv	a5,a4
     67c:	00279793          	slli	a5,a5,0x2
     680:	00e787b3          	add	a5,a5,a4
     684:	00179793          	slli	a5,a5,0x1
     688:	00078713          	mv	a4,a5
     68c:	fdc42783          	lw	a5,-36(s0)
     690:	0007c783          	lbu	a5,0(a5)
     694:	00f707b3          	add	a5,a4,a5
     698:	fd078793          	addi	a5,a5,-48
     69c:	fef42623          	sw	a5,-20(s0)
     6a0:	fdc42783          	lw	a5,-36(s0)
     6a4:	00178793          	addi	a5,a5,1
     6a8:	fcf42e23          	sw	a5,-36(s0)
     6ac:	fdc42783          	lw	a5,-36(s0)
     6b0:	0007c703          	lbu	a4,0(a5)
     6b4:	02f00793          	li	a5,47
     6b8:	00e7fa63          	bgeu	a5,a4,6cc <exec_fib+0x94>
     6bc:	fdc42783          	lw	a5,-36(s0)
     6c0:	0007c703          	lbu	a4,0(a5)
     6c4:	03900793          	li	a5,57
     6c8:	fae7f6e3          	bgeu	a5,a4,674 <exec_fib+0x3c>
     6cc:	00100793          	li	a5,1
     6d0:	fef42423          	sw	a5,-24(s0)
     6d4:	00100793          	li	a5,1
     6d8:	fef42223          	sw	a5,-28(s0)
     6dc:	00200793          	li	a5,2
     6e0:	fef42023          	sw	a5,-32(s0)
     6e4:	0300006f          	j	714 <exec_fib+0xdc>
     6e8:	fe442703          	lw	a4,-28(s0)
     6ec:	fe842783          	lw	a5,-24(s0)
     6f0:	00f707b3          	add	a5,a4,a5
     6f4:	fef42223          	sw	a5,-28(s0)
     6f8:	fe442703          	lw	a4,-28(s0)
     6fc:	fe842783          	lw	a5,-24(s0)
     700:	40f707b3          	sub	a5,a4,a5
     704:	fef42423          	sw	a5,-24(s0)
     708:	fe042783          	lw	a5,-32(s0)
     70c:	00178793          	addi	a5,a5,1
     710:	fef42023          	sw	a5,-32(s0)
     714:	fe042703          	lw	a4,-32(s0)
     718:	fec42783          	lw	a5,-20(s0)
     71c:	fce7d6e3          	bge	a5,a4,6e8 <exec_fib+0xb0>
     720:	fe442583          	lw	a1,-28(s0)
     724:	00100517          	auipc	a0,0x100
     728:	8dc50513          	addi	a0,a0,-1828 # 100000 <_etext+0xfd50c>
     72c:	4c4010ef          	jal	ra,1bf0 <kprintf>
     730:	00000013          	nop
     734:	02c12083          	lw	ra,44(sp)
     738:	02812403          	lw	s0,40(sp)
     73c:	03010113          	addi	sp,sp,48
     740:	00008067          	ret

00000744 <exec_echo>:
     744:	fe010113          	addi	sp,sp,-32
     748:	00112e23          	sw	ra,28(sp)
     74c:	00812c23          	sw	s0,24(sp)
     750:	02010413          	addi	s0,sp,32
     754:	fea42623          	sw	a0,-20(s0)
     758:	0100006f          	j	768 <exec_echo+0x24>
     75c:	fec42783          	lw	a5,-20(s0)
     760:	00178793          	addi	a5,a5,1
     764:	fef42623          	sw	a5,-20(s0)
     768:	fec42783          	lw	a5,-20(s0)
     76c:	0007c703          	lbu	a4,0(a5)
     770:	02000793          	li	a5,32
     774:	fef704e3          	beq	a4,a5,75c <exec_echo+0x18>
     778:	fec42503          	lw	a0,-20(s0)
     77c:	194020ef          	jal	ra,2910 <putstr>
     780:	00a00513          	li	a0,10
     784:	6ad010ef          	jal	ra,2630 <putch>
     788:	00000013          	nop
     78c:	01c12083          	lw	ra,28(sp)
     790:	01812403          	lw	s0,24(sp)
     794:	02010113          	addi	sp,sp,32
     798:	00008067          	ret

0000079c <exec_clear>:
     79c:	fe010113          	addi	sp,sp,-32
     7a0:	00112e23          	sw	ra,28(sp)
     7a4:	00812c23          	sw	s0,24(sp)
     7a8:	02010413          	addi	s0,sp,32
     7ac:	fea42623          	sw	a0,-20(s0)
     7b0:	4b5010ef          	jal	ra,2464 <vga_init>
     7b4:	00000013          	nop
     7b8:	01c12083          	lw	ra,28(sp)
     7bc:	01812403          	lw	s0,24(sp)
     7c0:	02010113          	addi	sp,sp,32
     7c4:	00008067          	ret

000007c8 <next_bracket>:
     7c8:	fd010113          	addi	sp,sp,-48
     7cc:	02812623          	sw	s0,44(sp)
     7d0:	03010413          	addi	s0,sp,48
     7d4:	fca42e23          	sw	a0,-36(s0)
     7d8:	00100793          	li	a5,1
     7dc:	fef42623          	sw	a5,-20(s0)
     7e0:	fdc42783          	lw	a5,-36(s0)
     7e4:	00178793          	addi	a5,a5,1
     7e8:	fcf42e23          	sw	a5,-36(s0)
     7ec:	0980006f          	j	884 <next_bracket+0xbc>
     7f0:	00103697          	auipc	a3,0x103
     7f4:	55468693          	addi	a3,a3,1364 # 103d44 <tokens>
     7f8:	fdc42703          	lw	a4,-36(s0)
     7fc:	00070793          	mv	a5,a4
     800:	00179793          	slli	a5,a5,0x1
     804:	00e787b3          	add	a5,a5,a4
     808:	00279793          	slli	a5,a5,0x2
     80c:	00f687b3          	add	a5,a3,a5
     810:	0007a703          	lw	a4,0(a5)
     814:	00100793          	li	a5,1
     818:	04f71e63          	bne	a4,a5,874 <next_bracket+0xac>
     81c:	00103697          	auipc	a3,0x103
     820:	52868693          	addi	a3,a3,1320 # 103d44 <tokens>
     824:	fdc42703          	lw	a4,-36(s0)
     828:	00070793          	mv	a5,a4
     82c:	00179793          	slli	a5,a5,0x1
     830:	00e787b3          	add	a5,a5,a4
     834:	00279793          	slli	a5,a5,0x2
     838:	00f687b3          	add	a5,a3,a5
     83c:	0047a783          	lw	a5,4(a5)
     840:	02800713          	li	a4,40
     844:	00e78863          	beq	a5,a4,854 <next_bracket+0x8c>
     848:	02900713          	li	a4,41
     84c:	00e78c63          	beq	a5,a4,864 <next_bracket+0x9c>
     850:	0280006f          	j	878 <next_bracket+0xb0>
     854:	fec42783          	lw	a5,-20(s0)
     858:	00178793          	addi	a5,a5,1
     85c:	fef42623          	sw	a5,-20(s0)
     860:	0180006f          	j	878 <next_bracket+0xb0>
     864:	fec42783          	lw	a5,-20(s0)
     868:	fff78793          	addi	a5,a5,-1
     86c:	fef42623          	sw	a5,-20(s0)
     870:	0080006f          	j	878 <next_bracket+0xb0>
     874:	00000013          	nop
     878:	fdc42783          	lw	a5,-36(s0)
     87c:	00178793          	addi	a5,a5,1
     880:	fcf42e23          	sw	a5,-36(s0)
     884:	fec42783          	lw	a5,-20(s0)
     888:	f60794e3          	bnez	a5,7f0 <next_bracket+0x28>
     88c:	fdc42783          	lw	a5,-36(s0)
     890:	00078513          	mv	a0,a5
     894:	02c12403          	lw	s0,44(sp)
     898:	03010113          	addi	sp,sp,48
     89c:	00008067          	ret

000008a0 <LB>:
     8a0:	ff010113          	addi	sp,sp,-16
     8a4:	00812623          	sw	s0,12(sp)
     8a8:	00912423          	sw	s1,8(sp)
     8ac:	01010413          	addi	s0,sp,16
     8b0:	00050493          	mv	s1,a0
     8b4:	0004a703          	lw	a4,0(s1)
     8b8:	00100793          	li	a5,1
     8bc:	00f71c63          	bne	a4,a5,8d4 <LB+0x34>
     8c0:	0044a703          	lw	a4,4(s1)
     8c4:	02800793          	li	a5,40
     8c8:	00f71663          	bne	a4,a5,8d4 <LB+0x34>
     8cc:	00100793          	li	a5,1
     8d0:	0080006f          	j	8d8 <LB+0x38>
     8d4:	00000793          	li	a5,0
     8d8:	00078513          	mv	a0,a5
     8dc:	00c12403          	lw	s0,12(sp)
     8e0:	00812483          	lw	s1,8(sp)
     8e4:	01010113          	addi	sp,sp,16
     8e8:	00008067          	ret

000008ec <RB>:
     8ec:	ff010113          	addi	sp,sp,-16
     8f0:	00812623          	sw	s0,12(sp)
     8f4:	00912423          	sw	s1,8(sp)
     8f8:	01010413          	addi	s0,sp,16
     8fc:	00050493          	mv	s1,a0
     900:	0004a703          	lw	a4,0(s1)
     904:	00100793          	li	a5,1
     908:	00f71c63          	bne	a4,a5,920 <RB+0x34>
     90c:	0044a703          	lw	a4,4(s1)
     910:	02900793          	li	a5,41
     914:	00f71663          	bne	a4,a5,920 <RB+0x34>
     918:	00100793          	li	a5,1
     91c:	0080006f          	j	924 <RB+0x38>
     920:	00000793          	li	a5,0
     924:	00078513          	mv	a0,a5
     928:	00c12403          	lw	s0,12(sp)
     92c:	00812483          	lw	s1,8(sp)
     930:	01010113          	addi	sp,sp,16
     934:	00008067          	ret

00000938 <ksm>:
     938:	fd010113          	addi	sp,sp,-48
     93c:	02112623          	sw	ra,44(sp)
     940:	02812423          	sw	s0,40(sp)
     944:	03010413          	addi	s0,sp,48
     948:	fca42e23          	sw	a0,-36(s0)
     94c:	fcb42c23          	sw	a1,-40(s0)
     950:	00100793          	li	a5,1
     954:	fef42623          	sw	a5,-20(s0)
     958:	0180006f          	j	970 <ksm+0x38>
     95c:	fdc42583          	lw	a1,-36(s0)
     960:	fec42503          	lw	a0,-20(s0)
     964:	608010ef          	jal	ra,1f6c <__mulsi3>
     968:	00050793          	mv	a5,a0
     96c:	fef42623          	sw	a5,-20(s0)
     970:	fd842783          	lw	a5,-40(s0)
     974:	fff78713          	addi	a4,a5,-1
     978:	fce42c23          	sw	a4,-40(s0)
     97c:	fe0790e3          	bnez	a5,95c <ksm+0x24>
     980:	fec42783          	lw	a5,-20(s0)
     984:	00078513          	mv	a0,a5
     988:	02c12083          	lw	ra,44(sp)
     98c:	02812403          	lw	s0,40(sp)
     990:	03010113          	addi	sp,sp,48
     994:	00008067          	ret

00000998 <eval>:
     998:	fc010113          	addi	sp,sp,-64
     99c:	02112e23          	sw	ra,60(sp)
     9a0:	02812c23          	sw	s0,56(sp)
     9a4:	04010413          	addi	s0,sp,64
     9a8:	fca42e23          	sw	a0,-36(s0)
     9ac:	fcb42c23          	sw	a1,-40(s0)
     9b0:	fd842703          	lw	a4,-40(s0)
     9b4:	fdc42783          	lw	a5,-36(s0)
     9b8:	00e7c663          	blt	a5,a4,9c4 <eval+0x2c>
     9bc:	00000793          	li	a5,0
     9c0:	3980006f          	j	d58 <eval+0x3c0>
     9c4:	fdc42783          	lw	a5,-36(s0)
     9c8:	00178793          	addi	a5,a5,1
     9cc:	fd842703          	lw	a4,-40(s0)
     9d0:	02f71663          	bne	a4,a5,9fc <eval+0x64>
     9d4:	00103697          	auipc	a3,0x103
     9d8:	37068693          	addi	a3,a3,880 # 103d44 <tokens>
     9dc:	fdc42703          	lw	a4,-36(s0)
     9e0:	00070793          	mv	a5,a4
     9e4:	00179793          	slli	a5,a5,0x1
     9e8:	00e787b3          	add	a5,a5,a4
     9ec:	00279793          	slli	a5,a5,0x2
     9f0:	00f687b3          	add	a5,a3,a5
     9f4:	0087a783          	lw	a5,8(a5)
     9f8:	3600006f          	j	d58 <eval+0x3c0>
     9fc:	00103697          	auipc	a3,0x103
     a00:	34868693          	addi	a3,a3,840 # 103d44 <tokens>
     a04:	fdc42703          	lw	a4,-36(s0)
     a08:	00070793          	mv	a5,a4
     a0c:	00179793          	slli	a5,a5,0x1
     a10:	00e787b3          	add	a5,a5,a4
     a14:	00279793          	slli	a5,a5,0x2
     a18:	00f687b3          	add	a5,a3,a5
     a1c:	0007a703          	lw	a4,0(a5)
     a20:	fce42023          	sw	a4,-64(s0)
     a24:	0047a703          	lw	a4,4(a5)
     a28:	fce42223          	sw	a4,-60(s0)
     a2c:	0087a783          	lw	a5,8(a5)
     a30:	fcf42423          	sw	a5,-56(s0)
     a34:	fc040793          	addi	a5,s0,-64
     a38:	00078513          	mv	a0,a5
     a3c:	e65ff0ef          	jal	ra,8a0 <LB>
     a40:	00050793          	mv	a5,a0
     a44:	06078c63          	beqz	a5,abc <eval+0x124>
     a48:	fd842783          	lw	a5,-40(s0)
     a4c:	fff78713          	addi	a4,a5,-1
     a50:	00103697          	auipc	a3,0x103
     a54:	2f468693          	addi	a3,a3,756 # 103d44 <tokens>
     a58:	00070793          	mv	a5,a4
     a5c:	00179793          	slli	a5,a5,0x1
     a60:	00e787b3          	add	a5,a5,a4
     a64:	00279793          	slli	a5,a5,0x2
     a68:	00f687b3          	add	a5,a3,a5
     a6c:	0007a703          	lw	a4,0(a5)
     a70:	fce42023          	sw	a4,-64(s0)
     a74:	0047a703          	lw	a4,4(a5)
     a78:	fce42223          	sw	a4,-60(s0)
     a7c:	0087a783          	lw	a5,8(a5)
     a80:	fcf42423          	sw	a5,-56(s0)
     a84:	fc040793          	addi	a5,s0,-64
     a88:	00078513          	mv	a0,a5
     a8c:	e61ff0ef          	jal	ra,8ec <RB>
     a90:	00050793          	mv	a5,a0
     a94:	02078463          	beqz	a5,abc <eval+0x124>
     a98:	fdc42783          	lw	a5,-36(s0)
     a9c:	00178713          	addi	a4,a5,1
     aa0:	fd842783          	lw	a5,-40(s0)
     aa4:	fff78793          	addi	a5,a5,-1
     aa8:	00078593          	mv	a1,a5
     aac:	00070513          	mv	a0,a4
     ab0:	ee9ff0ef          	jal	ra,998 <eval>
     ab4:	00050793          	mv	a5,a0
     ab8:	2a00006f          	j	d58 <eval+0x3c0>
     abc:	fdc42783          	lw	a5,-36(s0)
     ac0:	fef42623          	sw	a5,-20(s0)
     ac4:	fff00793          	li	a5,-1
     ac8:	fef42423          	sw	a5,-24(s0)
     acc:	1980006f          	j	c64 <eval+0x2cc>
     ad0:	00103697          	auipc	a3,0x103
     ad4:	27468693          	addi	a3,a3,628 # 103d44 <tokens>
     ad8:	fec42703          	lw	a4,-20(s0)
     adc:	00070793          	mv	a5,a4
     ae0:	00179793          	slli	a5,a5,0x1
     ae4:	00e787b3          	add	a5,a5,a4
     ae8:	00279793          	slli	a5,a5,0x2
     aec:	00f687b3          	add	a5,a3,a5
     af0:	0007a703          	lw	a4,0(a5)
     af4:	fce42023          	sw	a4,-64(s0)
     af8:	0047a703          	lw	a4,4(a5)
     afc:	fce42223          	sw	a4,-60(s0)
     b00:	0087a783          	lw	a5,8(a5)
     b04:	fcf42423          	sw	a5,-56(s0)
     b08:	fc040793          	addi	a5,s0,-64
     b0c:	00078513          	mv	a0,a5
     b10:	d91ff0ef          	jal	ra,8a0 <LB>
     b14:	00050793          	mv	a5,a0
     b18:	00078e63          	beqz	a5,b34 <eval+0x19c>
     b1c:	fec42503          	lw	a0,-20(s0)
     b20:	ca9ff0ef          	jal	ra,7c8 <next_bracket>
     b24:	fea42623          	sw	a0,-20(s0)
     b28:	fec42703          	lw	a4,-20(s0)
     b2c:	fd842783          	lw	a5,-40(s0)
     b30:	14f70263          	beq	a4,a5,c74 <eval+0x2dc>
     b34:	00103697          	auipc	a3,0x103
     b38:	21068693          	addi	a3,a3,528 # 103d44 <tokens>
     b3c:	fec42703          	lw	a4,-20(s0)
     b40:	00070793          	mv	a5,a4
     b44:	00179793          	slli	a5,a5,0x1
     b48:	00e787b3          	add	a5,a5,a4
     b4c:	00279793          	slli	a5,a5,0x2
     b50:	00f687b3          	add	a5,a3,a5
     b54:	0007a783          	lw	a5,0(a5)
     b58:	0e078e63          	beqz	a5,c54 <eval+0x2bc>
     b5c:	fe842703          	lw	a4,-24(s0)
     b60:	fff00793          	li	a5,-1
     b64:	06f70c63          	beq	a4,a5,bdc <eval+0x244>
     b68:	00103697          	auipc	a3,0x103
     b6c:	1dc68693          	addi	a3,a3,476 # 103d44 <tokens>
     b70:	fec42703          	lw	a4,-20(s0)
     b74:	00070793          	mv	a5,a4
     b78:	00179793          	slli	a5,a5,0x1
     b7c:	00e787b3          	add	a5,a5,a4
     b80:	00279793          	slli	a5,a5,0x2
     b84:	00f687b3          	add	a5,a3,a5
     b88:	0047a783          	lw	a5,4(a5)
     b8c:	000ff717          	auipc	a4,0xff
     b90:	52870713          	addi	a4,a4,1320 # 1000b4 <prior>
     b94:	00279793          	slli	a5,a5,0x2
     b98:	00f707b3          	add	a5,a4,a5
     b9c:	0007a683          	lw	a3,0(a5)
     ba0:	00103617          	auipc	a2,0x103
     ba4:	1a460613          	addi	a2,a2,420 # 103d44 <tokens>
     ba8:	fe842703          	lw	a4,-24(s0)
     bac:	00070793          	mv	a5,a4
     bb0:	00179793          	slli	a5,a5,0x1
     bb4:	00e787b3          	add	a5,a5,a4
     bb8:	00279793          	slli	a5,a5,0x2
     bbc:	00f607b3          	add	a5,a2,a5
     bc0:	0047a783          	lw	a5,4(a5)
     bc4:	000ff717          	auipc	a4,0xff
     bc8:	4f070713          	addi	a4,a4,1264 # 1000b4 <prior>
     bcc:	00279793          	slli	a5,a5,0x2
     bd0:	00f707b3          	add	a5,a4,a5
     bd4:	0007a783          	lw	a5,0(a5)
     bd8:	00f6d663          	bge	a3,a5,be4 <eval+0x24c>
     bdc:	fec42783          	lw	a5,-20(s0)
     be0:	fef42423          	sw	a5,-24(s0)
     be4:	fe842703          	lw	a4,-24(s0)
     be8:	fff00793          	li	a5,-1
     bec:	06f70663          	beq	a4,a5,c58 <eval+0x2c0>
     bf0:	00103697          	auipc	a3,0x103
     bf4:	15468693          	addi	a3,a3,340 # 103d44 <tokens>
     bf8:	fe842703          	lw	a4,-24(s0)
     bfc:	00070793          	mv	a5,a4
     c00:	00179793          	slli	a5,a5,0x1
     c04:	00e787b3          	add	a5,a5,a4
     c08:	00279793          	slli	a5,a5,0x2
     c0c:	00f687b3          	add	a5,a3,a5
     c10:	0047a703          	lw	a4,4(a5)
     c14:	02d00793          	li	a5,45
     c18:	04f71063          	bne	a4,a5,c58 <eval+0x2c0>
     c1c:	00103697          	auipc	a3,0x103
     c20:	12868693          	addi	a3,a3,296 # 103d44 <tokens>
     c24:	fec42703          	lw	a4,-20(s0)
     c28:	00070793          	mv	a5,a4
     c2c:	00179793          	slli	a5,a5,0x1
     c30:	00e787b3          	add	a5,a5,a4
     c34:	00279793          	slli	a5,a5,0x2
     c38:	00f687b3          	add	a5,a3,a5
     c3c:	0047a703          	lw	a4,4(a5)
     c40:	02b00793          	li	a5,43
     c44:	00f71a63          	bne	a4,a5,c58 <eval+0x2c0>
     c48:	fec42783          	lw	a5,-20(s0)
     c4c:	fef42423          	sw	a5,-24(s0)
     c50:	0080006f          	j	c58 <eval+0x2c0>
     c54:	00000013          	nop
     c58:	fec42783          	lw	a5,-20(s0)
     c5c:	00178793          	addi	a5,a5,1
     c60:	fef42623          	sw	a5,-20(s0)
     c64:	fec42703          	lw	a4,-20(s0)
     c68:	fd842783          	lw	a5,-40(s0)
     c6c:	e6f712e3          	bne	a4,a5,ad0 <eval+0x138>
     c70:	0080006f          	j	c78 <eval+0x2e0>
     c74:	00000013          	nop
     c78:	fe842583          	lw	a1,-24(s0)
     c7c:	fdc42503          	lw	a0,-36(s0)
     c80:	d19ff0ef          	jal	ra,998 <eval>
     c84:	fea42223          	sw	a0,-28(s0)
     c88:	fe842783          	lw	a5,-24(s0)
     c8c:	00178793          	addi	a5,a5,1
     c90:	fd842583          	lw	a1,-40(s0)
     c94:	00078513          	mv	a0,a5
     c98:	d01ff0ef          	jal	ra,998 <eval>
     c9c:	fea42023          	sw	a0,-32(s0)
     ca0:	00103697          	auipc	a3,0x103
     ca4:	0a468693          	addi	a3,a3,164 # 103d44 <tokens>
     ca8:	fe842703          	lw	a4,-24(s0)
     cac:	00070793          	mv	a5,a4
     cb0:	00179793          	slli	a5,a5,0x1
     cb4:	00e787b3          	add	a5,a5,a4
     cb8:	00279793          	slli	a5,a5,0x2
     cbc:	00f687b3          	add	a5,a3,a5
     cc0:	0047a783          	lw	a5,4(a5)
     cc4:	02d00713          	li	a4,45
     cc8:	06e78e63          	beq	a5,a4,d44 <eval+0x3ac>
     ccc:	02d00713          	li	a4,45
     cd0:	00f74c63          	blt	a4,a5,ce8 <eval+0x350>
     cd4:	02a00713          	li	a4,42
     cd8:	02e78a63          	beq	a5,a4,d0c <eval+0x374>
     cdc:	02b00713          	li	a4,43
     ce0:	04e78a63          	beq	a5,a4,d34 <eval+0x39c>
     ce4:	0700006f          	j	d54 <eval+0x3bc>
     ce8:	02f00713          	li	a4,47
     cec:	02e78a63          	beq	a5,a4,d20 <eval+0x388>
     cf0:	05e00713          	li	a4,94
     cf4:	06e79063          	bne	a5,a4,d54 <eval+0x3bc>
     cf8:	fe042583          	lw	a1,-32(s0)
     cfc:	fe442503          	lw	a0,-28(s0)
     d00:	c39ff0ef          	jal	ra,938 <ksm>
     d04:	00050793          	mv	a5,a0
     d08:	0500006f          	j	d58 <eval+0x3c0>
     d0c:	fe042583          	lw	a1,-32(s0)
     d10:	fe442503          	lw	a0,-28(s0)
     d14:	258010ef          	jal	ra,1f6c <__mulsi3>
     d18:	00050793          	mv	a5,a0
     d1c:	03c0006f          	j	d58 <eval+0x3c0>
     d20:	fe042583          	lw	a1,-32(s0)
     d24:	fe442503          	lw	a0,-28(s0)
     d28:	428010ef          	jal	ra,2150 <__divsi3>
     d2c:	00050793          	mv	a5,a0
     d30:	0280006f          	j	d58 <eval+0x3c0>
     d34:	fe442703          	lw	a4,-28(s0)
     d38:	fe042783          	lw	a5,-32(s0)
     d3c:	00f707b3          	add	a5,a4,a5
     d40:	0180006f          	j	d58 <eval+0x3c0>
     d44:	fe442703          	lw	a4,-28(s0)
     d48:	fe042783          	lw	a5,-32(s0)
     d4c:	40f707b3          	sub	a5,a4,a5
     d50:	0080006f          	j	d58 <eval+0x3c0>
     d54:	00000793          	li	a5,0
     d58:	00078513          	mv	a0,a5
     d5c:	03c12083          	lw	ra,60(sp)
     d60:	03812403          	lw	s0,56(sp)
     d64:	04010113          	addi	sp,sp,64
     d68:	00008067          	ret

00000d6c <parse>:
     d6c:	fd010113          	addi	sp,sp,-48
     d70:	02812623          	sw	s0,44(sp)
     d74:	03010413          	addi	s0,sp,48
     d78:	fca42e23          	sw	a0,-36(s0)
     d7c:	fcb42c23          	sw	a1,-40(s0)
     d80:	fe042623          	sw	zero,-20(s0)
     d84:	fe042423          	sw	zero,-24(s0)
     d88:	fdc42783          	lw	a5,-36(s0)
     d8c:	fef42223          	sw	a5,-28(s0)
     d90:	1a80006f          	j	f38 <parse+0x1cc>
     d94:	fe442783          	lw	a5,-28(s0)
     d98:	0007c783          	lbu	a5,0(a5)
     d9c:	fef401a3          	sb	a5,-29(s0)
     da0:	fe344703          	lbu	a4,-29(s0)
     da4:	02f00793          	li	a5,47
     da8:	04e7f263          	bgeu	a5,a4,dec <parse+0x80>
     dac:	fe344703          	lbu	a4,-29(s0)
     db0:	03900793          	li	a5,57
     db4:	02e7ec63          	bltu	a5,a4,dec <parse+0x80>
     db8:	fec42703          	lw	a4,-20(s0)
     dbc:	00070793          	mv	a5,a4
     dc0:	00279793          	slli	a5,a5,0x2
     dc4:	00e787b3          	add	a5,a5,a4
     dc8:	00179793          	slli	a5,a5,0x1
     dcc:	00078713          	mv	a4,a5
     dd0:	fe344783          	lbu	a5,-29(s0)
     dd4:	00f707b3          	add	a5,a4,a5
     dd8:	fd078793          	addi	a5,a5,-48
     ddc:	fef42623          	sw	a5,-20(s0)
     de0:	00100793          	li	a5,1
     de4:	fef42423          	sw	a5,-24(s0)
     de8:	1440006f          	j	f2c <parse+0x1c0>
     dec:	fe842783          	lw	a5,-24(s0)
     df0:	08078863          	beqz	a5,e80 <parse+0x114>
     df4:	00103797          	auipc	a5,0x103
     df8:	f4478793          	addi	a5,a5,-188 # 103d38 <ntok>
     dfc:	0007a703          	lw	a4,0(a5)
     e00:	00170693          	addi	a3,a4,1
     e04:	00103797          	auipc	a5,0x103
     e08:	f3478793          	addi	a5,a5,-204 # 103d38 <ntok>
     e0c:	00d7a023          	sw	a3,0(a5)
     e10:	00103697          	auipc	a3,0x103
     e14:	f3468693          	addi	a3,a3,-204 # 103d44 <tokens>
     e18:	00070793          	mv	a5,a4
     e1c:	00179793          	slli	a5,a5,0x1
     e20:	00e787b3          	add	a5,a5,a4
     e24:	00279793          	slli	a5,a5,0x2
     e28:	00f687b3          	add	a5,a3,a5
     e2c:	0007a023          	sw	zero,0(a5)
     e30:	00103697          	auipc	a3,0x103
     e34:	f1468693          	addi	a3,a3,-236 # 103d44 <tokens>
     e38:	00070793          	mv	a5,a4
     e3c:	00179793          	slli	a5,a5,0x1
     e40:	00e787b3          	add	a5,a5,a4
     e44:	00279793          	slli	a5,a5,0x2
     e48:	00f687b3          	add	a5,a3,a5
     e4c:	fff00693          	li	a3,-1
     e50:	00d7a223          	sw	a3,4(a5)
     e54:	00103697          	auipc	a3,0x103
     e58:	ef068693          	addi	a3,a3,-272 # 103d44 <tokens>
     e5c:	00070793          	mv	a5,a4
     e60:	00179793          	slli	a5,a5,0x1
     e64:	00e787b3          	add	a5,a5,a4
     e68:	00279793          	slli	a5,a5,0x2
     e6c:	00f687b3          	add	a5,a3,a5
     e70:	fec42703          	lw	a4,-20(s0)
     e74:	00e7a423          	sw	a4,8(a5)
     e78:	fe042623          	sw	zero,-20(s0)
     e7c:	fe042423          	sw	zero,-24(s0)
     e80:	fe344703          	lbu	a4,-29(s0)
     e84:	02000793          	li	a5,32
     e88:	0af70263          	beq	a4,a5,f2c <parse+0x1c0>
     e8c:	fe344703          	lbu	a4,-29(s0)
     e90:	00a00793          	li	a5,10
     e94:	08f70c63          	beq	a4,a5,f2c <parse+0x1c0>
     e98:	fe344703          	lbu	a4,-29(s0)
     e9c:	00900793          	li	a5,9
     ea0:	08f70663          	beq	a4,a5,f2c <parse+0x1c0>
     ea4:	00103797          	auipc	a5,0x103
     ea8:	e9478793          	addi	a5,a5,-364 # 103d38 <ntok>
     eac:	0007a703          	lw	a4,0(a5)
     eb0:	00170693          	addi	a3,a4,1
     eb4:	00103797          	auipc	a5,0x103
     eb8:	e8478793          	addi	a5,a5,-380 # 103d38 <ntok>
     ebc:	00d7a023          	sw	a3,0(a5)
     ec0:	fe344683          	lbu	a3,-29(s0)
     ec4:	00103617          	auipc	a2,0x103
     ec8:	e8060613          	addi	a2,a2,-384 # 103d44 <tokens>
     ecc:	00070793          	mv	a5,a4
     ed0:	00179793          	slli	a5,a5,0x1
     ed4:	00e787b3          	add	a5,a5,a4
     ed8:	00279793          	slli	a5,a5,0x2
     edc:	00f607b3          	add	a5,a2,a5
     ee0:	00100613          	li	a2,1
     ee4:	00c7a023          	sw	a2,0(a5)
     ee8:	00103617          	auipc	a2,0x103
     eec:	e5c60613          	addi	a2,a2,-420 # 103d44 <tokens>
     ef0:	00070793          	mv	a5,a4
     ef4:	00179793          	slli	a5,a5,0x1
     ef8:	00e787b3          	add	a5,a5,a4
     efc:	00279793          	slli	a5,a5,0x2
     f00:	00f607b3          	add	a5,a2,a5
     f04:	00d7a223          	sw	a3,4(a5)
     f08:	00103697          	auipc	a3,0x103
     f0c:	e3c68693          	addi	a3,a3,-452 # 103d44 <tokens>
     f10:	00070793          	mv	a5,a4
     f14:	00179793          	slli	a5,a5,0x1
     f18:	00e787b3          	add	a5,a5,a4
     f1c:	00279793          	slli	a5,a5,0x2
     f20:	00f687b3          	add	a5,a3,a5
     f24:	fff00713          	li	a4,-1
     f28:	00e7a423          	sw	a4,8(a5)
     f2c:	fe442783          	lw	a5,-28(s0)
     f30:	00178793          	addi	a5,a5,1
     f34:	fef42223          	sw	a5,-28(s0)
     f38:	fd842783          	lw	a5,-40(s0)
     f3c:	fdc42703          	lw	a4,-36(s0)
     f40:	00f707b3          	add	a5,a4,a5
     f44:	fe442703          	lw	a4,-28(s0)
     f48:	e4f716e3          	bne	a4,a5,d94 <parse+0x28>
     f4c:	fe842783          	lw	a5,-24(s0)
     f50:	08078463          	beqz	a5,fd8 <parse+0x26c>
     f54:	00103797          	auipc	a5,0x103
     f58:	de478793          	addi	a5,a5,-540 # 103d38 <ntok>
     f5c:	0007a703          	lw	a4,0(a5)
     f60:	00170693          	addi	a3,a4,1
     f64:	00103797          	auipc	a5,0x103
     f68:	dd478793          	addi	a5,a5,-556 # 103d38 <ntok>
     f6c:	00d7a023          	sw	a3,0(a5)
     f70:	00103697          	auipc	a3,0x103
     f74:	dd468693          	addi	a3,a3,-556 # 103d44 <tokens>
     f78:	00070793          	mv	a5,a4
     f7c:	00179793          	slli	a5,a5,0x1
     f80:	00e787b3          	add	a5,a5,a4
     f84:	00279793          	slli	a5,a5,0x2
     f88:	00f687b3          	add	a5,a3,a5
     f8c:	0007a023          	sw	zero,0(a5)
     f90:	00103697          	auipc	a3,0x103
     f94:	db468693          	addi	a3,a3,-588 # 103d44 <tokens>
     f98:	00070793          	mv	a5,a4
     f9c:	00179793          	slli	a5,a5,0x1
     fa0:	00e787b3          	add	a5,a5,a4
     fa4:	00279793          	slli	a5,a5,0x2
     fa8:	00f687b3          	add	a5,a3,a5
     fac:	fff00693          	li	a3,-1
     fb0:	00d7a223          	sw	a3,4(a5)
     fb4:	00103697          	auipc	a3,0x103
     fb8:	d9068693          	addi	a3,a3,-624 # 103d44 <tokens>
     fbc:	00070793          	mv	a5,a4
     fc0:	00179793          	slli	a5,a5,0x1
     fc4:	00e787b3          	add	a5,a5,a4
     fc8:	00279793          	slli	a5,a5,0x2
     fcc:	00f687b3          	add	a5,a3,a5
     fd0:	fec42703          	lw	a4,-20(s0)
     fd4:	00e7a423          	sw	a4,8(a5)
     fd8:	00000013          	nop
     fdc:	02c12403          	lw	s0,44(sp)
     fe0:	03010113          	addi	sp,sp,48
     fe4:	00008067          	ret

00000fe8 <exec_eval>:
     fe8:	fe010113          	addi	sp,sp,-32
     fec:	00112e23          	sw	ra,28(sp)
     ff0:	00812c23          	sw	s0,24(sp)
     ff4:	02010413          	addi	s0,sp,32
     ff8:	fea42623          	sw	a0,-20(s0)
     ffc:	0100006f          	j	100c <exec_eval+0x24>
    1000:	fec42783          	lw	a5,-20(s0)
    1004:	00178793          	addi	a5,a5,1
    1008:	fef42623          	sw	a5,-20(s0)
    100c:	fec42783          	lw	a5,-20(s0)
    1010:	0007c703          	lbu	a4,0(a5)
    1014:	02000793          	li	a5,32
    1018:	fef704e3          	beq	a4,a5,1000 <exec_eval+0x18>
    101c:	00103797          	auipc	a5,0x103
    1020:	d1c78793          	addi	a5,a5,-740 # 103d38 <ntok>
    1024:	0007a023          	sw	zero,0(a5)
    1028:	fec42503          	lw	a0,-20(s0)
    102c:	559000ef          	jal	ra,1d84 <kstrlen>
    1030:	00050793          	mv	a5,a0
    1034:	00078593          	mv	a1,a5
    1038:	fec42503          	lw	a0,-20(s0)
    103c:	d31ff0ef          	jal	ra,d6c <parse>
    1040:	00103797          	auipc	a5,0x103
    1044:	cf878793          	addi	a5,a5,-776 # 103d38 <ntok>
    1048:	0007a783          	lw	a5,0(a5)
    104c:	00078593          	mv	a1,a5
    1050:	00000513          	li	a0,0
    1054:	945ff0ef          	jal	ra,998 <eval>
    1058:	00050793          	mv	a5,a0
    105c:	00078593          	mv	a1,a5
    1060:	000ff517          	auipc	a0,0xff
    1064:	fa050513          	addi	a0,a0,-96 # 100000 <_etext+0xfd50c>
    1068:	389000ef          	jal	ra,1bf0 <kprintf>
    106c:	00000013          	nop
    1070:	01c12083          	lw	ra,28(sp)
    1074:	01812403          	lw	s0,24(sp)
    1078:	02010113          	addi	sp,sp,32
    107c:	00008067          	ret

00001080 <exec_gtest>:
    1080:	fc010113          	addi	sp,sp,-64
    1084:	02112e23          	sw	ra,60(sp)
    1088:	02812c23          	sw	s0,56(sp)
    108c:	04010413          	addi	s0,sp,64
    1090:	fca42623          	sw	a0,-52(s0)
    1094:	334010ef          	jal	ra,23c8 <swtch>
    1098:	00ff07b7          	lui	a5,0xff0
    109c:	fef42623          	sw	a5,-20(s0)
    10a0:	1d4010ef          	jal	ra,2274 <gettimeofday>
    10a4:	fea42423          	sw	a0,-24(s0)
    10a8:	00f00613          	li	a2,15
    10ac:	00000593          	li	a1,0
    10b0:	00000513          	li	a0,0
    10b4:	1ec010ef          	jal	ra,22a0 <draw>
    10b8:	00f00613          	li	a2,15
    10bc:	00100593          	li	a1,1
    10c0:	00000513          	li	a0,0
    10c4:	1dc010ef          	jal	ra,22a0 <draw>
    10c8:	00f00613          	li	a2,15
    10cc:	00200593          	li	a1,2
    10d0:	00000513          	li	a0,0
    10d4:	1cc010ef          	jal	ra,22a0 <draw>
    10d8:	00f00613          	li	a2,15
    10dc:	00300593          	li	a1,3
    10e0:	00000513          	li	a0,0
    10e4:	1bc010ef          	jal	ra,22a0 <draw>
    10e8:	00f00613          	li	a2,15
    10ec:	00000593          	li	a1,0
    10f0:	00100513          	li	a0,1
    10f4:	1ac010ef          	jal	ra,22a0 <draw>
    10f8:	00f00613          	li	a2,15
    10fc:	00100593          	li	a1,1
    1100:	00100513          	li	a0,1
    1104:	19c010ef          	jal	ra,22a0 <draw>
    1108:	00f00613          	li	a2,15
    110c:	00200593          	li	a1,2
    1110:	00100513          	li	a0,1
    1114:	18c010ef          	jal	ra,22a0 <draw>
    1118:	00f00613          	li	a2,15
    111c:	00300593          	li	a1,3
    1120:	00100513          	li	a0,1
    1124:	17c010ef          	jal	ra,22a0 <draw>
    1128:	00f00613          	li	a2,15
    112c:	00000593          	li	a1,0
    1130:	00200513          	li	a0,2
    1134:	16c010ef          	jal	ra,22a0 <draw>
    1138:	00f00613          	li	a2,15
    113c:	00100593          	li	a1,1
    1140:	00200513          	li	a0,2
    1144:	15c010ef          	jal	ra,22a0 <draw>
    1148:	00f00613          	li	a2,15
    114c:	00200593          	li	a1,2
    1150:	00200513          	li	a0,2
    1154:	14c010ef          	jal	ra,22a0 <draw>
    1158:	00f00613          	li	a2,15
    115c:	00300593          	li	a1,3
    1160:	00200513          	li	a0,2
    1164:	13c010ef          	jal	ra,22a0 <draw>
    1168:	00f00613          	li	a2,15
    116c:	00000593          	li	a1,0
    1170:	00300513          	li	a0,3
    1174:	12c010ef          	jal	ra,22a0 <draw>
    1178:	00f00613          	li	a2,15
    117c:	00100593          	li	a1,1
    1180:	00300513          	li	a0,3
    1184:	11c010ef          	jal	ra,22a0 <draw>
    1188:	00f00613          	li	a2,15
    118c:	00200593          	li	a1,2
    1190:	00300513          	li	a0,3
    1194:	10c010ef          	jal	ra,22a0 <draw>
    1198:	00f00613          	li	a2,15
    119c:	00300593          	li	a1,3
    11a0:	00300513          	li	a0,3
    11a4:	0fc010ef          	jal	ra,22a0 <draw>
    11a8:	00f00613          	li	a2,15
    11ac:	00000593          	li	a1,0
    11b0:	00400513          	li	a0,4
    11b4:	0ec010ef          	jal	ra,22a0 <draw>
    11b8:	00f00613          	li	a2,15
    11bc:	00100593          	li	a1,1
    11c0:	00400513          	li	a0,4
    11c4:	0dc010ef          	jal	ra,22a0 <draw>
    11c8:	00f00613          	li	a2,15
    11cc:	00200593          	li	a1,2
    11d0:	00400513          	li	a0,4
    11d4:	0cc010ef          	jal	ra,22a0 <draw>
    11d8:	00f00613          	li	a2,15
    11dc:	00300593          	li	a1,3
    11e0:	00400513          	li	a0,4
    11e4:	0bc010ef          	jal	ra,22a0 <draw>
    11e8:	00f00613          	li	a2,15
    11ec:	00000593          	li	a1,0
    11f0:	00500513          	li	a0,5
    11f4:	0ac010ef          	jal	ra,22a0 <draw>
    11f8:	00f00613          	li	a2,15
    11fc:	00100593          	li	a1,1
    1200:	00500513          	li	a0,5
    1204:	09c010ef          	jal	ra,22a0 <draw>
    1208:	00f00613          	li	a2,15
    120c:	00200593          	li	a1,2
    1210:	00500513          	li	a0,5
    1214:	08c010ef          	jal	ra,22a0 <draw>
    1218:	00f00613          	li	a2,15
    121c:	00300593          	li	a1,3
    1220:	00500513          	li	a0,5
    1224:	07c010ef          	jal	ra,22a0 <draw>
    1228:	fe042223          	sw	zero,-28(s0)
    122c:	fe042023          	sw	zero,-32(s0)
    1230:	73c010ef          	jal	ra,296c <readkey>
    1234:	00050793          	mv	a5,a0
    1238:	fcf40fa3          	sb	a5,-33(s0)
    123c:	fdf44703          	lbu	a4,-33(s0)
    1240:	07100793          	li	a5,113
    1244:	00f71663          	bne	a4,a5,1250 <exec_gtest+0x1d0>
    1248:	180010ef          	jal	ra,23c8 <swtch>
    124c:	08c0006f          	j	12d8 <exec_gtest+0x258>
    1250:	024010ef          	jal	ra,2274 <gettimeofday>
    1254:	00050713          	mv	a4,a0
    1258:	fe842783          	lw	a5,-24(s0)
    125c:	40f70733          	sub	a4,a4,a5
    1260:	000027b7          	lui	a5,0x2
    1264:	71078793          	addi	a5,a5,1808 # 2710 <putch+0xe0>
    1268:	04e7fe63          	bgeu	a5,a4,12c4 <exec_gtest+0x244>
    126c:	008010ef          	jal	ra,2274 <gettimeofday>
    1270:	fea42423          	sw	a0,-24(s0)
    1274:	fec42703          	lw	a4,-20(s0)
    1278:	00f00793          	li	a5,15
    127c:	00f71a63          	bne	a4,a5,1290 <exec_gtest+0x210>
    1280:	000017b7          	lui	a5,0x1
    1284:	f0078793          	addi	a5,a5,-256 # f00 <parse+0x194>
    1288:	fef42623          	sw	a5,-20(s0)
    128c:	0100006f          	j	129c <exec_gtest+0x21c>
    1290:	fec42783          	lw	a5,-20(s0)
    1294:	0047d793          	srli	a5,a5,0x4
    1298:	fef42623          	sw	a5,-20(s0)
    129c:	fe042783          	lw	a5,-32(s0)
    12a0:	00178793          	addi	a5,a5,1
    12a4:	07f7f793          	andi	a5,a5,127
    12a8:	fef42023          	sw	a5,-32(s0)
    12ac:	fe042783          	lw	a5,-32(s0)
    12b0:	00079a63          	bnez	a5,12c4 <exec_gtest+0x244>
    12b4:	fe442783          	lw	a5,-28(s0)
    12b8:	00178793          	addi	a5,a5,1
    12bc:	07f7f793          	andi	a5,a5,127
    12c0:	fef42223          	sw	a5,-28(s0)
    12c4:	fec42603          	lw	a2,-20(s0)
    12c8:	fe042583          	lw	a1,-32(s0)
    12cc:	fe442503          	lw	a0,-28(s0)
    12d0:	7d1000ef          	jal	ra,22a0 <draw>
    12d4:	f5dff06f          	j	1230 <exec_gtest+0x1b0>
    12d8:	03c12083          	lw	ra,60(sp)
    12dc:	03812403          	lw	s0,56(sp)
    12e0:	04010113          	addi	sp,sp,64
    12e4:	00008067          	ret

000012e8 <pixel>:
    12e8:	fe010113          	addi	sp,sp,-32
    12ec:	00812e23          	sw	s0,28(sp)
    12f0:	02010413          	addi	s0,sp,32
    12f4:	fea42623          	sw	a0,-20(s0)
    12f8:	feb42423          	sw	a1,-24(s0)
    12fc:	fec42223          	sw	a2,-28(s0)
    1300:	fec42783          	lw	a5,-20(s0)
    1304:	01079713          	slli	a4,a5,0x10
    1308:	fe842783          	lw	a5,-24(s0)
    130c:	00879793          	slli	a5,a5,0x8
    1310:	00f76733          	or	a4,a4,a5
    1314:	fe442783          	lw	a5,-28(s0)
    1318:	00f767b3          	or	a5,a4,a5
    131c:	00078513          	mv	a0,a5
    1320:	01c12403          	lw	s0,28(sp)
    1324:	02010113          	addi	sp,sp,32
    1328:	00008067          	ret

0000132c <R>:
    132c:	fe010113          	addi	sp,sp,-32
    1330:	00812e23          	sw	s0,28(sp)
    1334:	02010413          	addi	s0,sp,32
    1338:	fea42623          	sw	a0,-20(s0)
    133c:	fec42783          	lw	a5,-20(s0)
    1340:	0107d793          	srli	a5,a5,0x10
    1344:	00078513          	mv	a0,a5
    1348:	01c12403          	lw	s0,28(sp)
    134c:	02010113          	addi	sp,sp,32
    1350:	00008067          	ret

00001354 <G>:
    1354:	fe010113          	addi	sp,sp,-32
    1358:	00812e23          	sw	s0,28(sp)
    135c:	02010413          	addi	s0,sp,32
    1360:	fea42623          	sw	a0,-20(s0)
    1364:	fec42783          	lw	a5,-20(s0)
    1368:	0087d793          	srli	a5,a5,0x8
    136c:	0ff7f793          	andi	a5,a5,255
    1370:	00078513          	mv	a0,a5
    1374:	01c12403          	lw	s0,28(sp)
    1378:	02010113          	addi	sp,sp,32
    137c:	00008067          	ret

00001380 <B>:
    1380:	fe010113          	addi	sp,sp,-32
    1384:	00812e23          	sw	s0,28(sp)
    1388:	02010413          	addi	s0,sp,32
    138c:	fea42623          	sw	a0,-20(s0)
    1390:	fec42783          	lw	a5,-20(s0)
    1394:	0ff7f793          	andi	a5,a5,255
    1398:	00078513          	mv	a0,a5
    139c:	01c12403          	lw	s0,28(sp)
    13a0:	02010113          	addi	sp,sp,32
    13a4:	00008067          	ret

000013a8 <convert>:
    13a8:	fd010113          	addi	sp,sp,-48
    13ac:	02112623          	sw	ra,44(sp)
    13b0:	02812423          	sw	s0,40(sp)
    13b4:	03010413          	addi	s0,sp,48
    13b8:	fca42e23          	sw	a0,-36(s0)
    13bc:	fdc42503          	lw	a0,-36(s0)
    13c0:	f6dff0ef          	jal	ra,132c <R>
    13c4:	00050793          	mv	a5,a0
    13c8:	0047d793          	srli	a5,a5,0x4
    13cc:	fef42623          	sw	a5,-20(s0)
    13d0:	fdc42503          	lw	a0,-36(s0)
    13d4:	f81ff0ef          	jal	ra,1354 <G>
    13d8:	00050793          	mv	a5,a0
    13dc:	0047d793          	srli	a5,a5,0x4
    13e0:	fef42423          	sw	a5,-24(s0)
    13e4:	fdc42503          	lw	a0,-36(s0)
    13e8:	f99ff0ef          	jal	ra,1380 <B>
    13ec:	00050793          	mv	a5,a0
    13f0:	0047d793          	srli	a5,a5,0x4
    13f4:	fef42223          	sw	a5,-28(s0)
    13f8:	fec42783          	lw	a5,-20(s0)
    13fc:	00879713          	slli	a4,a5,0x8
    1400:	fe842783          	lw	a5,-24(s0)
    1404:	00479793          	slli	a5,a5,0x4
    1408:	00f76733          	or	a4,a4,a5
    140c:	fe442783          	lw	a5,-28(s0)
    1410:	00f767b3          	or	a5,a4,a5
    1414:	00078513          	mv	a0,a5
    1418:	02c12083          	lw	ra,44(sp)
    141c:	02812403          	lw	s0,40(sp)
    1420:	03010113          	addi	sp,sp,48
    1424:	00008067          	ret

00001428 <redraw>:
    1428:	fd010113          	addi	sp,sp,-48
    142c:	02112623          	sw	ra,44(sp)
    1430:	02812423          	sw	s0,40(sp)
    1434:	02912223          	sw	s1,36(sp)
    1438:	03010413          	addi	s0,sp,48
    143c:	00500793          	li	a5,5
    1440:	fef42023          	sw	a5,-32(s0)
    1444:	00400793          	li	a5,4
    1448:	fcf42e23          	sw	a5,-36(s0)
    144c:	fdc42583          	lw	a1,-36(s0)
    1450:	fe042503          	lw	a0,-32(s0)
    1454:	319000ef          	jal	ra,1f6c <__mulsi3>
    1458:	00050793          	mv	a5,a0
    145c:	fcf42c23          	sw	a5,-40(s0)
    1460:	fe042423          	sw	zero,-24(s0)
    1464:	0d80006f          	j	153c <redraw+0x114>
    1468:	fe042623          	sw	zero,-20(s0)
    146c:	0b80006f          	j	1524 <redraw+0xfc>
    1470:	fe042223          	sw	zero,-28(s0)
    1474:	0580006f          	j	14cc <redraw+0xa4>
    1478:	000ff717          	auipc	a4,0xff
    147c:	08070713          	addi	a4,a4,128 # 1004f8 <_bss_start>
    1480:	fe842783          	lw	a5,-24(s0)
    1484:	00579693          	slli	a3,a5,0x5
    1488:	fec42783          	lw	a5,-20(s0)
    148c:	00f687b3          	add	a5,a3,a5
    1490:	00279793          	slli	a5,a5,0x2
    1494:	00f707b3          	add	a5,a4,a5
    1498:	0007a783          	lw	a5,0(a5)
    149c:	00078513          	mv	a0,a5
    14a0:	f09ff0ef          	jal	ra,13a8 <convert>
    14a4:	00050693          	mv	a3,a0
    14a8:	00101717          	auipc	a4,0x101
    14ac:	05070713          	addi	a4,a4,80 # 1024f8 <color_buf>
    14b0:	fe442783          	lw	a5,-28(s0)
    14b4:	00279793          	slli	a5,a5,0x2
    14b8:	00f707b3          	add	a5,a4,a5
    14bc:	00d7a023          	sw	a3,0(a5)
    14c0:	fe442783          	lw	a5,-28(s0)
    14c4:	00178793          	addi	a5,a5,1
    14c8:	fef42223          	sw	a5,-28(s0)
    14cc:	fe442703          	lw	a4,-28(s0)
    14d0:	fd842783          	lw	a5,-40(s0)
    14d4:	faf742e3          	blt	a4,a5,1478 <redraw+0x50>
    14d8:	fe042583          	lw	a1,-32(s0)
    14dc:	fec42503          	lw	a0,-20(s0)
    14e0:	28d000ef          	jal	ra,1f6c <__mulsi3>
    14e4:	00050793          	mv	a5,a0
    14e8:	00078493          	mv	s1,a5
    14ec:	fdc42583          	lw	a1,-36(s0)
    14f0:	fe842503          	lw	a0,-24(s0)
    14f4:	279000ef          	jal	ra,1f6c <__mulsi3>
    14f8:	00050793          	mv	a5,a0
    14fc:	fdc42703          	lw	a4,-36(s0)
    1500:	fe042683          	lw	a3,-32(s0)
    1504:	00101617          	auipc	a2,0x101
    1508:	ff460613          	addi	a2,a2,-12 # 1024f8 <color_buf>
    150c:	00078593          	mv	a1,a5
    1510:	00048513          	mv	a0,s1
    1514:	5d9000ef          	jal	ra,22ec <draw_rect>
    1518:	fec42783          	lw	a5,-20(s0)
    151c:	00178793          	addi	a5,a5,1
    1520:	fef42623          	sw	a5,-20(s0)
    1524:	fec42703          	lw	a4,-20(s0)
    1528:	01f00793          	li	a5,31
    152c:	f4e7d2e3          	bge	a5,a4,1470 <redraw+0x48>
    1530:	fe842783          	lw	a5,-24(s0)
    1534:	00178793          	addi	a5,a5,1
    1538:	fef42423          	sw	a5,-24(s0)
    153c:	fe842703          	lw	a4,-24(s0)
    1540:	01f00793          	li	a5,31
    1544:	f2e7d2e3          	bge	a5,a4,1468 <redraw+0x40>
    1548:	00000013          	nop
    154c:	02c12083          	lw	ra,44(sp)
    1550:	02812403          	lw	s0,40(sp)
    1554:	02412483          	lw	s1,36(sp)
    1558:	03010113          	addi	sp,sp,48
    155c:	00008067          	ret

00001560 <p>:
    1560:	fd010113          	addi	sp,sp,-48
    1564:	02112623          	sw	ra,44(sp)
    1568:	02812423          	sw	s0,40(sp)
    156c:	03010413          	addi	s0,sp,48
    1570:	fca42e23          	sw	a0,-36(s0)
    1574:	fdc42783          	lw	a5,-36(s0)
    1578:	0ff7f793          	andi	a5,a5,255
    157c:	fef42623          	sw	a5,-20(s0)
    1580:	fec42703          	lw	a4,-20(s0)
    1584:	00070793          	mv	a5,a4
    1588:	00179793          	slli	a5,a5,0x1
    158c:	00e787b3          	add	a5,a5,a4
    1590:	00179793          	slli	a5,a5,0x1
    1594:	00078693          	mv	a3,a5
    1598:	fec42703          	lw	a4,-20(s0)
    159c:	00070793          	mv	a5,a4
    15a0:	00379793          	slli	a5,a5,0x3
    15a4:	40e787b3          	sub	a5,a5,a4
    15a8:	fec42603          	lw	a2,-20(s0)
    15ac:	00078593          	mv	a1,a5
    15b0:	00068513          	mv	a0,a3
    15b4:	d35ff0ef          	jal	ra,12e8 <pixel>
    15b8:	00050793          	mv	a5,a0
    15bc:	00078513          	mv	a0,a5
    15c0:	02c12083          	lw	ra,44(sp)
    15c4:	02812403          	lw	s0,40(sp)
    15c8:	03010113          	addi	sp,sp,48
    15cc:	00008067          	ret

000015d0 <update>:
    15d0:	fc010113          	addi	sp,sp,-64
    15d4:	02112e23          	sw	ra,60(sp)
    15d8:	02812c23          	sw	s0,56(sp)
    15dc:	04010413          	addi	s0,sp,64
    15e0:	00102797          	auipc	a5,0x102
    15e4:	f1878793          	addi	a5,a5,-232 # 1034f8 <tsc.1712>
    15e8:	0007a783          	lw	a5,0(a5)
    15ec:	00178713          	addi	a4,a5,1
    15f0:	00102797          	auipc	a5,0x102
    15f4:	f0878793          	addi	a5,a5,-248 # 1034f8 <tsc.1712>
    15f8:	00e7a023          	sw	a4,0(a5)
    15fc:	fe042623          	sw	zero,-20(s0)
    1600:	0540006f          	j	1654 <update+0x84>
    1604:	fe042423          	sw	zero,-24(s0)
    1608:	0340006f          	j	163c <update+0x6c>
    160c:	00100717          	auipc	a4,0x100
    1610:	eec70713          	addi	a4,a4,-276 # 1014f8 <used>
    1614:	fec42783          	lw	a5,-20(s0)
    1618:	00579693          	slli	a3,a5,0x5
    161c:	fe842783          	lw	a5,-24(s0)
    1620:	00f687b3          	add	a5,a3,a5
    1624:	00279793          	slli	a5,a5,0x2
    1628:	00f707b3          	add	a5,a4,a5
    162c:	0007a023          	sw	zero,0(a5)
    1630:	fe842783          	lw	a5,-24(s0)
    1634:	00178793          	addi	a5,a5,1
    1638:	fef42423          	sw	a5,-24(s0)
    163c:	fe842703          	lw	a4,-24(s0)
    1640:	01f00793          	li	a5,31
    1644:	fce7d4e3          	bge	a5,a4,160c <update+0x3c>
    1648:	fec42783          	lw	a5,-20(s0)
    164c:	00178793          	addi	a5,a5,1
    1650:	fef42623          	sw	a5,-20(s0)
    1654:	fec42703          	lw	a4,-20(s0)
    1658:	01f00793          	li	a5,31
    165c:	fae7d4e3          	bge	a5,a4,1604 <update+0x34>
    1660:	00102797          	auipc	a5,0x102
    1664:	e9878793          	addi	a5,a5,-360 # 1034f8 <tsc.1712>
    1668:	0007a783          	lw	a5,0(a5)
    166c:	fcf42823          	sw	a5,-48(s0)
    1670:	fd042503          	lw	a0,-48(s0)
    1674:	eedff0ef          	jal	ra,1560 <p>
    1678:	00050713          	mv	a4,a0
    167c:	000ff797          	auipc	a5,0xff
    1680:	e7c78793          	addi	a5,a5,-388 # 1004f8 <_bss_start>
    1684:	00e7a023          	sw	a4,0(a5)
    1688:	00100797          	auipc	a5,0x100
    168c:	e7078793          	addi	a5,a5,-400 # 1014f8 <used>
    1690:	00100713          	li	a4,1
    1694:	00e7a023          	sw	a4,0(a5)
    1698:	fe042223          	sw	zero,-28(s0)
    169c:	fe042023          	sw	zero,-32(s0)
    16a0:	fc042e23          	sw	zero,-36(s0)
    16a4:	00100793          	li	a5,1
    16a8:	fcf42c23          	sw	a5,-40(s0)
    16ac:	1700006f          	j	181c <update+0x24c>
    16b0:	fc042a23          	sw	zero,-44(s0)
    16b4:	1500006f          	j	1804 <update+0x234>
    16b8:	000ff717          	auipc	a4,0xff
    16bc:	dfc70713          	addi	a4,a4,-516 # 1004b4 <dx.1713>
    16c0:	fdc42783          	lw	a5,-36(s0)
    16c4:	00279793          	slli	a5,a5,0x2
    16c8:	00f707b3          	add	a5,a4,a5
    16cc:	0007a783          	lw	a5,0(a5)
    16d0:	fe442703          	lw	a4,-28(s0)
    16d4:	00f707b3          	add	a5,a4,a5
    16d8:	fcf42623          	sw	a5,-52(s0)
    16dc:	000ff717          	auipc	a4,0xff
    16e0:	de870713          	addi	a4,a4,-536 # 1004c4 <dy.1714>
    16e4:	fdc42783          	lw	a5,-36(s0)
    16e8:	00279793          	slli	a5,a5,0x2
    16ec:	00f707b3          	add	a5,a4,a5
    16f0:	0007a783          	lw	a5,0(a5)
    16f4:	fe042703          	lw	a4,-32(s0)
    16f8:	00f707b3          	add	a5,a4,a5
    16fc:	fcf42423          	sw	a5,-56(s0)
    1700:	fcc42783          	lw	a5,-52(s0)
    1704:	0c07ca63          	bltz	a5,17d8 <update+0x208>
    1708:	fcc42703          	lw	a4,-52(s0)
    170c:	01f00793          	li	a5,31
    1710:	0ce7c463          	blt	a5,a4,17d8 <update+0x208>
    1714:	fc842783          	lw	a5,-56(s0)
    1718:	0c07c063          	bltz	a5,17d8 <update+0x208>
    171c:	fc842703          	lw	a4,-56(s0)
    1720:	01f00793          	li	a5,31
    1724:	0ae7ca63          	blt	a5,a4,17d8 <update+0x208>
    1728:	00100717          	auipc	a4,0x100
    172c:	dd070713          	addi	a4,a4,-560 # 1014f8 <used>
    1730:	fcc42783          	lw	a5,-52(s0)
    1734:	00579693          	slli	a3,a5,0x5
    1738:	fc842783          	lw	a5,-56(s0)
    173c:	00f687b3          	add	a5,a3,a5
    1740:	00279793          	slli	a5,a5,0x2
    1744:	00f707b3          	add	a5,a4,a5
    1748:	0007a783          	lw	a5,0(a5)
    174c:	08079663          	bnez	a5,17d8 <update+0x208>
    1750:	fcc42783          	lw	a5,-52(s0)
    1754:	fef42223          	sw	a5,-28(s0)
    1758:	fc842783          	lw	a5,-56(s0)
    175c:	fef42023          	sw	a5,-32(s0)
    1760:	00100717          	auipc	a4,0x100
    1764:	d9870713          	addi	a4,a4,-616 # 1014f8 <used>
    1768:	fe442783          	lw	a5,-28(s0)
    176c:	00579693          	slli	a3,a5,0x5
    1770:	fe042783          	lw	a5,-32(s0)
    1774:	00f687b3          	add	a5,a3,a5
    1778:	00279793          	slli	a5,a5,0x2
    177c:	00f707b3          	add	a5,a4,a5
    1780:	00100713          	li	a4,1
    1784:	00e7a023          	sw	a4,0(a5)
    1788:	fd842783          	lw	a5,-40(s0)
    178c:	01f7d713          	srli	a4,a5,0x1f
    1790:	00f707b3          	add	a5,a4,a5
    1794:	4017d793          	srai	a5,a5,0x1
    1798:	00078713          	mv	a4,a5
    179c:	fd042783          	lw	a5,-48(s0)
    17a0:	00f707b3          	add	a5,a4,a5
    17a4:	00078513          	mv	a0,a5
    17a8:	db9ff0ef          	jal	ra,1560 <p>
    17ac:	00050613          	mv	a2,a0
    17b0:	000ff717          	auipc	a4,0xff
    17b4:	d4870713          	addi	a4,a4,-696 # 1004f8 <_bss_start>
    17b8:	fe442783          	lw	a5,-28(s0)
    17bc:	00579693          	slli	a3,a5,0x5
    17c0:	fe042783          	lw	a5,-32(s0)
    17c4:	00f687b3          	add	a5,a3,a5
    17c8:	00279793          	slli	a5,a5,0x2
    17cc:	00f707b3          	add	a5,a4,a5
    17d0:	00c7a023          	sw	a2,0(a5)
    17d4:	03c0006f          	j	1810 <update+0x240>
    17d8:	fdc42783          	lw	a5,-36(s0)
    17dc:	00178713          	addi	a4,a5,1
    17e0:	41f75793          	srai	a5,a4,0x1f
    17e4:	01e7d793          	srli	a5,a5,0x1e
    17e8:	00f70733          	add	a4,a4,a5
    17ec:	00377713          	andi	a4,a4,3
    17f0:	40f707b3          	sub	a5,a4,a5
    17f4:	fcf42e23          	sw	a5,-36(s0)
    17f8:	fd442783          	lw	a5,-44(s0)
    17fc:	00178793          	addi	a5,a5,1
    1800:	fcf42a23          	sw	a5,-44(s0)
    1804:	fd442703          	lw	a4,-44(s0)
    1808:	00300793          	li	a5,3
    180c:	eae7d6e3          	bge	a5,a4,16b8 <update+0xe8>
    1810:	fd842783          	lw	a5,-40(s0)
    1814:	00178793          	addi	a5,a5,1
    1818:	fcf42c23          	sw	a5,-40(s0)
    181c:	fd842703          	lw	a4,-40(s0)
    1820:	3ff00793          	li	a5,1023
    1824:	e8e7d6e3          	bge	a5,a4,16b0 <update+0xe0>
    1828:	00000013          	nop
    182c:	03c12083          	lw	ra,60(sp)
    1830:	03812403          	lw	s0,56(sp)
    1834:	04010113          	addi	sp,sp,64
    1838:	00008067          	ret

0000183c <exec_vtest>:
    183c:	fd010113          	addi	sp,sp,-48
    1840:	02112623          	sw	ra,44(sp)
    1844:	02812423          	sw	s0,40(sp)
    1848:	03010413          	addi	s0,sp,48
    184c:	fca42e23          	sw	a0,-36(s0)
    1850:	379000ef          	jal	ra,23c8 <swtch>
    1854:	fe042623          	sw	zero,-20(s0)
    1858:	fe042423          	sw	zero,-24(s0)
    185c:	fe042223          	sw	zero,-28(s0)
    1860:	215000ef          	jal	ra,2274 <gettimeofday>
    1864:	00050793          	mv	a5,a0
    1868:	3e800593          	li	a1,1000
    186c:	00078513          	mv	a0,a5
    1870:	025000ef          	jal	ra,2094 <__udivsi3>
    1874:	00050793          	mv	a5,a0
    1878:	fef42023          	sw	a5,-32(s0)
    187c:	0f0010ef          	jal	ra,296c <readkey>
    1880:	00050793          	mv	a5,a0
    1884:	00078713          	mv	a4,a5
    1888:	07100793          	li	a5,113
    188c:	00f71663          	bne	a4,a5,1898 <exec_vtest+0x5c>
    1890:	339000ef          	jal	ra,23c8 <swtch>
    1894:	0580006f          	j	18ec <exec_vtest+0xb0>
    1898:	fe042703          	lw	a4,-32(s0)
    189c:	fec42783          	lw	a5,-20(s0)
    18a0:	40f70733          	sub	a4,a4,a5
    18a4:	02100793          	li	a5,33
    18a8:	02e7f063          	bgeu	a5,a4,18c8 <exec_vtest+0x8c>
    18ac:	d25ff0ef          	jal	ra,15d0 <update>
    18b0:	b79ff0ef          	jal	ra,1428 <redraw>
    18b4:	fe042783          	lw	a5,-32(s0)
    18b8:	fef42623          	sw	a5,-20(s0)
    18bc:	fe442783          	lw	a5,-28(s0)
    18c0:	00178793          	addi	a5,a5,1
    18c4:	fef42223          	sw	a5,-28(s0)
    18c8:	fe042703          	lw	a4,-32(s0)
    18cc:	fe842783          	lw	a5,-24(s0)
    18d0:	40f70733          	sub	a4,a4,a5
    18d4:	3e800793          	li	a5,1000
    18d8:	f8e7f4e3          	bgeu	a5,a4,1860 <exec_vtest+0x24>
    18dc:	fe042783          	lw	a5,-32(s0)
    18e0:	fef42423          	sw	a5,-24(s0)
    18e4:	fe042223          	sw	zero,-28(s0)
    18e8:	f79ff06f          	j	1860 <exec_vtest+0x24>
    18ec:	02c12083          	lw	ra,44(sp)
    18f0:	02812403          	lw	s0,40(sp)
    18f4:	03010113          	addi	sp,sp,48
    18f8:	00008067          	ret

000018fc <exec_devtest>:
    18fc:	fd010113          	addi	sp,sp,-48
    1900:	02112623          	sw	ra,44(sp)
    1904:	02812423          	sw	s0,40(sp)
    1908:	03010413          	addi	s0,sp,48
    190c:	fca42e23          	sw	a0,-36(s0)
    1910:	fe042623          	sw	zero,-20(s0)
    1914:	fe042423          	sw	zero,-24(s0)
    1918:	fe042223          	sw	zero,-28(s0)
    191c:	fec42703          	lw	a4,-20(s0)
    1920:	00100793          	li	a5,1
    1924:	04f70e63          	beq	a4,a5,1980 <exec_devtest+0x84>
    1928:	fec42703          	lw	a4,-20(s0)
    192c:	00100793          	li	a5,1
    1930:	00e7c863          	blt	a5,a4,1940 <exec_devtest+0x44>
    1934:	fec42783          	lw	a5,-20(s0)
    1938:	02078263          	beqz	a5,195c <exec_devtest+0x60>
    193c:	0b00006f          	j	19ec <exec_devtest+0xf0>
    1940:	fec42703          	lw	a4,-20(s0)
    1944:	00200793          	li	a5,2
    1948:	04f70e63          	beq	a4,a5,19a4 <exec_devtest+0xa8>
    194c:	fec42703          	lw	a4,-20(s0)
    1950:	00300793          	li	a5,3
    1954:	06f70a63          	beq	a4,a5,19c8 <exec_devtest+0xcc>
    1958:	0940006f          	j	19ec <exec_devtest+0xf0>
    195c:	fe842503          	lw	a0,-24(s0)
    1960:	03c010ef          	jal	ra,299c <get_sw>
    1964:	fea42223          	sw	a0,-28(s0)
    1968:	fe442603          	lw	a2,-28(s0)
    196c:	fe842583          	lw	a1,-24(s0)
    1970:	000fe517          	auipc	a0,0xfe
    1974:	69450513          	addi	a0,a0,1684 # 100004 <_etext+0xfd510>
    1978:	278000ef          	jal	ra,1bf0 <kprintf>
    197c:	0700006f          	j	19ec <exec_devtest+0xf0>
    1980:	fe842503          	lw	a0,-24(s0)
    1984:	06c010ef          	jal	ra,29f0 <get_button>
    1988:	fea42223          	sw	a0,-28(s0)
    198c:	fe442603          	lw	a2,-28(s0)
    1990:	fe842583          	lw	a1,-24(s0)
    1994:	000fe517          	auipc	a0,0xfe
    1998:	68450513          	addi	a0,a0,1668 # 100018 <_etext+0xfd524>
    199c:	254000ef          	jal	ra,1bf0 <kprintf>
    19a0:	04c0006f          	j	19ec <exec_devtest+0xf0>
    19a4:	fe842583          	lw	a1,-24(s0)
    19a8:	fe842503          	lw	a0,-24(s0)
    19ac:	098010ef          	jal	ra,2a44 <set_ledr>
    19b0:	fe842603          	lw	a2,-24(s0)
    19b4:	fe842583          	lw	a1,-24(s0)
    19b8:	000fe517          	auipc	a0,0xfe
    19bc:	67850513          	addi	a0,a0,1656 # 100030 <_etext+0xfd53c>
    19c0:	230000ef          	jal	ra,1bf0 <kprintf>
    19c4:	0280006f          	j	19ec <exec_devtest+0xf0>
    19c8:	fe842583          	lw	a1,-24(s0)
    19cc:	fe842503          	lw	a0,-24(s0)
    19d0:	0cc010ef          	jal	ra,2a9c <set_hex>
    19d4:	fe842603          	lw	a2,-24(s0)
    19d8:	fe842583          	lw	a1,-24(s0)
    19dc:	000fe517          	auipc	a0,0xfe
    19e0:	66850513          	addi	a0,a0,1640 # 100044 <_etext+0xfd550>
    19e4:	20c000ef          	jal	ra,1bf0 <kprintf>
    19e8:	00000013          	nop
    19ec:	fe842783          	lw	a5,-24(s0)
    19f0:	00178713          	addi	a4,a5,1
    19f4:	41f75793          	srai	a5,a4,0x1f
    19f8:	01e7d793          	srli	a5,a5,0x1e
    19fc:	00f70733          	add	a4,a4,a5
    1a00:	00377713          	andi	a4,a4,3
    1a04:	40f707b3          	sub	a5,a4,a5
    1a08:	fef42423          	sw	a5,-24(s0)
    1a0c:	001e87b7          	lui	a5,0x1e8
    1a10:	48078513          	addi	a0,a5,1152 # 1e8480 <_end+0xe3480>
    1a14:	205000ef          	jal	ra,2418 <sleep>
    1a18:	755000ef          	jal	ra,296c <readkey>
    1a1c:	00050793          	mv	a5,a0
    1a20:	fef42023          	sw	a5,-32(s0)
    1a24:	fe042703          	lw	a4,-32(s0)
    1a28:	07100793          	li	a5,113
    1a2c:	00f71663          	bne	a4,a5,1a38 <exec_devtest+0x13c>
    1a30:	fe042623          	sw	zero,-20(s0)
    1a34:	ee5ff06f          	j	1918 <exec_devtest+0x1c>
    1a38:	fe042703          	lw	a4,-32(s0)
    1a3c:	07700793          	li	a5,119
    1a40:	00f71863          	bne	a4,a5,1a50 <exec_devtest+0x154>
    1a44:	00100793          	li	a5,1
    1a48:	fef42623          	sw	a5,-20(s0)
    1a4c:	ecdff06f          	j	1918 <exec_devtest+0x1c>
    1a50:	fe042703          	lw	a4,-32(s0)
    1a54:	06500793          	li	a5,101
    1a58:	00f71863          	bne	a4,a5,1a68 <exec_devtest+0x16c>
    1a5c:	00200793          	li	a5,2
    1a60:	fef42623          	sw	a5,-20(s0)
    1a64:	eb5ff06f          	j	1918 <exec_devtest+0x1c>
    1a68:	fe042703          	lw	a4,-32(s0)
    1a6c:	07200793          	li	a5,114
    1a70:	00f71863          	bne	a4,a5,1a80 <exec_devtest+0x184>
    1a74:	00300793          	li	a5,3
    1a78:	fef42623          	sw	a5,-20(s0)
    1a7c:	e9dff06f          	j	1918 <exec_devtest+0x1c>
    1a80:	fe042703          	lw	a4,-32(s0)
    1a84:	07a00793          	li	a5,122
    1a88:	00f70463          	beq	a4,a5,1a90 <exec_devtest+0x194>
    1a8c:	e8dff06f          	j	1918 <exec_devtest+0x1c>
    1a90:	00000013          	nop
    1a94:	02c12083          	lw	ra,44(sp)
    1a98:	02812403          	lw	s0,40(sp)
    1a9c:	03010113          	addi	sp,sp,48
    1aa0:	00008067          	ret

00001aa4 <exec_time>:
    1aa4:	fe010113          	addi	sp,sp,-32
    1aa8:	00112e23          	sw	ra,28(sp)
    1aac:	00812c23          	sw	s0,24(sp)
    1ab0:	02010413          	addi	s0,sp,32
    1ab4:	fea42623          	sw	a0,-20(s0)
    1ab8:	7bc000ef          	jal	ra,2274 <gettimeofday>
    1abc:	00050793          	mv	a5,a0
    1ac0:	00078593          	mv	a1,a5
    1ac4:	000fe517          	auipc	a0,0xfe
    1ac8:	53c50513          	addi	a0,a0,1340 # 100000 <_etext+0xfd50c>
    1acc:	124000ef          	jal	ra,1bf0 <kprintf>
    1ad0:	00000013          	nop
    1ad4:	01c12083          	lw	ra,28(sp)
    1ad8:	01812403          	lw	s0,24(sp)
    1adc:	02010113          	addi	sp,sp,32
    1ae0:	00008067          	ret

00001ae4 <putu_>:
    1ae4:	fe010113          	addi	sp,sp,-32
    1ae8:	00112e23          	sw	ra,28(sp)
    1aec:	00812c23          	sw	s0,24(sp)
    1af0:	02010413          	addi	s0,sp,32
    1af4:	fea42623          	sw	a0,-20(s0)
    1af8:	fec42783          	lw	a5,-20(s0)
    1afc:	04078663          	beqz	a5,1b48 <putu_+0x64>
    1b00:	fec42783          	lw	a5,-20(s0)
    1b04:	00a00593          	li	a1,10
    1b08:	00078513          	mv	a0,a5
    1b0c:	588000ef          	jal	ra,2094 <__udivsi3>
    1b10:	00050793          	mv	a5,a0
    1b14:	00078513          	mv	a0,a5
    1b18:	fcdff0ef          	jal	ra,1ae4 <putu_>
    1b1c:	fec42783          	lw	a5,-20(s0)
    1b20:	00a00593          	li	a1,10
    1b24:	00078513          	mv	a0,a5
    1b28:	4b0000ef          	jal	ra,1fd8 <__umodsi3>
    1b2c:	00050793          	mv	a5,a0
    1b30:	0ff7f793          	andi	a5,a5,255
    1b34:	03078793          	addi	a5,a5,48
    1b38:	0ff7f793          	andi	a5,a5,255
    1b3c:	00078513          	mv	a0,a5
    1b40:	2f1000ef          	jal	ra,2630 <putch>
    1b44:	0080006f          	j	1b4c <putu_+0x68>
    1b48:	00000013          	nop
    1b4c:	01c12083          	lw	ra,28(sp)
    1b50:	01812403          	lw	s0,24(sp)
    1b54:	02010113          	addi	sp,sp,32
    1b58:	00008067          	ret

00001b5c <putu>:
    1b5c:	fe010113          	addi	sp,sp,-32
    1b60:	00112e23          	sw	ra,28(sp)
    1b64:	00812c23          	sw	s0,24(sp)
    1b68:	02010413          	addi	s0,sp,32
    1b6c:	fea42623          	sw	a0,-20(s0)
    1b70:	fec42783          	lw	a5,-20(s0)
    1b74:	00079863          	bnez	a5,1b84 <putu+0x28>
    1b78:	03000513          	li	a0,48
    1b7c:	2b5000ef          	jal	ra,2630 <putch>
    1b80:	00c0006f          	j	1b8c <putu+0x30>
    1b84:	fec42503          	lw	a0,-20(s0)
    1b88:	f5dff0ef          	jal	ra,1ae4 <putu_>
    1b8c:	00000013          	nop
    1b90:	01c12083          	lw	ra,28(sp)
    1b94:	01812403          	lw	s0,24(sp)
    1b98:	02010113          	addi	sp,sp,32
    1b9c:	00008067          	ret

00001ba0 <puti>:
    1ba0:	fe010113          	addi	sp,sp,-32
    1ba4:	00112e23          	sw	ra,28(sp)
    1ba8:	00812c23          	sw	s0,24(sp)
    1bac:	02010413          	addi	s0,sp,32
    1bb0:	fea42623          	sw	a0,-20(s0)
    1bb4:	fec42783          	lw	a5,-20(s0)
    1bb8:	0007dc63          	bgez	a5,1bd0 <puti+0x30>
    1bbc:	fec42783          	lw	a5,-20(s0)
    1bc0:	40f007b3          	neg	a5,a5
    1bc4:	fef42623          	sw	a5,-20(s0)
    1bc8:	02d00513          	li	a0,45
    1bcc:	265000ef          	jal	ra,2630 <putch>
    1bd0:	fec42783          	lw	a5,-20(s0)
    1bd4:	00078513          	mv	a0,a5
    1bd8:	f85ff0ef          	jal	ra,1b5c <putu>
    1bdc:	00000013          	nop
    1be0:	01c12083          	lw	ra,28(sp)
    1be4:	01812403          	lw	s0,24(sp)
    1be8:	02010113          	addi	sp,sp,32
    1bec:	00008067          	ret

00001bf0 <kprintf>:
    1bf0:	fb010113          	addi	sp,sp,-80
    1bf4:	02112623          	sw	ra,44(sp)
    1bf8:	02812423          	sw	s0,40(sp)
    1bfc:	03010413          	addi	s0,sp,48
    1c00:	fca42e23          	sw	a0,-36(s0)
    1c04:	00b42223          	sw	a1,4(s0)
    1c08:	00c42423          	sw	a2,8(s0)
    1c0c:	00d42623          	sw	a3,12(s0)
    1c10:	00e42823          	sw	a4,16(s0)
    1c14:	00f42a23          	sw	a5,20(s0)
    1c18:	01042c23          	sw	a6,24(s0)
    1c1c:	01142e23          	sw	a7,28(s0)
    1c20:	02040793          	addi	a5,s0,32
    1c24:	fe478793          	addi	a5,a5,-28
    1c28:	fef42423          	sw	a5,-24(s0)
    1c2c:	fdc42783          	lw	a5,-36(s0)
    1c30:	fef42623          	sw	a5,-20(s0)
    1c34:	1000006f          	j	1d34 <kprintf+0x144>
    1c38:	fec42783          	lw	a5,-20(s0)
    1c3c:	0007c703          	lbu	a4,0(a5)
    1c40:	02500793          	li	a5,37
    1c44:	00f70c63          	beq	a4,a5,1c5c <kprintf+0x6c>
    1c48:	fec42783          	lw	a5,-20(s0)
    1c4c:	0007c783          	lbu	a5,0(a5)
    1c50:	00078513          	mv	a0,a5
    1c54:	1dd000ef          	jal	ra,2630 <putch>
    1c58:	0d00006f          	j	1d28 <kprintf+0x138>
    1c5c:	fec42783          	lw	a5,-20(s0)
    1c60:	00178793          	addi	a5,a5,1
    1c64:	fef42623          	sw	a5,-20(s0)
    1c68:	fec42783          	lw	a5,-20(s0)
    1c6c:	0007c783          	lbu	a5,0(a5)
    1c70:	06400713          	li	a4,100
    1c74:	06e78e63          	beq	a5,a4,1cf0 <kprintf+0x100>
    1c78:	06400713          	li	a4,100
    1c7c:	00f74c63          	blt	a4,a5,1c94 <kprintf+0xa4>
    1c80:	02500713          	li	a4,37
    1c84:	02e78263          	beq	a5,a4,1ca8 <kprintf+0xb8>
    1c88:	06300713          	li	a4,99
    1c8c:	02e78463          	beq	a5,a4,1cb4 <kprintf+0xc4>
    1c90:	0980006f          	j	1d28 <kprintf+0x138>
    1c94:	07300713          	li	a4,115
    1c98:	06e78a63          	beq	a5,a4,1d0c <kprintf+0x11c>
    1c9c:	07500713          	li	a4,117
    1ca0:	02e78a63          	beq	a5,a4,1cd4 <kprintf+0xe4>
    1ca4:	0840006f          	j	1d28 <kprintf+0x138>
    1ca8:	02500513          	li	a0,37
    1cac:	185000ef          	jal	ra,2630 <putch>
    1cb0:	0780006f          	j	1d28 <kprintf+0x138>
    1cb4:	fe842783          	lw	a5,-24(s0)
    1cb8:	00478713          	addi	a4,a5,4
    1cbc:	fee42423          	sw	a4,-24(s0)
    1cc0:	0007a783          	lw	a5,0(a5)
    1cc4:	0ff7f793          	andi	a5,a5,255
    1cc8:	00078513          	mv	a0,a5
    1ccc:	165000ef          	jal	ra,2630 <putch>
    1cd0:	0580006f          	j	1d28 <kprintf+0x138>
    1cd4:	fe842783          	lw	a5,-24(s0)
    1cd8:	00478713          	addi	a4,a5,4
    1cdc:	fee42423          	sw	a4,-24(s0)
    1ce0:	0007a783          	lw	a5,0(a5)
    1ce4:	00078513          	mv	a0,a5
    1ce8:	e75ff0ef          	jal	ra,1b5c <putu>
    1cec:	03c0006f          	j	1d28 <kprintf+0x138>
    1cf0:	fe842783          	lw	a5,-24(s0)
    1cf4:	00478713          	addi	a4,a5,4
    1cf8:	fee42423          	sw	a4,-24(s0)
    1cfc:	0007a783          	lw	a5,0(a5)
    1d00:	00078513          	mv	a0,a5
    1d04:	e9dff0ef          	jal	ra,1ba0 <puti>
    1d08:	0200006f          	j	1d28 <kprintf+0x138>
    1d0c:	fe842783          	lw	a5,-24(s0)
    1d10:	00478713          	addi	a4,a5,4
    1d14:	fee42423          	sw	a4,-24(s0)
    1d18:	0007a783          	lw	a5,0(a5)
    1d1c:	00078513          	mv	a0,a5
    1d20:	3f1000ef          	jal	ra,2910 <putstr>
    1d24:	00000013          	nop
    1d28:	fec42783          	lw	a5,-20(s0)
    1d2c:	00178793          	addi	a5,a5,1
    1d30:	fef42623          	sw	a5,-20(s0)
    1d34:	fec42783          	lw	a5,-20(s0)
    1d38:	0007c783          	lbu	a5,0(a5)
    1d3c:	ee079ee3          	bnez	a5,1c38 <kprintf+0x48>
    1d40:	00000013          	nop
    1d44:	02c12083          	lw	ra,44(sp)
    1d48:	02812403          	lw	s0,40(sp)
    1d4c:	05010113          	addi	sp,sp,80
    1d50:	00008067          	ret

00001d54 <kputs>:
    1d54:	fe010113          	addi	sp,sp,-32
    1d58:	00112e23          	sw	ra,28(sp)
    1d5c:	00812c23          	sw	s0,24(sp)
    1d60:	02010413          	addi	s0,sp,32
    1d64:	fea42623          	sw	a0,-20(s0)
    1d68:	fec42503          	lw	a0,-20(s0)
    1d6c:	3a5000ef          	jal	ra,2910 <putstr>
    1d70:	00000013          	nop
    1d74:	01c12083          	lw	ra,28(sp)
    1d78:	01812403          	lw	s0,24(sp)
    1d7c:	02010113          	addi	sp,sp,32
    1d80:	00008067          	ret

00001d84 <kstrlen>:
    1d84:	fd010113          	addi	sp,sp,-48
    1d88:	02812623          	sw	s0,44(sp)
    1d8c:	03010413          	addi	s0,sp,48
    1d90:	fca42e23          	sw	a0,-36(s0)
    1d94:	fe042623          	sw	zero,-20(s0)
    1d98:	0100006f          	j	1da8 <kstrlen+0x24>
    1d9c:	fec42783          	lw	a5,-20(s0)
    1da0:	00178793          	addi	a5,a5,1
    1da4:	fef42623          	sw	a5,-20(s0)
    1da8:	fec42783          	lw	a5,-20(s0)
    1dac:	fdc42703          	lw	a4,-36(s0)
    1db0:	00f707b3          	add	a5,a4,a5
    1db4:	0007c783          	lbu	a5,0(a5)
    1db8:	fe0792e3          	bnez	a5,1d9c <kstrlen+0x18>
    1dbc:	fec42783          	lw	a5,-20(s0)
    1dc0:	00078513          	mv	a0,a5
    1dc4:	02c12403          	lw	s0,44(sp)
    1dc8:	03010113          	addi	sp,sp,48
    1dcc:	00008067          	ret

00001dd0 <kstrcmp>:
    1dd0:	fd010113          	addi	sp,sp,-48
    1dd4:	02812623          	sw	s0,44(sp)
    1dd8:	03010413          	addi	s0,sp,48
    1ddc:	fca42e23          	sw	a0,-36(s0)
    1de0:	fcb42c23          	sw	a1,-40(s0)
    1de4:	fdc42783          	lw	a5,-36(s0)
    1de8:	fef42623          	sw	a5,-20(s0)
    1dec:	fd842783          	lw	a5,-40(s0)
    1df0:	fef42423          	sw	a5,-24(s0)
    1df4:	01c0006f          	j	1e10 <kstrcmp+0x40>
    1df8:	fec42783          	lw	a5,-20(s0)
    1dfc:	00178793          	addi	a5,a5,1
    1e00:	fef42623          	sw	a5,-20(s0)
    1e04:	fe842783          	lw	a5,-24(s0)
    1e08:	00178793          	addi	a5,a5,1
    1e0c:	fef42423          	sw	a5,-24(s0)
    1e10:	fec42783          	lw	a5,-20(s0)
    1e14:	0007c703          	lbu	a4,0(a5)
    1e18:	fe842783          	lw	a5,-24(s0)
    1e1c:	0007c783          	lbu	a5,0(a5)
    1e20:	00f71e63          	bne	a4,a5,1e3c <kstrcmp+0x6c>
    1e24:	fec42783          	lw	a5,-20(s0)
    1e28:	0007c783          	lbu	a5,0(a5)
    1e2c:	00078863          	beqz	a5,1e3c <kstrcmp+0x6c>
    1e30:	fe842783          	lw	a5,-24(s0)
    1e34:	0007c783          	lbu	a5,0(a5)
    1e38:	fc0790e3          	bnez	a5,1df8 <kstrcmp+0x28>
    1e3c:	fec42783          	lw	a5,-20(s0)
    1e40:	0007c703          	lbu	a4,0(a5)
    1e44:	fe842783          	lw	a5,-24(s0)
    1e48:	0007c783          	lbu	a5,0(a5)
    1e4c:	00f71663          	bne	a4,a5,1e58 <kstrcmp+0x88>
    1e50:	00000793          	li	a5,0
    1e54:	0240006f          	j	1e78 <kstrcmp+0xa8>
    1e58:	fec42783          	lw	a5,-20(s0)
    1e5c:	0007c703          	lbu	a4,0(a5)
    1e60:	fe842783          	lw	a5,-24(s0)
    1e64:	0007c783          	lbu	a5,0(a5)
    1e68:	00e7f663          	bgeu	a5,a4,1e74 <kstrcmp+0xa4>
    1e6c:	00100793          	li	a5,1
    1e70:	0080006f          	j	1e78 <kstrcmp+0xa8>
    1e74:	fff00793          	li	a5,-1
    1e78:	00078513          	mv	a0,a5
    1e7c:	02c12403          	lw	s0,44(sp)
    1e80:	03010113          	addi	sp,sp,48
    1e84:	00008067          	ret

00001e88 <kstrncmp>:
    1e88:	fd010113          	addi	sp,sp,-48
    1e8c:	02812623          	sw	s0,44(sp)
    1e90:	03010413          	addi	s0,sp,48
    1e94:	fca42e23          	sw	a0,-36(s0)
    1e98:	fcb42c23          	sw	a1,-40(s0)
    1e9c:	fcc42a23          	sw	a2,-44(s0)
    1ea0:	fe042623          	sw	zero,-20(s0)
    1ea4:	fdc42783          	lw	a5,-36(s0)
    1ea8:	fef42423          	sw	a5,-24(s0)
    1eac:	fd842783          	lw	a5,-40(s0)
    1eb0:	fef42223          	sw	a5,-28(s0)
    1eb4:	0280006f          	j	1edc <kstrncmp+0x54>
    1eb8:	fe842783          	lw	a5,-24(s0)
    1ebc:	00178793          	addi	a5,a5,1
    1ec0:	fef42423          	sw	a5,-24(s0)
    1ec4:	fe442783          	lw	a5,-28(s0)
    1ec8:	00178793          	addi	a5,a5,1
    1ecc:	fef42223          	sw	a5,-28(s0)
    1ed0:	fec42783          	lw	a5,-20(s0)
    1ed4:	00178793          	addi	a5,a5,1
    1ed8:	fef42623          	sw	a5,-20(s0)
    1edc:	fe842783          	lw	a5,-24(s0)
    1ee0:	0007c703          	lbu	a4,0(a5)
    1ee4:	fe442783          	lw	a5,-28(s0)
    1ee8:	0007c783          	lbu	a5,0(a5)
    1eec:	02f71463          	bne	a4,a5,1f14 <kstrncmp+0x8c>
    1ef0:	fe842783          	lw	a5,-24(s0)
    1ef4:	0007c783          	lbu	a5,0(a5)
    1ef8:	00078e63          	beqz	a5,1f14 <kstrncmp+0x8c>
    1efc:	fe442783          	lw	a5,-28(s0)
    1f00:	0007c783          	lbu	a5,0(a5)
    1f04:	00078863          	beqz	a5,1f14 <kstrncmp+0x8c>
    1f08:	fec42703          	lw	a4,-20(s0)
    1f0c:	fd442783          	lw	a5,-44(s0)
    1f10:	faf744e3          	blt	a4,a5,1eb8 <kstrncmp+0x30>
    1f14:	fe842783          	lw	a5,-24(s0)
    1f18:	0007c703          	lbu	a4,0(a5)
    1f1c:	fe442783          	lw	a5,-28(s0)
    1f20:	0007c783          	lbu	a5,0(a5)
    1f24:	00f70863          	beq	a4,a5,1f34 <kstrncmp+0xac>
    1f28:	fec42703          	lw	a4,-20(s0)
    1f2c:	fd442783          	lw	a5,-44(s0)
    1f30:	00f71663          	bne	a4,a5,1f3c <kstrncmp+0xb4>
    1f34:	00000793          	li	a5,0
    1f38:	0240006f          	j	1f5c <kstrncmp+0xd4>
    1f3c:	fe842783          	lw	a5,-24(s0)
    1f40:	0007c703          	lbu	a4,0(a5)
    1f44:	fe442783          	lw	a5,-28(s0)
    1f48:	0007c783          	lbu	a5,0(a5)
    1f4c:	00e7f663          	bgeu	a5,a4,1f58 <kstrncmp+0xd0>
    1f50:	00100793          	li	a5,1
    1f54:	0080006f          	j	1f5c <kstrncmp+0xd4>
    1f58:	fff00793          	li	a5,-1
    1f5c:	00078513          	mv	a0,a5
    1f60:	02c12403          	lw	s0,44(sp)
    1f64:	03010113          	addi	sp,sp,48
    1f68:	00008067          	ret

00001f6c <__mulsi3>:
    1f6c:	fd010113          	addi	sp,sp,-48
    1f70:	02812623          	sw	s0,44(sp)
    1f74:	03010413          	addi	s0,sp,48
    1f78:	fca42e23          	sw	a0,-36(s0)
    1f7c:	fcb42c23          	sw	a1,-40(s0)
    1f80:	fe042623          	sw	zero,-20(s0)
    1f84:	0380006f          	j	1fbc <__mulsi3+0x50>
    1f88:	fdc42783          	lw	a5,-36(s0)
    1f8c:	0017f793          	andi	a5,a5,1
    1f90:	00078a63          	beqz	a5,1fa4 <__mulsi3+0x38>
    1f94:	fec42703          	lw	a4,-20(s0)
    1f98:	fd842783          	lw	a5,-40(s0)
    1f9c:	00f707b3          	add	a5,a4,a5
    1fa0:	fef42623          	sw	a5,-20(s0)
    1fa4:	fdc42783          	lw	a5,-36(s0)
    1fa8:	0017d793          	srli	a5,a5,0x1
    1fac:	fcf42e23          	sw	a5,-36(s0)
    1fb0:	fd842783          	lw	a5,-40(s0)
    1fb4:	00179793          	slli	a5,a5,0x1
    1fb8:	fcf42c23          	sw	a5,-40(s0)
    1fbc:	fdc42783          	lw	a5,-36(s0)
    1fc0:	fc0794e3          	bnez	a5,1f88 <__mulsi3+0x1c>
    1fc4:	fec42783          	lw	a5,-20(s0)
    1fc8:	00078513          	mv	a0,a5
    1fcc:	02c12403          	lw	s0,44(sp)
    1fd0:	03010113          	addi	sp,sp,48
    1fd4:	00008067          	ret

00001fd8 <__umodsi3>:
    1fd8:	fd010113          	addi	sp,sp,-48
    1fdc:	02812623          	sw	s0,44(sp)
    1fe0:	03010413          	addi	s0,sp,48
    1fe4:	fca42e23          	sw	a0,-36(s0)
    1fe8:	fcb42c23          	sw	a1,-40(s0)
    1fec:	00100793          	li	a5,1
    1ff0:	fef42623          	sw	a5,-20(s0)
    1ff4:	fe042423          	sw	zero,-24(s0)
    1ff8:	01c0006f          	j	2014 <__umodsi3+0x3c>
    1ffc:	fd842783          	lw	a5,-40(s0)
    2000:	00179793          	slli	a5,a5,0x1
    2004:	fcf42c23          	sw	a5,-40(s0)
    2008:	fec42783          	lw	a5,-20(s0)
    200c:	00179793          	slli	a5,a5,0x1
    2010:	fef42623          	sw	a5,-20(s0)
    2014:	fd842703          	lw	a4,-40(s0)
    2018:	fdc42783          	lw	a5,-36(s0)
    201c:	04f77e63          	bgeu	a4,a5,2078 <__umodsi3+0xa0>
    2020:	fec42783          	lw	a5,-20(s0)
    2024:	04078a63          	beqz	a5,2078 <__umodsi3+0xa0>
    2028:	fd842783          	lw	a5,-40(s0)
    202c:	fc07d8e3          	bgez	a5,1ffc <__umodsi3+0x24>
    2030:	0480006f          	j	2078 <__umodsi3+0xa0>
    2034:	fdc42703          	lw	a4,-36(s0)
    2038:	fd842783          	lw	a5,-40(s0)
    203c:	02f76263          	bltu	a4,a5,2060 <__umodsi3+0x88>
    2040:	fdc42703          	lw	a4,-36(s0)
    2044:	fd842783          	lw	a5,-40(s0)
    2048:	40f707b3          	sub	a5,a4,a5
    204c:	fcf42e23          	sw	a5,-36(s0)
    2050:	fe842703          	lw	a4,-24(s0)
    2054:	fec42783          	lw	a5,-20(s0)
    2058:	00f767b3          	or	a5,a4,a5
    205c:	fef42423          	sw	a5,-24(s0)
    2060:	fec42783          	lw	a5,-20(s0)
    2064:	0017d793          	srli	a5,a5,0x1
    2068:	fef42623          	sw	a5,-20(s0)
    206c:	fd842783          	lw	a5,-40(s0)
    2070:	0017d793          	srli	a5,a5,0x1
    2074:	fcf42c23          	sw	a5,-40(s0)
    2078:	fec42783          	lw	a5,-20(s0)
    207c:	fa079ce3          	bnez	a5,2034 <__umodsi3+0x5c>
    2080:	fdc42783          	lw	a5,-36(s0)
    2084:	00078513          	mv	a0,a5
    2088:	02c12403          	lw	s0,44(sp)
    208c:	03010113          	addi	sp,sp,48
    2090:	00008067          	ret

00002094 <__udivsi3>:
    2094:	fd010113          	addi	sp,sp,-48
    2098:	02812623          	sw	s0,44(sp)
    209c:	03010413          	addi	s0,sp,48
    20a0:	fca42e23          	sw	a0,-36(s0)
    20a4:	fcb42c23          	sw	a1,-40(s0)
    20a8:	00100793          	li	a5,1
    20ac:	fef42623          	sw	a5,-20(s0)
    20b0:	fe042423          	sw	zero,-24(s0)
    20b4:	01c0006f          	j	20d0 <__udivsi3+0x3c>
    20b8:	fd842783          	lw	a5,-40(s0)
    20bc:	00179793          	slli	a5,a5,0x1
    20c0:	fcf42c23          	sw	a5,-40(s0)
    20c4:	fec42783          	lw	a5,-20(s0)
    20c8:	00179793          	slli	a5,a5,0x1
    20cc:	fef42623          	sw	a5,-20(s0)
    20d0:	fd842703          	lw	a4,-40(s0)
    20d4:	fdc42783          	lw	a5,-36(s0)
    20d8:	04f77e63          	bgeu	a4,a5,2134 <__udivsi3+0xa0>
    20dc:	fec42783          	lw	a5,-20(s0)
    20e0:	04078a63          	beqz	a5,2134 <__udivsi3+0xa0>
    20e4:	fd842783          	lw	a5,-40(s0)
    20e8:	fc07d8e3          	bgez	a5,20b8 <__udivsi3+0x24>
    20ec:	0480006f          	j	2134 <__udivsi3+0xa0>
    20f0:	fdc42703          	lw	a4,-36(s0)
    20f4:	fd842783          	lw	a5,-40(s0)
    20f8:	02f76263          	bltu	a4,a5,211c <__udivsi3+0x88>
    20fc:	fdc42703          	lw	a4,-36(s0)
    2100:	fd842783          	lw	a5,-40(s0)
    2104:	40f707b3          	sub	a5,a4,a5
    2108:	fcf42e23          	sw	a5,-36(s0)
    210c:	fe842703          	lw	a4,-24(s0)
    2110:	fec42783          	lw	a5,-20(s0)
    2114:	00f767b3          	or	a5,a4,a5
    2118:	fef42423          	sw	a5,-24(s0)
    211c:	fec42783          	lw	a5,-20(s0)
    2120:	0017d793          	srli	a5,a5,0x1
    2124:	fef42623          	sw	a5,-20(s0)
    2128:	fd842783          	lw	a5,-40(s0)
    212c:	0017d793          	srli	a5,a5,0x1
    2130:	fcf42c23          	sw	a5,-40(s0)
    2134:	fec42783          	lw	a5,-20(s0)
    2138:	fa079ce3          	bnez	a5,20f0 <__udivsi3+0x5c>
    213c:	fe842783          	lw	a5,-24(s0)
    2140:	00078513          	mv	a0,a5
    2144:	02c12403          	lw	s0,44(sp)
    2148:	03010113          	addi	sp,sp,48
    214c:	00008067          	ret

00002150 <__divsi3>:
    2150:	fe010113          	addi	sp,sp,-32
    2154:	00112e23          	sw	ra,28(sp)
    2158:	00812c23          	sw	s0,24(sp)
    215c:	02010413          	addi	s0,sp,32
    2160:	fea42623          	sw	a0,-20(s0)
    2164:	feb42423          	sw	a1,-24(s0)
    2168:	fec42783          	lw	a5,-20(s0)
    216c:	00078663          	beqz	a5,2178 <__divsi3+0x28>
    2170:	fe842783          	lw	a5,-24(s0)
    2174:	00079663          	bnez	a5,2180 <__divsi3+0x30>
    2178:	00000793          	li	a5,0
    217c:	0840006f          	j	2200 <__divsi3+0xb0>
    2180:	fec42783          	lw	a5,-20(s0)
    2184:	0207d463          	bgez	a5,21ac <__divsi3+0x5c>
    2188:	fe842783          	lw	a5,-24(s0)
    218c:	0207d063          	bgez	a5,21ac <__divsi3+0x5c>
    2190:	fec42783          	lw	a5,-20(s0)
    2194:	40f007b3          	neg	a5,a5
    2198:	fef42623          	sw	a5,-20(s0)
    219c:	fe842783          	lw	a5,-24(s0)
    21a0:	40f007b3          	neg	a5,a5
    21a4:	fef42423          	sw	a5,-24(s0)
    21a8:	0400006f          	j	21e8 <__divsi3+0x98>
    21ac:	fec42783          	lw	a5,-20(s0)
    21b0:	00f05e63          	blez	a5,21cc <__divsi3+0x7c>
    21b4:	fe842783          	lw	a5,-24(s0)
    21b8:	0007da63          	bgez	a5,21cc <__divsi3+0x7c>
    21bc:	fe842783          	lw	a5,-24(s0)
    21c0:	40f007b3          	neg	a5,a5
    21c4:	fef42423          	sw	a5,-24(s0)
    21c8:	0200006f          	j	21e8 <__divsi3+0x98>
    21cc:	fec42783          	lw	a5,-20(s0)
    21d0:	0007dc63          	bgez	a5,21e8 <__divsi3+0x98>
    21d4:	fe842783          	lw	a5,-24(s0)
    21d8:	00f05863          	blez	a5,21e8 <__divsi3+0x98>
    21dc:	fec42783          	lw	a5,-20(s0)
    21e0:	40f007b3          	neg	a5,a5
    21e4:	fef42623          	sw	a5,-20(s0)
    21e8:	fec42783          	lw	a5,-20(s0)
    21ec:	fe842703          	lw	a4,-24(s0)
    21f0:	00070593          	mv	a1,a4
    21f4:	00078513          	mv	a0,a5
    21f8:	e9dff0ef          	jal	ra,2094 <__udivsi3>
    21fc:	00050793          	mv	a5,a0
    2200:	00078513          	mv	a0,a5
    2204:	01c12083          	lw	ra,28(sp)
    2208:	01812403          	lw	s0,24(sp)
    220c:	02010113          	addi	sp,sp,32
    2210:	00008067          	ret

00002214 <__modsi3>:
    2214:	fd010113          	addi	sp,sp,-48
    2218:	02112623          	sw	ra,44(sp)
    221c:	02812423          	sw	s0,40(sp)
    2220:	03010413          	addi	s0,sp,48
    2224:	fca42e23          	sw	a0,-36(s0)
    2228:	fcb42c23          	sw	a1,-40(s0)
    222c:	fd842583          	lw	a1,-40(s0)
    2230:	fdc42503          	lw	a0,-36(s0)
    2234:	f1dff0ef          	jal	ra,2150 <__divsi3>
    2238:	fea42623          	sw	a0,-20(s0)
    223c:	fd842783          	lw	a5,-40(s0)
    2240:	fec42703          	lw	a4,-20(s0)
    2244:	00070593          	mv	a1,a4
    2248:	00078513          	mv	a0,a5
    224c:	d21ff0ef          	jal	ra,1f6c <__mulsi3>
    2250:	00050793          	mv	a5,a0
    2254:	00078713          	mv	a4,a5
    2258:	fdc42783          	lw	a5,-36(s0)
    225c:	40e787b3          	sub	a5,a5,a4
    2260:	00078513          	mv	a0,a5
    2264:	02c12083          	lw	ra,44(sp)
    2268:	02812403          	lw	s0,40(sp)
    226c:	03010113          	addi	sp,sp,48
    2270:	00008067          	ret

00002274 <gettimeofday>:
    2274:	ff010113          	addi	sp,sp,-16
    2278:	00812623          	sw	s0,12(sp)
    227c:	01010413          	addi	s0,sp,16
    2280:	000fe797          	auipc	a5,0xfe
    2284:	25478793          	addi	a5,a5,596 # 1004d4 <_data>
    2288:	0007a783          	lw	a5,0(a5)
    228c:	0007a783          	lw	a5,0(a5)
    2290:	00078513          	mv	a0,a5
    2294:	00c12403          	lw	s0,12(sp)
    2298:	01010113          	addi	sp,sp,16
    229c:	00008067          	ret

000022a0 <draw>:
    22a0:	fe010113          	addi	sp,sp,-32
    22a4:	00812e23          	sw	s0,28(sp)
    22a8:	02010413          	addi	s0,sp,32
    22ac:	fea42623          	sw	a0,-20(s0)
    22b0:	feb42423          	sw	a1,-24(s0)
    22b4:	fec42223          	sw	a2,-28(s0)
    22b8:	fe842783          	lw	a5,-24(s0)
    22bc:	00779713          	slli	a4,a5,0x7
    22c0:	fec42783          	lw	a5,-20(s0)
    22c4:	00f70733          	add	a4,a4,a5
    22c8:	006007b7          	lui	a5,0x600
    22cc:	00f707b3          	add	a5,a4,a5
    22d0:	00078713          	mv	a4,a5
    22d4:	fe442783          	lw	a5,-28(s0)
    22d8:	00f72023          	sw	a5,0(a4)
    22dc:	00000013          	nop
    22e0:	01c12403          	lw	s0,28(sp)
    22e4:	02010113          	addi	sp,sp,32
    22e8:	00008067          	ret

000022ec <draw_rect>:
    22ec:	fc010113          	addi	sp,sp,-64
    22f0:	02112e23          	sw	ra,60(sp)
    22f4:	02812c23          	sw	s0,56(sp)
    22f8:	02912a23          	sw	s1,52(sp)
    22fc:	03212823          	sw	s2,48(sp)
    2300:	04010413          	addi	s0,sp,64
    2304:	fca42e23          	sw	a0,-36(s0)
    2308:	fcb42c23          	sw	a1,-40(s0)
    230c:	fcc42a23          	sw	a2,-44(s0)
    2310:	fcd42823          	sw	a3,-48(s0)
    2314:	fce42623          	sw	a4,-52(s0)
    2318:	fe042623          	sw	zero,-20(s0)
    231c:	0840006f          	j	23a0 <draw_rect+0xb4>
    2320:	fe042423          	sw	zero,-24(s0)
    2324:	0640006f          	j	2388 <draw_rect+0x9c>
    2328:	fd842703          	lw	a4,-40(s0)
    232c:	fec42783          	lw	a5,-20(s0)
    2330:	00f704b3          	add	s1,a4,a5
    2334:	fdc42703          	lw	a4,-36(s0)
    2338:	fe842783          	lw	a5,-24(s0)
    233c:	00f70933          	add	s2,a4,a5
    2340:	fd042583          	lw	a1,-48(s0)
    2344:	fec42503          	lw	a0,-20(s0)
    2348:	c25ff0ef          	jal	ra,1f6c <__mulsi3>
    234c:	00050793          	mv	a5,a0
    2350:	00078713          	mv	a4,a5
    2354:	fe842783          	lw	a5,-24(s0)
    2358:	00f707b3          	add	a5,a4,a5
    235c:	00279793          	slli	a5,a5,0x2
    2360:	fd442703          	lw	a4,-44(s0)
    2364:	00f707b3          	add	a5,a4,a5
    2368:	0007a783          	lw	a5,0(a5) # 600000 <_end+0x4fb000>
    236c:	00078613          	mv	a2,a5
    2370:	00090593          	mv	a1,s2
    2374:	00048513          	mv	a0,s1
    2378:	f29ff0ef          	jal	ra,22a0 <draw>
    237c:	fe842783          	lw	a5,-24(s0)
    2380:	00178793          	addi	a5,a5,1
    2384:	fef42423          	sw	a5,-24(s0)
    2388:	fe842703          	lw	a4,-24(s0)
    238c:	fd042783          	lw	a5,-48(s0)
    2390:	f8f74ce3          	blt	a4,a5,2328 <draw_rect+0x3c>
    2394:	fec42783          	lw	a5,-20(s0)
    2398:	00178793          	addi	a5,a5,1
    239c:	fef42623          	sw	a5,-20(s0)
    23a0:	fec42703          	lw	a4,-20(s0)
    23a4:	fcc42783          	lw	a5,-52(s0)
    23a8:	f6f74ce3          	blt	a4,a5,2320 <draw_rect+0x34>
    23ac:	00000013          	nop
    23b0:	03c12083          	lw	ra,60(sp)
    23b4:	03812403          	lw	s0,56(sp)
    23b8:	03412483          	lw	s1,52(sp)
    23bc:	03012903          	lw	s2,48(sp)
    23c0:	04010113          	addi	sp,sp,64
    23c4:	00008067          	ret

000023c8 <swtch>:
    23c8:	ff010113          	addi	sp,sp,-16
    23cc:	00812623          	sw	s0,12(sp)
    23d0:	01010413          	addi	s0,sp,16
    23d4:	00102797          	auipc	a5,0x102
    23d8:	95c78793          	addi	a5,a5,-1700 # 103d30 <ascii_or_pixel.1582>
    23dc:	0007a783          	lw	a5,0(a5)
    23e0:	0017c713          	xori	a4,a5,1
    23e4:	00102797          	auipc	a5,0x102
    23e8:	94c78793          	addi	a5,a5,-1716 # 103d30 <ascii_or_pixel.1582>
    23ec:	00e7a023          	sw	a4,0(a5)
    23f0:	005007b7          	lui	a5,0x500
    23f4:	01078793          	addi	a5,a5,16 # 500010 <_end+0x3fb010>
    23f8:	00102717          	auipc	a4,0x102
    23fc:	93870713          	addi	a4,a4,-1736 # 103d30 <ascii_or_pixel.1582>
    2400:	00072703          	lw	a4,0(a4)
    2404:	00e7a023          	sw	a4,0(a5)
    2408:	00000013          	nop
    240c:	00c12403          	lw	s0,12(sp)
    2410:	01010113          	addi	sp,sp,16
    2414:	00008067          	ret

00002418 <sleep>:
    2418:	fd010113          	addi	sp,sp,-48
    241c:	02112623          	sw	ra,44(sp)
    2420:	02812423          	sw	s0,40(sp)
    2424:	03010413          	addi	s0,sp,48
    2428:	fca42e23          	sw	a0,-36(s0)
    242c:	e49ff0ef          	jal	ra,2274 <gettimeofday>
    2430:	fea42623          	sw	a0,-20(s0)
    2434:	00000013          	nop
    2438:	e3dff0ef          	jal	ra,2274 <gettimeofday>
    243c:	00050713          	mv	a4,a0
    2440:	fec42783          	lw	a5,-20(s0)
    2444:	40f707b3          	sub	a5,a4,a5
    2448:	fdc42703          	lw	a4,-36(s0)
    244c:	fef766e3          	bltu	a4,a5,2438 <sleep+0x20>
    2450:	00000013          	nop
    2454:	02c12083          	lw	ra,44(sp)
    2458:	02812403          	lw	s0,40(sp)
    245c:	03010113          	addi	sp,sp,48
    2460:	00008067          	ret

00002464 <vga_init>:
    2464:	fe010113          	addi	sp,sp,-32
    2468:	00812e23          	sw	s0,28(sp)
    246c:	02010413          	addi	s0,sp,32
    2470:	00102797          	auipc	a5,0x102
    2474:	8cc78793          	addi	a5,a5,-1844 # 103d3c <vga_line>
    2478:	0007a023          	sw	zero,0(a5)
    247c:	00102797          	auipc	a5,0x102
    2480:	8c478793          	addi	a5,a5,-1852 # 103d40 <vga_ch>
    2484:	0007a023          	sw	zero,0(a5)
    2488:	fe042623          	sw	zero,-20(s0)
    248c:	0680006f          	j	24f4 <vga_init+0x90>
    2490:	fe042423          	sw	zero,-24(s0)
    2494:	0480006f          	j	24dc <vga_init+0x78>
    2498:	000fe797          	auipc	a5,0xfe
    249c:	04478793          	addi	a5,a5,68 # 1004dc <vga_start>
    24a0:	0007a783          	lw	a5,0(a5)
    24a4:	000fe717          	auipc	a4,0xfe
    24a8:	03c70713          	addi	a4,a4,60 # 1004e0 <start_line>
    24ac:	00072703          	lw	a4,0(a4)
    24b0:	00072683          	lw	a3,0(a4)
    24b4:	fec42703          	lw	a4,-20(s0)
    24b8:	00e68733          	add	a4,a3,a4
    24bc:	00771693          	slli	a3,a4,0x7
    24c0:	fe842703          	lw	a4,-24(s0)
    24c4:	00e68733          	add	a4,a3,a4
    24c8:	00e787b3          	add	a5,a5,a4
    24cc:	00078023          	sb	zero,0(a5)
    24d0:	fe842783          	lw	a5,-24(s0)
    24d4:	00178793          	addi	a5,a5,1
    24d8:	fef42423          	sw	a5,-24(s0)
    24dc:	fe842703          	lw	a4,-24(s0)
    24e0:	04500793          	li	a5,69
    24e4:	fae7dae3          	bge	a5,a4,2498 <vga_init+0x34>
    24e8:	fec42783          	lw	a5,-20(s0)
    24ec:	00178793          	addi	a5,a5,1
    24f0:	fef42623          	sw	a5,-20(s0)
    24f4:	fec42703          	lw	a4,-20(s0)
    24f8:	01d00793          	li	a5,29
    24fc:	f8e7dae3          	bge	a5,a4,2490 <vga_init+0x2c>
    2500:	00000013          	nop
    2504:	01c12403          	lw	s0,28(sp)
    2508:	02010113          	addi	sp,sp,32
    250c:	00008067          	ret

00002510 <vga_roll>:
    2510:	fe010113          	addi	sp,sp,-32
    2514:	00812e23          	sw	s0,28(sp)
    2518:	02010413          	addi	s0,sp,32
    251c:	000fe797          	auipc	a5,0xfe
    2520:	fc478793          	addi	a5,a5,-60 # 1004e0 <start_line>
    2524:	0007a783          	lw	a5,0(a5)
    2528:	0007a703          	lw	a4,0(a5)
    252c:	00170713          	addi	a4,a4,1
    2530:	00e7a023          	sw	a4,0(a5)
    2534:	fe042623          	sw	zero,-20(s0)
    2538:	0440006f          	j	257c <vga_roll+0x6c>
    253c:	000fe797          	auipc	a5,0xfe
    2540:	fa078793          	addi	a5,a5,-96 # 1004dc <vga_start>
    2544:	0007a783          	lw	a5,0(a5)
    2548:	000fe717          	auipc	a4,0xfe
    254c:	f9870713          	addi	a4,a4,-104 # 1004e0 <start_line>
    2550:	00072703          	lw	a4,0(a4)
    2554:	00072703          	lw	a4,0(a4)
    2558:	01d70713          	addi	a4,a4,29
    255c:	00771693          	slli	a3,a4,0x7
    2560:	fec42703          	lw	a4,-20(s0)
    2564:	00e68733          	add	a4,a3,a4
    2568:	00e787b3          	add	a5,a5,a4
    256c:	00078023          	sb	zero,0(a5)
    2570:	fec42783          	lw	a5,-20(s0)
    2574:	00178793          	addi	a5,a5,1
    2578:	fef42623          	sw	a5,-20(s0)
    257c:	fec42703          	lw	a4,-20(s0)
    2580:	04500793          	li	a5,69
    2584:	fae7dce3          	bge	a5,a4,253c <vga_roll+0x2c>
    2588:	00000013          	nop
    258c:	01c12403          	lw	s0,28(sp)
    2590:	02010113          	addi	sp,sp,32
    2594:	00008067          	ret

00002598 <blink>:
    2598:	ff010113          	addi	sp,sp,-16
    259c:	00812623          	sw	s0,12(sp)
    25a0:	01010413          	addi	s0,sp,16
    25a4:	00101797          	auipc	a5,0x101
    25a8:	79078793          	addi	a5,a5,1936 # 103d34 <ch.1608>
    25ac:	0007c783          	lbu	a5,0(a5)
    25b0:	00079663          	bnez	a5,25bc <blink+0x24>
    25b4:	0ff00793          	li	a5,255
    25b8:	0080006f          	j	25c0 <blink+0x28>
    25bc:	00000793          	li	a5,0
    25c0:	00101717          	auipc	a4,0x101
    25c4:	77470713          	addi	a4,a4,1908 # 103d34 <ch.1608>
    25c8:	00f70023          	sb	a5,0(a4)
    25cc:	000fe797          	auipc	a5,0xfe
    25d0:	f1078793          	addi	a5,a5,-240 # 1004dc <vga_start>
    25d4:	0007a783          	lw	a5,0(a5)
    25d8:	000fe717          	auipc	a4,0xfe
    25dc:	f0870713          	addi	a4,a4,-248 # 1004e0 <start_line>
    25e0:	00072703          	lw	a4,0(a4)
    25e4:	00072683          	lw	a3,0(a4)
    25e8:	00101717          	auipc	a4,0x101
    25ec:	75470713          	addi	a4,a4,1876 # 103d3c <vga_line>
    25f0:	00072703          	lw	a4,0(a4)
    25f4:	00e68733          	add	a4,a3,a4
    25f8:	00771693          	slli	a3,a4,0x7
    25fc:	00101717          	auipc	a4,0x101
    2600:	74470713          	addi	a4,a4,1860 # 103d40 <vga_ch>
    2604:	00072703          	lw	a4,0(a4)
    2608:	00e68733          	add	a4,a3,a4
    260c:	00e787b3          	add	a5,a5,a4
    2610:	00101717          	auipc	a4,0x101
    2614:	72470713          	addi	a4,a4,1828 # 103d34 <ch.1608>
    2618:	00074703          	lbu	a4,0(a4)
    261c:	00e78023          	sb	a4,0(a5)
    2620:	00000013          	nop
    2624:	00c12403          	lw	s0,12(sp)
    2628:	01010113          	addi	sp,sp,16
    262c:	00008067          	ret

00002630 <putch>:
    2630:	fe010113          	addi	sp,sp,-32
    2634:	00112e23          	sw	ra,28(sp)
    2638:	00812c23          	sw	s0,24(sp)
    263c:	02010413          	addi	s0,sp,32
    2640:	00050793          	mv	a5,a0
    2644:	fef407a3          	sb	a5,-17(s0)
    2648:	fef44703          	lbu	a4,-17(s0)
    264c:	00a00793          	li	a5,10
    2650:	00f71663          	bne	a4,a5,265c <putch+0x2c>
    2654:	00d00793          	li	a5,13
    2658:	fef407a3          	sb	a5,-17(s0)
    265c:	fef44783          	lbu	a5,-17(s0)
    2660:	00800713          	li	a4,8
    2664:	00e78863          	beq	a5,a4,2674 <putch+0x44>
    2668:	00d00713          	li	a4,13
    266c:	10e78c63          	beq	a5,a4,2784 <putch+0x154>
    2670:	1b00006f          	j	2820 <putch+0x1f0>
    2674:	00101797          	auipc	a5,0x101
    2678:	6c878793          	addi	a5,a5,1736 # 103d3c <vga_line>
    267c:	0007a783          	lw	a5,0(a5)
    2680:	00079a63          	bnez	a5,2694 <putch+0x64>
    2684:	00101797          	auipc	a5,0x101
    2688:	6bc78793          	addi	a5,a5,1724 # 103d40 <vga_ch>
    268c:	0007a783          	lw	a5,0(a5)
    2690:	26078063          	beqz	a5,28f0 <putch+0x2c0>
    2694:	000fe797          	auipc	a5,0xfe
    2698:	e4878793          	addi	a5,a5,-440 # 1004dc <vga_start>
    269c:	0007a783          	lw	a5,0(a5)
    26a0:	000fe717          	auipc	a4,0xfe
    26a4:	e4070713          	addi	a4,a4,-448 # 1004e0 <start_line>
    26a8:	00072703          	lw	a4,0(a4)
    26ac:	00072683          	lw	a3,0(a4)
    26b0:	00101717          	auipc	a4,0x101
    26b4:	68c70713          	addi	a4,a4,1676 # 103d3c <vga_line>
    26b8:	00072703          	lw	a4,0(a4)
    26bc:	00e68733          	add	a4,a3,a4
    26c0:	00771693          	slli	a3,a4,0x7
    26c4:	00101717          	auipc	a4,0x101
    26c8:	67c70713          	addi	a4,a4,1660 # 103d40 <vga_ch>
    26cc:	00072703          	lw	a4,0(a4)
    26d0:	00e68733          	add	a4,a3,a4
    26d4:	00e787b3          	add	a5,a5,a4
    26d8:	00078023          	sb	zero,0(a5)
    26dc:	00101797          	auipc	a5,0x101
    26e0:	66478793          	addi	a5,a5,1636 # 103d40 <vga_ch>
    26e4:	0007a783          	lw	a5,0(a5)
    26e8:	02079a63          	bnez	a5,271c <putch+0xec>
    26ec:	00101797          	auipc	a5,0x101
    26f0:	65078793          	addi	a5,a5,1616 # 103d3c <vga_line>
    26f4:	0007a783          	lw	a5,0(a5)
    26f8:	fff78713          	addi	a4,a5,-1
    26fc:	00101797          	auipc	a5,0x101
    2700:	64078793          	addi	a5,a5,1600 # 103d3c <vga_line>
    2704:	00e7a023          	sw	a4,0(a5)
    2708:	00101797          	auipc	a5,0x101
    270c:	63878793          	addi	a5,a5,1592 # 103d40 <vga_ch>
    2710:	04500713          	li	a4,69
    2714:	00e7a023          	sw	a4,0(a5)
    2718:	0200006f          	j	2738 <putch+0x108>
    271c:	00101797          	auipc	a5,0x101
    2720:	62478793          	addi	a5,a5,1572 # 103d40 <vga_ch>
    2724:	0007a783          	lw	a5,0(a5)
    2728:	fff78713          	addi	a4,a5,-1
    272c:	00101797          	auipc	a5,0x101
    2730:	61478793          	addi	a5,a5,1556 # 103d40 <vga_ch>
    2734:	00e7a023          	sw	a4,0(a5)
    2738:	000fe797          	auipc	a5,0xfe
    273c:	da478793          	addi	a5,a5,-604 # 1004dc <vga_start>
    2740:	0007a783          	lw	a5,0(a5)
    2744:	000fe717          	auipc	a4,0xfe
    2748:	d9c70713          	addi	a4,a4,-612 # 1004e0 <start_line>
    274c:	00072703          	lw	a4,0(a4)
    2750:	00072683          	lw	a3,0(a4)
    2754:	00101717          	auipc	a4,0x101
    2758:	5e870713          	addi	a4,a4,1512 # 103d3c <vga_line>
    275c:	00072703          	lw	a4,0(a4)
    2760:	00e68733          	add	a4,a3,a4
    2764:	00771693          	slli	a3,a4,0x7
    2768:	00101717          	auipc	a4,0x101
    276c:	5d870713          	addi	a4,a4,1496 # 103d40 <vga_ch>
    2770:	00072703          	lw	a4,0(a4)
    2774:	00e68733          	add	a4,a3,a4
    2778:	00e787b3          	add	a5,a5,a4
    277c:	00078023          	sb	zero,0(a5)
    2780:	1700006f          	j	28f0 <putch+0x2c0>
    2784:	000fe797          	auipc	a5,0xfe
    2788:	d5878793          	addi	a5,a5,-680 # 1004dc <vga_start>
    278c:	0007a783          	lw	a5,0(a5)
    2790:	000fe717          	auipc	a4,0xfe
    2794:	d5070713          	addi	a4,a4,-688 # 1004e0 <start_line>
    2798:	00072703          	lw	a4,0(a4)
    279c:	00072683          	lw	a3,0(a4)
    27a0:	00101717          	auipc	a4,0x101
    27a4:	59c70713          	addi	a4,a4,1436 # 103d3c <vga_line>
    27a8:	00072703          	lw	a4,0(a4)
    27ac:	00e68733          	add	a4,a3,a4
    27b0:	00771693          	slli	a3,a4,0x7
    27b4:	00101717          	auipc	a4,0x101
    27b8:	58c70713          	addi	a4,a4,1420 # 103d40 <vga_ch>
    27bc:	00072703          	lw	a4,0(a4)
    27c0:	00e68733          	add	a4,a3,a4
    27c4:	00e787b3          	add	a5,a5,a4
    27c8:	00078023          	sb	zero,0(a5)
    27cc:	00101797          	auipc	a5,0x101
    27d0:	57078793          	addi	a5,a5,1392 # 103d3c <vga_line>
    27d4:	0007a783          	lw	a5,0(a5)
    27d8:	00178713          	addi	a4,a5,1
    27dc:	00101797          	auipc	a5,0x101
    27e0:	56078793          	addi	a5,a5,1376 # 103d3c <vga_line>
    27e4:	00e7a023          	sw	a4,0(a5)
    27e8:	00101797          	auipc	a5,0x101
    27ec:	55478793          	addi	a5,a5,1364 # 103d3c <vga_line>
    27f0:	0007a703          	lw	a4,0(a5)
    27f4:	01d00793          	li	a5,29
    27f8:	00e7dc63          	bge	a5,a4,2810 <putch+0x1e0>
    27fc:	d15ff0ef          	jal	ra,2510 <vga_roll>
    2800:	00101797          	auipc	a5,0x101
    2804:	53c78793          	addi	a5,a5,1340 # 103d3c <vga_line>
    2808:	01d00713          	li	a4,29
    280c:	00e7a023          	sw	a4,0(a5)
    2810:	00101797          	auipc	a5,0x101
    2814:	53078793          	addi	a5,a5,1328 # 103d40 <vga_ch>
    2818:	0007a023          	sw	zero,0(a5)
    281c:	0e00006f          	j	28fc <putch+0x2cc>
    2820:	000fe797          	auipc	a5,0xfe
    2824:	cbc78793          	addi	a5,a5,-836 # 1004dc <vga_start>
    2828:	0007a783          	lw	a5,0(a5)
    282c:	000fe717          	auipc	a4,0xfe
    2830:	cb470713          	addi	a4,a4,-844 # 1004e0 <start_line>
    2834:	00072703          	lw	a4,0(a4)
    2838:	00072683          	lw	a3,0(a4)
    283c:	00101717          	auipc	a4,0x101
    2840:	50070713          	addi	a4,a4,1280 # 103d3c <vga_line>
    2844:	00072703          	lw	a4,0(a4)
    2848:	00e68733          	add	a4,a3,a4
    284c:	00771693          	slli	a3,a4,0x7
    2850:	00101717          	auipc	a4,0x101
    2854:	4f070713          	addi	a4,a4,1264 # 103d40 <vga_ch>
    2858:	00072703          	lw	a4,0(a4)
    285c:	00e68733          	add	a4,a3,a4
    2860:	00e787b3          	add	a5,a5,a4
    2864:	fef44703          	lbu	a4,-17(s0)
    2868:	00e78023          	sb	a4,0(a5)
    286c:	00101797          	auipc	a5,0x101
    2870:	4d478793          	addi	a5,a5,1236 # 103d40 <vga_ch>
    2874:	0007a783          	lw	a5,0(a5)
    2878:	00178713          	addi	a4,a5,1
    287c:	00101797          	auipc	a5,0x101
    2880:	4c478793          	addi	a5,a5,1220 # 103d40 <vga_ch>
    2884:	00e7a023          	sw	a4,0(a5)
    2888:	00101797          	auipc	a5,0x101
    288c:	4b878793          	addi	a5,a5,1208 # 103d40 <vga_ch>
    2890:	0007a703          	lw	a4,0(a5)
    2894:	04500793          	li	a5,69
    2898:	06e7d063          	bge	a5,a4,28f8 <putch+0x2c8>
    289c:	00101797          	auipc	a5,0x101
    28a0:	4a078793          	addi	a5,a5,1184 # 103d3c <vga_line>
    28a4:	0007a783          	lw	a5,0(a5)
    28a8:	00178713          	addi	a4,a5,1
    28ac:	00101797          	auipc	a5,0x101
    28b0:	49078793          	addi	a5,a5,1168 # 103d3c <vga_line>
    28b4:	00e7a023          	sw	a4,0(a5)
    28b8:	00101797          	auipc	a5,0x101
    28bc:	48478793          	addi	a5,a5,1156 # 103d3c <vga_line>
    28c0:	0007a703          	lw	a4,0(a5)
    28c4:	01d00793          	li	a5,29
    28c8:	00e7dc63          	bge	a5,a4,28e0 <putch+0x2b0>
    28cc:	c45ff0ef          	jal	ra,2510 <vga_roll>
    28d0:	00101797          	auipc	a5,0x101
    28d4:	46c78793          	addi	a5,a5,1132 # 103d3c <vga_line>
    28d8:	01d00713          	li	a4,29
    28dc:	00e7a023          	sw	a4,0(a5)
    28e0:	00101797          	auipc	a5,0x101
    28e4:	46078793          	addi	a5,a5,1120 # 103d40 <vga_ch>
    28e8:	0007a023          	sw	zero,0(a5)
    28ec:	00c0006f          	j	28f8 <putch+0x2c8>
    28f0:	00000013          	nop
    28f4:	0080006f          	j	28fc <putch+0x2cc>
    28f8:	00000013          	nop
    28fc:	00000013          	nop
    2900:	01c12083          	lw	ra,28(sp)
    2904:	01812403          	lw	s0,24(sp)
    2908:	02010113          	addi	sp,sp,32
    290c:	00008067          	ret

00002910 <putstr>:
    2910:	fd010113          	addi	sp,sp,-48
    2914:	02112623          	sw	ra,44(sp)
    2918:	02812423          	sw	s0,40(sp)
    291c:	03010413          	addi	s0,sp,48
    2920:	fca42e23          	sw	a0,-36(s0)
    2924:	fdc42783          	lw	a5,-36(s0)
    2928:	fef42623          	sw	a5,-20(s0)
    292c:	0200006f          	j	294c <putstr+0x3c>
    2930:	fec42783          	lw	a5,-20(s0)
    2934:	0007c783          	lbu	a5,0(a5)
    2938:	00078513          	mv	a0,a5
    293c:	cf5ff0ef          	jal	ra,2630 <putch>
    2940:	fec42783          	lw	a5,-20(s0)
    2944:	00178793          	addi	a5,a5,1
    2948:	fef42623          	sw	a5,-20(s0)
    294c:	fec42783          	lw	a5,-20(s0)
    2950:	0007c783          	lbu	a5,0(a5)
    2954:	fc079ee3          	bnez	a5,2930 <putstr+0x20>
    2958:	00000013          	nop
    295c:	02c12083          	lw	ra,44(sp)
    2960:	02812403          	lw	s0,40(sp)
    2964:	03010113          	addi	sp,sp,48
    2968:	00008067          	ret

0000296c <readkey>:
    296c:	ff010113          	addi	sp,sp,-16
    2970:	00812623          	sw	s0,12(sp)
    2974:	01010413          	addi	s0,sp,16
    2978:	000fe797          	auipc	a5,0xfe
    297c:	b6c78793          	addi	a5,a5,-1172 # 1004e4 <key>
    2980:	0007a783          	lw	a5,0(a5)
    2984:	0007a783          	lw	a5,0(a5)
    2988:	0ff7f793          	andi	a5,a5,255
    298c:	00078513          	mv	a0,a5
    2990:	00c12403          	lw	s0,12(sp)
    2994:	01010113          	addi	sp,sp,16
    2998:	00008067          	ret

0000299c <get_sw>:
    299c:	fe010113          	addi	sp,sp,-32
    29a0:	00812e23          	sw	s0,28(sp)
    29a4:	02010413          	addi	s0,sp,32
    29a8:	fea42623          	sw	a0,-20(s0)
    29ac:	fec42783          	lw	a5,-20(s0)
    29b0:	0207c663          	bltz	a5,29dc <get_sw+0x40>
    29b4:	fec42703          	lw	a4,-20(s0)
    29b8:	00900793          	li	a5,9
    29bc:	02e7c063          	blt	a5,a4,29dc <get_sw+0x40>
    29c0:	000fe797          	auipc	a5,0xfe
    29c4:	b2878793          	addi	a5,a5,-1240 # 1004e8 <sw>
    29c8:	0007a703          	lw	a4,0(a5)
    29cc:	fec42783          	lw	a5,-20(s0)
    29d0:	00f707b3          	add	a5,a4,a5
    29d4:	0007c783          	lbu	a5,0(a5)
    29d8:	0080006f          	j	29e0 <get_sw+0x44>
    29dc:	fff00793          	li	a5,-1
    29e0:	00078513          	mv	a0,a5
    29e4:	01c12403          	lw	s0,28(sp)
    29e8:	02010113          	addi	sp,sp,32
    29ec:	00008067          	ret

000029f0 <get_button>:
    29f0:	fe010113          	addi	sp,sp,-32
    29f4:	00812e23          	sw	s0,28(sp)
    29f8:	02010413          	addi	s0,sp,32
    29fc:	fea42623          	sw	a0,-20(s0)
    2a00:	fec42783          	lw	a5,-20(s0)
    2a04:	0207c663          	bltz	a5,2a30 <get_button+0x40>
    2a08:	fec42703          	lw	a4,-20(s0)
    2a0c:	00300793          	li	a5,3
    2a10:	02e7c063          	blt	a5,a4,2a30 <get_button+0x40>
    2a14:	000fe797          	auipc	a5,0xfe
    2a18:	ad878793          	addi	a5,a5,-1320 # 1004ec <button>
    2a1c:	0007a703          	lw	a4,0(a5)
    2a20:	fec42783          	lw	a5,-20(s0)
    2a24:	00f707b3          	add	a5,a4,a5
    2a28:	0007c783          	lbu	a5,0(a5)
    2a2c:	0080006f          	j	2a34 <get_button+0x44>
    2a30:	fff00793          	li	a5,-1
    2a34:	00078513          	mv	a0,a5
    2a38:	01c12403          	lw	s0,28(sp)
    2a3c:	02010113          	addi	sp,sp,32
    2a40:	00008067          	ret

00002a44 <set_ledr>:
    2a44:	fe010113          	addi	sp,sp,-32
    2a48:	00812e23          	sw	s0,28(sp)
    2a4c:	02010413          	addi	s0,sp,32
    2a50:	fea42623          	sw	a0,-20(s0)
    2a54:	feb42423          	sw	a1,-24(s0)
    2a58:	fec42783          	lw	a5,-20(s0)
    2a5c:	0207c863          	bltz	a5,2a8c <set_ledr+0x48>
    2a60:	fec42703          	lw	a4,-20(s0)
    2a64:	00900793          	li	a5,9
    2a68:	02e7c263          	blt	a5,a4,2a8c <set_ledr+0x48>
    2a6c:	000fe797          	auipc	a5,0xfe
    2a70:	a8478793          	addi	a5,a5,-1404 # 1004f0 <ledr>
    2a74:	0007a703          	lw	a4,0(a5)
    2a78:	fec42783          	lw	a5,-20(s0)
    2a7c:	00f707b3          	add	a5,a4,a5
    2a80:	fe842703          	lw	a4,-24(s0)
    2a84:	0ff77713          	andi	a4,a4,255
    2a88:	00e78023          	sb	a4,0(a5)
    2a8c:	00000013          	nop
    2a90:	01c12403          	lw	s0,28(sp)
    2a94:	02010113          	addi	sp,sp,32
    2a98:	00008067          	ret

00002a9c <set_hex>:
    2a9c:	fe010113          	addi	sp,sp,-32
    2aa0:	00812e23          	sw	s0,28(sp)
    2aa4:	02010413          	addi	s0,sp,32
    2aa8:	fea42623          	sw	a0,-20(s0)
    2aac:	feb42423          	sw	a1,-24(s0)
    2ab0:	fec42783          	lw	a5,-20(s0)
    2ab4:	0207c863          	bltz	a5,2ae4 <set_hex+0x48>
    2ab8:	fec42703          	lw	a4,-20(s0)
    2abc:	00500793          	li	a5,5
    2ac0:	02e7c263          	blt	a5,a4,2ae4 <set_hex+0x48>
    2ac4:	000fe797          	auipc	a5,0xfe
    2ac8:	a3078793          	addi	a5,a5,-1488 # 1004f4 <hex>
    2acc:	0007a703          	lw	a4,0(a5)
    2ad0:	fec42783          	lw	a5,-20(s0)
    2ad4:	00f707b3          	add	a5,a4,a5
    2ad8:	fe842703          	lw	a4,-24(s0)
    2adc:	0ff77713          	andi	a4,a4,255
    2ae0:	00e78023          	sb	a4,0(a5)
    2ae4:	00000013          	nop
    2ae8:	01c12403          	lw	s0,28(sp)
    2aec:	02010113          	addi	sp,sp,32
    2af0:	00008067          	ret

Disassembly of section .rodata:

00100000 <.rodata>:
  100000:	6425                	lui	s0,0x9
  100002:	000a                	c.slli	zero,0x2
  100004:	20746547          	fmsub.s	fa0,fs0,ft7,ft4,unknown
  100008:	4e207773          	csrrci	a4,0x4e2,0
  10000c:	64252e6f          	jal	t3,15264e <_end+0x4d64e>
  100010:	203a                	fld	ft0,392(sp)
  100012:	6425                	lui	s0,0x9
  100014:	000a                	c.slli	zero,0x2
  100016:	0000                	unimp
  100018:	20746547          	fmsub.s	fa0,fs0,ft7,ft4,unknown
  10001c:	7562                	flw	fa0,56(sp)
  10001e:	7474                	flw	fa3,108(s0)
  100020:	4e206e6f          	jal	t3,106502 <_end+0x1502>
  100024:	64252e6f          	jal	t3,152666 <_end+0x4d666>
  100028:	203a                	fld	ft0,392(sp)
  10002a:	6425                	lui	s0,0x9
  10002c:	000a                	c.slli	zero,0x2
  10002e:	0000                	unimp
  100030:	20746553          	0x20746553
  100034:	656c                	flw	fa1,76(a0)
  100036:	7264                	flw	fs1,100(a2)
  100038:	4e20                	lw	s0,88(a2)
  10003a:	64252e6f          	jal	t3,15267c <_end+0x4d67c>
  10003e:	203a                	fld	ft0,392(sp)
  100040:	6425                	lui	s0,0x9
  100042:	000a                	c.slli	zero,0x2
  100044:	20746553          	0x20746553
  100048:	6548                	flw	fa0,12(a0)
  10004a:	2078                	fld	fa4,192(s0)
  10004c:	6f4e                	flw	ft10,208(sp)
  10004e:	252e                	fld	fa0,200(sp)
  100050:	3a64                	fld	fs1,240(a2)
  100052:	2520                	fld	fs0,72(a0)
  100054:	0a64                	addi	s1,sp,284
  100056:	0000                	unimp
  100058:	6365                	lui	t1,0x19
  10005a:	6f68                	flw	fa0,92(a4)
  10005c:	0000                	unimp
  10005e:	0000                	unimp
  100060:	6966                	flw	fs2,88(sp)
  100062:	0062                	c.slli	zero,0x18
  100064:	7665                	lui	a2,0xffff9
  100066:	6c61                	lui	s8,0x18
  100068:	0000                	unimp
  10006a:	0000                	unimp
  10006c:	61656c63          	bltu	a0,s6,100684 <_bss_start+0x18c>
  100070:	0072                	c.slli	zero,0x1c
  100072:	0000                	unimp
  100074:	73657467          	0x73657467
  100078:	0074                	addi	a3,sp,12
  10007a:	0000                	unimp
  10007c:	7476                	flw	fs0,124(sp)
  10007e:	7365                	lui	t1,0xffff9
  100080:	0074                	addi	a3,sp,12
  100082:	0000                	unimp
  100084:	6564                	flw	fs1,76(a0)
  100086:	7476                	flw	fs0,124(sp)
  100088:	7365                	lui	t1,0xffff9
  10008a:	0074                	addi	a3,sp,12
  10008c:	6974                	flw	fa3,84(a0)
  10008e:	656d                	lui	a0,0x1b
  100090:	0000                	unimp
  100092:	0000                	unimp
  100094:	7325                	lui	t1,0xfffe9
  100096:	203a                	fld	ft0,392(sp)
  100098:	6d6d6f63          	bltu	s10,s6,100776 <_bss_start+0x27e>
  10009c:	6e61                	lui	t3,0x18
  10009e:	2064                	fld	fs1,192(s0)
  1000a0:	6f6e                	flw	ft10,216(sp)
  1000a2:	2074                	fld	fa3,192(s0)
  1000a4:	6f66                	flw	ft10,88(sp)
  1000a6:	6e75                	lui	t3,0x1d
  1000a8:	0a64                	addi	s1,sp,284
  1000aa:	0000                	unimp
  1000ac:	794e                	flw	fs2,240(sp)
  1000ae:	6e61                	lui	t3,0x18
  1000b0:	003e                	c.slli	zero,0xf

Disassembly of section .data:

001000b4 <prior>:
  1000b4:	0000                	unimp
  1000b6:	0000                	unimp
  1000b8:	0000                	unimp
  1000ba:	0000                	unimp
  1000bc:	0000                	unimp
  1000be:	0000                	unimp
  1000c0:	0000                	unimp
  1000c2:	0000                	unimp
  1000c4:	0000                	unimp
  1000c6:	0000                	unimp
  1000c8:	0000                	unimp
  1000ca:	0000                	unimp
  1000cc:	0000                	unimp
  1000ce:	0000                	unimp
  1000d0:	0000                	unimp
  1000d2:	0000                	unimp
  1000d4:	0000                	unimp
  1000d6:	0000                	unimp
  1000d8:	0000                	unimp
  1000da:	0000                	unimp
  1000dc:	0000                	unimp
  1000de:	0000                	unimp
  1000e0:	0000                	unimp
  1000e2:	0000                	unimp
  1000e4:	0000                	unimp
  1000e6:	0000                	unimp
  1000e8:	0000                	unimp
  1000ea:	0000                	unimp
  1000ec:	0000                	unimp
  1000ee:	0000                	unimp
  1000f0:	0000                	unimp
  1000f2:	0000                	unimp
  1000f4:	0000                	unimp
  1000f6:	0000                	unimp
  1000f8:	0000                	unimp
  1000fa:	0000                	unimp
  1000fc:	0000                	unimp
  1000fe:	0000                	unimp
  100100:	0000                	unimp
  100102:	0000                	unimp
  100104:	0000                	unimp
  100106:	0000                	unimp
  100108:	0000                	unimp
  10010a:	0000                	unimp
  10010c:	0000                	unimp
  10010e:	0000                	unimp
  100110:	0000                	unimp
  100112:	0000                	unimp
  100114:	0000                	unimp
  100116:	0000                	unimp
  100118:	0000                	unimp
  10011a:	0000                	unimp
  10011c:	0000                	unimp
  10011e:	0000                	unimp
  100120:	0000                	unimp
  100122:	0000                	unimp
  100124:	0000                	unimp
  100126:	0000                	unimp
  100128:	0000                	unimp
  10012a:	0000                	unimp
  10012c:	0000                	unimp
  10012e:	0000                	unimp
  100130:	0000                	unimp
  100132:	0000                	unimp
  100134:	0000                	unimp
  100136:	0000                	unimp
  100138:	0000                	unimp
  10013a:	0000                	unimp
  10013c:	0000                	unimp
  10013e:	0000                	unimp
  100140:	0000                	unimp
  100142:	0000                	unimp
  100144:	0000                	unimp
  100146:	0000                	unimp
  100148:	0000                	unimp
  10014a:	0000                	unimp
  10014c:	0000                	unimp
  10014e:	0000                	unimp
  100150:	0000                	unimp
  100152:	0000                	unimp
  100154:	0000                	unimp
  100156:	0000                	unimp
  100158:	0000                	unimp
  10015a:	0000                	unimp
  10015c:	0004                	0x4
  10015e:	0000                	unimp
  100160:	00000003          	lb	zero,0(zero) # 0 <entry>
  100164:	0000                	unimp
  100166:	0000                	unimp
  100168:	00000003          	lb	zero,0(zero) # 0 <entry>
  10016c:	0000                	unimp
  10016e:	0000                	unimp
  100170:	0004                	0x4
  100172:	0000                	unimp
  100174:	0000                	unimp
  100176:	0000                	unimp
  100178:	0000                	unimp
  10017a:	0000                	unimp
  10017c:	0000                	unimp
  10017e:	0000                	unimp
  100180:	0000                	unimp
  100182:	0000                	unimp
  100184:	0000                	unimp
  100186:	0000                	unimp
  100188:	0000                	unimp
  10018a:	0000                	unimp
  10018c:	0000                	unimp
  10018e:	0000                	unimp
  100190:	0000                	unimp
  100192:	0000                	unimp
  100194:	0000                	unimp
  100196:	0000                	unimp
  100198:	0000                	unimp
  10019a:	0000                	unimp
  10019c:	0000                	unimp
  10019e:	0000                	unimp
  1001a0:	0000                	unimp
  1001a2:	0000                	unimp
  1001a4:	0000                	unimp
  1001a6:	0000                	unimp
  1001a8:	0000                	unimp
  1001aa:	0000                	unimp
  1001ac:	0000                	unimp
  1001ae:	0000                	unimp
  1001b0:	0000                	unimp
  1001b2:	0000                	unimp
  1001b4:	0000                	unimp
  1001b6:	0000                	unimp
  1001b8:	0000                	unimp
  1001ba:	0000                	unimp
  1001bc:	0000                	unimp
  1001be:	0000                	unimp
  1001c0:	0000                	unimp
  1001c2:	0000                	unimp
  1001c4:	0000                	unimp
  1001c6:	0000                	unimp
  1001c8:	0000                	unimp
  1001ca:	0000                	unimp
  1001cc:	0000                	unimp
  1001ce:	0000                	unimp
  1001d0:	0000                	unimp
  1001d2:	0000                	unimp
  1001d4:	0000                	unimp
  1001d6:	0000                	unimp
  1001d8:	0000                	unimp
  1001da:	0000                	unimp
  1001dc:	0000                	unimp
  1001de:	0000                	unimp
  1001e0:	0000                	unimp
  1001e2:	0000                	unimp
  1001e4:	0000                	unimp
  1001e6:	0000                	unimp
  1001e8:	0000                	unimp
  1001ea:	0000                	unimp
  1001ec:	0000                	unimp
  1001ee:	0000                	unimp
  1001f0:	0000                	unimp
  1001f2:	0000                	unimp
  1001f4:	0000                	unimp
  1001f6:	0000                	unimp
  1001f8:	0000                	unimp
  1001fa:	0000                	unimp
  1001fc:	0000                	unimp
  1001fe:	0000                	unimp
  100200:	0000                	unimp
  100202:	0000                	unimp
  100204:	0000                	unimp
  100206:	0000                	unimp
  100208:	0000                	unimp
  10020a:	0000                	unimp
  10020c:	0000                	unimp
  10020e:	0000                	unimp
  100210:	0000                	unimp
  100212:	0000                	unimp
  100214:	0000                	unimp
  100216:	0000                	unimp
  100218:	0000                	unimp
  10021a:	0000                	unimp
  10021c:	0000                	unimp
  10021e:	0000                	unimp
  100220:	0000                	unimp
  100222:	0000                	unimp
  100224:	0000                	unimp
  100226:	0000                	unimp
  100228:	0000                	unimp
  10022a:	0000                	unimp
  10022c:	0005                	c.nop	1
  10022e:	0000                	unimp
  100230:	0000                	unimp
  100232:	0000                	unimp
  100234:	0000                	unimp
  100236:	0000                	unimp
  100238:	0000                	unimp
  10023a:	0000                	unimp
  10023c:	0000                	unimp
  10023e:	0000                	unimp
  100240:	0000                	unimp
  100242:	0000                	unimp
  100244:	0000                	unimp
  100246:	0000                	unimp
  100248:	0000                	unimp
  10024a:	0000                	unimp
  10024c:	0000                	unimp
  10024e:	0000                	unimp
  100250:	0000                	unimp
  100252:	0000                	unimp
  100254:	0000                	unimp
  100256:	0000                	unimp
  100258:	0000                	unimp
  10025a:	0000                	unimp
  10025c:	0000                	unimp
  10025e:	0000                	unimp
  100260:	0000                	unimp
  100262:	0000                	unimp
  100264:	0000                	unimp
  100266:	0000                	unimp
  100268:	0000                	unimp
  10026a:	0000                	unimp
  10026c:	0000                	unimp
  10026e:	0000                	unimp
  100270:	0000                	unimp
  100272:	0000                	unimp
  100274:	0000                	unimp
  100276:	0000                	unimp
  100278:	0000                	unimp
  10027a:	0000                	unimp
  10027c:	0000                	unimp
  10027e:	0000                	unimp
  100280:	0000                	unimp
  100282:	0000                	unimp
  100284:	0000                	unimp
  100286:	0000                	unimp
  100288:	0000                	unimp
  10028a:	0000                	unimp
  10028c:	0000                	unimp
  10028e:	0000                	unimp
  100290:	0000                	unimp
  100292:	0000                	unimp
  100294:	0000                	unimp
  100296:	0000                	unimp
  100298:	0000                	unimp
  10029a:	0000                	unimp
  10029c:	0000                	unimp
  10029e:	0000                	unimp
  1002a0:	0000                	unimp
  1002a2:	0000                	unimp
  1002a4:	0000                	unimp
  1002a6:	0000                	unimp
  1002a8:	0000                	unimp
  1002aa:	0000                	unimp
  1002ac:	0000                	unimp
  1002ae:	0000                	unimp
  1002b0:	0000                	unimp
  1002b2:	0000                	unimp
  1002b4:	0000                	unimp
  1002b6:	0000                	unimp
  1002b8:	0000                	unimp
  1002ba:	0000                	unimp
  1002bc:	0000                	unimp
  1002be:	0000                	unimp
  1002c0:	0000                	unimp
  1002c2:	0000                	unimp
  1002c4:	0000                	unimp
  1002c6:	0000                	unimp
  1002c8:	0000                	unimp
  1002ca:	0000                	unimp
  1002cc:	0000                	unimp
  1002ce:	0000                	unimp
  1002d0:	0000                	unimp
  1002d2:	0000                	unimp
  1002d4:	0000                	unimp
  1002d6:	0000                	unimp
  1002d8:	0000                	unimp
  1002da:	0000                	unimp
  1002dc:	0000                	unimp
  1002de:	0000                	unimp
  1002e0:	0000                	unimp
  1002e2:	0000                	unimp
  1002e4:	0000                	unimp
  1002e6:	0000                	unimp
  1002e8:	0000                	unimp
  1002ea:	0000                	unimp
  1002ec:	0000                	unimp
  1002ee:	0000                	unimp
  1002f0:	0000                	unimp
  1002f2:	0000                	unimp
  1002f4:	0000                	unimp
  1002f6:	0000                	unimp
  1002f8:	0000                	unimp
  1002fa:	0000                	unimp
  1002fc:	0000                	unimp
  1002fe:	0000                	unimp
  100300:	0000                	unimp
  100302:	0000                	unimp
  100304:	0000                	unimp
  100306:	0000                	unimp
  100308:	0000                	unimp
  10030a:	0000                	unimp
  10030c:	0000                	unimp
  10030e:	0000                	unimp
  100310:	0000                	unimp
  100312:	0000                	unimp
  100314:	0000                	unimp
  100316:	0000                	unimp
  100318:	0000                	unimp
  10031a:	0000                	unimp
  10031c:	0000                	unimp
  10031e:	0000                	unimp
  100320:	0000                	unimp
  100322:	0000                	unimp
  100324:	0000                	unimp
  100326:	0000                	unimp
  100328:	0000                	unimp
  10032a:	0000                	unimp
  10032c:	0000                	unimp
  10032e:	0000                	unimp
  100330:	0000                	unimp
  100332:	0000                	unimp
  100334:	0000                	unimp
  100336:	0000                	unimp
  100338:	0000                	unimp
  10033a:	0000                	unimp
  10033c:	0000                	unimp
  10033e:	0000                	unimp
  100340:	0000                	unimp
  100342:	0000                	unimp
  100344:	0000                	unimp
  100346:	0000                	unimp
  100348:	0000                	unimp
  10034a:	0000                	unimp
  10034c:	0000                	unimp
  10034e:	0000                	unimp
  100350:	0000                	unimp
  100352:	0000                	unimp
  100354:	0000                	unimp
  100356:	0000                	unimp
  100358:	0000                	unimp
  10035a:	0000                	unimp
  10035c:	0000                	unimp
  10035e:	0000                	unimp
  100360:	0000                	unimp
  100362:	0000                	unimp
  100364:	0000                	unimp
  100366:	0000                	unimp
  100368:	0000                	unimp
  10036a:	0000                	unimp
  10036c:	0000                	unimp
  10036e:	0000                	unimp
  100370:	0000                	unimp
  100372:	0000                	unimp
  100374:	0000                	unimp
  100376:	0000                	unimp
  100378:	0000                	unimp
  10037a:	0000                	unimp
  10037c:	0000                	unimp
  10037e:	0000                	unimp
  100380:	0000                	unimp
  100382:	0000                	unimp
  100384:	0000                	unimp
  100386:	0000                	unimp
  100388:	0000                	unimp
  10038a:	0000                	unimp
  10038c:	0000                	unimp
  10038e:	0000                	unimp
  100390:	0000                	unimp
  100392:	0000                	unimp
  100394:	0000                	unimp
  100396:	0000                	unimp
  100398:	0000                	unimp
  10039a:	0000                	unimp
  10039c:	0000                	unimp
  10039e:	0000                	unimp
  1003a0:	0000                	unimp
  1003a2:	0000                	unimp
  1003a4:	0000                	unimp
  1003a6:	0000                	unimp
  1003a8:	0000                	unimp
  1003aa:	0000                	unimp
  1003ac:	0000                	unimp
  1003ae:	0000                	unimp
  1003b0:	0000                	unimp
  1003b2:	0000                	unimp
  1003b4:	0000                	unimp
  1003b6:	0000                	unimp
  1003b8:	0000                	unimp
  1003ba:	0000                	unimp
  1003bc:	0000                	unimp
  1003be:	0000                	unimp
  1003c0:	0000                	unimp
  1003c2:	0000                	unimp
  1003c4:	0000                	unimp
  1003c6:	0000                	unimp
  1003c8:	0000                	unimp
  1003ca:	0000                	unimp
  1003cc:	0000                	unimp
  1003ce:	0000                	unimp
  1003d0:	0000                	unimp
  1003d2:	0000                	unimp
  1003d4:	0000                	unimp
  1003d6:	0000                	unimp
  1003d8:	0000                	unimp
  1003da:	0000                	unimp
  1003dc:	0000                	unimp
  1003de:	0000                	unimp
  1003e0:	0000                	unimp
  1003e2:	0000                	unimp
  1003e4:	0000                	unimp
  1003e6:	0000                	unimp
  1003e8:	0000                	unimp
  1003ea:	0000                	unimp
  1003ec:	0000                	unimp
  1003ee:	0000                	unimp
  1003f0:	0000                	unimp
  1003f2:	0000                	unimp
  1003f4:	0000                	unimp
  1003f6:	0000                	unimp
  1003f8:	0000                	unimp
  1003fa:	0000                	unimp
  1003fc:	0000                	unimp
  1003fe:	0000                	unimp
  100400:	0000                	unimp
  100402:	0000                	unimp
  100404:	0000                	unimp
  100406:	0000                	unimp
  100408:	0000                	unimp
  10040a:	0000                	unimp
  10040c:	0000                	unimp
  10040e:	0000                	unimp
  100410:	0000                	unimp
  100412:	0000                	unimp
  100414:	0000                	unimp
  100416:	0000                	unimp
  100418:	0000                	unimp
  10041a:	0000                	unimp
  10041c:	0000                	unimp
  10041e:	0000                	unimp
  100420:	0000                	unimp
  100422:	0000                	unimp
  100424:	0000                	unimp
  100426:	0000                	unimp
  100428:	0000                	unimp
  10042a:	0000                	unimp
  10042c:	0000                	unimp
  10042e:	0000                	unimp
  100430:	0000                	unimp
  100432:	0000                	unimp
  100434:	0000                	unimp
  100436:	0000                	unimp
  100438:	0000                	unimp
  10043a:	0000                	unimp
  10043c:	0000                	unimp
  10043e:	0000                	unimp
  100440:	0000                	unimp
  100442:	0000                	unimp
  100444:	0000                	unimp
  100446:	0000                	unimp
  100448:	0000                	unimp
  10044a:	0000                	unimp
  10044c:	0000                	unimp
  10044e:	0000                	unimp
  100450:	0000                	unimp
  100452:	0000                	unimp
  100454:	0000                	unimp
  100456:	0000                	unimp
  100458:	0000                	unimp
  10045a:	0000                	unimp
  10045c:	0000                	unimp
  10045e:	0000                	unimp
  100460:	0000                	unimp
  100462:	0000                	unimp
  100464:	0000                	unimp
  100466:	0000                	unimp
  100468:	0000                	unimp
  10046a:	0000                	unimp
  10046c:	0000                	unimp
  10046e:	0000                	unimp
  100470:	0000                	unimp
  100472:	0000                	unimp
  100474:	0000                	unimp
  100476:	0000                	unimp
  100478:	0000                	unimp
  10047a:	0000                	unimp
  10047c:	0000                	unimp
  10047e:	0000                	unimp
  100480:	0000                	unimp
  100482:	0000                	unimp
  100484:	0000                	unimp
  100486:	0000                	unimp
  100488:	0000                	unimp
  10048a:	0000                	unimp
  10048c:	0000                	unimp
  10048e:	0000                	unimp
  100490:	0000                	unimp
  100492:	0000                	unimp
  100494:	0000                	unimp
  100496:	0000                	unimp
  100498:	0000                	unimp
  10049a:	0000                	unimp
  10049c:	0000                	unimp
  10049e:	0000                	unimp
  1004a0:	0000                	unimp
  1004a2:	0000                	unimp
  1004a4:	0000                	unimp
  1004a6:	0000                	unimp
  1004a8:	0000                	unimp
  1004aa:	0000                	unimp
  1004ac:	0000                	unimp
  1004ae:	0000                	unimp
  1004b0:	0000                	unimp
  1004b2:	0000                	unimp

001004b4 <dx.1713>:
  1004b4:	0000                	unimp
  1004b6:	0000                	unimp
  1004b8:	0001                	nop
  1004ba:	0000                	unimp
  1004bc:	0000                	unimp
  1004be:	0000                	unimp
  1004c0:	ffff                	0xffff
  1004c2:	ffff                	0xffff

001004c4 <dy.1714>:
  1004c4:	0001                	nop
  1004c6:	0000                	unimp
  1004c8:	0000                	unimp
  1004ca:	0000                	unimp
  1004cc:	ffff                	0xffff
  1004ce:	ffff                	0xffff
  1004d0:	0000                	unimp
  1004d2:	0000                	unimp

Disassembly of section .sdata:

001004d4 <time>:
  1004d4:	0000                	unimp
  1004d6:	0040                	addi	s0,sp,4

001004d8 <gmem>:
  1004d8:	0000                	unimp
  1004da:	0060                	addi	s0,sp,12

001004dc <vga_start>:
  1004dc:	0000                	unimp
  1004de:	0020                	addi	s0,sp,8

001004e0 <start_line>:
  1004e0:	0000                	unimp
  1004e2:	0050                	addi	a2,sp,4

001004e4 <key>:
  1004e4:	0000                	unimp
  1004e6:	0030                	addi	a2,sp,8

001004e8 <sw>:
  1004e8:	0000                	unimp
  1004ea:	0070                	addi	a2,sp,12

001004ec <button>:
  1004ec:	0000                	unimp
  1004ee:	0080                	addi	s0,sp,64

001004f0 <ledr>:
  1004f0:	0000                	unimp
  1004f2:	0090                	addi	a2,sp,64

001004f4 <hex>:
  1004f4:	0000                	unimp
  1004f6:	00a0                	addi	s0,sp,72

Disassembly of section .bss:

001004f8 <_bss_start>:
  1004f8:	0000                	unimp
  1004fa:	0000                	unimp
  1004fc:	0000                	unimp
  1004fe:	0000                	unimp
  100500:	0000                	unimp
  100502:	0000                	unimp
  100504:	0000                	unimp
  100506:	0000                	unimp
  100508:	0000                	unimp
  10050a:	0000                	unimp
  10050c:	0000                	unimp
  10050e:	0000                	unimp
  100510:	0000                	unimp
  100512:	0000                	unimp
  100514:	0000                	unimp
  100516:	0000                	unimp
  100518:	0000                	unimp
  10051a:	0000                	unimp
  10051c:	0000                	unimp
  10051e:	0000                	unimp
  100520:	0000                	unimp
  100522:	0000                	unimp
  100524:	0000                	unimp
  100526:	0000                	unimp
  100528:	0000                	unimp
  10052a:	0000                	unimp
  10052c:	0000                	unimp
  10052e:	0000                	unimp
  100530:	0000                	unimp
  100532:	0000                	unimp
  100534:	0000                	unimp
  100536:	0000                	unimp
  100538:	0000                	unimp
  10053a:	0000                	unimp
  10053c:	0000                	unimp
  10053e:	0000                	unimp
  100540:	0000                	unimp
  100542:	0000                	unimp
  100544:	0000                	unimp
  100546:	0000                	unimp
  100548:	0000                	unimp
  10054a:	0000                	unimp
  10054c:	0000                	unimp
  10054e:	0000                	unimp
  100550:	0000                	unimp
  100552:	0000                	unimp
  100554:	0000                	unimp
  100556:	0000                	unimp
  100558:	0000                	unimp
  10055a:	0000                	unimp
  10055c:	0000                	unimp
  10055e:	0000                	unimp
  100560:	0000                	unimp
  100562:	0000                	unimp
  100564:	0000                	unimp
  100566:	0000                	unimp
  100568:	0000                	unimp
  10056a:	0000                	unimp
  10056c:	0000                	unimp
  10056e:	0000                	unimp
  100570:	0000                	unimp
  100572:	0000                	unimp
  100574:	0000                	unimp
  100576:	0000                	unimp
  100578:	0000                	unimp
  10057a:	0000                	unimp
  10057c:	0000                	unimp
  10057e:	0000                	unimp
  100580:	0000                	unimp
  100582:	0000                	unimp
  100584:	0000                	unimp
  100586:	0000                	unimp
  100588:	0000                	unimp
  10058a:	0000                	unimp
  10058c:	0000                	unimp
  10058e:	0000                	unimp
  100590:	0000                	unimp
  100592:	0000                	unimp
  100594:	0000                	unimp
  100596:	0000                	unimp
  100598:	0000                	unimp
  10059a:	0000                	unimp
  10059c:	0000                	unimp
  10059e:	0000                	unimp
  1005a0:	0000                	unimp
  1005a2:	0000                	unimp
  1005a4:	0000                	unimp
  1005a6:	0000                	unimp
  1005a8:	0000                	unimp
  1005aa:	0000                	unimp
  1005ac:	0000                	unimp
  1005ae:	0000                	unimp
  1005b0:	0000                	unimp
  1005b2:	0000                	unimp
  1005b4:	0000                	unimp
  1005b6:	0000                	unimp
  1005b8:	0000                	unimp
  1005ba:	0000                	unimp
  1005bc:	0000                	unimp
  1005be:	0000                	unimp
  1005c0:	0000                	unimp
  1005c2:	0000                	unimp
  1005c4:	0000                	unimp
  1005c6:	0000                	unimp
  1005c8:	0000                	unimp
  1005ca:	0000                	unimp
  1005cc:	0000                	unimp
  1005ce:	0000                	unimp
  1005d0:	0000                	unimp
  1005d2:	0000                	unimp
  1005d4:	0000                	unimp
  1005d6:	0000                	unimp
  1005d8:	0000                	unimp
  1005da:	0000                	unimp
  1005dc:	0000                	unimp
  1005de:	0000                	unimp
  1005e0:	0000                	unimp
  1005e2:	0000                	unimp
  1005e4:	0000                	unimp
  1005e6:	0000                	unimp
  1005e8:	0000                	unimp
  1005ea:	0000                	unimp
  1005ec:	0000                	unimp
  1005ee:	0000                	unimp
  1005f0:	0000                	unimp
  1005f2:	0000                	unimp
  1005f4:	0000                	unimp
  1005f6:	0000                	unimp
  1005f8:	0000                	unimp
  1005fa:	0000                	unimp
  1005fc:	0000                	unimp
  1005fe:	0000                	unimp
  100600:	0000                	unimp
  100602:	0000                	unimp
  100604:	0000                	unimp
  100606:	0000                	unimp
  100608:	0000                	unimp
  10060a:	0000                	unimp
  10060c:	0000                	unimp
  10060e:	0000                	unimp
  100610:	0000                	unimp
  100612:	0000                	unimp
  100614:	0000                	unimp
  100616:	0000                	unimp
  100618:	0000                	unimp
  10061a:	0000                	unimp
  10061c:	0000                	unimp
  10061e:	0000                	unimp
  100620:	0000                	unimp
  100622:	0000                	unimp
  100624:	0000                	unimp
  100626:	0000                	unimp
  100628:	0000                	unimp
  10062a:	0000                	unimp
  10062c:	0000                	unimp
  10062e:	0000                	unimp
  100630:	0000                	unimp
  100632:	0000                	unimp
  100634:	0000                	unimp
  100636:	0000                	unimp
  100638:	0000                	unimp
  10063a:	0000                	unimp
  10063c:	0000                	unimp
  10063e:	0000                	unimp
  100640:	0000                	unimp
  100642:	0000                	unimp
  100644:	0000                	unimp
  100646:	0000                	unimp
  100648:	0000                	unimp
  10064a:	0000                	unimp
  10064c:	0000                	unimp
  10064e:	0000                	unimp
  100650:	0000                	unimp
  100652:	0000                	unimp
  100654:	0000                	unimp
  100656:	0000                	unimp
  100658:	0000                	unimp
  10065a:	0000                	unimp
  10065c:	0000                	unimp
  10065e:	0000                	unimp
  100660:	0000                	unimp
  100662:	0000                	unimp
  100664:	0000                	unimp
  100666:	0000                	unimp
  100668:	0000                	unimp
  10066a:	0000                	unimp
  10066c:	0000                	unimp
  10066e:	0000                	unimp
  100670:	0000                	unimp
  100672:	0000                	unimp
  100674:	0000                	unimp
  100676:	0000                	unimp
  100678:	0000                	unimp
  10067a:	0000                	unimp
  10067c:	0000                	unimp
  10067e:	0000                	unimp
  100680:	0000                	unimp
  100682:	0000                	unimp
  100684:	0000                	unimp
  100686:	0000                	unimp
  100688:	0000                	unimp
  10068a:	0000                	unimp
  10068c:	0000                	unimp
  10068e:	0000                	unimp
  100690:	0000                	unimp
  100692:	0000                	unimp
  100694:	0000                	unimp
  100696:	0000                	unimp
  100698:	0000                	unimp
  10069a:	0000                	unimp
  10069c:	0000                	unimp
  10069e:	0000                	unimp
  1006a0:	0000                	unimp
  1006a2:	0000                	unimp
  1006a4:	0000                	unimp
  1006a6:	0000                	unimp
  1006a8:	0000                	unimp
  1006aa:	0000                	unimp
  1006ac:	0000                	unimp
  1006ae:	0000                	unimp
  1006b0:	0000                	unimp
  1006b2:	0000                	unimp
  1006b4:	0000                	unimp
  1006b6:	0000                	unimp
  1006b8:	0000                	unimp
  1006ba:	0000                	unimp
  1006bc:	0000                	unimp
  1006be:	0000                	unimp
  1006c0:	0000                	unimp
  1006c2:	0000                	unimp
  1006c4:	0000                	unimp
  1006c6:	0000                	unimp
  1006c8:	0000                	unimp
  1006ca:	0000                	unimp
  1006cc:	0000                	unimp
  1006ce:	0000                	unimp
  1006d0:	0000                	unimp
  1006d2:	0000                	unimp
  1006d4:	0000                	unimp
  1006d6:	0000                	unimp
  1006d8:	0000                	unimp
  1006da:	0000                	unimp
  1006dc:	0000                	unimp
  1006de:	0000                	unimp
  1006e0:	0000                	unimp
  1006e2:	0000                	unimp
  1006e4:	0000                	unimp
  1006e6:	0000                	unimp
  1006e8:	0000                	unimp
  1006ea:	0000                	unimp
  1006ec:	0000                	unimp
  1006ee:	0000                	unimp
  1006f0:	0000                	unimp
  1006f2:	0000                	unimp
  1006f4:	0000                	unimp
  1006f6:	0000                	unimp
  1006f8:	0000                	unimp
  1006fa:	0000                	unimp
  1006fc:	0000                	unimp
  1006fe:	0000                	unimp
  100700:	0000                	unimp
  100702:	0000                	unimp
  100704:	0000                	unimp
  100706:	0000                	unimp
  100708:	0000                	unimp
  10070a:	0000                	unimp
  10070c:	0000                	unimp
  10070e:	0000                	unimp
  100710:	0000                	unimp
  100712:	0000                	unimp
  100714:	0000                	unimp
  100716:	0000                	unimp
  100718:	0000                	unimp
  10071a:	0000                	unimp
  10071c:	0000                	unimp
  10071e:	0000                	unimp
  100720:	0000                	unimp
  100722:	0000                	unimp
  100724:	0000                	unimp
  100726:	0000                	unimp
  100728:	0000                	unimp
  10072a:	0000                	unimp
  10072c:	0000                	unimp
  10072e:	0000                	unimp
  100730:	0000                	unimp
  100732:	0000                	unimp
  100734:	0000                	unimp
  100736:	0000                	unimp
  100738:	0000                	unimp
  10073a:	0000                	unimp
  10073c:	0000                	unimp
  10073e:	0000                	unimp
  100740:	0000                	unimp
  100742:	0000                	unimp
  100744:	0000                	unimp
  100746:	0000                	unimp
  100748:	0000                	unimp
  10074a:	0000                	unimp
  10074c:	0000                	unimp
  10074e:	0000                	unimp
  100750:	0000                	unimp
  100752:	0000                	unimp
  100754:	0000                	unimp
  100756:	0000                	unimp
  100758:	0000                	unimp
  10075a:	0000                	unimp
  10075c:	0000                	unimp
  10075e:	0000                	unimp
  100760:	0000                	unimp
  100762:	0000                	unimp
  100764:	0000                	unimp
  100766:	0000                	unimp
  100768:	0000                	unimp
  10076a:	0000                	unimp
  10076c:	0000                	unimp
  10076e:	0000                	unimp
  100770:	0000                	unimp
  100772:	0000                	unimp
  100774:	0000                	unimp
  100776:	0000                	unimp
  100778:	0000                	unimp
  10077a:	0000                	unimp
  10077c:	0000                	unimp
  10077e:	0000                	unimp
  100780:	0000                	unimp
  100782:	0000                	unimp
  100784:	0000                	unimp
  100786:	0000                	unimp
  100788:	0000                	unimp
  10078a:	0000                	unimp
  10078c:	0000                	unimp
  10078e:	0000                	unimp
  100790:	0000                	unimp
  100792:	0000                	unimp
  100794:	0000                	unimp
  100796:	0000                	unimp
  100798:	0000                	unimp
  10079a:	0000                	unimp
  10079c:	0000                	unimp
  10079e:	0000                	unimp
  1007a0:	0000                	unimp
  1007a2:	0000                	unimp
  1007a4:	0000                	unimp
  1007a6:	0000                	unimp
  1007a8:	0000                	unimp
  1007aa:	0000                	unimp
  1007ac:	0000                	unimp
  1007ae:	0000                	unimp
  1007b0:	0000                	unimp
  1007b2:	0000                	unimp
  1007b4:	0000                	unimp
  1007b6:	0000                	unimp
  1007b8:	0000                	unimp
  1007ba:	0000                	unimp
  1007bc:	0000                	unimp
  1007be:	0000                	unimp
  1007c0:	0000                	unimp
  1007c2:	0000                	unimp
  1007c4:	0000                	unimp
  1007c6:	0000                	unimp
  1007c8:	0000                	unimp
  1007ca:	0000                	unimp
  1007cc:	0000                	unimp
  1007ce:	0000                	unimp
  1007d0:	0000                	unimp
  1007d2:	0000                	unimp
  1007d4:	0000                	unimp
  1007d6:	0000                	unimp
  1007d8:	0000                	unimp
  1007da:	0000                	unimp
  1007dc:	0000                	unimp
  1007de:	0000                	unimp
  1007e0:	0000                	unimp
  1007e2:	0000                	unimp
  1007e4:	0000                	unimp
  1007e6:	0000                	unimp
  1007e8:	0000                	unimp
  1007ea:	0000                	unimp
  1007ec:	0000                	unimp
  1007ee:	0000                	unimp
  1007f0:	0000                	unimp
  1007f2:	0000                	unimp
  1007f4:	0000                	unimp
  1007f6:	0000                	unimp
  1007f8:	0000                	unimp
  1007fa:	0000                	unimp
  1007fc:	0000                	unimp
  1007fe:	0000                	unimp
  100800:	0000                	unimp
  100802:	0000                	unimp
  100804:	0000                	unimp
  100806:	0000                	unimp
  100808:	0000                	unimp
  10080a:	0000                	unimp
  10080c:	0000                	unimp
  10080e:	0000                	unimp
  100810:	0000                	unimp
  100812:	0000                	unimp
  100814:	0000                	unimp
  100816:	0000                	unimp
  100818:	0000                	unimp
  10081a:	0000                	unimp
  10081c:	0000                	unimp
  10081e:	0000                	unimp
  100820:	0000                	unimp
  100822:	0000                	unimp
  100824:	0000                	unimp
  100826:	0000                	unimp
  100828:	0000                	unimp
  10082a:	0000                	unimp
  10082c:	0000                	unimp
  10082e:	0000                	unimp
  100830:	0000                	unimp
  100832:	0000                	unimp
  100834:	0000                	unimp
  100836:	0000                	unimp
  100838:	0000                	unimp
  10083a:	0000                	unimp
  10083c:	0000                	unimp
  10083e:	0000                	unimp
  100840:	0000                	unimp
  100842:	0000                	unimp
  100844:	0000                	unimp
  100846:	0000                	unimp
  100848:	0000                	unimp
  10084a:	0000                	unimp
  10084c:	0000                	unimp
  10084e:	0000                	unimp
  100850:	0000                	unimp
  100852:	0000                	unimp
  100854:	0000                	unimp
  100856:	0000                	unimp
  100858:	0000                	unimp
  10085a:	0000                	unimp
  10085c:	0000                	unimp
  10085e:	0000                	unimp
  100860:	0000                	unimp
  100862:	0000                	unimp
  100864:	0000                	unimp
  100866:	0000                	unimp
  100868:	0000                	unimp
  10086a:	0000                	unimp
  10086c:	0000                	unimp
  10086e:	0000                	unimp
  100870:	0000                	unimp
  100872:	0000                	unimp
  100874:	0000                	unimp
  100876:	0000                	unimp
  100878:	0000                	unimp
  10087a:	0000                	unimp
  10087c:	0000                	unimp
  10087e:	0000                	unimp
  100880:	0000                	unimp
  100882:	0000                	unimp
  100884:	0000                	unimp
  100886:	0000                	unimp
  100888:	0000                	unimp
  10088a:	0000                	unimp
  10088c:	0000                	unimp
  10088e:	0000                	unimp
  100890:	0000                	unimp
  100892:	0000                	unimp
  100894:	0000                	unimp
  100896:	0000                	unimp
  100898:	0000                	unimp
  10089a:	0000                	unimp
  10089c:	0000                	unimp
  10089e:	0000                	unimp
  1008a0:	0000                	unimp
  1008a2:	0000                	unimp
  1008a4:	0000                	unimp
  1008a6:	0000                	unimp
  1008a8:	0000                	unimp
  1008aa:	0000                	unimp
  1008ac:	0000                	unimp
  1008ae:	0000                	unimp
  1008b0:	0000                	unimp
  1008b2:	0000                	unimp
  1008b4:	0000                	unimp
  1008b6:	0000                	unimp
  1008b8:	0000                	unimp
  1008ba:	0000                	unimp
  1008bc:	0000                	unimp
  1008be:	0000                	unimp
  1008c0:	0000                	unimp
  1008c2:	0000                	unimp
  1008c4:	0000                	unimp
  1008c6:	0000                	unimp
  1008c8:	0000                	unimp
  1008ca:	0000                	unimp
  1008cc:	0000                	unimp
  1008ce:	0000                	unimp
  1008d0:	0000                	unimp
  1008d2:	0000                	unimp
  1008d4:	0000                	unimp
  1008d6:	0000                	unimp
  1008d8:	0000                	unimp
  1008da:	0000                	unimp
  1008dc:	0000                	unimp
  1008de:	0000                	unimp
  1008e0:	0000                	unimp
  1008e2:	0000                	unimp
  1008e4:	0000                	unimp
  1008e6:	0000                	unimp
  1008e8:	0000                	unimp
  1008ea:	0000                	unimp
  1008ec:	0000                	unimp
  1008ee:	0000                	unimp
  1008f0:	0000                	unimp
  1008f2:	0000                	unimp
  1008f4:	0000                	unimp
  1008f6:	0000                	unimp
  1008f8:	0000                	unimp
  1008fa:	0000                	unimp
  1008fc:	0000                	unimp
  1008fe:	0000                	unimp
  100900:	0000                	unimp
  100902:	0000                	unimp
  100904:	0000                	unimp
  100906:	0000                	unimp
  100908:	0000                	unimp
  10090a:	0000                	unimp
  10090c:	0000                	unimp
  10090e:	0000                	unimp
  100910:	0000                	unimp
  100912:	0000                	unimp
  100914:	0000                	unimp
  100916:	0000                	unimp
  100918:	0000                	unimp
  10091a:	0000                	unimp
  10091c:	0000                	unimp
  10091e:	0000                	unimp
  100920:	0000                	unimp
  100922:	0000                	unimp
  100924:	0000                	unimp
  100926:	0000                	unimp
  100928:	0000                	unimp
  10092a:	0000                	unimp
  10092c:	0000                	unimp
  10092e:	0000                	unimp
  100930:	0000                	unimp
  100932:	0000                	unimp
  100934:	0000                	unimp
  100936:	0000                	unimp
  100938:	0000                	unimp
  10093a:	0000                	unimp
  10093c:	0000                	unimp
  10093e:	0000                	unimp
  100940:	0000                	unimp
  100942:	0000                	unimp
  100944:	0000                	unimp
  100946:	0000                	unimp
  100948:	0000                	unimp
  10094a:	0000                	unimp
  10094c:	0000                	unimp
  10094e:	0000                	unimp
  100950:	0000                	unimp
  100952:	0000                	unimp
  100954:	0000                	unimp
  100956:	0000                	unimp
  100958:	0000                	unimp
  10095a:	0000                	unimp
  10095c:	0000                	unimp
  10095e:	0000                	unimp
  100960:	0000                	unimp
  100962:	0000                	unimp
  100964:	0000                	unimp
  100966:	0000                	unimp
  100968:	0000                	unimp
  10096a:	0000                	unimp
  10096c:	0000                	unimp
  10096e:	0000                	unimp
  100970:	0000                	unimp
  100972:	0000                	unimp
  100974:	0000                	unimp
  100976:	0000                	unimp
  100978:	0000                	unimp
  10097a:	0000                	unimp
  10097c:	0000                	unimp
  10097e:	0000                	unimp
  100980:	0000                	unimp
  100982:	0000                	unimp
  100984:	0000                	unimp
  100986:	0000                	unimp
  100988:	0000                	unimp
  10098a:	0000                	unimp
  10098c:	0000                	unimp
  10098e:	0000                	unimp
  100990:	0000                	unimp
  100992:	0000                	unimp
  100994:	0000                	unimp
  100996:	0000                	unimp
  100998:	0000                	unimp
  10099a:	0000                	unimp
  10099c:	0000                	unimp
  10099e:	0000                	unimp
  1009a0:	0000                	unimp
  1009a2:	0000                	unimp
  1009a4:	0000                	unimp
  1009a6:	0000                	unimp
  1009a8:	0000                	unimp
  1009aa:	0000                	unimp
  1009ac:	0000                	unimp
  1009ae:	0000                	unimp
  1009b0:	0000                	unimp
  1009b2:	0000                	unimp
  1009b4:	0000                	unimp
  1009b6:	0000                	unimp
  1009b8:	0000                	unimp
  1009ba:	0000                	unimp
  1009bc:	0000                	unimp
  1009be:	0000                	unimp
  1009c0:	0000                	unimp
  1009c2:	0000                	unimp
  1009c4:	0000                	unimp
  1009c6:	0000                	unimp
  1009c8:	0000                	unimp
  1009ca:	0000                	unimp
  1009cc:	0000                	unimp
  1009ce:	0000                	unimp
  1009d0:	0000                	unimp
  1009d2:	0000                	unimp
  1009d4:	0000                	unimp
  1009d6:	0000                	unimp
  1009d8:	0000                	unimp
  1009da:	0000                	unimp
  1009dc:	0000                	unimp
  1009de:	0000                	unimp
  1009e0:	0000                	unimp
  1009e2:	0000                	unimp
  1009e4:	0000                	unimp
  1009e6:	0000                	unimp
  1009e8:	0000                	unimp
  1009ea:	0000                	unimp
  1009ec:	0000                	unimp
  1009ee:	0000                	unimp
  1009f0:	0000                	unimp
  1009f2:	0000                	unimp
  1009f4:	0000                	unimp
  1009f6:	0000                	unimp
  1009f8:	0000                	unimp
  1009fa:	0000                	unimp
  1009fc:	0000                	unimp
  1009fe:	0000                	unimp
  100a00:	0000                	unimp
  100a02:	0000                	unimp
  100a04:	0000                	unimp
  100a06:	0000                	unimp
  100a08:	0000                	unimp
  100a0a:	0000                	unimp
  100a0c:	0000                	unimp
  100a0e:	0000                	unimp
  100a10:	0000                	unimp
  100a12:	0000                	unimp
  100a14:	0000                	unimp
  100a16:	0000                	unimp
  100a18:	0000                	unimp
  100a1a:	0000                	unimp
  100a1c:	0000                	unimp
  100a1e:	0000                	unimp
  100a20:	0000                	unimp
  100a22:	0000                	unimp
  100a24:	0000                	unimp
  100a26:	0000                	unimp
  100a28:	0000                	unimp
  100a2a:	0000                	unimp
  100a2c:	0000                	unimp
  100a2e:	0000                	unimp
  100a30:	0000                	unimp
  100a32:	0000                	unimp
  100a34:	0000                	unimp
  100a36:	0000                	unimp
  100a38:	0000                	unimp
  100a3a:	0000                	unimp
  100a3c:	0000                	unimp
  100a3e:	0000                	unimp
  100a40:	0000                	unimp
  100a42:	0000                	unimp
  100a44:	0000                	unimp
  100a46:	0000                	unimp
  100a48:	0000                	unimp
  100a4a:	0000                	unimp
  100a4c:	0000                	unimp
  100a4e:	0000                	unimp
  100a50:	0000                	unimp
  100a52:	0000                	unimp
  100a54:	0000                	unimp
  100a56:	0000                	unimp
  100a58:	0000                	unimp
  100a5a:	0000                	unimp
  100a5c:	0000                	unimp
  100a5e:	0000                	unimp
  100a60:	0000                	unimp
  100a62:	0000                	unimp
  100a64:	0000                	unimp
  100a66:	0000                	unimp
  100a68:	0000                	unimp
  100a6a:	0000                	unimp
  100a6c:	0000                	unimp
  100a6e:	0000                	unimp
  100a70:	0000                	unimp
  100a72:	0000                	unimp
  100a74:	0000                	unimp
  100a76:	0000                	unimp
  100a78:	0000                	unimp
  100a7a:	0000                	unimp
  100a7c:	0000                	unimp
  100a7e:	0000                	unimp
  100a80:	0000                	unimp
  100a82:	0000                	unimp
  100a84:	0000                	unimp
  100a86:	0000                	unimp
  100a88:	0000                	unimp
  100a8a:	0000                	unimp
  100a8c:	0000                	unimp
  100a8e:	0000                	unimp
  100a90:	0000                	unimp
  100a92:	0000                	unimp
  100a94:	0000                	unimp
  100a96:	0000                	unimp
  100a98:	0000                	unimp
  100a9a:	0000                	unimp
  100a9c:	0000                	unimp
  100a9e:	0000                	unimp
  100aa0:	0000                	unimp
  100aa2:	0000                	unimp
  100aa4:	0000                	unimp
  100aa6:	0000                	unimp
  100aa8:	0000                	unimp
  100aaa:	0000                	unimp
  100aac:	0000                	unimp
  100aae:	0000                	unimp
  100ab0:	0000                	unimp
  100ab2:	0000                	unimp
  100ab4:	0000                	unimp
  100ab6:	0000                	unimp
  100ab8:	0000                	unimp
  100aba:	0000                	unimp
  100abc:	0000                	unimp
  100abe:	0000                	unimp
  100ac0:	0000                	unimp
  100ac2:	0000                	unimp
  100ac4:	0000                	unimp
  100ac6:	0000                	unimp
  100ac8:	0000                	unimp
  100aca:	0000                	unimp
  100acc:	0000                	unimp
  100ace:	0000                	unimp
  100ad0:	0000                	unimp
  100ad2:	0000                	unimp
  100ad4:	0000                	unimp
  100ad6:	0000                	unimp
  100ad8:	0000                	unimp
  100ada:	0000                	unimp
  100adc:	0000                	unimp
  100ade:	0000                	unimp
  100ae0:	0000                	unimp
  100ae2:	0000                	unimp
  100ae4:	0000                	unimp
  100ae6:	0000                	unimp
  100ae8:	0000                	unimp
  100aea:	0000                	unimp
  100aec:	0000                	unimp
  100aee:	0000                	unimp
  100af0:	0000                	unimp
  100af2:	0000                	unimp
  100af4:	0000                	unimp
  100af6:	0000                	unimp
  100af8:	0000                	unimp
  100afa:	0000                	unimp
  100afc:	0000                	unimp
  100afe:	0000                	unimp
  100b00:	0000                	unimp
  100b02:	0000                	unimp
  100b04:	0000                	unimp
  100b06:	0000                	unimp
  100b08:	0000                	unimp
  100b0a:	0000                	unimp
  100b0c:	0000                	unimp
  100b0e:	0000                	unimp
  100b10:	0000                	unimp
  100b12:	0000                	unimp
  100b14:	0000                	unimp
  100b16:	0000                	unimp
  100b18:	0000                	unimp
  100b1a:	0000                	unimp
  100b1c:	0000                	unimp
  100b1e:	0000                	unimp
  100b20:	0000                	unimp
  100b22:	0000                	unimp
  100b24:	0000                	unimp
  100b26:	0000                	unimp
  100b28:	0000                	unimp
  100b2a:	0000                	unimp
  100b2c:	0000                	unimp
  100b2e:	0000                	unimp
  100b30:	0000                	unimp
  100b32:	0000                	unimp
  100b34:	0000                	unimp
  100b36:	0000                	unimp
  100b38:	0000                	unimp
  100b3a:	0000                	unimp
  100b3c:	0000                	unimp
  100b3e:	0000                	unimp
  100b40:	0000                	unimp
  100b42:	0000                	unimp
  100b44:	0000                	unimp
  100b46:	0000                	unimp
  100b48:	0000                	unimp
  100b4a:	0000                	unimp
  100b4c:	0000                	unimp
  100b4e:	0000                	unimp
  100b50:	0000                	unimp
  100b52:	0000                	unimp
  100b54:	0000                	unimp
  100b56:	0000                	unimp
  100b58:	0000                	unimp
  100b5a:	0000                	unimp
  100b5c:	0000                	unimp
  100b5e:	0000                	unimp
  100b60:	0000                	unimp
  100b62:	0000                	unimp
  100b64:	0000                	unimp
  100b66:	0000                	unimp
  100b68:	0000                	unimp
  100b6a:	0000                	unimp
  100b6c:	0000                	unimp
  100b6e:	0000                	unimp
  100b70:	0000                	unimp
  100b72:	0000                	unimp
  100b74:	0000                	unimp
  100b76:	0000                	unimp
  100b78:	0000                	unimp
  100b7a:	0000                	unimp
  100b7c:	0000                	unimp
  100b7e:	0000                	unimp
  100b80:	0000                	unimp
  100b82:	0000                	unimp
  100b84:	0000                	unimp
  100b86:	0000                	unimp
  100b88:	0000                	unimp
  100b8a:	0000                	unimp
  100b8c:	0000                	unimp
  100b8e:	0000                	unimp
  100b90:	0000                	unimp
  100b92:	0000                	unimp
  100b94:	0000                	unimp
  100b96:	0000                	unimp
  100b98:	0000                	unimp
  100b9a:	0000                	unimp
  100b9c:	0000                	unimp
  100b9e:	0000                	unimp
  100ba0:	0000                	unimp
  100ba2:	0000                	unimp
  100ba4:	0000                	unimp
  100ba6:	0000                	unimp
  100ba8:	0000                	unimp
  100baa:	0000                	unimp
  100bac:	0000                	unimp
  100bae:	0000                	unimp
  100bb0:	0000                	unimp
  100bb2:	0000                	unimp
  100bb4:	0000                	unimp
  100bb6:	0000                	unimp
  100bb8:	0000                	unimp
  100bba:	0000                	unimp
  100bbc:	0000                	unimp
  100bbe:	0000                	unimp
  100bc0:	0000                	unimp
  100bc2:	0000                	unimp
  100bc4:	0000                	unimp
  100bc6:	0000                	unimp
  100bc8:	0000                	unimp
  100bca:	0000                	unimp
  100bcc:	0000                	unimp
  100bce:	0000                	unimp
  100bd0:	0000                	unimp
  100bd2:	0000                	unimp
  100bd4:	0000                	unimp
  100bd6:	0000                	unimp
  100bd8:	0000                	unimp
  100bda:	0000                	unimp
  100bdc:	0000                	unimp
  100bde:	0000                	unimp
  100be0:	0000                	unimp
  100be2:	0000                	unimp
  100be4:	0000                	unimp
  100be6:	0000                	unimp
  100be8:	0000                	unimp
  100bea:	0000                	unimp
  100bec:	0000                	unimp
  100bee:	0000                	unimp
  100bf0:	0000                	unimp
  100bf2:	0000                	unimp
  100bf4:	0000                	unimp
  100bf6:	0000                	unimp
  100bf8:	0000                	unimp
  100bfa:	0000                	unimp
  100bfc:	0000                	unimp
  100bfe:	0000                	unimp
  100c00:	0000                	unimp
  100c02:	0000                	unimp
  100c04:	0000                	unimp
  100c06:	0000                	unimp
  100c08:	0000                	unimp
  100c0a:	0000                	unimp
  100c0c:	0000                	unimp
  100c0e:	0000                	unimp
  100c10:	0000                	unimp
  100c12:	0000                	unimp
  100c14:	0000                	unimp
  100c16:	0000                	unimp
  100c18:	0000                	unimp
  100c1a:	0000                	unimp
  100c1c:	0000                	unimp
  100c1e:	0000                	unimp
  100c20:	0000                	unimp
  100c22:	0000                	unimp
  100c24:	0000                	unimp
  100c26:	0000                	unimp
  100c28:	0000                	unimp
  100c2a:	0000                	unimp
  100c2c:	0000                	unimp
  100c2e:	0000                	unimp
  100c30:	0000                	unimp
  100c32:	0000                	unimp
  100c34:	0000                	unimp
  100c36:	0000                	unimp
  100c38:	0000                	unimp
  100c3a:	0000                	unimp
  100c3c:	0000                	unimp
  100c3e:	0000                	unimp
  100c40:	0000                	unimp
  100c42:	0000                	unimp
  100c44:	0000                	unimp
  100c46:	0000                	unimp
  100c48:	0000                	unimp
  100c4a:	0000                	unimp
  100c4c:	0000                	unimp
  100c4e:	0000                	unimp
  100c50:	0000                	unimp
  100c52:	0000                	unimp
  100c54:	0000                	unimp
  100c56:	0000                	unimp
  100c58:	0000                	unimp
  100c5a:	0000                	unimp
  100c5c:	0000                	unimp
  100c5e:	0000                	unimp
  100c60:	0000                	unimp
  100c62:	0000                	unimp
  100c64:	0000                	unimp
  100c66:	0000                	unimp
  100c68:	0000                	unimp
  100c6a:	0000                	unimp
  100c6c:	0000                	unimp
  100c6e:	0000                	unimp
  100c70:	0000                	unimp
  100c72:	0000                	unimp
  100c74:	0000                	unimp
  100c76:	0000                	unimp
  100c78:	0000                	unimp
  100c7a:	0000                	unimp
  100c7c:	0000                	unimp
  100c7e:	0000                	unimp
  100c80:	0000                	unimp
  100c82:	0000                	unimp
  100c84:	0000                	unimp
  100c86:	0000                	unimp
  100c88:	0000                	unimp
  100c8a:	0000                	unimp
  100c8c:	0000                	unimp
  100c8e:	0000                	unimp
  100c90:	0000                	unimp
  100c92:	0000                	unimp
  100c94:	0000                	unimp
  100c96:	0000                	unimp
  100c98:	0000                	unimp
  100c9a:	0000                	unimp
  100c9c:	0000                	unimp
  100c9e:	0000                	unimp
  100ca0:	0000                	unimp
  100ca2:	0000                	unimp
  100ca4:	0000                	unimp
  100ca6:	0000                	unimp
  100ca8:	0000                	unimp
  100caa:	0000                	unimp
  100cac:	0000                	unimp
  100cae:	0000                	unimp
  100cb0:	0000                	unimp
  100cb2:	0000                	unimp
  100cb4:	0000                	unimp
  100cb6:	0000                	unimp
  100cb8:	0000                	unimp
  100cba:	0000                	unimp
  100cbc:	0000                	unimp
  100cbe:	0000                	unimp
  100cc0:	0000                	unimp
  100cc2:	0000                	unimp
  100cc4:	0000                	unimp
  100cc6:	0000                	unimp
  100cc8:	0000                	unimp
  100cca:	0000                	unimp
  100ccc:	0000                	unimp
  100cce:	0000                	unimp
  100cd0:	0000                	unimp
  100cd2:	0000                	unimp
  100cd4:	0000                	unimp
  100cd6:	0000                	unimp
  100cd8:	0000                	unimp
  100cda:	0000                	unimp
  100cdc:	0000                	unimp
  100cde:	0000                	unimp
  100ce0:	0000                	unimp
  100ce2:	0000                	unimp
  100ce4:	0000                	unimp
  100ce6:	0000                	unimp
  100ce8:	0000                	unimp
  100cea:	0000                	unimp
  100cec:	0000                	unimp
  100cee:	0000                	unimp
  100cf0:	0000                	unimp
  100cf2:	0000                	unimp
  100cf4:	0000                	unimp
  100cf6:	0000                	unimp
  100cf8:	0000                	unimp
  100cfa:	0000                	unimp
  100cfc:	0000                	unimp
  100cfe:	0000                	unimp
  100d00:	0000                	unimp
  100d02:	0000                	unimp
  100d04:	0000                	unimp
  100d06:	0000                	unimp
  100d08:	0000                	unimp
  100d0a:	0000                	unimp
  100d0c:	0000                	unimp
  100d0e:	0000                	unimp
  100d10:	0000                	unimp
  100d12:	0000                	unimp
  100d14:	0000                	unimp
  100d16:	0000                	unimp
  100d18:	0000                	unimp
  100d1a:	0000                	unimp
  100d1c:	0000                	unimp
  100d1e:	0000                	unimp
  100d20:	0000                	unimp
  100d22:	0000                	unimp
  100d24:	0000                	unimp
  100d26:	0000                	unimp
  100d28:	0000                	unimp
  100d2a:	0000                	unimp
  100d2c:	0000                	unimp
  100d2e:	0000                	unimp
  100d30:	0000                	unimp
  100d32:	0000                	unimp
  100d34:	0000                	unimp
  100d36:	0000                	unimp
  100d38:	0000                	unimp
  100d3a:	0000                	unimp
  100d3c:	0000                	unimp
  100d3e:	0000                	unimp
  100d40:	0000                	unimp
  100d42:	0000                	unimp
  100d44:	0000                	unimp
  100d46:	0000                	unimp
  100d48:	0000                	unimp
  100d4a:	0000                	unimp
  100d4c:	0000                	unimp
  100d4e:	0000                	unimp
  100d50:	0000                	unimp
  100d52:	0000                	unimp
  100d54:	0000                	unimp
  100d56:	0000                	unimp
  100d58:	0000                	unimp
  100d5a:	0000                	unimp
  100d5c:	0000                	unimp
  100d5e:	0000                	unimp
  100d60:	0000                	unimp
  100d62:	0000                	unimp
  100d64:	0000                	unimp
  100d66:	0000                	unimp
  100d68:	0000                	unimp
  100d6a:	0000                	unimp
  100d6c:	0000                	unimp
  100d6e:	0000                	unimp
  100d70:	0000                	unimp
  100d72:	0000                	unimp
  100d74:	0000                	unimp
  100d76:	0000                	unimp
  100d78:	0000                	unimp
  100d7a:	0000                	unimp
  100d7c:	0000                	unimp
  100d7e:	0000                	unimp
  100d80:	0000                	unimp
  100d82:	0000                	unimp
  100d84:	0000                	unimp
  100d86:	0000                	unimp
  100d88:	0000                	unimp
  100d8a:	0000                	unimp
  100d8c:	0000                	unimp
  100d8e:	0000                	unimp
  100d90:	0000                	unimp
  100d92:	0000                	unimp
  100d94:	0000                	unimp
  100d96:	0000                	unimp
  100d98:	0000                	unimp
  100d9a:	0000                	unimp
  100d9c:	0000                	unimp
  100d9e:	0000                	unimp
  100da0:	0000                	unimp
  100da2:	0000                	unimp
  100da4:	0000                	unimp
  100da6:	0000                	unimp
  100da8:	0000                	unimp
  100daa:	0000                	unimp
  100dac:	0000                	unimp
  100dae:	0000                	unimp
  100db0:	0000                	unimp
  100db2:	0000                	unimp
  100db4:	0000                	unimp
  100db6:	0000                	unimp
  100db8:	0000                	unimp
  100dba:	0000                	unimp
  100dbc:	0000                	unimp
  100dbe:	0000                	unimp
  100dc0:	0000                	unimp
  100dc2:	0000                	unimp
  100dc4:	0000                	unimp
  100dc6:	0000                	unimp
  100dc8:	0000                	unimp
  100dca:	0000                	unimp
  100dcc:	0000                	unimp
  100dce:	0000                	unimp
  100dd0:	0000                	unimp
  100dd2:	0000                	unimp
  100dd4:	0000                	unimp
  100dd6:	0000                	unimp
  100dd8:	0000                	unimp
  100dda:	0000                	unimp
  100ddc:	0000                	unimp
  100dde:	0000                	unimp
  100de0:	0000                	unimp
  100de2:	0000                	unimp
  100de4:	0000                	unimp
  100de6:	0000                	unimp
  100de8:	0000                	unimp
  100dea:	0000                	unimp
  100dec:	0000                	unimp
  100dee:	0000                	unimp
  100df0:	0000                	unimp
  100df2:	0000                	unimp
  100df4:	0000                	unimp
  100df6:	0000                	unimp
  100df8:	0000                	unimp
  100dfa:	0000                	unimp
  100dfc:	0000                	unimp
  100dfe:	0000                	unimp
  100e00:	0000                	unimp
  100e02:	0000                	unimp
  100e04:	0000                	unimp
  100e06:	0000                	unimp
  100e08:	0000                	unimp
  100e0a:	0000                	unimp
  100e0c:	0000                	unimp
  100e0e:	0000                	unimp
  100e10:	0000                	unimp
  100e12:	0000                	unimp
  100e14:	0000                	unimp
  100e16:	0000                	unimp
  100e18:	0000                	unimp
  100e1a:	0000                	unimp
  100e1c:	0000                	unimp
  100e1e:	0000                	unimp
  100e20:	0000                	unimp
  100e22:	0000                	unimp
  100e24:	0000                	unimp
  100e26:	0000                	unimp
  100e28:	0000                	unimp
  100e2a:	0000                	unimp
  100e2c:	0000                	unimp
  100e2e:	0000                	unimp
  100e30:	0000                	unimp
  100e32:	0000                	unimp
  100e34:	0000                	unimp
  100e36:	0000                	unimp
  100e38:	0000                	unimp
  100e3a:	0000                	unimp
  100e3c:	0000                	unimp
  100e3e:	0000                	unimp
  100e40:	0000                	unimp
  100e42:	0000                	unimp
  100e44:	0000                	unimp
  100e46:	0000                	unimp
  100e48:	0000                	unimp
  100e4a:	0000                	unimp
  100e4c:	0000                	unimp
  100e4e:	0000                	unimp
  100e50:	0000                	unimp
  100e52:	0000                	unimp
  100e54:	0000                	unimp
  100e56:	0000                	unimp
  100e58:	0000                	unimp
  100e5a:	0000                	unimp
  100e5c:	0000                	unimp
  100e5e:	0000                	unimp
  100e60:	0000                	unimp
  100e62:	0000                	unimp
  100e64:	0000                	unimp
  100e66:	0000                	unimp
  100e68:	0000                	unimp
  100e6a:	0000                	unimp
  100e6c:	0000                	unimp
  100e6e:	0000                	unimp
  100e70:	0000                	unimp
  100e72:	0000                	unimp
  100e74:	0000                	unimp
  100e76:	0000                	unimp
  100e78:	0000                	unimp
  100e7a:	0000                	unimp
  100e7c:	0000                	unimp
  100e7e:	0000                	unimp
  100e80:	0000                	unimp
  100e82:	0000                	unimp
  100e84:	0000                	unimp
  100e86:	0000                	unimp
  100e88:	0000                	unimp
  100e8a:	0000                	unimp
  100e8c:	0000                	unimp
  100e8e:	0000                	unimp
  100e90:	0000                	unimp
  100e92:	0000                	unimp
  100e94:	0000                	unimp
  100e96:	0000                	unimp
  100e98:	0000                	unimp
  100e9a:	0000                	unimp
  100e9c:	0000                	unimp
  100e9e:	0000                	unimp
  100ea0:	0000                	unimp
  100ea2:	0000                	unimp
  100ea4:	0000                	unimp
  100ea6:	0000                	unimp
  100ea8:	0000                	unimp
  100eaa:	0000                	unimp
  100eac:	0000                	unimp
  100eae:	0000                	unimp
  100eb0:	0000                	unimp
  100eb2:	0000                	unimp
  100eb4:	0000                	unimp
  100eb6:	0000                	unimp
  100eb8:	0000                	unimp
  100eba:	0000                	unimp
  100ebc:	0000                	unimp
  100ebe:	0000                	unimp
  100ec0:	0000                	unimp
  100ec2:	0000                	unimp
  100ec4:	0000                	unimp
  100ec6:	0000                	unimp
  100ec8:	0000                	unimp
  100eca:	0000                	unimp
  100ecc:	0000                	unimp
  100ece:	0000                	unimp
  100ed0:	0000                	unimp
  100ed2:	0000                	unimp
  100ed4:	0000                	unimp
  100ed6:	0000                	unimp
  100ed8:	0000                	unimp
  100eda:	0000                	unimp
  100edc:	0000                	unimp
  100ede:	0000                	unimp
  100ee0:	0000                	unimp
  100ee2:	0000                	unimp
  100ee4:	0000                	unimp
  100ee6:	0000                	unimp
  100ee8:	0000                	unimp
  100eea:	0000                	unimp
  100eec:	0000                	unimp
  100eee:	0000                	unimp
  100ef0:	0000                	unimp
  100ef2:	0000                	unimp
  100ef4:	0000                	unimp
  100ef6:	0000                	unimp
  100ef8:	0000                	unimp
  100efa:	0000                	unimp
  100efc:	0000                	unimp
  100efe:	0000                	unimp
  100f00:	0000                	unimp
  100f02:	0000                	unimp
  100f04:	0000                	unimp
  100f06:	0000                	unimp
  100f08:	0000                	unimp
  100f0a:	0000                	unimp
  100f0c:	0000                	unimp
  100f0e:	0000                	unimp
  100f10:	0000                	unimp
  100f12:	0000                	unimp
  100f14:	0000                	unimp
  100f16:	0000                	unimp
  100f18:	0000                	unimp
  100f1a:	0000                	unimp
  100f1c:	0000                	unimp
  100f1e:	0000                	unimp
  100f20:	0000                	unimp
  100f22:	0000                	unimp
  100f24:	0000                	unimp
  100f26:	0000                	unimp
  100f28:	0000                	unimp
  100f2a:	0000                	unimp
  100f2c:	0000                	unimp
  100f2e:	0000                	unimp
  100f30:	0000                	unimp
  100f32:	0000                	unimp
  100f34:	0000                	unimp
  100f36:	0000                	unimp
  100f38:	0000                	unimp
  100f3a:	0000                	unimp
  100f3c:	0000                	unimp
  100f3e:	0000                	unimp
  100f40:	0000                	unimp
  100f42:	0000                	unimp
  100f44:	0000                	unimp
  100f46:	0000                	unimp
  100f48:	0000                	unimp
  100f4a:	0000                	unimp
  100f4c:	0000                	unimp
  100f4e:	0000                	unimp
  100f50:	0000                	unimp
  100f52:	0000                	unimp
  100f54:	0000                	unimp
  100f56:	0000                	unimp
  100f58:	0000                	unimp
  100f5a:	0000                	unimp
  100f5c:	0000                	unimp
  100f5e:	0000                	unimp
  100f60:	0000                	unimp
  100f62:	0000                	unimp
  100f64:	0000                	unimp
  100f66:	0000                	unimp
  100f68:	0000                	unimp
  100f6a:	0000                	unimp
  100f6c:	0000                	unimp
  100f6e:	0000                	unimp
  100f70:	0000                	unimp
  100f72:	0000                	unimp
  100f74:	0000                	unimp
  100f76:	0000                	unimp
  100f78:	0000                	unimp
  100f7a:	0000                	unimp
  100f7c:	0000                	unimp
  100f7e:	0000                	unimp
  100f80:	0000                	unimp
  100f82:	0000                	unimp
  100f84:	0000                	unimp
  100f86:	0000                	unimp
  100f88:	0000                	unimp
  100f8a:	0000                	unimp
  100f8c:	0000                	unimp
  100f8e:	0000                	unimp
  100f90:	0000                	unimp
  100f92:	0000                	unimp
  100f94:	0000                	unimp
  100f96:	0000                	unimp
  100f98:	0000                	unimp
  100f9a:	0000                	unimp
  100f9c:	0000                	unimp
  100f9e:	0000                	unimp
  100fa0:	0000                	unimp
  100fa2:	0000                	unimp
  100fa4:	0000                	unimp
  100fa6:	0000                	unimp
  100fa8:	0000                	unimp
  100faa:	0000                	unimp
  100fac:	0000                	unimp
  100fae:	0000                	unimp
  100fb0:	0000                	unimp
  100fb2:	0000                	unimp
  100fb4:	0000                	unimp
  100fb6:	0000                	unimp
  100fb8:	0000                	unimp
  100fba:	0000                	unimp
  100fbc:	0000                	unimp
  100fbe:	0000                	unimp
  100fc0:	0000                	unimp
  100fc2:	0000                	unimp
  100fc4:	0000                	unimp
  100fc6:	0000                	unimp
  100fc8:	0000                	unimp
  100fca:	0000                	unimp
  100fcc:	0000                	unimp
  100fce:	0000                	unimp
  100fd0:	0000                	unimp
  100fd2:	0000                	unimp
  100fd4:	0000                	unimp
  100fd6:	0000                	unimp
  100fd8:	0000                	unimp
  100fda:	0000                	unimp
  100fdc:	0000                	unimp
  100fde:	0000                	unimp
  100fe0:	0000                	unimp
  100fe2:	0000                	unimp
  100fe4:	0000                	unimp
  100fe6:	0000                	unimp
  100fe8:	0000                	unimp
  100fea:	0000                	unimp
  100fec:	0000                	unimp
  100fee:	0000                	unimp
  100ff0:	0000                	unimp
  100ff2:	0000                	unimp
  100ff4:	0000                	unimp
  100ff6:	0000                	unimp
  100ff8:	0000                	unimp
  100ffa:	0000                	unimp
  100ffc:	0000                	unimp
  100ffe:	0000                	unimp
  101000:	0000                	unimp
  101002:	0000                	unimp
  101004:	0000                	unimp
  101006:	0000                	unimp
  101008:	0000                	unimp
  10100a:	0000                	unimp
  10100c:	0000                	unimp
  10100e:	0000                	unimp
  101010:	0000                	unimp
  101012:	0000                	unimp
  101014:	0000                	unimp
  101016:	0000                	unimp
  101018:	0000                	unimp
  10101a:	0000                	unimp
  10101c:	0000                	unimp
  10101e:	0000                	unimp
  101020:	0000                	unimp
  101022:	0000                	unimp
  101024:	0000                	unimp
  101026:	0000                	unimp
  101028:	0000                	unimp
  10102a:	0000                	unimp
  10102c:	0000                	unimp
  10102e:	0000                	unimp
  101030:	0000                	unimp
  101032:	0000                	unimp
  101034:	0000                	unimp
  101036:	0000                	unimp
  101038:	0000                	unimp
  10103a:	0000                	unimp
  10103c:	0000                	unimp
  10103e:	0000                	unimp
  101040:	0000                	unimp
  101042:	0000                	unimp
  101044:	0000                	unimp
  101046:	0000                	unimp
  101048:	0000                	unimp
  10104a:	0000                	unimp
  10104c:	0000                	unimp
  10104e:	0000                	unimp
  101050:	0000                	unimp
  101052:	0000                	unimp
  101054:	0000                	unimp
  101056:	0000                	unimp
  101058:	0000                	unimp
  10105a:	0000                	unimp
  10105c:	0000                	unimp
  10105e:	0000                	unimp
  101060:	0000                	unimp
  101062:	0000                	unimp
  101064:	0000                	unimp
  101066:	0000                	unimp
  101068:	0000                	unimp
  10106a:	0000                	unimp
  10106c:	0000                	unimp
  10106e:	0000                	unimp
  101070:	0000                	unimp
  101072:	0000                	unimp
  101074:	0000                	unimp
  101076:	0000                	unimp
  101078:	0000                	unimp
  10107a:	0000                	unimp
  10107c:	0000                	unimp
  10107e:	0000                	unimp
  101080:	0000                	unimp
  101082:	0000                	unimp
  101084:	0000                	unimp
  101086:	0000                	unimp
  101088:	0000                	unimp
  10108a:	0000                	unimp
  10108c:	0000                	unimp
  10108e:	0000                	unimp
  101090:	0000                	unimp
  101092:	0000                	unimp
  101094:	0000                	unimp
  101096:	0000                	unimp
  101098:	0000                	unimp
  10109a:	0000                	unimp
  10109c:	0000                	unimp
  10109e:	0000                	unimp
  1010a0:	0000                	unimp
  1010a2:	0000                	unimp
  1010a4:	0000                	unimp
  1010a6:	0000                	unimp
  1010a8:	0000                	unimp
  1010aa:	0000                	unimp
  1010ac:	0000                	unimp
  1010ae:	0000                	unimp
  1010b0:	0000                	unimp
  1010b2:	0000                	unimp
  1010b4:	0000                	unimp
  1010b6:	0000                	unimp
  1010b8:	0000                	unimp
  1010ba:	0000                	unimp
  1010bc:	0000                	unimp
  1010be:	0000                	unimp
  1010c0:	0000                	unimp
  1010c2:	0000                	unimp
  1010c4:	0000                	unimp
  1010c6:	0000                	unimp
  1010c8:	0000                	unimp
  1010ca:	0000                	unimp
  1010cc:	0000                	unimp
  1010ce:	0000                	unimp
  1010d0:	0000                	unimp
  1010d2:	0000                	unimp
  1010d4:	0000                	unimp
  1010d6:	0000                	unimp
  1010d8:	0000                	unimp
  1010da:	0000                	unimp
  1010dc:	0000                	unimp
  1010de:	0000                	unimp
  1010e0:	0000                	unimp
  1010e2:	0000                	unimp
  1010e4:	0000                	unimp
  1010e6:	0000                	unimp
  1010e8:	0000                	unimp
  1010ea:	0000                	unimp
  1010ec:	0000                	unimp
  1010ee:	0000                	unimp
  1010f0:	0000                	unimp
  1010f2:	0000                	unimp
  1010f4:	0000                	unimp
  1010f6:	0000                	unimp
  1010f8:	0000                	unimp
  1010fa:	0000                	unimp
  1010fc:	0000                	unimp
  1010fe:	0000                	unimp
  101100:	0000                	unimp
  101102:	0000                	unimp
  101104:	0000                	unimp
  101106:	0000                	unimp
  101108:	0000                	unimp
  10110a:	0000                	unimp
  10110c:	0000                	unimp
  10110e:	0000                	unimp
  101110:	0000                	unimp
  101112:	0000                	unimp
  101114:	0000                	unimp
  101116:	0000                	unimp
  101118:	0000                	unimp
  10111a:	0000                	unimp
  10111c:	0000                	unimp
  10111e:	0000                	unimp
  101120:	0000                	unimp
  101122:	0000                	unimp
  101124:	0000                	unimp
  101126:	0000                	unimp
  101128:	0000                	unimp
  10112a:	0000                	unimp
  10112c:	0000                	unimp
  10112e:	0000                	unimp
  101130:	0000                	unimp
  101132:	0000                	unimp
  101134:	0000                	unimp
  101136:	0000                	unimp
  101138:	0000                	unimp
  10113a:	0000                	unimp
  10113c:	0000                	unimp
  10113e:	0000                	unimp
  101140:	0000                	unimp
  101142:	0000                	unimp
  101144:	0000                	unimp
  101146:	0000                	unimp
  101148:	0000                	unimp
  10114a:	0000                	unimp
  10114c:	0000                	unimp
  10114e:	0000                	unimp
  101150:	0000                	unimp
  101152:	0000                	unimp
  101154:	0000                	unimp
  101156:	0000                	unimp
  101158:	0000                	unimp
  10115a:	0000                	unimp
  10115c:	0000                	unimp
  10115e:	0000                	unimp
  101160:	0000                	unimp
  101162:	0000                	unimp
  101164:	0000                	unimp
  101166:	0000                	unimp
  101168:	0000                	unimp
  10116a:	0000                	unimp
  10116c:	0000                	unimp
  10116e:	0000                	unimp
  101170:	0000                	unimp
  101172:	0000                	unimp
  101174:	0000                	unimp
  101176:	0000                	unimp
  101178:	0000                	unimp
  10117a:	0000                	unimp
  10117c:	0000                	unimp
  10117e:	0000                	unimp
  101180:	0000                	unimp
  101182:	0000                	unimp
  101184:	0000                	unimp
  101186:	0000                	unimp
  101188:	0000                	unimp
  10118a:	0000                	unimp
  10118c:	0000                	unimp
  10118e:	0000                	unimp
  101190:	0000                	unimp
  101192:	0000                	unimp
  101194:	0000                	unimp
  101196:	0000                	unimp
  101198:	0000                	unimp
  10119a:	0000                	unimp
  10119c:	0000                	unimp
  10119e:	0000                	unimp
  1011a0:	0000                	unimp
  1011a2:	0000                	unimp
  1011a4:	0000                	unimp
  1011a6:	0000                	unimp
  1011a8:	0000                	unimp
  1011aa:	0000                	unimp
  1011ac:	0000                	unimp
  1011ae:	0000                	unimp
  1011b0:	0000                	unimp
  1011b2:	0000                	unimp
  1011b4:	0000                	unimp
  1011b6:	0000                	unimp
  1011b8:	0000                	unimp
  1011ba:	0000                	unimp
  1011bc:	0000                	unimp
  1011be:	0000                	unimp
  1011c0:	0000                	unimp
  1011c2:	0000                	unimp
  1011c4:	0000                	unimp
  1011c6:	0000                	unimp
  1011c8:	0000                	unimp
  1011ca:	0000                	unimp
  1011cc:	0000                	unimp
  1011ce:	0000                	unimp
  1011d0:	0000                	unimp
  1011d2:	0000                	unimp
  1011d4:	0000                	unimp
  1011d6:	0000                	unimp
  1011d8:	0000                	unimp
  1011da:	0000                	unimp
  1011dc:	0000                	unimp
  1011de:	0000                	unimp
  1011e0:	0000                	unimp
  1011e2:	0000                	unimp
  1011e4:	0000                	unimp
  1011e6:	0000                	unimp
  1011e8:	0000                	unimp
  1011ea:	0000                	unimp
  1011ec:	0000                	unimp
  1011ee:	0000                	unimp
  1011f0:	0000                	unimp
  1011f2:	0000                	unimp
  1011f4:	0000                	unimp
  1011f6:	0000                	unimp
  1011f8:	0000                	unimp
  1011fa:	0000                	unimp
  1011fc:	0000                	unimp
  1011fe:	0000                	unimp
  101200:	0000                	unimp
  101202:	0000                	unimp
  101204:	0000                	unimp
  101206:	0000                	unimp
  101208:	0000                	unimp
  10120a:	0000                	unimp
  10120c:	0000                	unimp
  10120e:	0000                	unimp
  101210:	0000                	unimp
  101212:	0000                	unimp
  101214:	0000                	unimp
  101216:	0000                	unimp
  101218:	0000                	unimp
  10121a:	0000                	unimp
  10121c:	0000                	unimp
  10121e:	0000                	unimp
  101220:	0000                	unimp
  101222:	0000                	unimp
  101224:	0000                	unimp
  101226:	0000                	unimp
  101228:	0000                	unimp
  10122a:	0000                	unimp
  10122c:	0000                	unimp
  10122e:	0000                	unimp
  101230:	0000                	unimp
  101232:	0000                	unimp
  101234:	0000                	unimp
  101236:	0000                	unimp
  101238:	0000                	unimp
  10123a:	0000                	unimp
  10123c:	0000                	unimp
  10123e:	0000                	unimp
  101240:	0000                	unimp
  101242:	0000                	unimp
  101244:	0000                	unimp
  101246:	0000                	unimp
  101248:	0000                	unimp
  10124a:	0000                	unimp
  10124c:	0000                	unimp
  10124e:	0000                	unimp
  101250:	0000                	unimp
  101252:	0000                	unimp
  101254:	0000                	unimp
  101256:	0000                	unimp
  101258:	0000                	unimp
  10125a:	0000                	unimp
  10125c:	0000                	unimp
  10125e:	0000                	unimp
  101260:	0000                	unimp
  101262:	0000                	unimp
  101264:	0000                	unimp
  101266:	0000                	unimp
  101268:	0000                	unimp
  10126a:	0000                	unimp
  10126c:	0000                	unimp
  10126e:	0000                	unimp
  101270:	0000                	unimp
  101272:	0000                	unimp
  101274:	0000                	unimp
  101276:	0000                	unimp
  101278:	0000                	unimp
  10127a:	0000                	unimp
  10127c:	0000                	unimp
  10127e:	0000                	unimp
  101280:	0000                	unimp
  101282:	0000                	unimp
  101284:	0000                	unimp
  101286:	0000                	unimp
  101288:	0000                	unimp
  10128a:	0000                	unimp
  10128c:	0000                	unimp
  10128e:	0000                	unimp
  101290:	0000                	unimp
  101292:	0000                	unimp
  101294:	0000                	unimp
  101296:	0000                	unimp
  101298:	0000                	unimp
  10129a:	0000                	unimp
  10129c:	0000                	unimp
  10129e:	0000                	unimp
  1012a0:	0000                	unimp
  1012a2:	0000                	unimp
  1012a4:	0000                	unimp
  1012a6:	0000                	unimp
  1012a8:	0000                	unimp
  1012aa:	0000                	unimp
  1012ac:	0000                	unimp
  1012ae:	0000                	unimp
  1012b0:	0000                	unimp
  1012b2:	0000                	unimp
  1012b4:	0000                	unimp
  1012b6:	0000                	unimp
  1012b8:	0000                	unimp
  1012ba:	0000                	unimp
  1012bc:	0000                	unimp
  1012be:	0000                	unimp
  1012c0:	0000                	unimp
  1012c2:	0000                	unimp
  1012c4:	0000                	unimp
  1012c6:	0000                	unimp
  1012c8:	0000                	unimp
  1012ca:	0000                	unimp
  1012cc:	0000                	unimp
  1012ce:	0000                	unimp
  1012d0:	0000                	unimp
  1012d2:	0000                	unimp
  1012d4:	0000                	unimp
  1012d6:	0000                	unimp
  1012d8:	0000                	unimp
  1012da:	0000                	unimp
  1012dc:	0000                	unimp
  1012de:	0000                	unimp
  1012e0:	0000                	unimp
  1012e2:	0000                	unimp
  1012e4:	0000                	unimp
  1012e6:	0000                	unimp
  1012e8:	0000                	unimp
  1012ea:	0000                	unimp
  1012ec:	0000                	unimp
  1012ee:	0000                	unimp
  1012f0:	0000                	unimp
  1012f2:	0000                	unimp
  1012f4:	0000                	unimp
  1012f6:	0000                	unimp
  1012f8:	0000                	unimp
  1012fa:	0000                	unimp
  1012fc:	0000                	unimp
  1012fe:	0000                	unimp
  101300:	0000                	unimp
  101302:	0000                	unimp
  101304:	0000                	unimp
  101306:	0000                	unimp
  101308:	0000                	unimp
  10130a:	0000                	unimp
  10130c:	0000                	unimp
  10130e:	0000                	unimp
  101310:	0000                	unimp
  101312:	0000                	unimp
  101314:	0000                	unimp
  101316:	0000                	unimp
  101318:	0000                	unimp
  10131a:	0000                	unimp
  10131c:	0000                	unimp
  10131e:	0000                	unimp
  101320:	0000                	unimp
  101322:	0000                	unimp
  101324:	0000                	unimp
  101326:	0000                	unimp
  101328:	0000                	unimp
  10132a:	0000                	unimp
  10132c:	0000                	unimp
  10132e:	0000                	unimp
  101330:	0000                	unimp
  101332:	0000                	unimp
  101334:	0000                	unimp
  101336:	0000                	unimp
  101338:	0000                	unimp
  10133a:	0000                	unimp
  10133c:	0000                	unimp
  10133e:	0000                	unimp
  101340:	0000                	unimp
  101342:	0000                	unimp
  101344:	0000                	unimp
  101346:	0000                	unimp
  101348:	0000                	unimp
  10134a:	0000                	unimp
  10134c:	0000                	unimp
  10134e:	0000                	unimp
  101350:	0000                	unimp
  101352:	0000                	unimp
  101354:	0000                	unimp
  101356:	0000                	unimp
  101358:	0000                	unimp
  10135a:	0000                	unimp
  10135c:	0000                	unimp
  10135e:	0000                	unimp
  101360:	0000                	unimp
  101362:	0000                	unimp
  101364:	0000                	unimp
  101366:	0000                	unimp
  101368:	0000                	unimp
  10136a:	0000                	unimp
  10136c:	0000                	unimp
  10136e:	0000                	unimp
  101370:	0000                	unimp
  101372:	0000                	unimp
  101374:	0000                	unimp
  101376:	0000                	unimp
  101378:	0000                	unimp
  10137a:	0000                	unimp
  10137c:	0000                	unimp
  10137e:	0000                	unimp
  101380:	0000                	unimp
  101382:	0000                	unimp
  101384:	0000                	unimp
  101386:	0000                	unimp
  101388:	0000                	unimp
  10138a:	0000                	unimp
  10138c:	0000                	unimp
  10138e:	0000                	unimp
  101390:	0000                	unimp
  101392:	0000                	unimp
  101394:	0000                	unimp
  101396:	0000                	unimp
  101398:	0000                	unimp
  10139a:	0000                	unimp
  10139c:	0000                	unimp
  10139e:	0000                	unimp
  1013a0:	0000                	unimp
  1013a2:	0000                	unimp
  1013a4:	0000                	unimp
  1013a6:	0000                	unimp
  1013a8:	0000                	unimp
  1013aa:	0000                	unimp
  1013ac:	0000                	unimp
  1013ae:	0000                	unimp
  1013b0:	0000                	unimp
  1013b2:	0000                	unimp
  1013b4:	0000                	unimp
  1013b6:	0000                	unimp
  1013b8:	0000                	unimp
  1013ba:	0000                	unimp
  1013bc:	0000                	unimp
  1013be:	0000                	unimp
  1013c0:	0000                	unimp
  1013c2:	0000                	unimp
  1013c4:	0000                	unimp
  1013c6:	0000                	unimp
  1013c8:	0000                	unimp
  1013ca:	0000                	unimp
  1013cc:	0000                	unimp
  1013ce:	0000                	unimp
  1013d0:	0000                	unimp
  1013d2:	0000                	unimp
  1013d4:	0000                	unimp
  1013d6:	0000                	unimp
  1013d8:	0000                	unimp
  1013da:	0000                	unimp
  1013dc:	0000                	unimp
  1013de:	0000                	unimp
  1013e0:	0000                	unimp
  1013e2:	0000                	unimp
  1013e4:	0000                	unimp
  1013e6:	0000                	unimp
  1013e8:	0000                	unimp
  1013ea:	0000                	unimp
  1013ec:	0000                	unimp
  1013ee:	0000                	unimp
  1013f0:	0000                	unimp
  1013f2:	0000                	unimp
  1013f4:	0000                	unimp
  1013f6:	0000                	unimp
  1013f8:	0000                	unimp
  1013fa:	0000                	unimp
  1013fc:	0000                	unimp
  1013fe:	0000                	unimp
  101400:	0000                	unimp
  101402:	0000                	unimp
  101404:	0000                	unimp
  101406:	0000                	unimp
  101408:	0000                	unimp
  10140a:	0000                	unimp
  10140c:	0000                	unimp
  10140e:	0000                	unimp
  101410:	0000                	unimp
  101412:	0000                	unimp
  101414:	0000                	unimp
  101416:	0000                	unimp
  101418:	0000                	unimp
  10141a:	0000                	unimp
  10141c:	0000                	unimp
  10141e:	0000                	unimp
  101420:	0000                	unimp
  101422:	0000                	unimp
  101424:	0000                	unimp
  101426:	0000                	unimp
  101428:	0000                	unimp
  10142a:	0000                	unimp
  10142c:	0000                	unimp
  10142e:	0000                	unimp
  101430:	0000                	unimp
  101432:	0000                	unimp
  101434:	0000                	unimp
  101436:	0000                	unimp
  101438:	0000                	unimp
  10143a:	0000                	unimp
  10143c:	0000                	unimp
  10143e:	0000                	unimp
  101440:	0000                	unimp
  101442:	0000                	unimp
  101444:	0000                	unimp
  101446:	0000                	unimp
  101448:	0000                	unimp
  10144a:	0000                	unimp
  10144c:	0000                	unimp
  10144e:	0000                	unimp
  101450:	0000                	unimp
  101452:	0000                	unimp
  101454:	0000                	unimp
  101456:	0000                	unimp
  101458:	0000                	unimp
  10145a:	0000                	unimp
  10145c:	0000                	unimp
  10145e:	0000                	unimp
  101460:	0000                	unimp
  101462:	0000                	unimp
  101464:	0000                	unimp
  101466:	0000                	unimp
  101468:	0000                	unimp
  10146a:	0000                	unimp
  10146c:	0000                	unimp
  10146e:	0000                	unimp
  101470:	0000                	unimp
  101472:	0000                	unimp
  101474:	0000                	unimp
  101476:	0000                	unimp
  101478:	0000                	unimp
  10147a:	0000                	unimp
  10147c:	0000                	unimp
  10147e:	0000                	unimp
  101480:	0000                	unimp
  101482:	0000                	unimp
  101484:	0000                	unimp
  101486:	0000                	unimp
  101488:	0000                	unimp
  10148a:	0000                	unimp
  10148c:	0000                	unimp
  10148e:	0000                	unimp
  101490:	0000                	unimp
  101492:	0000                	unimp
  101494:	0000                	unimp
  101496:	0000                	unimp
  101498:	0000                	unimp
  10149a:	0000                	unimp
  10149c:	0000                	unimp
  10149e:	0000                	unimp
  1014a0:	0000                	unimp
  1014a2:	0000                	unimp
  1014a4:	0000                	unimp
  1014a6:	0000                	unimp
  1014a8:	0000                	unimp
  1014aa:	0000                	unimp
  1014ac:	0000                	unimp
  1014ae:	0000                	unimp
  1014b0:	0000                	unimp
  1014b2:	0000                	unimp
  1014b4:	0000                	unimp
  1014b6:	0000                	unimp
  1014b8:	0000                	unimp
  1014ba:	0000                	unimp
  1014bc:	0000                	unimp
  1014be:	0000                	unimp
  1014c0:	0000                	unimp
  1014c2:	0000                	unimp
  1014c4:	0000                	unimp
  1014c6:	0000                	unimp
  1014c8:	0000                	unimp
  1014ca:	0000                	unimp
  1014cc:	0000                	unimp
  1014ce:	0000                	unimp
  1014d0:	0000                	unimp
  1014d2:	0000                	unimp
  1014d4:	0000                	unimp
  1014d6:	0000                	unimp
  1014d8:	0000                	unimp
  1014da:	0000                	unimp
  1014dc:	0000                	unimp
  1014de:	0000                	unimp
  1014e0:	0000                	unimp
  1014e2:	0000                	unimp
  1014e4:	0000                	unimp
  1014e6:	0000                	unimp
  1014e8:	0000                	unimp
  1014ea:	0000                	unimp
  1014ec:	0000                	unimp
  1014ee:	0000                	unimp
  1014f0:	0000                	unimp
  1014f2:	0000                	unimp
  1014f4:	0000                	unimp
  1014f6:	0000                	unimp

001014f8 <used>:
  1014f8:	0000                	unimp
  1014fa:	0000                	unimp
  1014fc:	0000                	unimp
  1014fe:	0000                	unimp
  101500:	0000                	unimp
  101502:	0000                	unimp
  101504:	0000                	unimp
  101506:	0000                	unimp
  101508:	0000                	unimp
  10150a:	0000                	unimp
  10150c:	0000                	unimp
  10150e:	0000                	unimp
  101510:	0000                	unimp
  101512:	0000                	unimp
  101514:	0000                	unimp
  101516:	0000                	unimp
  101518:	0000                	unimp
  10151a:	0000                	unimp
  10151c:	0000                	unimp
  10151e:	0000                	unimp
  101520:	0000                	unimp
  101522:	0000                	unimp
  101524:	0000                	unimp
  101526:	0000                	unimp
  101528:	0000                	unimp
  10152a:	0000                	unimp
  10152c:	0000                	unimp
  10152e:	0000                	unimp
  101530:	0000                	unimp
  101532:	0000                	unimp
  101534:	0000                	unimp
  101536:	0000                	unimp
  101538:	0000                	unimp
  10153a:	0000                	unimp
  10153c:	0000                	unimp
  10153e:	0000                	unimp
  101540:	0000                	unimp
  101542:	0000                	unimp
  101544:	0000                	unimp
  101546:	0000                	unimp
  101548:	0000                	unimp
  10154a:	0000                	unimp
  10154c:	0000                	unimp
  10154e:	0000                	unimp
  101550:	0000                	unimp
  101552:	0000                	unimp
  101554:	0000                	unimp
  101556:	0000                	unimp
  101558:	0000                	unimp
  10155a:	0000                	unimp
  10155c:	0000                	unimp
  10155e:	0000                	unimp
  101560:	0000                	unimp
  101562:	0000                	unimp
  101564:	0000                	unimp
  101566:	0000                	unimp
  101568:	0000                	unimp
  10156a:	0000                	unimp
  10156c:	0000                	unimp
  10156e:	0000                	unimp
  101570:	0000                	unimp
  101572:	0000                	unimp
  101574:	0000                	unimp
  101576:	0000                	unimp
  101578:	0000                	unimp
  10157a:	0000                	unimp
  10157c:	0000                	unimp
  10157e:	0000                	unimp
  101580:	0000                	unimp
  101582:	0000                	unimp
  101584:	0000                	unimp
  101586:	0000                	unimp
  101588:	0000                	unimp
  10158a:	0000                	unimp
  10158c:	0000                	unimp
  10158e:	0000                	unimp
  101590:	0000                	unimp
  101592:	0000                	unimp
  101594:	0000                	unimp
  101596:	0000                	unimp
  101598:	0000                	unimp
  10159a:	0000                	unimp
  10159c:	0000                	unimp
  10159e:	0000                	unimp
  1015a0:	0000                	unimp
  1015a2:	0000                	unimp
  1015a4:	0000                	unimp
  1015a6:	0000                	unimp
  1015a8:	0000                	unimp
  1015aa:	0000                	unimp
  1015ac:	0000                	unimp
  1015ae:	0000                	unimp
  1015b0:	0000                	unimp
  1015b2:	0000                	unimp
  1015b4:	0000                	unimp
  1015b6:	0000                	unimp
  1015b8:	0000                	unimp
  1015ba:	0000                	unimp
  1015bc:	0000                	unimp
  1015be:	0000                	unimp
  1015c0:	0000                	unimp
  1015c2:	0000                	unimp
  1015c4:	0000                	unimp
  1015c6:	0000                	unimp
  1015c8:	0000                	unimp
  1015ca:	0000                	unimp
  1015cc:	0000                	unimp
  1015ce:	0000                	unimp
  1015d0:	0000                	unimp
  1015d2:	0000                	unimp
  1015d4:	0000                	unimp
  1015d6:	0000                	unimp
  1015d8:	0000                	unimp
  1015da:	0000                	unimp
  1015dc:	0000                	unimp
  1015de:	0000                	unimp
  1015e0:	0000                	unimp
  1015e2:	0000                	unimp
  1015e4:	0000                	unimp
  1015e6:	0000                	unimp
  1015e8:	0000                	unimp
  1015ea:	0000                	unimp
  1015ec:	0000                	unimp
  1015ee:	0000                	unimp
  1015f0:	0000                	unimp
  1015f2:	0000                	unimp
  1015f4:	0000                	unimp
  1015f6:	0000                	unimp
  1015f8:	0000                	unimp
  1015fa:	0000                	unimp
  1015fc:	0000                	unimp
  1015fe:	0000                	unimp
  101600:	0000                	unimp
  101602:	0000                	unimp
  101604:	0000                	unimp
  101606:	0000                	unimp
  101608:	0000                	unimp
  10160a:	0000                	unimp
  10160c:	0000                	unimp
  10160e:	0000                	unimp
  101610:	0000                	unimp
  101612:	0000                	unimp
  101614:	0000                	unimp
  101616:	0000                	unimp
  101618:	0000                	unimp
  10161a:	0000                	unimp
  10161c:	0000                	unimp
  10161e:	0000                	unimp
  101620:	0000                	unimp
  101622:	0000                	unimp
  101624:	0000                	unimp
  101626:	0000                	unimp
  101628:	0000                	unimp
  10162a:	0000                	unimp
  10162c:	0000                	unimp
  10162e:	0000                	unimp
  101630:	0000                	unimp
  101632:	0000                	unimp
  101634:	0000                	unimp
  101636:	0000                	unimp
  101638:	0000                	unimp
  10163a:	0000                	unimp
  10163c:	0000                	unimp
  10163e:	0000                	unimp
  101640:	0000                	unimp
  101642:	0000                	unimp
  101644:	0000                	unimp
  101646:	0000                	unimp
  101648:	0000                	unimp
  10164a:	0000                	unimp
  10164c:	0000                	unimp
  10164e:	0000                	unimp
  101650:	0000                	unimp
  101652:	0000                	unimp
  101654:	0000                	unimp
  101656:	0000                	unimp
  101658:	0000                	unimp
  10165a:	0000                	unimp
  10165c:	0000                	unimp
  10165e:	0000                	unimp
  101660:	0000                	unimp
  101662:	0000                	unimp
  101664:	0000                	unimp
  101666:	0000                	unimp
  101668:	0000                	unimp
  10166a:	0000                	unimp
  10166c:	0000                	unimp
  10166e:	0000                	unimp
  101670:	0000                	unimp
  101672:	0000                	unimp
  101674:	0000                	unimp
  101676:	0000                	unimp
  101678:	0000                	unimp
  10167a:	0000                	unimp
  10167c:	0000                	unimp
  10167e:	0000                	unimp
  101680:	0000                	unimp
  101682:	0000                	unimp
  101684:	0000                	unimp
  101686:	0000                	unimp
  101688:	0000                	unimp
  10168a:	0000                	unimp
  10168c:	0000                	unimp
  10168e:	0000                	unimp
  101690:	0000                	unimp
  101692:	0000                	unimp
  101694:	0000                	unimp
  101696:	0000                	unimp
  101698:	0000                	unimp
  10169a:	0000                	unimp
  10169c:	0000                	unimp
  10169e:	0000                	unimp
  1016a0:	0000                	unimp
  1016a2:	0000                	unimp
  1016a4:	0000                	unimp
  1016a6:	0000                	unimp
  1016a8:	0000                	unimp
  1016aa:	0000                	unimp
  1016ac:	0000                	unimp
  1016ae:	0000                	unimp
  1016b0:	0000                	unimp
  1016b2:	0000                	unimp
  1016b4:	0000                	unimp
  1016b6:	0000                	unimp
  1016b8:	0000                	unimp
  1016ba:	0000                	unimp
  1016bc:	0000                	unimp
  1016be:	0000                	unimp
  1016c0:	0000                	unimp
  1016c2:	0000                	unimp
  1016c4:	0000                	unimp
  1016c6:	0000                	unimp
  1016c8:	0000                	unimp
  1016ca:	0000                	unimp
  1016cc:	0000                	unimp
  1016ce:	0000                	unimp
  1016d0:	0000                	unimp
  1016d2:	0000                	unimp
  1016d4:	0000                	unimp
  1016d6:	0000                	unimp
  1016d8:	0000                	unimp
  1016da:	0000                	unimp
  1016dc:	0000                	unimp
  1016de:	0000                	unimp
  1016e0:	0000                	unimp
  1016e2:	0000                	unimp
  1016e4:	0000                	unimp
  1016e6:	0000                	unimp
  1016e8:	0000                	unimp
  1016ea:	0000                	unimp
  1016ec:	0000                	unimp
  1016ee:	0000                	unimp
  1016f0:	0000                	unimp
  1016f2:	0000                	unimp
  1016f4:	0000                	unimp
  1016f6:	0000                	unimp
  1016f8:	0000                	unimp
  1016fa:	0000                	unimp
  1016fc:	0000                	unimp
  1016fe:	0000                	unimp
  101700:	0000                	unimp
  101702:	0000                	unimp
  101704:	0000                	unimp
  101706:	0000                	unimp
  101708:	0000                	unimp
  10170a:	0000                	unimp
  10170c:	0000                	unimp
  10170e:	0000                	unimp
  101710:	0000                	unimp
  101712:	0000                	unimp
  101714:	0000                	unimp
  101716:	0000                	unimp
  101718:	0000                	unimp
  10171a:	0000                	unimp
  10171c:	0000                	unimp
  10171e:	0000                	unimp
  101720:	0000                	unimp
  101722:	0000                	unimp
  101724:	0000                	unimp
  101726:	0000                	unimp
  101728:	0000                	unimp
  10172a:	0000                	unimp
  10172c:	0000                	unimp
  10172e:	0000                	unimp
  101730:	0000                	unimp
  101732:	0000                	unimp
  101734:	0000                	unimp
  101736:	0000                	unimp
  101738:	0000                	unimp
  10173a:	0000                	unimp
  10173c:	0000                	unimp
  10173e:	0000                	unimp
  101740:	0000                	unimp
  101742:	0000                	unimp
  101744:	0000                	unimp
  101746:	0000                	unimp
  101748:	0000                	unimp
  10174a:	0000                	unimp
  10174c:	0000                	unimp
  10174e:	0000                	unimp
  101750:	0000                	unimp
  101752:	0000                	unimp
  101754:	0000                	unimp
  101756:	0000                	unimp
  101758:	0000                	unimp
  10175a:	0000                	unimp
  10175c:	0000                	unimp
  10175e:	0000                	unimp
  101760:	0000                	unimp
  101762:	0000                	unimp
  101764:	0000                	unimp
  101766:	0000                	unimp
  101768:	0000                	unimp
  10176a:	0000                	unimp
  10176c:	0000                	unimp
  10176e:	0000                	unimp
  101770:	0000                	unimp
  101772:	0000                	unimp
  101774:	0000                	unimp
  101776:	0000                	unimp
  101778:	0000                	unimp
  10177a:	0000                	unimp
  10177c:	0000                	unimp
  10177e:	0000                	unimp
  101780:	0000                	unimp
  101782:	0000                	unimp
  101784:	0000                	unimp
  101786:	0000                	unimp
  101788:	0000                	unimp
  10178a:	0000                	unimp
  10178c:	0000                	unimp
  10178e:	0000                	unimp
  101790:	0000                	unimp
  101792:	0000                	unimp
  101794:	0000                	unimp
  101796:	0000                	unimp
  101798:	0000                	unimp
  10179a:	0000                	unimp
  10179c:	0000                	unimp
  10179e:	0000                	unimp
  1017a0:	0000                	unimp
  1017a2:	0000                	unimp
  1017a4:	0000                	unimp
  1017a6:	0000                	unimp
  1017a8:	0000                	unimp
  1017aa:	0000                	unimp
  1017ac:	0000                	unimp
  1017ae:	0000                	unimp
  1017b0:	0000                	unimp
  1017b2:	0000                	unimp
  1017b4:	0000                	unimp
  1017b6:	0000                	unimp
  1017b8:	0000                	unimp
  1017ba:	0000                	unimp
  1017bc:	0000                	unimp
  1017be:	0000                	unimp
  1017c0:	0000                	unimp
  1017c2:	0000                	unimp
  1017c4:	0000                	unimp
  1017c6:	0000                	unimp
  1017c8:	0000                	unimp
  1017ca:	0000                	unimp
  1017cc:	0000                	unimp
  1017ce:	0000                	unimp
  1017d0:	0000                	unimp
  1017d2:	0000                	unimp
  1017d4:	0000                	unimp
  1017d6:	0000                	unimp
  1017d8:	0000                	unimp
  1017da:	0000                	unimp
  1017dc:	0000                	unimp
  1017de:	0000                	unimp
  1017e0:	0000                	unimp
  1017e2:	0000                	unimp
  1017e4:	0000                	unimp
  1017e6:	0000                	unimp
  1017e8:	0000                	unimp
  1017ea:	0000                	unimp
  1017ec:	0000                	unimp
  1017ee:	0000                	unimp
  1017f0:	0000                	unimp
  1017f2:	0000                	unimp
  1017f4:	0000                	unimp
  1017f6:	0000                	unimp
  1017f8:	0000                	unimp
  1017fa:	0000                	unimp
  1017fc:	0000                	unimp
  1017fe:	0000                	unimp
  101800:	0000                	unimp
  101802:	0000                	unimp
  101804:	0000                	unimp
  101806:	0000                	unimp
  101808:	0000                	unimp
  10180a:	0000                	unimp
  10180c:	0000                	unimp
  10180e:	0000                	unimp
  101810:	0000                	unimp
  101812:	0000                	unimp
  101814:	0000                	unimp
  101816:	0000                	unimp
  101818:	0000                	unimp
  10181a:	0000                	unimp
  10181c:	0000                	unimp
  10181e:	0000                	unimp
  101820:	0000                	unimp
  101822:	0000                	unimp
  101824:	0000                	unimp
  101826:	0000                	unimp
  101828:	0000                	unimp
  10182a:	0000                	unimp
  10182c:	0000                	unimp
  10182e:	0000                	unimp
  101830:	0000                	unimp
  101832:	0000                	unimp
  101834:	0000                	unimp
  101836:	0000                	unimp
  101838:	0000                	unimp
  10183a:	0000                	unimp
  10183c:	0000                	unimp
  10183e:	0000                	unimp
  101840:	0000                	unimp
  101842:	0000                	unimp
  101844:	0000                	unimp
  101846:	0000                	unimp
  101848:	0000                	unimp
  10184a:	0000                	unimp
  10184c:	0000                	unimp
  10184e:	0000                	unimp
  101850:	0000                	unimp
  101852:	0000                	unimp
  101854:	0000                	unimp
  101856:	0000                	unimp
  101858:	0000                	unimp
  10185a:	0000                	unimp
  10185c:	0000                	unimp
  10185e:	0000                	unimp
  101860:	0000                	unimp
  101862:	0000                	unimp
  101864:	0000                	unimp
  101866:	0000                	unimp
  101868:	0000                	unimp
  10186a:	0000                	unimp
  10186c:	0000                	unimp
  10186e:	0000                	unimp
  101870:	0000                	unimp
  101872:	0000                	unimp
  101874:	0000                	unimp
  101876:	0000                	unimp
  101878:	0000                	unimp
  10187a:	0000                	unimp
  10187c:	0000                	unimp
  10187e:	0000                	unimp
  101880:	0000                	unimp
  101882:	0000                	unimp
  101884:	0000                	unimp
  101886:	0000                	unimp
  101888:	0000                	unimp
  10188a:	0000                	unimp
  10188c:	0000                	unimp
  10188e:	0000                	unimp
  101890:	0000                	unimp
  101892:	0000                	unimp
  101894:	0000                	unimp
  101896:	0000                	unimp
  101898:	0000                	unimp
  10189a:	0000                	unimp
  10189c:	0000                	unimp
  10189e:	0000                	unimp
  1018a0:	0000                	unimp
  1018a2:	0000                	unimp
  1018a4:	0000                	unimp
  1018a6:	0000                	unimp
  1018a8:	0000                	unimp
  1018aa:	0000                	unimp
  1018ac:	0000                	unimp
  1018ae:	0000                	unimp
  1018b0:	0000                	unimp
  1018b2:	0000                	unimp
  1018b4:	0000                	unimp
  1018b6:	0000                	unimp
  1018b8:	0000                	unimp
  1018ba:	0000                	unimp
  1018bc:	0000                	unimp
  1018be:	0000                	unimp
  1018c0:	0000                	unimp
  1018c2:	0000                	unimp
  1018c4:	0000                	unimp
  1018c6:	0000                	unimp
  1018c8:	0000                	unimp
  1018ca:	0000                	unimp
  1018cc:	0000                	unimp
  1018ce:	0000                	unimp
  1018d0:	0000                	unimp
  1018d2:	0000                	unimp
  1018d4:	0000                	unimp
  1018d6:	0000                	unimp
  1018d8:	0000                	unimp
  1018da:	0000                	unimp
  1018dc:	0000                	unimp
  1018de:	0000                	unimp
  1018e0:	0000                	unimp
  1018e2:	0000                	unimp
  1018e4:	0000                	unimp
  1018e6:	0000                	unimp
  1018e8:	0000                	unimp
  1018ea:	0000                	unimp
  1018ec:	0000                	unimp
  1018ee:	0000                	unimp
  1018f0:	0000                	unimp
  1018f2:	0000                	unimp
  1018f4:	0000                	unimp
  1018f6:	0000                	unimp
  1018f8:	0000                	unimp
  1018fa:	0000                	unimp
  1018fc:	0000                	unimp
  1018fe:	0000                	unimp
  101900:	0000                	unimp
  101902:	0000                	unimp
  101904:	0000                	unimp
  101906:	0000                	unimp
  101908:	0000                	unimp
  10190a:	0000                	unimp
  10190c:	0000                	unimp
  10190e:	0000                	unimp
  101910:	0000                	unimp
  101912:	0000                	unimp
  101914:	0000                	unimp
  101916:	0000                	unimp
  101918:	0000                	unimp
  10191a:	0000                	unimp
  10191c:	0000                	unimp
  10191e:	0000                	unimp
  101920:	0000                	unimp
  101922:	0000                	unimp
  101924:	0000                	unimp
  101926:	0000                	unimp
  101928:	0000                	unimp
  10192a:	0000                	unimp
  10192c:	0000                	unimp
  10192e:	0000                	unimp
  101930:	0000                	unimp
  101932:	0000                	unimp
  101934:	0000                	unimp
  101936:	0000                	unimp
  101938:	0000                	unimp
  10193a:	0000                	unimp
  10193c:	0000                	unimp
  10193e:	0000                	unimp
  101940:	0000                	unimp
  101942:	0000                	unimp
  101944:	0000                	unimp
  101946:	0000                	unimp
  101948:	0000                	unimp
  10194a:	0000                	unimp
  10194c:	0000                	unimp
  10194e:	0000                	unimp
  101950:	0000                	unimp
  101952:	0000                	unimp
  101954:	0000                	unimp
  101956:	0000                	unimp
  101958:	0000                	unimp
  10195a:	0000                	unimp
  10195c:	0000                	unimp
  10195e:	0000                	unimp
  101960:	0000                	unimp
  101962:	0000                	unimp
  101964:	0000                	unimp
  101966:	0000                	unimp
  101968:	0000                	unimp
  10196a:	0000                	unimp
  10196c:	0000                	unimp
  10196e:	0000                	unimp
  101970:	0000                	unimp
  101972:	0000                	unimp
  101974:	0000                	unimp
  101976:	0000                	unimp
  101978:	0000                	unimp
  10197a:	0000                	unimp
  10197c:	0000                	unimp
  10197e:	0000                	unimp
  101980:	0000                	unimp
  101982:	0000                	unimp
  101984:	0000                	unimp
  101986:	0000                	unimp
  101988:	0000                	unimp
  10198a:	0000                	unimp
  10198c:	0000                	unimp
  10198e:	0000                	unimp
  101990:	0000                	unimp
  101992:	0000                	unimp
  101994:	0000                	unimp
  101996:	0000                	unimp
  101998:	0000                	unimp
  10199a:	0000                	unimp
  10199c:	0000                	unimp
  10199e:	0000                	unimp
  1019a0:	0000                	unimp
  1019a2:	0000                	unimp
  1019a4:	0000                	unimp
  1019a6:	0000                	unimp
  1019a8:	0000                	unimp
  1019aa:	0000                	unimp
  1019ac:	0000                	unimp
  1019ae:	0000                	unimp
  1019b0:	0000                	unimp
  1019b2:	0000                	unimp
  1019b4:	0000                	unimp
  1019b6:	0000                	unimp
  1019b8:	0000                	unimp
  1019ba:	0000                	unimp
  1019bc:	0000                	unimp
  1019be:	0000                	unimp
  1019c0:	0000                	unimp
  1019c2:	0000                	unimp
  1019c4:	0000                	unimp
  1019c6:	0000                	unimp
  1019c8:	0000                	unimp
  1019ca:	0000                	unimp
  1019cc:	0000                	unimp
  1019ce:	0000                	unimp
  1019d0:	0000                	unimp
  1019d2:	0000                	unimp
  1019d4:	0000                	unimp
  1019d6:	0000                	unimp
  1019d8:	0000                	unimp
  1019da:	0000                	unimp
  1019dc:	0000                	unimp
  1019de:	0000                	unimp
  1019e0:	0000                	unimp
  1019e2:	0000                	unimp
  1019e4:	0000                	unimp
  1019e6:	0000                	unimp
  1019e8:	0000                	unimp
  1019ea:	0000                	unimp
  1019ec:	0000                	unimp
  1019ee:	0000                	unimp
  1019f0:	0000                	unimp
  1019f2:	0000                	unimp
  1019f4:	0000                	unimp
  1019f6:	0000                	unimp
  1019f8:	0000                	unimp
  1019fa:	0000                	unimp
  1019fc:	0000                	unimp
  1019fe:	0000                	unimp
  101a00:	0000                	unimp
  101a02:	0000                	unimp
  101a04:	0000                	unimp
  101a06:	0000                	unimp
  101a08:	0000                	unimp
  101a0a:	0000                	unimp
  101a0c:	0000                	unimp
  101a0e:	0000                	unimp
  101a10:	0000                	unimp
  101a12:	0000                	unimp
  101a14:	0000                	unimp
  101a16:	0000                	unimp
  101a18:	0000                	unimp
  101a1a:	0000                	unimp
  101a1c:	0000                	unimp
  101a1e:	0000                	unimp
  101a20:	0000                	unimp
  101a22:	0000                	unimp
  101a24:	0000                	unimp
  101a26:	0000                	unimp
  101a28:	0000                	unimp
  101a2a:	0000                	unimp
  101a2c:	0000                	unimp
  101a2e:	0000                	unimp
  101a30:	0000                	unimp
  101a32:	0000                	unimp
  101a34:	0000                	unimp
  101a36:	0000                	unimp
  101a38:	0000                	unimp
  101a3a:	0000                	unimp
  101a3c:	0000                	unimp
  101a3e:	0000                	unimp
  101a40:	0000                	unimp
  101a42:	0000                	unimp
  101a44:	0000                	unimp
  101a46:	0000                	unimp
  101a48:	0000                	unimp
  101a4a:	0000                	unimp
  101a4c:	0000                	unimp
  101a4e:	0000                	unimp
  101a50:	0000                	unimp
  101a52:	0000                	unimp
  101a54:	0000                	unimp
  101a56:	0000                	unimp
  101a58:	0000                	unimp
  101a5a:	0000                	unimp
  101a5c:	0000                	unimp
  101a5e:	0000                	unimp
  101a60:	0000                	unimp
  101a62:	0000                	unimp
  101a64:	0000                	unimp
  101a66:	0000                	unimp
  101a68:	0000                	unimp
  101a6a:	0000                	unimp
  101a6c:	0000                	unimp
  101a6e:	0000                	unimp
  101a70:	0000                	unimp
  101a72:	0000                	unimp
  101a74:	0000                	unimp
  101a76:	0000                	unimp
  101a78:	0000                	unimp
  101a7a:	0000                	unimp
  101a7c:	0000                	unimp
  101a7e:	0000                	unimp
  101a80:	0000                	unimp
  101a82:	0000                	unimp
  101a84:	0000                	unimp
  101a86:	0000                	unimp
  101a88:	0000                	unimp
  101a8a:	0000                	unimp
  101a8c:	0000                	unimp
  101a8e:	0000                	unimp
  101a90:	0000                	unimp
  101a92:	0000                	unimp
  101a94:	0000                	unimp
  101a96:	0000                	unimp
  101a98:	0000                	unimp
  101a9a:	0000                	unimp
  101a9c:	0000                	unimp
  101a9e:	0000                	unimp
  101aa0:	0000                	unimp
  101aa2:	0000                	unimp
  101aa4:	0000                	unimp
  101aa6:	0000                	unimp
  101aa8:	0000                	unimp
  101aaa:	0000                	unimp
  101aac:	0000                	unimp
  101aae:	0000                	unimp
  101ab0:	0000                	unimp
  101ab2:	0000                	unimp
  101ab4:	0000                	unimp
  101ab6:	0000                	unimp
  101ab8:	0000                	unimp
  101aba:	0000                	unimp
  101abc:	0000                	unimp
  101abe:	0000                	unimp
  101ac0:	0000                	unimp
  101ac2:	0000                	unimp
  101ac4:	0000                	unimp
  101ac6:	0000                	unimp
  101ac8:	0000                	unimp
  101aca:	0000                	unimp
  101acc:	0000                	unimp
  101ace:	0000                	unimp
  101ad0:	0000                	unimp
  101ad2:	0000                	unimp
  101ad4:	0000                	unimp
  101ad6:	0000                	unimp
  101ad8:	0000                	unimp
  101ada:	0000                	unimp
  101adc:	0000                	unimp
  101ade:	0000                	unimp
  101ae0:	0000                	unimp
  101ae2:	0000                	unimp
  101ae4:	0000                	unimp
  101ae6:	0000                	unimp
  101ae8:	0000                	unimp
  101aea:	0000                	unimp
  101aec:	0000                	unimp
  101aee:	0000                	unimp
  101af0:	0000                	unimp
  101af2:	0000                	unimp
  101af4:	0000                	unimp
  101af6:	0000                	unimp
  101af8:	0000                	unimp
  101afa:	0000                	unimp
  101afc:	0000                	unimp
  101afe:	0000                	unimp
  101b00:	0000                	unimp
  101b02:	0000                	unimp
  101b04:	0000                	unimp
  101b06:	0000                	unimp
  101b08:	0000                	unimp
  101b0a:	0000                	unimp
  101b0c:	0000                	unimp
  101b0e:	0000                	unimp
  101b10:	0000                	unimp
  101b12:	0000                	unimp
  101b14:	0000                	unimp
  101b16:	0000                	unimp
  101b18:	0000                	unimp
  101b1a:	0000                	unimp
  101b1c:	0000                	unimp
  101b1e:	0000                	unimp
  101b20:	0000                	unimp
  101b22:	0000                	unimp
  101b24:	0000                	unimp
  101b26:	0000                	unimp
  101b28:	0000                	unimp
  101b2a:	0000                	unimp
  101b2c:	0000                	unimp
  101b2e:	0000                	unimp
  101b30:	0000                	unimp
  101b32:	0000                	unimp
  101b34:	0000                	unimp
  101b36:	0000                	unimp
  101b38:	0000                	unimp
  101b3a:	0000                	unimp
  101b3c:	0000                	unimp
  101b3e:	0000                	unimp
  101b40:	0000                	unimp
  101b42:	0000                	unimp
  101b44:	0000                	unimp
  101b46:	0000                	unimp
  101b48:	0000                	unimp
  101b4a:	0000                	unimp
  101b4c:	0000                	unimp
  101b4e:	0000                	unimp
  101b50:	0000                	unimp
  101b52:	0000                	unimp
  101b54:	0000                	unimp
  101b56:	0000                	unimp
  101b58:	0000                	unimp
  101b5a:	0000                	unimp
  101b5c:	0000                	unimp
  101b5e:	0000                	unimp
  101b60:	0000                	unimp
  101b62:	0000                	unimp
  101b64:	0000                	unimp
  101b66:	0000                	unimp
  101b68:	0000                	unimp
  101b6a:	0000                	unimp
  101b6c:	0000                	unimp
  101b6e:	0000                	unimp
  101b70:	0000                	unimp
  101b72:	0000                	unimp
  101b74:	0000                	unimp
  101b76:	0000                	unimp
  101b78:	0000                	unimp
  101b7a:	0000                	unimp
  101b7c:	0000                	unimp
  101b7e:	0000                	unimp
  101b80:	0000                	unimp
  101b82:	0000                	unimp
  101b84:	0000                	unimp
  101b86:	0000                	unimp
  101b88:	0000                	unimp
  101b8a:	0000                	unimp
  101b8c:	0000                	unimp
  101b8e:	0000                	unimp
  101b90:	0000                	unimp
  101b92:	0000                	unimp
  101b94:	0000                	unimp
  101b96:	0000                	unimp
  101b98:	0000                	unimp
  101b9a:	0000                	unimp
  101b9c:	0000                	unimp
  101b9e:	0000                	unimp
  101ba0:	0000                	unimp
  101ba2:	0000                	unimp
  101ba4:	0000                	unimp
  101ba6:	0000                	unimp
  101ba8:	0000                	unimp
  101baa:	0000                	unimp
  101bac:	0000                	unimp
  101bae:	0000                	unimp
  101bb0:	0000                	unimp
  101bb2:	0000                	unimp
  101bb4:	0000                	unimp
  101bb6:	0000                	unimp
  101bb8:	0000                	unimp
  101bba:	0000                	unimp
  101bbc:	0000                	unimp
  101bbe:	0000                	unimp
  101bc0:	0000                	unimp
  101bc2:	0000                	unimp
  101bc4:	0000                	unimp
  101bc6:	0000                	unimp
  101bc8:	0000                	unimp
  101bca:	0000                	unimp
  101bcc:	0000                	unimp
  101bce:	0000                	unimp
  101bd0:	0000                	unimp
  101bd2:	0000                	unimp
  101bd4:	0000                	unimp
  101bd6:	0000                	unimp
  101bd8:	0000                	unimp
  101bda:	0000                	unimp
  101bdc:	0000                	unimp
  101bde:	0000                	unimp
  101be0:	0000                	unimp
  101be2:	0000                	unimp
  101be4:	0000                	unimp
  101be6:	0000                	unimp
  101be8:	0000                	unimp
  101bea:	0000                	unimp
  101bec:	0000                	unimp
  101bee:	0000                	unimp
  101bf0:	0000                	unimp
  101bf2:	0000                	unimp
  101bf4:	0000                	unimp
  101bf6:	0000                	unimp
  101bf8:	0000                	unimp
  101bfa:	0000                	unimp
  101bfc:	0000                	unimp
  101bfe:	0000                	unimp
  101c00:	0000                	unimp
  101c02:	0000                	unimp
  101c04:	0000                	unimp
  101c06:	0000                	unimp
  101c08:	0000                	unimp
  101c0a:	0000                	unimp
  101c0c:	0000                	unimp
  101c0e:	0000                	unimp
  101c10:	0000                	unimp
  101c12:	0000                	unimp
  101c14:	0000                	unimp
  101c16:	0000                	unimp
  101c18:	0000                	unimp
  101c1a:	0000                	unimp
  101c1c:	0000                	unimp
  101c1e:	0000                	unimp
  101c20:	0000                	unimp
  101c22:	0000                	unimp
  101c24:	0000                	unimp
  101c26:	0000                	unimp
  101c28:	0000                	unimp
  101c2a:	0000                	unimp
  101c2c:	0000                	unimp
  101c2e:	0000                	unimp
  101c30:	0000                	unimp
  101c32:	0000                	unimp
  101c34:	0000                	unimp
  101c36:	0000                	unimp
  101c38:	0000                	unimp
  101c3a:	0000                	unimp
  101c3c:	0000                	unimp
  101c3e:	0000                	unimp
  101c40:	0000                	unimp
  101c42:	0000                	unimp
  101c44:	0000                	unimp
  101c46:	0000                	unimp
  101c48:	0000                	unimp
  101c4a:	0000                	unimp
  101c4c:	0000                	unimp
  101c4e:	0000                	unimp
  101c50:	0000                	unimp
  101c52:	0000                	unimp
  101c54:	0000                	unimp
  101c56:	0000                	unimp
  101c58:	0000                	unimp
  101c5a:	0000                	unimp
  101c5c:	0000                	unimp
  101c5e:	0000                	unimp
  101c60:	0000                	unimp
  101c62:	0000                	unimp
  101c64:	0000                	unimp
  101c66:	0000                	unimp
  101c68:	0000                	unimp
  101c6a:	0000                	unimp
  101c6c:	0000                	unimp
  101c6e:	0000                	unimp
  101c70:	0000                	unimp
  101c72:	0000                	unimp
  101c74:	0000                	unimp
  101c76:	0000                	unimp
  101c78:	0000                	unimp
  101c7a:	0000                	unimp
  101c7c:	0000                	unimp
  101c7e:	0000                	unimp
  101c80:	0000                	unimp
  101c82:	0000                	unimp
  101c84:	0000                	unimp
  101c86:	0000                	unimp
  101c88:	0000                	unimp
  101c8a:	0000                	unimp
  101c8c:	0000                	unimp
  101c8e:	0000                	unimp
  101c90:	0000                	unimp
  101c92:	0000                	unimp
  101c94:	0000                	unimp
  101c96:	0000                	unimp
  101c98:	0000                	unimp
  101c9a:	0000                	unimp
  101c9c:	0000                	unimp
  101c9e:	0000                	unimp
  101ca0:	0000                	unimp
  101ca2:	0000                	unimp
  101ca4:	0000                	unimp
  101ca6:	0000                	unimp
  101ca8:	0000                	unimp
  101caa:	0000                	unimp
  101cac:	0000                	unimp
  101cae:	0000                	unimp
  101cb0:	0000                	unimp
  101cb2:	0000                	unimp
  101cb4:	0000                	unimp
  101cb6:	0000                	unimp
  101cb8:	0000                	unimp
  101cba:	0000                	unimp
  101cbc:	0000                	unimp
  101cbe:	0000                	unimp
  101cc0:	0000                	unimp
  101cc2:	0000                	unimp
  101cc4:	0000                	unimp
  101cc6:	0000                	unimp
  101cc8:	0000                	unimp
  101cca:	0000                	unimp
  101ccc:	0000                	unimp
  101cce:	0000                	unimp
  101cd0:	0000                	unimp
  101cd2:	0000                	unimp
  101cd4:	0000                	unimp
  101cd6:	0000                	unimp
  101cd8:	0000                	unimp
  101cda:	0000                	unimp
  101cdc:	0000                	unimp
  101cde:	0000                	unimp
  101ce0:	0000                	unimp
  101ce2:	0000                	unimp
  101ce4:	0000                	unimp
  101ce6:	0000                	unimp
  101ce8:	0000                	unimp
  101cea:	0000                	unimp
  101cec:	0000                	unimp
  101cee:	0000                	unimp
  101cf0:	0000                	unimp
  101cf2:	0000                	unimp
  101cf4:	0000                	unimp
  101cf6:	0000                	unimp
  101cf8:	0000                	unimp
  101cfa:	0000                	unimp
  101cfc:	0000                	unimp
  101cfe:	0000                	unimp
  101d00:	0000                	unimp
  101d02:	0000                	unimp
  101d04:	0000                	unimp
  101d06:	0000                	unimp
  101d08:	0000                	unimp
  101d0a:	0000                	unimp
  101d0c:	0000                	unimp
  101d0e:	0000                	unimp
  101d10:	0000                	unimp
  101d12:	0000                	unimp
  101d14:	0000                	unimp
  101d16:	0000                	unimp
  101d18:	0000                	unimp
  101d1a:	0000                	unimp
  101d1c:	0000                	unimp
  101d1e:	0000                	unimp
  101d20:	0000                	unimp
  101d22:	0000                	unimp
  101d24:	0000                	unimp
  101d26:	0000                	unimp
  101d28:	0000                	unimp
  101d2a:	0000                	unimp
  101d2c:	0000                	unimp
  101d2e:	0000                	unimp
  101d30:	0000                	unimp
  101d32:	0000                	unimp
  101d34:	0000                	unimp
  101d36:	0000                	unimp
  101d38:	0000                	unimp
  101d3a:	0000                	unimp
  101d3c:	0000                	unimp
  101d3e:	0000                	unimp
  101d40:	0000                	unimp
  101d42:	0000                	unimp
  101d44:	0000                	unimp
  101d46:	0000                	unimp
  101d48:	0000                	unimp
  101d4a:	0000                	unimp
  101d4c:	0000                	unimp
  101d4e:	0000                	unimp
  101d50:	0000                	unimp
  101d52:	0000                	unimp
  101d54:	0000                	unimp
  101d56:	0000                	unimp
  101d58:	0000                	unimp
  101d5a:	0000                	unimp
  101d5c:	0000                	unimp
  101d5e:	0000                	unimp
  101d60:	0000                	unimp
  101d62:	0000                	unimp
  101d64:	0000                	unimp
  101d66:	0000                	unimp
  101d68:	0000                	unimp
  101d6a:	0000                	unimp
  101d6c:	0000                	unimp
  101d6e:	0000                	unimp
  101d70:	0000                	unimp
  101d72:	0000                	unimp
  101d74:	0000                	unimp
  101d76:	0000                	unimp
  101d78:	0000                	unimp
  101d7a:	0000                	unimp
  101d7c:	0000                	unimp
  101d7e:	0000                	unimp
  101d80:	0000                	unimp
  101d82:	0000                	unimp
  101d84:	0000                	unimp
  101d86:	0000                	unimp
  101d88:	0000                	unimp
  101d8a:	0000                	unimp
  101d8c:	0000                	unimp
  101d8e:	0000                	unimp
  101d90:	0000                	unimp
  101d92:	0000                	unimp
  101d94:	0000                	unimp
  101d96:	0000                	unimp
  101d98:	0000                	unimp
  101d9a:	0000                	unimp
  101d9c:	0000                	unimp
  101d9e:	0000                	unimp
  101da0:	0000                	unimp
  101da2:	0000                	unimp
  101da4:	0000                	unimp
  101da6:	0000                	unimp
  101da8:	0000                	unimp
  101daa:	0000                	unimp
  101dac:	0000                	unimp
  101dae:	0000                	unimp
  101db0:	0000                	unimp
  101db2:	0000                	unimp
  101db4:	0000                	unimp
  101db6:	0000                	unimp
  101db8:	0000                	unimp
  101dba:	0000                	unimp
  101dbc:	0000                	unimp
  101dbe:	0000                	unimp
  101dc0:	0000                	unimp
  101dc2:	0000                	unimp
  101dc4:	0000                	unimp
  101dc6:	0000                	unimp
  101dc8:	0000                	unimp
  101dca:	0000                	unimp
  101dcc:	0000                	unimp
  101dce:	0000                	unimp
  101dd0:	0000                	unimp
  101dd2:	0000                	unimp
  101dd4:	0000                	unimp
  101dd6:	0000                	unimp
  101dd8:	0000                	unimp
  101dda:	0000                	unimp
  101ddc:	0000                	unimp
  101dde:	0000                	unimp
  101de0:	0000                	unimp
  101de2:	0000                	unimp
  101de4:	0000                	unimp
  101de6:	0000                	unimp
  101de8:	0000                	unimp
  101dea:	0000                	unimp
  101dec:	0000                	unimp
  101dee:	0000                	unimp
  101df0:	0000                	unimp
  101df2:	0000                	unimp
  101df4:	0000                	unimp
  101df6:	0000                	unimp
  101df8:	0000                	unimp
  101dfa:	0000                	unimp
  101dfc:	0000                	unimp
  101dfe:	0000                	unimp
  101e00:	0000                	unimp
  101e02:	0000                	unimp
  101e04:	0000                	unimp
  101e06:	0000                	unimp
  101e08:	0000                	unimp
  101e0a:	0000                	unimp
  101e0c:	0000                	unimp
  101e0e:	0000                	unimp
  101e10:	0000                	unimp
  101e12:	0000                	unimp
  101e14:	0000                	unimp
  101e16:	0000                	unimp
  101e18:	0000                	unimp
  101e1a:	0000                	unimp
  101e1c:	0000                	unimp
  101e1e:	0000                	unimp
  101e20:	0000                	unimp
  101e22:	0000                	unimp
  101e24:	0000                	unimp
  101e26:	0000                	unimp
  101e28:	0000                	unimp
  101e2a:	0000                	unimp
  101e2c:	0000                	unimp
  101e2e:	0000                	unimp
  101e30:	0000                	unimp
  101e32:	0000                	unimp
  101e34:	0000                	unimp
  101e36:	0000                	unimp
  101e38:	0000                	unimp
  101e3a:	0000                	unimp
  101e3c:	0000                	unimp
  101e3e:	0000                	unimp
  101e40:	0000                	unimp
  101e42:	0000                	unimp
  101e44:	0000                	unimp
  101e46:	0000                	unimp
  101e48:	0000                	unimp
  101e4a:	0000                	unimp
  101e4c:	0000                	unimp
  101e4e:	0000                	unimp
  101e50:	0000                	unimp
  101e52:	0000                	unimp
  101e54:	0000                	unimp
  101e56:	0000                	unimp
  101e58:	0000                	unimp
  101e5a:	0000                	unimp
  101e5c:	0000                	unimp
  101e5e:	0000                	unimp
  101e60:	0000                	unimp
  101e62:	0000                	unimp
  101e64:	0000                	unimp
  101e66:	0000                	unimp
  101e68:	0000                	unimp
  101e6a:	0000                	unimp
  101e6c:	0000                	unimp
  101e6e:	0000                	unimp
  101e70:	0000                	unimp
  101e72:	0000                	unimp
  101e74:	0000                	unimp
  101e76:	0000                	unimp
  101e78:	0000                	unimp
  101e7a:	0000                	unimp
  101e7c:	0000                	unimp
  101e7e:	0000                	unimp
  101e80:	0000                	unimp
  101e82:	0000                	unimp
  101e84:	0000                	unimp
  101e86:	0000                	unimp
  101e88:	0000                	unimp
  101e8a:	0000                	unimp
  101e8c:	0000                	unimp
  101e8e:	0000                	unimp
  101e90:	0000                	unimp
  101e92:	0000                	unimp
  101e94:	0000                	unimp
  101e96:	0000                	unimp
  101e98:	0000                	unimp
  101e9a:	0000                	unimp
  101e9c:	0000                	unimp
  101e9e:	0000                	unimp
  101ea0:	0000                	unimp
  101ea2:	0000                	unimp
  101ea4:	0000                	unimp
  101ea6:	0000                	unimp
  101ea8:	0000                	unimp
  101eaa:	0000                	unimp
  101eac:	0000                	unimp
  101eae:	0000                	unimp
  101eb0:	0000                	unimp
  101eb2:	0000                	unimp
  101eb4:	0000                	unimp
  101eb6:	0000                	unimp
  101eb8:	0000                	unimp
  101eba:	0000                	unimp
  101ebc:	0000                	unimp
  101ebe:	0000                	unimp
  101ec0:	0000                	unimp
  101ec2:	0000                	unimp
  101ec4:	0000                	unimp
  101ec6:	0000                	unimp
  101ec8:	0000                	unimp
  101eca:	0000                	unimp
  101ecc:	0000                	unimp
  101ece:	0000                	unimp
  101ed0:	0000                	unimp
  101ed2:	0000                	unimp
  101ed4:	0000                	unimp
  101ed6:	0000                	unimp
  101ed8:	0000                	unimp
  101eda:	0000                	unimp
  101edc:	0000                	unimp
  101ede:	0000                	unimp
  101ee0:	0000                	unimp
  101ee2:	0000                	unimp
  101ee4:	0000                	unimp
  101ee6:	0000                	unimp
  101ee8:	0000                	unimp
  101eea:	0000                	unimp
  101eec:	0000                	unimp
  101eee:	0000                	unimp
  101ef0:	0000                	unimp
  101ef2:	0000                	unimp
  101ef4:	0000                	unimp
  101ef6:	0000                	unimp
  101ef8:	0000                	unimp
  101efa:	0000                	unimp
  101efc:	0000                	unimp
  101efe:	0000                	unimp
  101f00:	0000                	unimp
  101f02:	0000                	unimp
  101f04:	0000                	unimp
  101f06:	0000                	unimp
  101f08:	0000                	unimp
  101f0a:	0000                	unimp
  101f0c:	0000                	unimp
  101f0e:	0000                	unimp
  101f10:	0000                	unimp
  101f12:	0000                	unimp
  101f14:	0000                	unimp
  101f16:	0000                	unimp
  101f18:	0000                	unimp
  101f1a:	0000                	unimp
  101f1c:	0000                	unimp
  101f1e:	0000                	unimp
  101f20:	0000                	unimp
  101f22:	0000                	unimp
  101f24:	0000                	unimp
  101f26:	0000                	unimp
  101f28:	0000                	unimp
  101f2a:	0000                	unimp
  101f2c:	0000                	unimp
  101f2e:	0000                	unimp
  101f30:	0000                	unimp
  101f32:	0000                	unimp
  101f34:	0000                	unimp
  101f36:	0000                	unimp
  101f38:	0000                	unimp
  101f3a:	0000                	unimp
  101f3c:	0000                	unimp
  101f3e:	0000                	unimp
  101f40:	0000                	unimp
  101f42:	0000                	unimp
  101f44:	0000                	unimp
  101f46:	0000                	unimp
  101f48:	0000                	unimp
  101f4a:	0000                	unimp
  101f4c:	0000                	unimp
  101f4e:	0000                	unimp
  101f50:	0000                	unimp
  101f52:	0000                	unimp
  101f54:	0000                	unimp
  101f56:	0000                	unimp
  101f58:	0000                	unimp
  101f5a:	0000                	unimp
  101f5c:	0000                	unimp
  101f5e:	0000                	unimp
  101f60:	0000                	unimp
  101f62:	0000                	unimp
  101f64:	0000                	unimp
  101f66:	0000                	unimp
  101f68:	0000                	unimp
  101f6a:	0000                	unimp
  101f6c:	0000                	unimp
  101f6e:	0000                	unimp
  101f70:	0000                	unimp
  101f72:	0000                	unimp
  101f74:	0000                	unimp
  101f76:	0000                	unimp
  101f78:	0000                	unimp
  101f7a:	0000                	unimp
  101f7c:	0000                	unimp
  101f7e:	0000                	unimp
  101f80:	0000                	unimp
  101f82:	0000                	unimp
  101f84:	0000                	unimp
  101f86:	0000                	unimp
  101f88:	0000                	unimp
  101f8a:	0000                	unimp
  101f8c:	0000                	unimp
  101f8e:	0000                	unimp
  101f90:	0000                	unimp
  101f92:	0000                	unimp
  101f94:	0000                	unimp
  101f96:	0000                	unimp
  101f98:	0000                	unimp
  101f9a:	0000                	unimp
  101f9c:	0000                	unimp
  101f9e:	0000                	unimp
  101fa0:	0000                	unimp
  101fa2:	0000                	unimp
  101fa4:	0000                	unimp
  101fa6:	0000                	unimp
  101fa8:	0000                	unimp
  101faa:	0000                	unimp
  101fac:	0000                	unimp
  101fae:	0000                	unimp
  101fb0:	0000                	unimp
  101fb2:	0000                	unimp
  101fb4:	0000                	unimp
  101fb6:	0000                	unimp
  101fb8:	0000                	unimp
  101fba:	0000                	unimp
  101fbc:	0000                	unimp
  101fbe:	0000                	unimp
  101fc0:	0000                	unimp
  101fc2:	0000                	unimp
  101fc4:	0000                	unimp
  101fc6:	0000                	unimp
  101fc8:	0000                	unimp
  101fca:	0000                	unimp
  101fcc:	0000                	unimp
  101fce:	0000                	unimp
  101fd0:	0000                	unimp
  101fd2:	0000                	unimp
  101fd4:	0000                	unimp
  101fd6:	0000                	unimp
  101fd8:	0000                	unimp
  101fda:	0000                	unimp
  101fdc:	0000                	unimp
  101fde:	0000                	unimp
  101fe0:	0000                	unimp
  101fe2:	0000                	unimp
  101fe4:	0000                	unimp
  101fe6:	0000                	unimp
  101fe8:	0000                	unimp
  101fea:	0000                	unimp
  101fec:	0000                	unimp
  101fee:	0000                	unimp
  101ff0:	0000                	unimp
  101ff2:	0000                	unimp
  101ff4:	0000                	unimp
  101ff6:	0000                	unimp
  101ff8:	0000                	unimp
  101ffa:	0000                	unimp
  101ffc:	0000                	unimp
  101ffe:	0000                	unimp
  102000:	0000                	unimp
  102002:	0000                	unimp
  102004:	0000                	unimp
  102006:	0000                	unimp
  102008:	0000                	unimp
  10200a:	0000                	unimp
  10200c:	0000                	unimp
  10200e:	0000                	unimp
  102010:	0000                	unimp
  102012:	0000                	unimp
  102014:	0000                	unimp
  102016:	0000                	unimp
  102018:	0000                	unimp
  10201a:	0000                	unimp
  10201c:	0000                	unimp
  10201e:	0000                	unimp
  102020:	0000                	unimp
  102022:	0000                	unimp
  102024:	0000                	unimp
  102026:	0000                	unimp
  102028:	0000                	unimp
  10202a:	0000                	unimp
  10202c:	0000                	unimp
  10202e:	0000                	unimp
  102030:	0000                	unimp
  102032:	0000                	unimp
  102034:	0000                	unimp
  102036:	0000                	unimp
  102038:	0000                	unimp
  10203a:	0000                	unimp
  10203c:	0000                	unimp
  10203e:	0000                	unimp
  102040:	0000                	unimp
  102042:	0000                	unimp
  102044:	0000                	unimp
  102046:	0000                	unimp
  102048:	0000                	unimp
  10204a:	0000                	unimp
  10204c:	0000                	unimp
  10204e:	0000                	unimp
  102050:	0000                	unimp
  102052:	0000                	unimp
  102054:	0000                	unimp
  102056:	0000                	unimp
  102058:	0000                	unimp
  10205a:	0000                	unimp
  10205c:	0000                	unimp
  10205e:	0000                	unimp
  102060:	0000                	unimp
  102062:	0000                	unimp
  102064:	0000                	unimp
  102066:	0000                	unimp
  102068:	0000                	unimp
  10206a:	0000                	unimp
  10206c:	0000                	unimp
  10206e:	0000                	unimp
  102070:	0000                	unimp
  102072:	0000                	unimp
  102074:	0000                	unimp
  102076:	0000                	unimp
  102078:	0000                	unimp
  10207a:	0000                	unimp
  10207c:	0000                	unimp
  10207e:	0000                	unimp
  102080:	0000                	unimp
  102082:	0000                	unimp
  102084:	0000                	unimp
  102086:	0000                	unimp
  102088:	0000                	unimp
  10208a:	0000                	unimp
  10208c:	0000                	unimp
  10208e:	0000                	unimp
  102090:	0000                	unimp
  102092:	0000                	unimp
  102094:	0000                	unimp
  102096:	0000                	unimp
  102098:	0000                	unimp
  10209a:	0000                	unimp
  10209c:	0000                	unimp
  10209e:	0000                	unimp
  1020a0:	0000                	unimp
  1020a2:	0000                	unimp
  1020a4:	0000                	unimp
  1020a6:	0000                	unimp
  1020a8:	0000                	unimp
  1020aa:	0000                	unimp
  1020ac:	0000                	unimp
  1020ae:	0000                	unimp
  1020b0:	0000                	unimp
  1020b2:	0000                	unimp
  1020b4:	0000                	unimp
  1020b6:	0000                	unimp
  1020b8:	0000                	unimp
  1020ba:	0000                	unimp
  1020bc:	0000                	unimp
  1020be:	0000                	unimp
  1020c0:	0000                	unimp
  1020c2:	0000                	unimp
  1020c4:	0000                	unimp
  1020c6:	0000                	unimp
  1020c8:	0000                	unimp
  1020ca:	0000                	unimp
  1020cc:	0000                	unimp
  1020ce:	0000                	unimp
  1020d0:	0000                	unimp
  1020d2:	0000                	unimp
  1020d4:	0000                	unimp
  1020d6:	0000                	unimp
  1020d8:	0000                	unimp
  1020da:	0000                	unimp
  1020dc:	0000                	unimp
  1020de:	0000                	unimp
  1020e0:	0000                	unimp
  1020e2:	0000                	unimp
  1020e4:	0000                	unimp
  1020e6:	0000                	unimp
  1020e8:	0000                	unimp
  1020ea:	0000                	unimp
  1020ec:	0000                	unimp
  1020ee:	0000                	unimp
  1020f0:	0000                	unimp
  1020f2:	0000                	unimp
  1020f4:	0000                	unimp
  1020f6:	0000                	unimp
  1020f8:	0000                	unimp
  1020fa:	0000                	unimp
  1020fc:	0000                	unimp
  1020fe:	0000                	unimp
  102100:	0000                	unimp
  102102:	0000                	unimp
  102104:	0000                	unimp
  102106:	0000                	unimp
  102108:	0000                	unimp
  10210a:	0000                	unimp
  10210c:	0000                	unimp
  10210e:	0000                	unimp
  102110:	0000                	unimp
  102112:	0000                	unimp
  102114:	0000                	unimp
  102116:	0000                	unimp
  102118:	0000                	unimp
  10211a:	0000                	unimp
  10211c:	0000                	unimp
  10211e:	0000                	unimp
  102120:	0000                	unimp
  102122:	0000                	unimp
  102124:	0000                	unimp
  102126:	0000                	unimp
  102128:	0000                	unimp
  10212a:	0000                	unimp
  10212c:	0000                	unimp
  10212e:	0000                	unimp
  102130:	0000                	unimp
  102132:	0000                	unimp
  102134:	0000                	unimp
  102136:	0000                	unimp
  102138:	0000                	unimp
  10213a:	0000                	unimp
  10213c:	0000                	unimp
  10213e:	0000                	unimp
  102140:	0000                	unimp
  102142:	0000                	unimp
  102144:	0000                	unimp
  102146:	0000                	unimp
  102148:	0000                	unimp
  10214a:	0000                	unimp
  10214c:	0000                	unimp
  10214e:	0000                	unimp
  102150:	0000                	unimp
  102152:	0000                	unimp
  102154:	0000                	unimp
  102156:	0000                	unimp
  102158:	0000                	unimp
  10215a:	0000                	unimp
  10215c:	0000                	unimp
  10215e:	0000                	unimp
  102160:	0000                	unimp
  102162:	0000                	unimp
  102164:	0000                	unimp
  102166:	0000                	unimp
  102168:	0000                	unimp
  10216a:	0000                	unimp
  10216c:	0000                	unimp
  10216e:	0000                	unimp
  102170:	0000                	unimp
  102172:	0000                	unimp
  102174:	0000                	unimp
  102176:	0000                	unimp
  102178:	0000                	unimp
  10217a:	0000                	unimp
  10217c:	0000                	unimp
  10217e:	0000                	unimp
  102180:	0000                	unimp
  102182:	0000                	unimp
  102184:	0000                	unimp
  102186:	0000                	unimp
  102188:	0000                	unimp
  10218a:	0000                	unimp
  10218c:	0000                	unimp
  10218e:	0000                	unimp
  102190:	0000                	unimp
  102192:	0000                	unimp
  102194:	0000                	unimp
  102196:	0000                	unimp
  102198:	0000                	unimp
  10219a:	0000                	unimp
  10219c:	0000                	unimp
  10219e:	0000                	unimp
  1021a0:	0000                	unimp
  1021a2:	0000                	unimp
  1021a4:	0000                	unimp
  1021a6:	0000                	unimp
  1021a8:	0000                	unimp
  1021aa:	0000                	unimp
  1021ac:	0000                	unimp
  1021ae:	0000                	unimp
  1021b0:	0000                	unimp
  1021b2:	0000                	unimp
  1021b4:	0000                	unimp
  1021b6:	0000                	unimp
  1021b8:	0000                	unimp
  1021ba:	0000                	unimp
  1021bc:	0000                	unimp
  1021be:	0000                	unimp
  1021c0:	0000                	unimp
  1021c2:	0000                	unimp
  1021c4:	0000                	unimp
  1021c6:	0000                	unimp
  1021c8:	0000                	unimp
  1021ca:	0000                	unimp
  1021cc:	0000                	unimp
  1021ce:	0000                	unimp
  1021d0:	0000                	unimp
  1021d2:	0000                	unimp
  1021d4:	0000                	unimp
  1021d6:	0000                	unimp
  1021d8:	0000                	unimp
  1021da:	0000                	unimp
  1021dc:	0000                	unimp
  1021de:	0000                	unimp
  1021e0:	0000                	unimp
  1021e2:	0000                	unimp
  1021e4:	0000                	unimp
  1021e6:	0000                	unimp
  1021e8:	0000                	unimp
  1021ea:	0000                	unimp
  1021ec:	0000                	unimp
  1021ee:	0000                	unimp
  1021f0:	0000                	unimp
  1021f2:	0000                	unimp
  1021f4:	0000                	unimp
  1021f6:	0000                	unimp
  1021f8:	0000                	unimp
  1021fa:	0000                	unimp
  1021fc:	0000                	unimp
  1021fe:	0000                	unimp
  102200:	0000                	unimp
  102202:	0000                	unimp
  102204:	0000                	unimp
  102206:	0000                	unimp
  102208:	0000                	unimp
  10220a:	0000                	unimp
  10220c:	0000                	unimp
  10220e:	0000                	unimp
  102210:	0000                	unimp
  102212:	0000                	unimp
  102214:	0000                	unimp
  102216:	0000                	unimp
  102218:	0000                	unimp
  10221a:	0000                	unimp
  10221c:	0000                	unimp
  10221e:	0000                	unimp
  102220:	0000                	unimp
  102222:	0000                	unimp
  102224:	0000                	unimp
  102226:	0000                	unimp
  102228:	0000                	unimp
  10222a:	0000                	unimp
  10222c:	0000                	unimp
  10222e:	0000                	unimp
  102230:	0000                	unimp
  102232:	0000                	unimp
  102234:	0000                	unimp
  102236:	0000                	unimp
  102238:	0000                	unimp
  10223a:	0000                	unimp
  10223c:	0000                	unimp
  10223e:	0000                	unimp
  102240:	0000                	unimp
  102242:	0000                	unimp
  102244:	0000                	unimp
  102246:	0000                	unimp
  102248:	0000                	unimp
  10224a:	0000                	unimp
  10224c:	0000                	unimp
  10224e:	0000                	unimp
  102250:	0000                	unimp
  102252:	0000                	unimp
  102254:	0000                	unimp
  102256:	0000                	unimp
  102258:	0000                	unimp
  10225a:	0000                	unimp
  10225c:	0000                	unimp
  10225e:	0000                	unimp
  102260:	0000                	unimp
  102262:	0000                	unimp
  102264:	0000                	unimp
  102266:	0000                	unimp
  102268:	0000                	unimp
  10226a:	0000                	unimp
  10226c:	0000                	unimp
  10226e:	0000                	unimp
  102270:	0000                	unimp
  102272:	0000                	unimp
  102274:	0000                	unimp
  102276:	0000                	unimp
  102278:	0000                	unimp
  10227a:	0000                	unimp
  10227c:	0000                	unimp
  10227e:	0000                	unimp
  102280:	0000                	unimp
  102282:	0000                	unimp
  102284:	0000                	unimp
  102286:	0000                	unimp
  102288:	0000                	unimp
  10228a:	0000                	unimp
  10228c:	0000                	unimp
  10228e:	0000                	unimp
  102290:	0000                	unimp
  102292:	0000                	unimp
  102294:	0000                	unimp
  102296:	0000                	unimp
  102298:	0000                	unimp
  10229a:	0000                	unimp
  10229c:	0000                	unimp
  10229e:	0000                	unimp
  1022a0:	0000                	unimp
  1022a2:	0000                	unimp
  1022a4:	0000                	unimp
  1022a6:	0000                	unimp
  1022a8:	0000                	unimp
  1022aa:	0000                	unimp
  1022ac:	0000                	unimp
  1022ae:	0000                	unimp
  1022b0:	0000                	unimp
  1022b2:	0000                	unimp
  1022b4:	0000                	unimp
  1022b6:	0000                	unimp
  1022b8:	0000                	unimp
  1022ba:	0000                	unimp
  1022bc:	0000                	unimp
  1022be:	0000                	unimp
  1022c0:	0000                	unimp
  1022c2:	0000                	unimp
  1022c4:	0000                	unimp
  1022c6:	0000                	unimp
  1022c8:	0000                	unimp
  1022ca:	0000                	unimp
  1022cc:	0000                	unimp
  1022ce:	0000                	unimp
  1022d0:	0000                	unimp
  1022d2:	0000                	unimp
  1022d4:	0000                	unimp
  1022d6:	0000                	unimp
  1022d8:	0000                	unimp
  1022da:	0000                	unimp
  1022dc:	0000                	unimp
  1022de:	0000                	unimp
  1022e0:	0000                	unimp
  1022e2:	0000                	unimp
  1022e4:	0000                	unimp
  1022e6:	0000                	unimp
  1022e8:	0000                	unimp
  1022ea:	0000                	unimp
  1022ec:	0000                	unimp
  1022ee:	0000                	unimp
  1022f0:	0000                	unimp
  1022f2:	0000                	unimp
  1022f4:	0000                	unimp
  1022f6:	0000                	unimp
  1022f8:	0000                	unimp
  1022fa:	0000                	unimp
  1022fc:	0000                	unimp
  1022fe:	0000                	unimp
  102300:	0000                	unimp
  102302:	0000                	unimp
  102304:	0000                	unimp
  102306:	0000                	unimp
  102308:	0000                	unimp
  10230a:	0000                	unimp
  10230c:	0000                	unimp
  10230e:	0000                	unimp
  102310:	0000                	unimp
  102312:	0000                	unimp
  102314:	0000                	unimp
  102316:	0000                	unimp
  102318:	0000                	unimp
  10231a:	0000                	unimp
  10231c:	0000                	unimp
  10231e:	0000                	unimp
  102320:	0000                	unimp
  102322:	0000                	unimp
  102324:	0000                	unimp
  102326:	0000                	unimp
  102328:	0000                	unimp
  10232a:	0000                	unimp
  10232c:	0000                	unimp
  10232e:	0000                	unimp
  102330:	0000                	unimp
  102332:	0000                	unimp
  102334:	0000                	unimp
  102336:	0000                	unimp
  102338:	0000                	unimp
  10233a:	0000                	unimp
  10233c:	0000                	unimp
  10233e:	0000                	unimp
  102340:	0000                	unimp
  102342:	0000                	unimp
  102344:	0000                	unimp
  102346:	0000                	unimp
  102348:	0000                	unimp
  10234a:	0000                	unimp
  10234c:	0000                	unimp
  10234e:	0000                	unimp
  102350:	0000                	unimp
  102352:	0000                	unimp
  102354:	0000                	unimp
  102356:	0000                	unimp
  102358:	0000                	unimp
  10235a:	0000                	unimp
  10235c:	0000                	unimp
  10235e:	0000                	unimp
  102360:	0000                	unimp
  102362:	0000                	unimp
  102364:	0000                	unimp
  102366:	0000                	unimp
  102368:	0000                	unimp
  10236a:	0000                	unimp
  10236c:	0000                	unimp
  10236e:	0000                	unimp
  102370:	0000                	unimp
  102372:	0000                	unimp
  102374:	0000                	unimp
  102376:	0000                	unimp
  102378:	0000                	unimp
  10237a:	0000                	unimp
  10237c:	0000                	unimp
  10237e:	0000                	unimp
  102380:	0000                	unimp
  102382:	0000                	unimp
  102384:	0000                	unimp
  102386:	0000                	unimp
  102388:	0000                	unimp
  10238a:	0000                	unimp
  10238c:	0000                	unimp
  10238e:	0000                	unimp
  102390:	0000                	unimp
  102392:	0000                	unimp
  102394:	0000                	unimp
  102396:	0000                	unimp
  102398:	0000                	unimp
  10239a:	0000                	unimp
  10239c:	0000                	unimp
  10239e:	0000                	unimp
  1023a0:	0000                	unimp
  1023a2:	0000                	unimp
  1023a4:	0000                	unimp
  1023a6:	0000                	unimp
  1023a8:	0000                	unimp
  1023aa:	0000                	unimp
  1023ac:	0000                	unimp
  1023ae:	0000                	unimp
  1023b0:	0000                	unimp
  1023b2:	0000                	unimp
  1023b4:	0000                	unimp
  1023b6:	0000                	unimp
  1023b8:	0000                	unimp
  1023ba:	0000                	unimp
  1023bc:	0000                	unimp
  1023be:	0000                	unimp
  1023c0:	0000                	unimp
  1023c2:	0000                	unimp
  1023c4:	0000                	unimp
  1023c6:	0000                	unimp
  1023c8:	0000                	unimp
  1023ca:	0000                	unimp
  1023cc:	0000                	unimp
  1023ce:	0000                	unimp
  1023d0:	0000                	unimp
  1023d2:	0000                	unimp
  1023d4:	0000                	unimp
  1023d6:	0000                	unimp
  1023d8:	0000                	unimp
  1023da:	0000                	unimp
  1023dc:	0000                	unimp
  1023de:	0000                	unimp
  1023e0:	0000                	unimp
  1023e2:	0000                	unimp
  1023e4:	0000                	unimp
  1023e6:	0000                	unimp
  1023e8:	0000                	unimp
  1023ea:	0000                	unimp
  1023ec:	0000                	unimp
  1023ee:	0000                	unimp
  1023f0:	0000                	unimp
  1023f2:	0000                	unimp
  1023f4:	0000                	unimp
  1023f6:	0000                	unimp
  1023f8:	0000                	unimp
  1023fa:	0000                	unimp
  1023fc:	0000                	unimp
  1023fe:	0000                	unimp
  102400:	0000                	unimp
  102402:	0000                	unimp
  102404:	0000                	unimp
  102406:	0000                	unimp
  102408:	0000                	unimp
  10240a:	0000                	unimp
  10240c:	0000                	unimp
  10240e:	0000                	unimp
  102410:	0000                	unimp
  102412:	0000                	unimp
  102414:	0000                	unimp
  102416:	0000                	unimp
  102418:	0000                	unimp
  10241a:	0000                	unimp
  10241c:	0000                	unimp
  10241e:	0000                	unimp
  102420:	0000                	unimp
  102422:	0000                	unimp
  102424:	0000                	unimp
  102426:	0000                	unimp
  102428:	0000                	unimp
  10242a:	0000                	unimp
  10242c:	0000                	unimp
  10242e:	0000                	unimp
  102430:	0000                	unimp
  102432:	0000                	unimp
  102434:	0000                	unimp
  102436:	0000                	unimp
  102438:	0000                	unimp
  10243a:	0000                	unimp
  10243c:	0000                	unimp
  10243e:	0000                	unimp
  102440:	0000                	unimp
  102442:	0000                	unimp
  102444:	0000                	unimp
  102446:	0000                	unimp
  102448:	0000                	unimp
  10244a:	0000                	unimp
  10244c:	0000                	unimp
  10244e:	0000                	unimp
  102450:	0000                	unimp
  102452:	0000                	unimp
  102454:	0000                	unimp
  102456:	0000                	unimp
  102458:	0000                	unimp
  10245a:	0000                	unimp
  10245c:	0000                	unimp
  10245e:	0000                	unimp
  102460:	0000                	unimp
  102462:	0000                	unimp
  102464:	0000                	unimp
  102466:	0000                	unimp
  102468:	0000                	unimp
  10246a:	0000                	unimp
  10246c:	0000                	unimp
  10246e:	0000                	unimp
  102470:	0000                	unimp
  102472:	0000                	unimp
  102474:	0000                	unimp
  102476:	0000                	unimp
  102478:	0000                	unimp
  10247a:	0000                	unimp
  10247c:	0000                	unimp
  10247e:	0000                	unimp
  102480:	0000                	unimp
  102482:	0000                	unimp
  102484:	0000                	unimp
  102486:	0000                	unimp
  102488:	0000                	unimp
  10248a:	0000                	unimp
  10248c:	0000                	unimp
  10248e:	0000                	unimp
  102490:	0000                	unimp
  102492:	0000                	unimp
  102494:	0000                	unimp
  102496:	0000                	unimp
  102498:	0000                	unimp
  10249a:	0000                	unimp
  10249c:	0000                	unimp
  10249e:	0000                	unimp
  1024a0:	0000                	unimp
  1024a2:	0000                	unimp
  1024a4:	0000                	unimp
  1024a6:	0000                	unimp
  1024a8:	0000                	unimp
  1024aa:	0000                	unimp
  1024ac:	0000                	unimp
  1024ae:	0000                	unimp
  1024b0:	0000                	unimp
  1024b2:	0000                	unimp
  1024b4:	0000                	unimp
  1024b6:	0000                	unimp
  1024b8:	0000                	unimp
  1024ba:	0000                	unimp
  1024bc:	0000                	unimp
  1024be:	0000                	unimp
  1024c0:	0000                	unimp
  1024c2:	0000                	unimp
  1024c4:	0000                	unimp
  1024c6:	0000                	unimp
  1024c8:	0000                	unimp
  1024ca:	0000                	unimp
  1024cc:	0000                	unimp
  1024ce:	0000                	unimp
  1024d0:	0000                	unimp
  1024d2:	0000                	unimp
  1024d4:	0000                	unimp
  1024d6:	0000                	unimp
  1024d8:	0000                	unimp
  1024da:	0000                	unimp
  1024dc:	0000                	unimp
  1024de:	0000                	unimp
  1024e0:	0000                	unimp
  1024e2:	0000                	unimp
  1024e4:	0000                	unimp
  1024e6:	0000                	unimp
  1024e8:	0000                	unimp
  1024ea:	0000                	unimp
  1024ec:	0000                	unimp
  1024ee:	0000                	unimp
  1024f0:	0000                	unimp
  1024f2:	0000                	unimp
  1024f4:	0000                	unimp
  1024f6:	0000                	unimp

001024f8 <color_buf>:
  1024f8:	0000                	unimp
  1024fa:	0000                	unimp
  1024fc:	0000                	unimp
  1024fe:	0000                	unimp
  102500:	0000                	unimp
  102502:	0000                	unimp
  102504:	0000                	unimp
  102506:	0000                	unimp
  102508:	0000                	unimp
  10250a:	0000                	unimp
  10250c:	0000                	unimp
  10250e:	0000                	unimp
  102510:	0000                	unimp
  102512:	0000                	unimp
  102514:	0000                	unimp
  102516:	0000                	unimp
  102518:	0000                	unimp
  10251a:	0000                	unimp
  10251c:	0000                	unimp
  10251e:	0000                	unimp
  102520:	0000                	unimp
  102522:	0000                	unimp
  102524:	0000                	unimp
  102526:	0000                	unimp
  102528:	0000                	unimp
  10252a:	0000                	unimp
  10252c:	0000                	unimp
  10252e:	0000                	unimp
  102530:	0000                	unimp
  102532:	0000                	unimp
  102534:	0000                	unimp
  102536:	0000                	unimp
  102538:	0000                	unimp
  10253a:	0000                	unimp
  10253c:	0000                	unimp
  10253e:	0000                	unimp
  102540:	0000                	unimp
  102542:	0000                	unimp
  102544:	0000                	unimp
  102546:	0000                	unimp
  102548:	0000                	unimp
  10254a:	0000                	unimp
  10254c:	0000                	unimp
  10254e:	0000                	unimp
  102550:	0000                	unimp
  102552:	0000                	unimp
  102554:	0000                	unimp
  102556:	0000                	unimp
  102558:	0000                	unimp
  10255a:	0000                	unimp
  10255c:	0000                	unimp
  10255e:	0000                	unimp
  102560:	0000                	unimp
  102562:	0000                	unimp
  102564:	0000                	unimp
  102566:	0000                	unimp
  102568:	0000                	unimp
  10256a:	0000                	unimp
  10256c:	0000                	unimp
  10256e:	0000                	unimp
  102570:	0000                	unimp
  102572:	0000                	unimp
  102574:	0000                	unimp
  102576:	0000                	unimp
  102578:	0000                	unimp
  10257a:	0000                	unimp
  10257c:	0000                	unimp
  10257e:	0000                	unimp
  102580:	0000                	unimp
  102582:	0000                	unimp
  102584:	0000                	unimp
  102586:	0000                	unimp
  102588:	0000                	unimp
  10258a:	0000                	unimp
  10258c:	0000                	unimp
  10258e:	0000                	unimp
  102590:	0000                	unimp
  102592:	0000                	unimp
  102594:	0000                	unimp
  102596:	0000                	unimp
  102598:	0000                	unimp
  10259a:	0000                	unimp
  10259c:	0000                	unimp
  10259e:	0000                	unimp
  1025a0:	0000                	unimp
  1025a2:	0000                	unimp
  1025a4:	0000                	unimp
  1025a6:	0000                	unimp
  1025a8:	0000                	unimp
  1025aa:	0000                	unimp
  1025ac:	0000                	unimp
  1025ae:	0000                	unimp
  1025b0:	0000                	unimp
  1025b2:	0000                	unimp
  1025b4:	0000                	unimp
  1025b6:	0000                	unimp
  1025b8:	0000                	unimp
  1025ba:	0000                	unimp
  1025bc:	0000                	unimp
  1025be:	0000                	unimp
  1025c0:	0000                	unimp
  1025c2:	0000                	unimp
  1025c4:	0000                	unimp
  1025c6:	0000                	unimp
  1025c8:	0000                	unimp
  1025ca:	0000                	unimp
  1025cc:	0000                	unimp
  1025ce:	0000                	unimp
  1025d0:	0000                	unimp
  1025d2:	0000                	unimp
  1025d4:	0000                	unimp
  1025d6:	0000                	unimp
  1025d8:	0000                	unimp
  1025da:	0000                	unimp
  1025dc:	0000                	unimp
  1025de:	0000                	unimp
  1025e0:	0000                	unimp
  1025e2:	0000                	unimp
  1025e4:	0000                	unimp
  1025e6:	0000                	unimp
  1025e8:	0000                	unimp
  1025ea:	0000                	unimp
  1025ec:	0000                	unimp
  1025ee:	0000                	unimp
  1025f0:	0000                	unimp
  1025f2:	0000                	unimp
  1025f4:	0000                	unimp
  1025f6:	0000                	unimp
  1025f8:	0000                	unimp
  1025fa:	0000                	unimp
  1025fc:	0000                	unimp
  1025fe:	0000                	unimp
  102600:	0000                	unimp
  102602:	0000                	unimp
  102604:	0000                	unimp
  102606:	0000                	unimp
  102608:	0000                	unimp
  10260a:	0000                	unimp
  10260c:	0000                	unimp
  10260e:	0000                	unimp
  102610:	0000                	unimp
  102612:	0000                	unimp
  102614:	0000                	unimp
  102616:	0000                	unimp
  102618:	0000                	unimp
  10261a:	0000                	unimp
  10261c:	0000                	unimp
  10261e:	0000                	unimp
  102620:	0000                	unimp
  102622:	0000                	unimp
  102624:	0000                	unimp
  102626:	0000                	unimp
  102628:	0000                	unimp
  10262a:	0000                	unimp
  10262c:	0000                	unimp
  10262e:	0000                	unimp
  102630:	0000                	unimp
  102632:	0000                	unimp
  102634:	0000                	unimp
  102636:	0000                	unimp
  102638:	0000                	unimp
  10263a:	0000                	unimp
  10263c:	0000                	unimp
  10263e:	0000                	unimp
  102640:	0000                	unimp
  102642:	0000                	unimp
  102644:	0000                	unimp
  102646:	0000                	unimp
  102648:	0000                	unimp
  10264a:	0000                	unimp
  10264c:	0000                	unimp
  10264e:	0000                	unimp
  102650:	0000                	unimp
  102652:	0000                	unimp
  102654:	0000                	unimp
  102656:	0000                	unimp
  102658:	0000                	unimp
  10265a:	0000                	unimp
  10265c:	0000                	unimp
  10265e:	0000                	unimp
  102660:	0000                	unimp
  102662:	0000                	unimp
  102664:	0000                	unimp
  102666:	0000                	unimp
  102668:	0000                	unimp
  10266a:	0000                	unimp
  10266c:	0000                	unimp
  10266e:	0000                	unimp
  102670:	0000                	unimp
  102672:	0000                	unimp
  102674:	0000                	unimp
  102676:	0000                	unimp
  102678:	0000                	unimp
  10267a:	0000                	unimp
  10267c:	0000                	unimp
  10267e:	0000                	unimp
  102680:	0000                	unimp
  102682:	0000                	unimp
  102684:	0000                	unimp
  102686:	0000                	unimp
  102688:	0000                	unimp
  10268a:	0000                	unimp
  10268c:	0000                	unimp
  10268e:	0000                	unimp
  102690:	0000                	unimp
  102692:	0000                	unimp
  102694:	0000                	unimp
  102696:	0000                	unimp
  102698:	0000                	unimp
  10269a:	0000                	unimp
  10269c:	0000                	unimp
  10269e:	0000                	unimp
  1026a0:	0000                	unimp
  1026a2:	0000                	unimp
  1026a4:	0000                	unimp
  1026a6:	0000                	unimp
  1026a8:	0000                	unimp
  1026aa:	0000                	unimp
  1026ac:	0000                	unimp
  1026ae:	0000                	unimp
  1026b0:	0000                	unimp
  1026b2:	0000                	unimp
  1026b4:	0000                	unimp
  1026b6:	0000                	unimp
  1026b8:	0000                	unimp
  1026ba:	0000                	unimp
  1026bc:	0000                	unimp
  1026be:	0000                	unimp
  1026c0:	0000                	unimp
  1026c2:	0000                	unimp
  1026c4:	0000                	unimp
  1026c6:	0000                	unimp
  1026c8:	0000                	unimp
  1026ca:	0000                	unimp
  1026cc:	0000                	unimp
  1026ce:	0000                	unimp
  1026d0:	0000                	unimp
  1026d2:	0000                	unimp
  1026d4:	0000                	unimp
  1026d6:	0000                	unimp
  1026d8:	0000                	unimp
  1026da:	0000                	unimp
  1026dc:	0000                	unimp
  1026de:	0000                	unimp
  1026e0:	0000                	unimp
  1026e2:	0000                	unimp
  1026e4:	0000                	unimp
  1026e6:	0000                	unimp
  1026e8:	0000                	unimp
  1026ea:	0000                	unimp
  1026ec:	0000                	unimp
  1026ee:	0000                	unimp
  1026f0:	0000                	unimp
  1026f2:	0000                	unimp
  1026f4:	0000                	unimp
  1026f6:	0000                	unimp
  1026f8:	0000                	unimp
  1026fa:	0000                	unimp
  1026fc:	0000                	unimp
  1026fe:	0000                	unimp
  102700:	0000                	unimp
  102702:	0000                	unimp
  102704:	0000                	unimp
  102706:	0000                	unimp
  102708:	0000                	unimp
  10270a:	0000                	unimp
  10270c:	0000                	unimp
  10270e:	0000                	unimp
  102710:	0000                	unimp
  102712:	0000                	unimp
  102714:	0000                	unimp
  102716:	0000                	unimp
  102718:	0000                	unimp
  10271a:	0000                	unimp
  10271c:	0000                	unimp
  10271e:	0000                	unimp
  102720:	0000                	unimp
  102722:	0000                	unimp
  102724:	0000                	unimp
  102726:	0000                	unimp
  102728:	0000                	unimp
  10272a:	0000                	unimp
  10272c:	0000                	unimp
  10272e:	0000                	unimp
  102730:	0000                	unimp
  102732:	0000                	unimp
  102734:	0000                	unimp
  102736:	0000                	unimp
  102738:	0000                	unimp
  10273a:	0000                	unimp
  10273c:	0000                	unimp
  10273e:	0000                	unimp
  102740:	0000                	unimp
  102742:	0000                	unimp
  102744:	0000                	unimp
  102746:	0000                	unimp
  102748:	0000                	unimp
  10274a:	0000                	unimp
  10274c:	0000                	unimp
  10274e:	0000                	unimp
  102750:	0000                	unimp
  102752:	0000                	unimp
  102754:	0000                	unimp
  102756:	0000                	unimp
  102758:	0000                	unimp
  10275a:	0000                	unimp
  10275c:	0000                	unimp
  10275e:	0000                	unimp
  102760:	0000                	unimp
  102762:	0000                	unimp
  102764:	0000                	unimp
  102766:	0000                	unimp
  102768:	0000                	unimp
  10276a:	0000                	unimp
  10276c:	0000                	unimp
  10276e:	0000                	unimp
  102770:	0000                	unimp
  102772:	0000                	unimp
  102774:	0000                	unimp
  102776:	0000                	unimp
  102778:	0000                	unimp
  10277a:	0000                	unimp
  10277c:	0000                	unimp
  10277e:	0000                	unimp
  102780:	0000                	unimp
  102782:	0000                	unimp
  102784:	0000                	unimp
  102786:	0000                	unimp
  102788:	0000                	unimp
  10278a:	0000                	unimp
  10278c:	0000                	unimp
  10278e:	0000                	unimp
  102790:	0000                	unimp
  102792:	0000                	unimp
  102794:	0000                	unimp
  102796:	0000                	unimp
  102798:	0000                	unimp
  10279a:	0000                	unimp
  10279c:	0000                	unimp
  10279e:	0000                	unimp
  1027a0:	0000                	unimp
  1027a2:	0000                	unimp
  1027a4:	0000                	unimp
  1027a6:	0000                	unimp
  1027a8:	0000                	unimp
  1027aa:	0000                	unimp
  1027ac:	0000                	unimp
  1027ae:	0000                	unimp
  1027b0:	0000                	unimp
  1027b2:	0000                	unimp
  1027b4:	0000                	unimp
  1027b6:	0000                	unimp
  1027b8:	0000                	unimp
  1027ba:	0000                	unimp
  1027bc:	0000                	unimp
  1027be:	0000                	unimp
  1027c0:	0000                	unimp
  1027c2:	0000                	unimp
  1027c4:	0000                	unimp
  1027c6:	0000                	unimp
  1027c8:	0000                	unimp
  1027ca:	0000                	unimp
  1027cc:	0000                	unimp
  1027ce:	0000                	unimp
  1027d0:	0000                	unimp
  1027d2:	0000                	unimp
  1027d4:	0000                	unimp
  1027d6:	0000                	unimp
  1027d8:	0000                	unimp
  1027da:	0000                	unimp
  1027dc:	0000                	unimp
  1027de:	0000                	unimp
  1027e0:	0000                	unimp
  1027e2:	0000                	unimp
  1027e4:	0000                	unimp
  1027e6:	0000                	unimp
  1027e8:	0000                	unimp
  1027ea:	0000                	unimp
  1027ec:	0000                	unimp
  1027ee:	0000                	unimp
  1027f0:	0000                	unimp
  1027f2:	0000                	unimp
  1027f4:	0000                	unimp
  1027f6:	0000                	unimp
  1027f8:	0000                	unimp
  1027fa:	0000                	unimp
  1027fc:	0000                	unimp
  1027fe:	0000                	unimp
  102800:	0000                	unimp
  102802:	0000                	unimp
  102804:	0000                	unimp
  102806:	0000                	unimp
  102808:	0000                	unimp
  10280a:	0000                	unimp
  10280c:	0000                	unimp
  10280e:	0000                	unimp
  102810:	0000                	unimp
  102812:	0000                	unimp
  102814:	0000                	unimp
  102816:	0000                	unimp
  102818:	0000                	unimp
  10281a:	0000                	unimp
  10281c:	0000                	unimp
  10281e:	0000                	unimp
  102820:	0000                	unimp
  102822:	0000                	unimp
  102824:	0000                	unimp
  102826:	0000                	unimp
  102828:	0000                	unimp
  10282a:	0000                	unimp
  10282c:	0000                	unimp
  10282e:	0000                	unimp
  102830:	0000                	unimp
  102832:	0000                	unimp
  102834:	0000                	unimp
  102836:	0000                	unimp
  102838:	0000                	unimp
  10283a:	0000                	unimp
  10283c:	0000                	unimp
  10283e:	0000                	unimp
  102840:	0000                	unimp
  102842:	0000                	unimp
  102844:	0000                	unimp
  102846:	0000                	unimp
  102848:	0000                	unimp
  10284a:	0000                	unimp
  10284c:	0000                	unimp
  10284e:	0000                	unimp
  102850:	0000                	unimp
  102852:	0000                	unimp
  102854:	0000                	unimp
  102856:	0000                	unimp
  102858:	0000                	unimp
  10285a:	0000                	unimp
  10285c:	0000                	unimp
  10285e:	0000                	unimp
  102860:	0000                	unimp
  102862:	0000                	unimp
  102864:	0000                	unimp
  102866:	0000                	unimp
  102868:	0000                	unimp
  10286a:	0000                	unimp
  10286c:	0000                	unimp
  10286e:	0000                	unimp
  102870:	0000                	unimp
  102872:	0000                	unimp
  102874:	0000                	unimp
  102876:	0000                	unimp
  102878:	0000                	unimp
  10287a:	0000                	unimp
  10287c:	0000                	unimp
  10287e:	0000                	unimp
  102880:	0000                	unimp
  102882:	0000                	unimp
  102884:	0000                	unimp
  102886:	0000                	unimp
  102888:	0000                	unimp
  10288a:	0000                	unimp
  10288c:	0000                	unimp
  10288e:	0000                	unimp
  102890:	0000                	unimp
  102892:	0000                	unimp
  102894:	0000                	unimp
  102896:	0000                	unimp
  102898:	0000                	unimp
  10289a:	0000                	unimp
  10289c:	0000                	unimp
  10289e:	0000                	unimp
  1028a0:	0000                	unimp
  1028a2:	0000                	unimp
  1028a4:	0000                	unimp
  1028a6:	0000                	unimp
  1028a8:	0000                	unimp
  1028aa:	0000                	unimp
  1028ac:	0000                	unimp
  1028ae:	0000                	unimp
  1028b0:	0000                	unimp
  1028b2:	0000                	unimp
  1028b4:	0000                	unimp
  1028b6:	0000                	unimp
  1028b8:	0000                	unimp
  1028ba:	0000                	unimp
  1028bc:	0000                	unimp
  1028be:	0000                	unimp
  1028c0:	0000                	unimp
  1028c2:	0000                	unimp
  1028c4:	0000                	unimp
  1028c6:	0000                	unimp
  1028c8:	0000                	unimp
  1028ca:	0000                	unimp
  1028cc:	0000                	unimp
  1028ce:	0000                	unimp
  1028d0:	0000                	unimp
  1028d2:	0000                	unimp
  1028d4:	0000                	unimp
  1028d6:	0000                	unimp
  1028d8:	0000                	unimp
  1028da:	0000                	unimp
  1028dc:	0000                	unimp
  1028de:	0000                	unimp
  1028e0:	0000                	unimp
  1028e2:	0000                	unimp
  1028e4:	0000                	unimp
  1028e6:	0000                	unimp
  1028e8:	0000                	unimp
  1028ea:	0000                	unimp
  1028ec:	0000                	unimp
  1028ee:	0000                	unimp
  1028f0:	0000                	unimp
  1028f2:	0000                	unimp
  1028f4:	0000                	unimp
  1028f6:	0000                	unimp
  1028f8:	0000                	unimp
  1028fa:	0000                	unimp
  1028fc:	0000                	unimp
  1028fe:	0000                	unimp
  102900:	0000                	unimp
  102902:	0000                	unimp
  102904:	0000                	unimp
  102906:	0000                	unimp
  102908:	0000                	unimp
  10290a:	0000                	unimp
  10290c:	0000                	unimp
  10290e:	0000                	unimp
  102910:	0000                	unimp
  102912:	0000                	unimp
  102914:	0000                	unimp
  102916:	0000                	unimp
  102918:	0000                	unimp
  10291a:	0000                	unimp
  10291c:	0000                	unimp
  10291e:	0000                	unimp
  102920:	0000                	unimp
  102922:	0000                	unimp
  102924:	0000                	unimp
  102926:	0000                	unimp
  102928:	0000                	unimp
  10292a:	0000                	unimp
  10292c:	0000                	unimp
  10292e:	0000                	unimp
  102930:	0000                	unimp
  102932:	0000                	unimp
  102934:	0000                	unimp
  102936:	0000                	unimp
  102938:	0000                	unimp
  10293a:	0000                	unimp
  10293c:	0000                	unimp
  10293e:	0000                	unimp
  102940:	0000                	unimp
  102942:	0000                	unimp
  102944:	0000                	unimp
  102946:	0000                	unimp
  102948:	0000                	unimp
  10294a:	0000                	unimp
  10294c:	0000                	unimp
  10294e:	0000                	unimp
  102950:	0000                	unimp
  102952:	0000                	unimp
  102954:	0000                	unimp
  102956:	0000                	unimp
  102958:	0000                	unimp
  10295a:	0000                	unimp
  10295c:	0000                	unimp
  10295e:	0000                	unimp
  102960:	0000                	unimp
  102962:	0000                	unimp
  102964:	0000                	unimp
  102966:	0000                	unimp
  102968:	0000                	unimp
  10296a:	0000                	unimp
  10296c:	0000                	unimp
  10296e:	0000                	unimp
  102970:	0000                	unimp
  102972:	0000                	unimp
  102974:	0000                	unimp
  102976:	0000                	unimp
  102978:	0000                	unimp
  10297a:	0000                	unimp
  10297c:	0000                	unimp
  10297e:	0000                	unimp
  102980:	0000                	unimp
  102982:	0000                	unimp
  102984:	0000                	unimp
  102986:	0000                	unimp
  102988:	0000                	unimp
  10298a:	0000                	unimp
  10298c:	0000                	unimp
  10298e:	0000                	unimp
  102990:	0000                	unimp
  102992:	0000                	unimp
  102994:	0000                	unimp
  102996:	0000                	unimp
  102998:	0000                	unimp
  10299a:	0000                	unimp
  10299c:	0000                	unimp
  10299e:	0000                	unimp
  1029a0:	0000                	unimp
  1029a2:	0000                	unimp
  1029a4:	0000                	unimp
  1029a6:	0000                	unimp
  1029a8:	0000                	unimp
  1029aa:	0000                	unimp
  1029ac:	0000                	unimp
  1029ae:	0000                	unimp
  1029b0:	0000                	unimp
  1029b2:	0000                	unimp
  1029b4:	0000                	unimp
  1029b6:	0000                	unimp
  1029b8:	0000                	unimp
  1029ba:	0000                	unimp
  1029bc:	0000                	unimp
  1029be:	0000                	unimp
  1029c0:	0000                	unimp
  1029c2:	0000                	unimp
  1029c4:	0000                	unimp
  1029c6:	0000                	unimp
  1029c8:	0000                	unimp
  1029ca:	0000                	unimp
  1029cc:	0000                	unimp
  1029ce:	0000                	unimp
  1029d0:	0000                	unimp
  1029d2:	0000                	unimp
  1029d4:	0000                	unimp
  1029d6:	0000                	unimp
  1029d8:	0000                	unimp
  1029da:	0000                	unimp
  1029dc:	0000                	unimp
  1029de:	0000                	unimp
  1029e0:	0000                	unimp
  1029e2:	0000                	unimp
  1029e4:	0000                	unimp
  1029e6:	0000                	unimp
  1029e8:	0000                	unimp
  1029ea:	0000                	unimp
  1029ec:	0000                	unimp
  1029ee:	0000                	unimp
  1029f0:	0000                	unimp
  1029f2:	0000                	unimp
  1029f4:	0000                	unimp
  1029f6:	0000                	unimp
  1029f8:	0000                	unimp
  1029fa:	0000                	unimp
  1029fc:	0000                	unimp
  1029fe:	0000                	unimp
  102a00:	0000                	unimp
  102a02:	0000                	unimp
  102a04:	0000                	unimp
  102a06:	0000                	unimp
  102a08:	0000                	unimp
  102a0a:	0000                	unimp
  102a0c:	0000                	unimp
  102a0e:	0000                	unimp
  102a10:	0000                	unimp
  102a12:	0000                	unimp
  102a14:	0000                	unimp
  102a16:	0000                	unimp
  102a18:	0000                	unimp
  102a1a:	0000                	unimp
  102a1c:	0000                	unimp
  102a1e:	0000                	unimp
  102a20:	0000                	unimp
  102a22:	0000                	unimp
  102a24:	0000                	unimp
  102a26:	0000                	unimp
  102a28:	0000                	unimp
  102a2a:	0000                	unimp
  102a2c:	0000                	unimp
  102a2e:	0000                	unimp
  102a30:	0000                	unimp
  102a32:	0000                	unimp
  102a34:	0000                	unimp
  102a36:	0000                	unimp
  102a38:	0000                	unimp
  102a3a:	0000                	unimp
  102a3c:	0000                	unimp
  102a3e:	0000                	unimp
  102a40:	0000                	unimp
  102a42:	0000                	unimp
  102a44:	0000                	unimp
  102a46:	0000                	unimp
  102a48:	0000                	unimp
  102a4a:	0000                	unimp
  102a4c:	0000                	unimp
  102a4e:	0000                	unimp
  102a50:	0000                	unimp
  102a52:	0000                	unimp
  102a54:	0000                	unimp
  102a56:	0000                	unimp
  102a58:	0000                	unimp
  102a5a:	0000                	unimp
  102a5c:	0000                	unimp
  102a5e:	0000                	unimp
  102a60:	0000                	unimp
  102a62:	0000                	unimp
  102a64:	0000                	unimp
  102a66:	0000                	unimp
  102a68:	0000                	unimp
  102a6a:	0000                	unimp
  102a6c:	0000                	unimp
  102a6e:	0000                	unimp
  102a70:	0000                	unimp
  102a72:	0000                	unimp
  102a74:	0000                	unimp
  102a76:	0000                	unimp
  102a78:	0000                	unimp
  102a7a:	0000                	unimp
  102a7c:	0000                	unimp
  102a7e:	0000                	unimp
  102a80:	0000                	unimp
  102a82:	0000                	unimp
  102a84:	0000                	unimp
  102a86:	0000                	unimp
  102a88:	0000                	unimp
  102a8a:	0000                	unimp
  102a8c:	0000                	unimp
  102a8e:	0000                	unimp
  102a90:	0000                	unimp
  102a92:	0000                	unimp
  102a94:	0000                	unimp
  102a96:	0000                	unimp
  102a98:	0000                	unimp
  102a9a:	0000                	unimp
  102a9c:	0000                	unimp
  102a9e:	0000                	unimp
  102aa0:	0000                	unimp
  102aa2:	0000                	unimp
  102aa4:	0000                	unimp
  102aa6:	0000                	unimp
  102aa8:	0000                	unimp
  102aaa:	0000                	unimp
  102aac:	0000                	unimp
  102aae:	0000                	unimp
  102ab0:	0000                	unimp
  102ab2:	0000                	unimp
  102ab4:	0000                	unimp
  102ab6:	0000                	unimp
  102ab8:	0000                	unimp
  102aba:	0000                	unimp
  102abc:	0000                	unimp
  102abe:	0000                	unimp
  102ac0:	0000                	unimp
  102ac2:	0000                	unimp
  102ac4:	0000                	unimp
  102ac6:	0000                	unimp
  102ac8:	0000                	unimp
  102aca:	0000                	unimp
  102acc:	0000                	unimp
  102ace:	0000                	unimp
  102ad0:	0000                	unimp
  102ad2:	0000                	unimp
  102ad4:	0000                	unimp
  102ad6:	0000                	unimp
  102ad8:	0000                	unimp
  102ada:	0000                	unimp
  102adc:	0000                	unimp
  102ade:	0000                	unimp
  102ae0:	0000                	unimp
  102ae2:	0000                	unimp
  102ae4:	0000                	unimp
  102ae6:	0000                	unimp
  102ae8:	0000                	unimp
  102aea:	0000                	unimp
  102aec:	0000                	unimp
  102aee:	0000                	unimp
  102af0:	0000                	unimp
  102af2:	0000                	unimp
  102af4:	0000                	unimp
  102af6:	0000                	unimp
  102af8:	0000                	unimp
  102afa:	0000                	unimp
  102afc:	0000                	unimp
  102afe:	0000                	unimp
  102b00:	0000                	unimp
  102b02:	0000                	unimp
  102b04:	0000                	unimp
  102b06:	0000                	unimp
  102b08:	0000                	unimp
  102b0a:	0000                	unimp
  102b0c:	0000                	unimp
  102b0e:	0000                	unimp
  102b10:	0000                	unimp
  102b12:	0000                	unimp
  102b14:	0000                	unimp
  102b16:	0000                	unimp
  102b18:	0000                	unimp
  102b1a:	0000                	unimp
  102b1c:	0000                	unimp
  102b1e:	0000                	unimp
  102b20:	0000                	unimp
  102b22:	0000                	unimp
  102b24:	0000                	unimp
  102b26:	0000                	unimp
  102b28:	0000                	unimp
  102b2a:	0000                	unimp
  102b2c:	0000                	unimp
  102b2e:	0000                	unimp
  102b30:	0000                	unimp
  102b32:	0000                	unimp
  102b34:	0000                	unimp
  102b36:	0000                	unimp
  102b38:	0000                	unimp
  102b3a:	0000                	unimp
  102b3c:	0000                	unimp
  102b3e:	0000                	unimp
  102b40:	0000                	unimp
  102b42:	0000                	unimp
  102b44:	0000                	unimp
  102b46:	0000                	unimp
  102b48:	0000                	unimp
  102b4a:	0000                	unimp
  102b4c:	0000                	unimp
  102b4e:	0000                	unimp
  102b50:	0000                	unimp
  102b52:	0000                	unimp
  102b54:	0000                	unimp
  102b56:	0000                	unimp
  102b58:	0000                	unimp
  102b5a:	0000                	unimp
  102b5c:	0000                	unimp
  102b5e:	0000                	unimp
  102b60:	0000                	unimp
  102b62:	0000                	unimp
  102b64:	0000                	unimp
  102b66:	0000                	unimp
  102b68:	0000                	unimp
  102b6a:	0000                	unimp
  102b6c:	0000                	unimp
  102b6e:	0000                	unimp
  102b70:	0000                	unimp
  102b72:	0000                	unimp
  102b74:	0000                	unimp
  102b76:	0000                	unimp
  102b78:	0000                	unimp
  102b7a:	0000                	unimp
  102b7c:	0000                	unimp
  102b7e:	0000                	unimp
  102b80:	0000                	unimp
  102b82:	0000                	unimp
  102b84:	0000                	unimp
  102b86:	0000                	unimp
  102b88:	0000                	unimp
  102b8a:	0000                	unimp
  102b8c:	0000                	unimp
  102b8e:	0000                	unimp
  102b90:	0000                	unimp
  102b92:	0000                	unimp
  102b94:	0000                	unimp
  102b96:	0000                	unimp
  102b98:	0000                	unimp
  102b9a:	0000                	unimp
  102b9c:	0000                	unimp
  102b9e:	0000                	unimp
  102ba0:	0000                	unimp
  102ba2:	0000                	unimp
  102ba4:	0000                	unimp
  102ba6:	0000                	unimp
  102ba8:	0000                	unimp
  102baa:	0000                	unimp
  102bac:	0000                	unimp
  102bae:	0000                	unimp
  102bb0:	0000                	unimp
  102bb2:	0000                	unimp
  102bb4:	0000                	unimp
  102bb6:	0000                	unimp
  102bb8:	0000                	unimp
  102bba:	0000                	unimp
  102bbc:	0000                	unimp
  102bbe:	0000                	unimp
  102bc0:	0000                	unimp
  102bc2:	0000                	unimp
  102bc4:	0000                	unimp
  102bc6:	0000                	unimp
  102bc8:	0000                	unimp
  102bca:	0000                	unimp
  102bcc:	0000                	unimp
  102bce:	0000                	unimp
  102bd0:	0000                	unimp
  102bd2:	0000                	unimp
  102bd4:	0000                	unimp
  102bd6:	0000                	unimp
  102bd8:	0000                	unimp
  102bda:	0000                	unimp
  102bdc:	0000                	unimp
  102bde:	0000                	unimp
  102be0:	0000                	unimp
  102be2:	0000                	unimp
  102be4:	0000                	unimp
  102be6:	0000                	unimp
  102be8:	0000                	unimp
  102bea:	0000                	unimp
  102bec:	0000                	unimp
  102bee:	0000                	unimp
  102bf0:	0000                	unimp
  102bf2:	0000                	unimp
  102bf4:	0000                	unimp
  102bf6:	0000                	unimp
  102bf8:	0000                	unimp
  102bfa:	0000                	unimp
  102bfc:	0000                	unimp
  102bfe:	0000                	unimp
  102c00:	0000                	unimp
  102c02:	0000                	unimp
  102c04:	0000                	unimp
  102c06:	0000                	unimp
  102c08:	0000                	unimp
  102c0a:	0000                	unimp
  102c0c:	0000                	unimp
  102c0e:	0000                	unimp
  102c10:	0000                	unimp
  102c12:	0000                	unimp
  102c14:	0000                	unimp
  102c16:	0000                	unimp
  102c18:	0000                	unimp
  102c1a:	0000                	unimp
  102c1c:	0000                	unimp
  102c1e:	0000                	unimp
  102c20:	0000                	unimp
  102c22:	0000                	unimp
  102c24:	0000                	unimp
  102c26:	0000                	unimp
  102c28:	0000                	unimp
  102c2a:	0000                	unimp
  102c2c:	0000                	unimp
  102c2e:	0000                	unimp
  102c30:	0000                	unimp
  102c32:	0000                	unimp
  102c34:	0000                	unimp
  102c36:	0000                	unimp
  102c38:	0000                	unimp
  102c3a:	0000                	unimp
  102c3c:	0000                	unimp
  102c3e:	0000                	unimp
  102c40:	0000                	unimp
  102c42:	0000                	unimp
  102c44:	0000                	unimp
  102c46:	0000                	unimp
  102c48:	0000                	unimp
  102c4a:	0000                	unimp
  102c4c:	0000                	unimp
  102c4e:	0000                	unimp
  102c50:	0000                	unimp
  102c52:	0000                	unimp
  102c54:	0000                	unimp
  102c56:	0000                	unimp
  102c58:	0000                	unimp
  102c5a:	0000                	unimp
  102c5c:	0000                	unimp
  102c5e:	0000                	unimp
  102c60:	0000                	unimp
  102c62:	0000                	unimp
  102c64:	0000                	unimp
  102c66:	0000                	unimp
  102c68:	0000                	unimp
  102c6a:	0000                	unimp
  102c6c:	0000                	unimp
  102c6e:	0000                	unimp
  102c70:	0000                	unimp
  102c72:	0000                	unimp
  102c74:	0000                	unimp
  102c76:	0000                	unimp
  102c78:	0000                	unimp
  102c7a:	0000                	unimp
  102c7c:	0000                	unimp
  102c7e:	0000                	unimp
  102c80:	0000                	unimp
  102c82:	0000                	unimp
  102c84:	0000                	unimp
  102c86:	0000                	unimp
  102c88:	0000                	unimp
  102c8a:	0000                	unimp
  102c8c:	0000                	unimp
  102c8e:	0000                	unimp
  102c90:	0000                	unimp
  102c92:	0000                	unimp
  102c94:	0000                	unimp
  102c96:	0000                	unimp
  102c98:	0000                	unimp
  102c9a:	0000                	unimp
  102c9c:	0000                	unimp
  102c9e:	0000                	unimp
  102ca0:	0000                	unimp
  102ca2:	0000                	unimp
  102ca4:	0000                	unimp
  102ca6:	0000                	unimp
  102ca8:	0000                	unimp
  102caa:	0000                	unimp
  102cac:	0000                	unimp
  102cae:	0000                	unimp
  102cb0:	0000                	unimp
  102cb2:	0000                	unimp
  102cb4:	0000                	unimp
  102cb6:	0000                	unimp
  102cb8:	0000                	unimp
  102cba:	0000                	unimp
  102cbc:	0000                	unimp
  102cbe:	0000                	unimp
  102cc0:	0000                	unimp
  102cc2:	0000                	unimp
  102cc4:	0000                	unimp
  102cc6:	0000                	unimp
  102cc8:	0000                	unimp
  102cca:	0000                	unimp
  102ccc:	0000                	unimp
  102cce:	0000                	unimp
  102cd0:	0000                	unimp
  102cd2:	0000                	unimp
  102cd4:	0000                	unimp
  102cd6:	0000                	unimp
  102cd8:	0000                	unimp
  102cda:	0000                	unimp
  102cdc:	0000                	unimp
  102cde:	0000                	unimp
  102ce0:	0000                	unimp
  102ce2:	0000                	unimp
  102ce4:	0000                	unimp
  102ce6:	0000                	unimp
  102ce8:	0000                	unimp
  102cea:	0000                	unimp
  102cec:	0000                	unimp
  102cee:	0000                	unimp
  102cf0:	0000                	unimp
  102cf2:	0000                	unimp
  102cf4:	0000                	unimp
  102cf6:	0000                	unimp
  102cf8:	0000                	unimp
  102cfa:	0000                	unimp
  102cfc:	0000                	unimp
  102cfe:	0000                	unimp
  102d00:	0000                	unimp
  102d02:	0000                	unimp
  102d04:	0000                	unimp
  102d06:	0000                	unimp
  102d08:	0000                	unimp
  102d0a:	0000                	unimp
  102d0c:	0000                	unimp
  102d0e:	0000                	unimp
  102d10:	0000                	unimp
  102d12:	0000                	unimp
  102d14:	0000                	unimp
  102d16:	0000                	unimp
  102d18:	0000                	unimp
  102d1a:	0000                	unimp
  102d1c:	0000                	unimp
  102d1e:	0000                	unimp
  102d20:	0000                	unimp
  102d22:	0000                	unimp
  102d24:	0000                	unimp
  102d26:	0000                	unimp
  102d28:	0000                	unimp
  102d2a:	0000                	unimp
  102d2c:	0000                	unimp
  102d2e:	0000                	unimp
  102d30:	0000                	unimp
  102d32:	0000                	unimp
  102d34:	0000                	unimp
  102d36:	0000                	unimp
  102d38:	0000                	unimp
  102d3a:	0000                	unimp
  102d3c:	0000                	unimp
  102d3e:	0000                	unimp
  102d40:	0000                	unimp
  102d42:	0000                	unimp
  102d44:	0000                	unimp
  102d46:	0000                	unimp
  102d48:	0000                	unimp
  102d4a:	0000                	unimp
  102d4c:	0000                	unimp
  102d4e:	0000                	unimp
  102d50:	0000                	unimp
  102d52:	0000                	unimp
  102d54:	0000                	unimp
  102d56:	0000                	unimp
  102d58:	0000                	unimp
  102d5a:	0000                	unimp
  102d5c:	0000                	unimp
  102d5e:	0000                	unimp
  102d60:	0000                	unimp
  102d62:	0000                	unimp
  102d64:	0000                	unimp
  102d66:	0000                	unimp
  102d68:	0000                	unimp
  102d6a:	0000                	unimp
  102d6c:	0000                	unimp
  102d6e:	0000                	unimp
  102d70:	0000                	unimp
  102d72:	0000                	unimp
  102d74:	0000                	unimp
  102d76:	0000                	unimp
  102d78:	0000                	unimp
  102d7a:	0000                	unimp
  102d7c:	0000                	unimp
  102d7e:	0000                	unimp
  102d80:	0000                	unimp
  102d82:	0000                	unimp
  102d84:	0000                	unimp
  102d86:	0000                	unimp
  102d88:	0000                	unimp
  102d8a:	0000                	unimp
  102d8c:	0000                	unimp
  102d8e:	0000                	unimp
  102d90:	0000                	unimp
  102d92:	0000                	unimp
  102d94:	0000                	unimp
  102d96:	0000                	unimp
  102d98:	0000                	unimp
  102d9a:	0000                	unimp
  102d9c:	0000                	unimp
  102d9e:	0000                	unimp
  102da0:	0000                	unimp
  102da2:	0000                	unimp
  102da4:	0000                	unimp
  102da6:	0000                	unimp
  102da8:	0000                	unimp
  102daa:	0000                	unimp
  102dac:	0000                	unimp
  102dae:	0000                	unimp
  102db0:	0000                	unimp
  102db2:	0000                	unimp
  102db4:	0000                	unimp
  102db6:	0000                	unimp
  102db8:	0000                	unimp
  102dba:	0000                	unimp
  102dbc:	0000                	unimp
  102dbe:	0000                	unimp
  102dc0:	0000                	unimp
  102dc2:	0000                	unimp
  102dc4:	0000                	unimp
  102dc6:	0000                	unimp
  102dc8:	0000                	unimp
  102dca:	0000                	unimp
  102dcc:	0000                	unimp
  102dce:	0000                	unimp
  102dd0:	0000                	unimp
  102dd2:	0000                	unimp
  102dd4:	0000                	unimp
  102dd6:	0000                	unimp
  102dd8:	0000                	unimp
  102dda:	0000                	unimp
  102ddc:	0000                	unimp
  102dde:	0000                	unimp
  102de0:	0000                	unimp
  102de2:	0000                	unimp
  102de4:	0000                	unimp
  102de6:	0000                	unimp
  102de8:	0000                	unimp
  102dea:	0000                	unimp
  102dec:	0000                	unimp
  102dee:	0000                	unimp
  102df0:	0000                	unimp
  102df2:	0000                	unimp
  102df4:	0000                	unimp
  102df6:	0000                	unimp
  102df8:	0000                	unimp
  102dfa:	0000                	unimp
  102dfc:	0000                	unimp
  102dfe:	0000                	unimp
  102e00:	0000                	unimp
  102e02:	0000                	unimp
  102e04:	0000                	unimp
  102e06:	0000                	unimp
  102e08:	0000                	unimp
  102e0a:	0000                	unimp
  102e0c:	0000                	unimp
  102e0e:	0000                	unimp
  102e10:	0000                	unimp
  102e12:	0000                	unimp
  102e14:	0000                	unimp
  102e16:	0000                	unimp
  102e18:	0000                	unimp
  102e1a:	0000                	unimp
  102e1c:	0000                	unimp
  102e1e:	0000                	unimp
  102e20:	0000                	unimp
  102e22:	0000                	unimp
  102e24:	0000                	unimp
  102e26:	0000                	unimp
  102e28:	0000                	unimp
  102e2a:	0000                	unimp
  102e2c:	0000                	unimp
  102e2e:	0000                	unimp
  102e30:	0000                	unimp
  102e32:	0000                	unimp
  102e34:	0000                	unimp
  102e36:	0000                	unimp
  102e38:	0000                	unimp
  102e3a:	0000                	unimp
  102e3c:	0000                	unimp
  102e3e:	0000                	unimp
  102e40:	0000                	unimp
  102e42:	0000                	unimp
  102e44:	0000                	unimp
  102e46:	0000                	unimp
  102e48:	0000                	unimp
  102e4a:	0000                	unimp
  102e4c:	0000                	unimp
  102e4e:	0000                	unimp
  102e50:	0000                	unimp
  102e52:	0000                	unimp
  102e54:	0000                	unimp
  102e56:	0000                	unimp
  102e58:	0000                	unimp
  102e5a:	0000                	unimp
  102e5c:	0000                	unimp
  102e5e:	0000                	unimp
  102e60:	0000                	unimp
  102e62:	0000                	unimp
  102e64:	0000                	unimp
  102e66:	0000                	unimp
  102e68:	0000                	unimp
  102e6a:	0000                	unimp
  102e6c:	0000                	unimp
  102e6e:	0000                	unimp
  102e70:	0000                	unimp
  102e72:	0000                	unimp
  102e74:	0000                	unimp
  102e76:	0000                	unimp
  102e78:	0000                	unimp
  102e7a:	0000                	unimp
  102e7c:	0000                	unimp
  102e7e:	0000                	unimp
  102e80:	0000                	unimp
  102e82:	0000                	unimp
  102e84:	0000                	unimp
  102e86:	0000                	unimp
  102e88:	0000                	unimp
  102e8a:	0000                	unimp
  102e8c:	0000                	unimp
  102e8e:	0000                	unimp
  102e90:	0000                	unimp
  102e92:	0000                	unimp
  102e94:	0000                	unimp
  102e96:	0000                	unimp
  102e98:	0000                	unimp
  102e9a:	0000                	unimp
  102e9c:	0000                	unimp
  102e9e:	0000                	unimp
  102ea0:	0000                	unimp
  102ea2:	0000                	unimp
  102ea4:	0000                	unimp
  102ea6:	0000                	unimp
  102ea8:	0000                	unimp
  102eaa:	0000                	unimp
  102eac:	0000                	unimp
  102eae:	0000                	unimp
  102eb0:	0000                	unimp
  102eb2:	0000                	unimp
  102eb4:	0000                	unimp
  102eb6:	0000                	unimp
  102eb8:	0000                	unimp
  102eba:	0000                	unimp
  102ebc:	0000                	unimp
  102ebe:	0000                	unimp
  102ec0:	0000                	unimp
  102ec2:	0000                	unimp
  102ec4:	0000                	unimp
  102ec6:	0000                	unimp
  102ec8:	0000                	unimp
  102eca:	0000                	unimp
  102ecc:	0000                	unimp
  102ece:	0000                	unimp
  102ed0:	0000                	unimp
  102ed2:	0000                	unimp
  102ed4:	0000                	unimp
  102ed6:	0000                	unimp
  102ed8:	0000                	unimp
  102eda:	0000                	unimp
  102edc:	0000                	unimp
  102ede:	0000                	unimp
  102ee0:	0000                	unimp
  102ee2:	0000                	unimp
  102ee4:	0000                	unimp
  102ee6:	0000                	unimp
  102ee8:	0000                	unimp
  102eea:	0000                	unimp
  102eec:	0000                	unimp
  102eee:	0000                	unimp
  102ef0:	0000                	unimp
  102ef2:	0000                	unimp
  102ef4:	0000                	unimp
  102ef6:	0000                	unimp
  102ef8:	0000                	unimp
  102efa:	0000                	unimp
  102efc:	0000                	unimp
  102efe:	0000                	unimp
  102f00:	0000                	unimp
  102f02:	0000                	unimp
  102f04:	0000                	unimp
  102f06:	0000                	unimp
  102f08:	0000                	unimp
  102f0a:	0000                	unimp
  102f0c:	0000                	unimp
  102f0e:	0000                	unimp
  102f10:	0000                	unimp
  102f12:	0000                	unimp
  102f14:	0000                	unimp
  102f16:	0000                	unimp
  102f18:	0000                	unimp
  102f1a:	0000                	unimp
  102f1c:	0000                	unimp
  102f1e:	0000                	unimp
  102f20:	0000                	unimp
  102f22:	0000                	unimp
  102f24:	0000                	unimp
  102f26:	0000                	unimp
  102f28:	0000                	unimp
  102f2a:	0000                	unimp
  102f2c:	0000                	unimp
  102f2e:	0000                	unimp
  102f30:	0000                	unimp
  102f32:	0000                	unimp
  102f34:	0000                	unimp
  102f36:	0000                	unimp
  102f38:	0000                	unimp
  102f3a:	0000                	unimp
  102f3c:	0000                	unimp
  102f3e:	0000                	unimp
  102f40:	0000                	unimp
  102f42:	0000                	unimp
  102f44:	0000                	unimp
  102f46:	0000                	unimp
  102f48:	0000                	unimp
  102f4a:	0000                	unimp
  102f4c:	0000                	unimp
  102f4e:	0000                	unimp
  102f50:	0000                	unimp
  102f52:	0000                	unimp
  102f54:	0000                	unimp
  102f56:	0000                	unimp
  102f58:	0000                	unimp
  102f5a:	0000                	unimp
  102f5c:	0000                	unimp
  102f5e:	0000                	unimp
  102f60:	0000                	unimp
  102f62:	0000                	unimp
  102f64:	0000                	unimp
  102f66:	0000                	unimp
  102f68:	0000                	unimp
  102f6a:	0000                	unimp
  102f6c:	0000                	unimp
  102f6e:	0000                	unimp
  102f70:	0000                	unimp
  102f72:	0000                	unimp
  102f74:	0000                	unimp
  102f76:	0000                	unimp
  102f78:	0000                	unimp
  102f7a:	0000                	unimp
  102f7c:	0000                	unimp
  102f7e:	0000                	unimp
  102f80:	0000                	unimp
  102f82:	0000                	unimp
  102f84:	0000                	unimp
  102f86:	0000                	unimp
  102f88:	0000                	unimp
  102f8a:	0000                	unimp
  102f8c:	0000                	unimp
  102f8e:	0000                	unimp
  102f90:	0000                	unimp
  102f92:	0000                	unimp
  102f94:	0000                	unimp
  102f96:	0000                	unimp
  102f98:	0000                	unimp
  102f9a:	0000                	unimp
  102f9c:	0000                	unimp
  102f9e:	0000                	unimp
  102fa0:	0000                	unimp
  102fa2:	0000                	unimp
  102fa4:	0000                	unimp
  102fa6:	0000                	unimp
  102fa8:	0000                	unimp
  102faa:	0000                	unimp
  102fac:	0000                	unimp
  102fae:	0000                	unimp
  102fb0:	0000                	unimp
  102fb2:	0000                	unimp
  102fb4:	0000                	unimp
  102fb6:	0000                	unimp
  102fb8:	0000                	unimp
  102fba:	0000                	unimp
  102fbc:	0000                	unimp
  102fbe:	0000                	unimp
  102fc0:	0000                	unimp
  102fc2:	0000                	unimp
  102fc4:	0000                	unimp
  102fc6:	0000                	unimp
  102fc8:	0000                	unimp
  102fca:	0000                	unimp
  102fcc:	0000                	unimp
  102fce:	0000                	unimp
  102fd0:	0000                	unimp
  102fd2:	0000                	unimp
  102fd4:	0000                	unimp
  102fd6:	0000                	unimp
  102fd8:	0000                	unimp
  102fda:	0000                	unimp
  102fdc:	0000                	unimp
  102fde:	0000                	unimp
  102fe0:	0000                	unimp
  102fe2:	0000                	unimp
  102fe4:	0000                	unimp
  102fe6:	0000                	unimp
  102fe8:	0000                	unimp
  102fea:	0000                	unimp
  102fec:	0000                	unimp
  102fee:	0000                	unimp
  102ff0:	0000                	unimp
  102ff2:	0000                	unimp
  102ff4:	0000                	unimp
  102ff6:	0000                	unimp
  102ff8:	0000                	unimp
  102ffa:	0000                	unimp
  102ffc:	0000                	unimp
  102ffe:	0000                	unimp
  103000:	0000                	unimp
  103002:	0000                	unimp
  103004:	0000                	unimp
  103006:	0000                	unimp
  103008:	0000                	unimp
  10300a:	0000                	unimp
  10300c:	0000                	unimp
  10300e:	0000                	unimp
  103010:	0000                	unimp
  103012:	0000                	unimp
  103014:	0000                	unimp
  103016:	0000                	unimp
  103018:	0000                	unimp
  10301a:	0000                	unimp
  10301c:	0000                	unimp
  10301e:	0000                	unimp
  103020:	0000                	unimp
  103022:	0000                	unimp
  103024:	0000                	unimp
  103026:	0000                	unimp
  103028:	0000                	unimp
  10302a:	0000                	unimp
  10302c:	0000                	unimp
  10302e:	0000                	unimp
  103030:	0000                	unimp
  103032:	0000                	unimp
  103034:	0000                	unimp
  103036:	0000                	unimp
  103038:	0000                	unimp
  10303a:	0000                	unimp
  10303c:	0000                	unimp
  10303e:	0000                	unimp
  103040:	0000                	unimp
  103042:	0000                	unimp
  103044:	0000                	unimp
  103046:	0000                	unimp
  103048:	0000                	unimp
  10304a:	0000                	unimp
  10304c:	0000                	unimp
  10304e:	0000                	unimp
  103050:	0000                	unimp
  103052:	0000                	unimp
  103054:	0000                	unimp
  103056:	0000                	unimp
  103058:	0000                	unimp
  10305a:	0000                	unimp
  10305c:	0000                	unimp
  10305e:	0000                	unimp
  103060:	0000                	unimp
  103062:	0000                	unimp
  103064:	0000                	unimp
  103066:	0000                	unimp
  103068:	0000                	unimp
  10306a:	0000                	unimp
  10306c:	0000                	unimp
  10306e:	0000                	unimp
  103070:	0000                	unimp
  103072:	0000                	unimp
  103074:	0000                	unimp
  103076:	0000                	unimp
  103078:	0000                	unimp
  10307a:	0000                	unimp
  10307c:	0000                	unimp
  10307e:	0000                	unimp
  103080:	0000                	unimp
  103082:	0000                	unimp
  103084:	0000                	unimp
  103086:	0000                	unimp
  103088:	0000                	unimp
  10308a:	0000                	unimp
  10308c:	0000                	unimp
  10308e:	0000                	unimp
  103090:	0000                	unimp
  103092:	0000                	unimp
  103094:	0000                	unimp
  103096:	0000                	unimp
  103098:	0000                	unimp
  10309a:	0000                	unimp
  10309c:	0000                	unimp
  10309e:	0000                	unimp
  1030a0:	0000                	unimp
  1030a2:	0000                	unimp
  1030a4:	0000                	unimp
  1030a6:	0000                	unimp
  1030a8:	0000                	unimp
  1030aa:	0000                	unimp
  1030ac:	0000                	unimp
  1030ae:	0000                	unimp
  1030b0:	0000                	unimp
  1030b2:	0000                	unimp
  1030b4:	0000                	unimp
  1030b6:	0000                	unimp
  1030b8:	0000                	unimp
  1030ba:	0000                	unimp
  1030bc:	0000                	unimp
  1030be:	0000                	unimp
  1030c0:	0000                	unimp
  1030c2:	0000                	unimp
  1030c4:	0000                	unimp
  1030c6:	0000                	unimp
  1030c8:	0000                	unimp
  1030ca:	0000                	unimp
  1030cc:	0000                	unimp
  1030ce:	0000                	unimp
  1030d0:	0000                	unimp
  1030d2:	0000                	unimp
  1030d4:	0000                	unimp
  1030d6:	0000                	unimp
  1030d8:	0000                	unimp
  1030da:	0000                	unimp
  1030dc:	0000                	unimp
  1030de:	0000                	unimp
  1030e0:	0000                	unimp
  1030e2:	0000                	unimp
  1030e4:	0000                	unimp
  1030e6:	0000                	unimp
  1030e8:	0000                	unimp
  1030ea:	0000                	unimp
  1030ec:	0000                	unimp
  1030ee:	0000                	unimp
  1030f0:	0000                	unimp
  1030f2:	0000                	unimp
  1030f4:	0000                	unimp
  1030f6:	0000                	unimp
  1030f8:	0000                	unimp
  1030fa:	0000                	unimp
  1030fc:	0000                	unimp
  1030fe:	0000                	unimp
  103100:	0000                	unimp
  103102:	0000                	unimp
  103104:	0000                	unimp
  103106:	0000                	unimp
  103108:	0000                	unimp
  10310a:	0000                	unimp
  10310c:	0000                	unimp
  10310e:	0000                	unimp
  103110:	0000                	unimp
  103112:	0000                	unimp
  103114:	0000                	unimp
  103116:	0000                	unimp
  103118:	0000                	unimp
  10311a:	0000                	unimp
  10311c:	0000                	unimp
  10311e:	0000                	unimp
  103120:	0000                	unimp
  103122:	0000                	unimp
  103124:	0000                	unimp
  103126:	0000                	unimp
  103128:	0000                	unimp
  10312a:	0000                	unimp
  10312c:	0000                	unimp
  10312e:	0000                	unimp
  103130:	0000                	unimp
  103132:	0000                	unimp
  103134:	0000                	unimp
  103136:	0000                	unimp
  103138:	0000                	unimp
  10313a:	0000                	unimp
  10313c:	0000                	unimp
  10313e:	0000                	unimp
  103140:	0000                	unimp
  103142:	0000                	unimp
  103144:	0000                	unimp
  103146:	0000                	unimp
  103148:	0000                	unimp
  10314a:	0000                	unimp
  10314c:	0000                	unimp
  10314e:	0000                	unimp
  103150:	0000                	unimp
  103152:	0000                	unimp
  103154:	0000                	unimp
  103156:	0000                	unimp
  103158:	0000                	unimp
  10315a:	0000                	unimp
  10315c:	0000                	unimp
  10315e:	0000                	unimp
  103160:	0000                	unimp
  103162:	0000                	unimp
  103164:	0000                	unimp
  103166:	0000                	unimp
  103168:	0000                	unimp
  10316a:	0000                	unimp
  10316c:	0000                	unimp
  10316e:	0000                	unimp
  103170:	0000                	unimp
  103172:	0000                	unimp
  103174:	0000                	unimp
  103176:	0000                	unimp
  103178:	0000                	unimp
  10317a:	0000                	unimp
  10317c:	0000                	unimp
  10317e:	0000                	unimp
  103180:	0000                	unimp
  103182:	0000                	unimp
  103184:	0000                	unimp
  103186:	0000                	unimp
  103188:	0000                	unimp
  10318a:	0000                	unimp
  10318c:	0000                	unimp
  10318e:	0000                	unimp
  103190:	0000                	unimp
  103192:	0000                	unimp
  103194:	0000                	unimp
  103196:	0000                	unimp
  103198:	0000                	unimp
  10319a:	0000                	unimp
  10319c:	0000                	unimp
  10319e:	0000                	unimp
  1031a0:	0000                	unimp
  1031a2:	0000                	unimp
  1031a4:	0000                	unimp
  1031a6:	0000                	unimp
  1031a8:	0000                	unimp
  1031aa:	0000                	unimp
  1031ac:	0000                	unimp
  1031ae:	0000                	unimp
  1031b0:	0000                	unimp
  1031b2:	0000                	unimp
  1031b4:	0000                	unimp
  1031b6:	0000                	unimp
  1031b8:	0000                	unimp
  1031ba:	0000                	unimp
  1031bc:	0000                	unimp
  1031be:	0000                	unimp
  1031c0:	0000                	unimp
  1031c2:	0000                	unimp
  1031c4:	0000                	unimp
  1031c6:	0000                	unimp
  1031c8:	0000                	unimp
  1031ca:	0000                	unimp
  1031cc:	0000                	unimp
  1031ce:	0000                	unimp
  1031d0:	0000                	unimp
  1031d2:	0000                	unimp
  1031d4:	0000                	unimp
  1031d6:	0000                	unimp
  1031d8:	0000                	unimp
  1031da:	0000                	unimp
  1031dc:	0000                	unimp
  1031de:	0000                	unimp
  1031e0:	0000                	unimp
  1031e2:	0000                	unimp
  1031e4:	0000                	unimp
  1031e6:	0000                	unimp
  1031e8:	0000                	unimp
  1031ea:	0000                	unimp
  1031ec:	0000                	unimp
  1031ee:	0000                	unimp
  1031f0:	0000                	unimp
  1031f2:	0000                	unimp
  1031f4:	0000                	unimp
  1031f6:	0000                	unimp
  1031f8:	0000                	unimp
  1031fa:	0000                	unimp
  1031fc:	0000                	unimp
  1031fe:	0000                	unimp
  103200:	0000                	unimp
  103202:	0000                	unimp
  103204:	0000                	unimp
  103206:	0000                	unimp
  103208:	0000                	unimp
  10320a:	0000                	unimp
  10320c:	0000                	unimp
  10320e:	0000                	unimp
  103210:	0000                	unimp
  103212:	0000                	unimp
  103214:	0000                	unimp
  103216:	0000                	unimp
  103218:	0000                	unimp
  10321a:	0000                	unimp
  10321c:	0000                	unimp
  10321e:	0000                	unimp
  103220:	0000                	unimp
  103222:	0000                	unimp
  103224:	0000                	unimp
  103226:	0000                	unimp
  103228:	0000                	unimp
  10322a:	0000                	unimp
  10322c:	0000                	unimp
  10322e:	0000                	unimp
  103230:	0000                	unimp
  103232:	0000                	unimp
  103234:	0000                	unimp
  103236:	0000                	unimp
  103238:	0000                	unimp
  10323a:	0000                	unimp
  10323c:	0000                	unimp
  10323e:	0000                	unimp
  103240:	0000                	unimp
  103242:	0000                	unimp
  103244:	0000                	unimp
  103246:	0000                	unimp
  103248:	0000                	unimp
  10324a:	0000                	unimp
  10324c:	0000                	unimp
  10324e:	0000                	unimp
  103250:	0000                	unimp
  103252:	0000                	unimp
  103254:	0000                	unimp
  103256:	0000                	unimp
  103258:	0000                	unimp
  10325a:	0000                	unimp
  10325c:	0000                	unimp
  10325e:	0000                	unimp
  103260:	0000                	unimp
  103262:	0000                	unimp
  103264:	0000                	unimp
  103266:	0000                	unimp
  103268:	0000                	unimp
  10326a:	0000                	unimp
  10326c:	0000                	unimp
  10326e:	0000                	unimp
  103270:	0000                	unimp
  103272:	0000                	unimp
  103274:	0000                	unimp
  103276:	0000                	unimp
  103278:	0000                	unimp
  10327a:	0000                	unimp
  10327c:	0000                	unimp
  10327e:	0000                	unimp
  103280:	0000                	unimp
  103282:	0000                	unimp
  103284:	0000                	unimp
  103286:	0000                	unimp
  103288:	0000                	unimp
  10328a:	0000                	unimp
  10328c:	0000                	unimp
  10328e:	0000                	unimp
  103290:	0000                	unimp
  103292:	0000                	unimp
  103294:	0000                	unimp
  103296:	0000                	unimp
  103298:	0000                	unimp
  10329a:	0000                	unimp
  10329c:	0000                	unimp
  10329e:	0000                	unimp
  1032a0:	0000                	unimp
  1032a2:	0000                	unimp
  1032a4:	0000                	unimp
  1032a6:	0000                	unimp
  1032a8:	0000                	unimp
  1032aa:	0000                	unimp
  1032ac:	0000                	unimp
  1032ae:	0000                	unimp
  1032b0:	0000                	unimp
  1032b2:	0000                	unimp
  1032b4:	0000                	unimp
  1032b6:	0000                	unimp
  1032b8:	0000                	unimp
  1032ba:	0000                	unimp
  1032bc:	0000                	unimp
  1032be:	0000                	unimp
  1032c0:	0000                	unimp
  1032c2:	0000                	unimp
  1032c4:	0000                	unimp
  1032c6:	0000                	unimp
  1032c8:	0000                	unimp
  1032ca:	0000                	unimp
  1032cc:	0000                	unimp
  1032ce:	0000                	unimp
  1032d0:	0000                	unimp
  1032d2:	0000                	unimp
  1032d4:	0000                	unimp
  1032d6:	0000                	unimp
  1032d8:	0000                	unimp
  1032da:	0000                	unimp
  1032dc:	0000                	unimp
  1032de:	0000                	unimp
  1032e0:	0000                	unimp
  1032e2:	0000                	unimp
  1032e4:	0000                	unimp
  1032e6:	0000                	unimp
  1032e8:	0000                	unimp
  1032ea:	0000                	unimp
  1032ec:	0000                	unimp
  1032ee:	0000                	unimp
  1032f0:	0000                	unimp
  1032f2:	0000                	unimp
  1032f4:	0000                	unimp
  1032f6:	0000                	unimp
  1032f8:	0000                	unimp
  1032fa:	0000                	unimp
  1032fc:	0000                	unimp
  1032fe:	0000                	unimp
  103300:	0000                	unimp
  103302:	0000                	unimp
  103304:	0000                	unimp
  103306:	0000                	unimp
  103308:	0000                	unimp
  10330a:	0000                	unimp
  10330c:	0000                	unimp
  10330e:	0000                	unimp
  103310:	0000                	unimp
  103312:	0000                	unimp
  103314:	0000                	unimp
  103316:	0000                	unimp
  103318:	0000                	unimp
  10331a:	0000                	unimp
  10331c:	0000                	unimp
  10331e:	0000                	unimp
  103320:	0000                	unimp
  103322:	0000                	unimp
  103324:	0000                	unimp
  103326:	0000                	unimp
  103328:	0000                	unimp
  10332a:	0000                	unimp
  10332c:	0000                	unimp
  10332e:	0000                	unimp
  103330:	0000                	unimp
  103332:	0000                	unimp
  103334:	0000                	unimp
  103336:	0000                	unimp
  103338:	0000                	unimp
  10333a:	0000                	unimp
  10333c:	0000                	unimp
  10333e:	0000                	unimp
  103340:	0000                	unimp
  103342:	0000                	unimp
  103344:	0000                	unimp
  103346:	0000                	unimp
  103348:	0000                	unimp
  10334a:	0000                	unimp
  10334c:	0000                	unimp
  10334e:	0000                	unimp
  103350:	0000                	unimp
  103352:	0000                	unimp
  103354:	0000                	unimp
  103356:	0000                	unimp
  103358:	0000                	unimp
  10335a:	0000                	unimp
  10335c:	0000                	unimp
  10335e:	0000                	unimp
  103360:	0000                	unimp
  103362:	0000                	unimp
  103364:	0000                	unimp
  103366:	0000                	unimp
  103368:	0000                	unimp
  10336a:	0000                	unimp
  10336c:	0000                	unimp
  10336e:	0000                	unimp
  103370:	0000                	unimp
  103372:	0000                	unimp
  103374:	0000                	unimp
  103376:	0000                	unimp
  103378:	0000                	unimp
  10337a:	0000                	unimp
  10337c:	0000                	unimp
  10337e:	0000                	unimp
  103380:	0000                	unimp
  103382:	0000                	unimp
  103384:	0000                	unimp
  103386:	0000                	unimp
  103388:	0000                	unimp
  10338a:	0000                	unimp
  10338c:	0000                	unimp
  10338e:	0000                	unimp
  103390:	0000                	unimp
  103392:	0000                	unimp
  103394:	0000                	unimp
  103396:	0000                	unimp
  103398:	0000                	unimp
  10339a:	0000                	unimp
  10339c:	0000                	unimp
  10339e:	0000                	unimp
  1033a0:	0000                	unimp
  1033a2:	0000                	unimp
  1033a4:	0000                	unimp
  1033a6:	0000                	unimp
  1033a8:	0000                	unimp
  1033aa:	0000                	unimp
  1033ac:	0000                	unimp
  1033ae:	0000                	unimp
  1033b0:	0000                	unimp
  1033b2:	0000                	unimp
  1033b4:	0000                	unimp
  1033b6:	0000                	unimp
  1033b8:	0000                	unimp
  1033ba:	0000                	unimp
  1033bc:	0000                	unimp
  1033be:	0000                	unimp
  1033c0:	0000                	unimp
  1033c2:	0000                	unimp
  1033c4:	0000                	unimp
  1033c6:	0000                	unimp
  1033c8:	0000                	unimp
  1033ca:	0000                	unimp
  1033cc:	0000                	unimp
  1033ce:	0000                	unimp
  1033d0:	0000                	unimp
  1033d2:	0000                	unimp
  1033d4:	0000                	unimp
  1033d6:	0000                	unimp
  1033d8:	0000                	unimp
  1033da:	0000                	unimp
  1033dc:	0000                	unimp
  1033de:	0000                	unimp
  1033e0:	0000                	unimp
  1033e2:	0000                	unimp
  1033e4:	0000                	unimp
  1033e6:	0000                	unimp
  1033e8:	0000                	unimp
  1033ea:	0000                	unimp
  1033ec:	0000                	unimp
  1033ee:	0000                	unimp
  1033f0:	0000                	unimp
  1033f2:	0000                	unimp
  1033f4:	0000                	unimp
  1033f6:	0000                	unimp
  1033f8:	0000                	unimp
  1033fa:	0000                	unimp
  1033fc:	0000                	unimp
  1033fe:	0000                	unimp
  103400:	0000                	unimp
  103402:	0000                	unimp
  103404:	0000                	unimp
  103406:	0000                	unimp
  103408:	0000                	unimp
  10340a:	0000                	unimp
  10340c:	0000                	unimp
  10340e:	0000                	unimp
  103410:	0000                	unimp
  103412:	0000                	unimp
  103414:	0000                	unimp
  103416:	0000                	unimp
  103418:	0000                	unimp
  10341a:	0000                	unimp
  10341c:	0000                	unimp
  10341e:	0000                	unimp
  103420:	0000                	unimp
  103422:	0000                	unimp
  103424:	0000                	unimp
  103426:	0000                	unimp
  103428:	0000                	unimp
  10342a:	0000                	unimp
  10342c:	0000                	unimp
  10342e:	0000                	unimp
  103430:	0000                	unimp
  103432:	0000                	unimp
  103434:	0000                	unimp
  103436:	0000                	unimp
  103438:	0000                	unimp
  10343a:	0000                	unimp
  10343c:	0000                	unimp
  10343e:	0000                	unimp
  103440:	0000                	unimp
  103442:	0000                	unimp
  103444:	0000                	unimp
  103446:	0000                	unimp
  103448:	0000                	unimp
  10344a:	0000                	unimp
  10344c:	0000                	unimp
  10344e:	0000                	unimp
  103450:	0000                	unimp
  103452:	0000                	unimp
  103454:	0000                	unimp
  103456:	0000                	unimp
  103458:	0000                	unimp
  10345a:	0000                	unimp
  10345c:	0000                	unimp
  10345e:	0000                	unimp
  103460:	0000                	unimp
  103462:	0000                	unimp
  103464:	0000                	unimp
  103466:	0000                	unimp
  103468:	0000                	unimp
  10346a:	0000                	unimp
  10346c:	0000                	unimp
  10346e:	0000                	unimp
  103470:	0000                	unimp
  103472:	0000                	unimp
  103474:	0000                	unimp
  103476:	0000                	unimp
  103478:	0000                	unimp
  10347a:	0000                	unimp
  10347c:	0000                	unimp
  10347e:	0000                	unimp
  103480:	0000                	unimp
  103482:	0000                	unimp
  103484:	0000                	unimp
  103486:	0000                	unimp
  103488:	0000                	unimp
  10348a:	0000                	unimp
  10348c:	0000                	unimp
  10348e:	0000                	unimp
  103490:	0000                	unimp
  103492:	0000                	unimp
  103494:	0000                	unimp
  103496:	0000                	unimp
  103498:	0000                	unimp
  10349a:	0000                	unimp
  10349c:	0000                	unimp
  10349e:	0000                	unimp
  1034a0:	0000                	unimp
  1034a2:	0000                	unimp
  1034a4:	0000                	unimp
  1034a6:	0000                	unimp
  1034a8:	0000                	unimp
  1034aa:	0000                	unimp
  1034ac:	0000                	unimp
  1034ae:	0000                	unimp
  1034b0:	0000                	unimp
  1034b2:	0000                	unimp
  1034b4:	0000                	unimp
  1034b6:	0000                	unimp
  1034b8:	0000                	unimp
  1034ba:	0000                	unimp
  1034bc:	0000                	unimp
  1034be:	0000                	unimp
  1034c0:	0000                	unimp
  1034c2:	0000                	unimp
  1034c4:	0000                	unimp
  1034c6:	0000                	unimp
  1034c8:	0000                	unimp
  1034ca:	0000                	unimp
  1034cc:	0000                	unimp
  1034ce:	0000                	unimp
  1034d0:	0000                	unimp
  1034d2:	0000                	unimp
  1034d4:	0000                	unimp
  1034d6:	0000                	unimp
  1034d8:	0000                	unimp
  1034da:	0000                	unimp
  1034dc:	0000                	unimp
  1034de:	0000                	unimp
  1034e0:	0000                	unimp
  1034e2:	0000                	unimp
  1034e4:	0000                	unimp
  1034e6:	0000                	unimp
  1034e8:	0000                	unimp
  1034ea:	0000                	unimp
  1034ec:	0000                	unimp
  1034ee:	0000                	unimp
  1034f0:	0000                	unimp
  1034f2:	0000                	unimp
  1034f4:	0000                	unimp
  1034f6:	0000                	unimp

001034f8 <tsc.1712>:
  1034f8:	0000                	unimp
  1034fa:	0000                	unimp

001034fc <cmd>:
  1034fc:	0000                	unimp
  1034fe:	0000                	unimp
  103500:	0000                	unimp
  103502:	0000                	unimp
  103504:	0000                	unimp
  103506:	0000                	unimp
  103508:	0000                	unimp
  10350a:	0000                	unimp
  10350c:	0000                	unimp
  10350e:	0000                	unimp
  103510:	0000                	unimp
  103512:	0000                	unimp
  103514:	0000                	unimp
  103516:	0000                	unimp
  103518:	0000                	unimp
  10351a:	0000                	unimp
  10351c:	0000                	unimp
  10351e:	0000                	unimp
  103520:	0000                	unimp
  103522:	0000                	unimp
  103524:	0000                	unimp
  103526:	0000                	unimp
  103528:	0000                	unimp
  10352a:	0000                	unimp
  10352c:	0000                	unimp
  10352e:	0000                	unimp
  103530:	0000                	unimp
  103532:	0000                	unimp
  103534:	0000                	unimp
  103536:	0000                	unimp
  103538:	0000                	unimp
  10353a:	0000                	unimp
  10353c:	0000                	unimp
  10353e:	0000                	unimp
  103540:	0000                	unimp
  103542:	0000                	unimp
  103544:	0000                	unimp
  103546:	0000                	unimp
  103548:	0000                	unimp
  10354a:	0000                	unimp
  10354c:	0000                	unimp
  10354e:	0000                	unimp
  103550:	0000                	unimp
  103552:	0000                	unimp
  103554:	0000                	unimp
  103556:	0000                	unimp
  103558:	0000                	unimp
  10355a:	0000                	unimp
  10355c:	0000                	unimp
  10355e:	0000                	unimp
  103560:	0000                	unimp
  103562:	0000                	unimp
  103564:	0000                	unimp
  103566:	0000                	unimp
  103568:	0000                	unimp
  10356a:	0000                	unimp
  10356c:	0000                	unimp
  10356e:	0000                	unimp
  103570:	0000                	unimp
  103572:	0000                	unimp
  103574:	0000                	unimp
  103576:	0000                	unimp
  103578:	0000                	unimp
  10357a:	0000                	unimp
  10357c:	0000                	unimp
  10357e:	0000                	unimp
  103580:	0000                	unimp
  103582:	0000                	unimp
  103584:	0000                	unimp
  103586:	0000                	unimp
  103588:	0000                	unimp
  10358a:	0000                	unimp
  10358c:	0000                	unimp
  10358e:	0000                	unimp
  103590:	0000                	unimp
  103592:	0000                	unimp
  103594:	0000                	unimp
  103596:	0000                	unimp
  103598:	0000                	unimp
  10359a:	0000                	unimp
  10359c:	0000                	unimp
  10359e:	0000                	unimp
  1035a0:	0000                	unimp
  1035a2:	0000                	unimp
  1035a4:	0000                	unimp
  1035a6:	0000                	unimp
  1035a8:	0000                	unimp
  1035aa:	0000                	unimp
  1035ac:	0000                	unimp
  1035ae:	0000                	unimp
  1035b0:	0000                	unimp
  1035b2:	0000                	unimp
  1035b4:	0000                	unimp
  1035b6:	0000                	unimp
  1035b8:	0000                	unimp
  1035ba:	0000                	unimp
  1035bc:	0000                	unimp
  1035be:	0000                	unimp
  1035c0:	0000                	unimp
  1035c2:	0000                	unimp
  1035c4:	0000                	unimp
  1035c6:	0000                	unimp
  1035c8:	0000                	unimp
  1035ca:	0000                	unimp
  1035cc:	0000                	unimp
  1035ce:	0000                	unimp
  1035d0:	0000                	unimp
  1035d2:	0000                	unimp
  1035d4:	0000                	unimp
  1035d6:	0000                	unimp
  1035d8:	0000                	unimp
  1035da:	0000                	unimp
  1035dc:	0000                	unimp
  1035de:	0000                	unimp
  1035e0:	0000                	unimp
  1035e2:	0000                	unimp
  1035e4:	0000                	unimp
  1035e6:	0000                	unimp
  1035e8:	0000                	unimp
  1035ea:	0000                	unimp
  1035ec:	0000                	unimp
  1035ee:	0000                	unimp
  1035f0:	0000                	unimp
  1035f2:	0000                	unimp
  1035f4:	0000                	unimp
  1035f6:	0000                	unimp
  1035f8:	0000                	unimp
  1035fa:	0000                	unimp
  1035fc:	0000                	unimp
  1035fe:	0000                	unimp
  103600:	0000                	unimp
  103602:	0000                	unimp
  103604:	0000                	unimp
  103606:	0000                	unimp
  103608:	0000                	unimp
  10360a:	0000                	unimp
  10360c:	0000                	unimp
  10360e:	0000                	unimp
  103610:	0000                	unimp
  103612:	0000                	unimp
  103614:	0000                	unimp
  103616:	0000                	unimp
  103618:	0000                	unimp
  10361a:	0000                	unimp
  10361c:	0000                	unimp
  10361e:	0000                	unimp
  103620:	0000                	unimp
  103622:	0000                	unimp
  103624:	0000                	unimp
  103626:	0000                	unimp
  103628:	0000                	unimp
  10362a:	0000                	unimp
  10362c:	0000                	unimp
  10362e:	0000                	unimp
  103630:	0000                	unimp
  103632:	0000                	unimp
  103634:	0000                	unimp
  103636:	0000                	unimp
  103638:	0000                	unimp
  10363a:	0000                	unimp
  10363c:	0000                	unimp
  10363e:	0000                	unimp
  103640:	0000                	unimp
  103642:	0000                	unimp
  103644:	0000                	unimp
  103646:	0000                	unimp
  103648:	0000                	unimp
  10364a:	0000                	unimp
  10364c:	0000                	unimp
  10364e:	0000                	unimp
  103650:	0000                	unimp
  103652:	0000                	unimp
  103654:	0000                	unimp
  103656:	0000                	unimp
  103658:	0000                	unimp
  10365a:	0000                	unimp
  10365c:	0000                	unimp
  10365e:	0000                	unimp
  103660:	0000                	unimp
  103662:	0000                	unimp
  103664:	0000                	unimp
  103666:	0000                	unimp
  103668:	0000                	unimp
  10366a:	0000                	unimp
  10366c:	0000                	unimp
  10366e:	0000                	unimp
  103670:	0000                	unimp
  103672:	0000                	unimp
  103674:	0000                	unimp
  103676:	0000                	unimp
  103678:	0000                	unimp
  10367a:	0000                	unimp
  10367c:	0000                	unimp
  10367e:	0000                	unimp
  103680:	0000                	unimp
  103682:	0000                	unimp
  103684:	0000                	unimp
  103686:	0000                	unimp
  103688:	0000                	unimp
  10368a:	0000                	unimp
  10368c:	0000                	unimp
  10368e:	0000                	unimp
  103690:	0000                	unimp
  103692:	0000                	unimp
  103694:	0000                	unimp
  103696:	0000                	unimp
  103698:	0000                	unimp
  10369a:	0000                	unimp
  10369c:	0000                	unimp
  10369e:	0000                	unimp
  1036a0:	0000                	unimp
  1036a2:	0000                	unimp
  1036a4:	0000                	unimp
  1036a6:	0000                	unimp
  1036a8:	0000                	unimp
  1036aa:	0000                	unimp
  1036ac:	0000                	unimp
  1036ae:	0000                	unimp
  1036b0:	0000                	unimp
  1036b2:	0000                	unimp
  1036b4:	0000                	unimp
  1036b6:	0000                	unimp
  1036b8:	0000                	unimp
  1036ba:	0000                	unimp
  1036bc:	0000                	unimp
  1036be:	0000                	unimp
  1036c0:	0000                	unimp
  1036c2:	0000                	unimp
  1036c4:	0000                	unimp
  1036c6:	0000                	unimp
  1036c8:	0000                	unimp
  1036ca:	0000                	unimp
  1036cc:	0000                	unimp
  1036ce:	0000                	unimp
  1036d0:	0000                	unimp
  1036d2:	0000                	unimp
  1036d4:	0000                	unimp
  1036d6:	0000                	unimp
  1036d8:	0000                	unimp
  1036da:	0000                	unimp
  1036dc:	0000                	unimp
  1036de:	0000                	unimp
  1036e0:	0000                	unimp
  1036e2:	0000                	unimp
  1036e4:	0000                	unimp
  1036e6:	0000                	unimp
  1036e8:	0000                	unimp
  1036ea:	0000                	unimp
  1036ec:	0000                	unimp
  1036ee:	0000                	unimp
  1036f0:	0000                	unimp
  1036f2:	0000                	unimp
  1036f4:	0000                	unimp
  1036f6:	0000                	unimp
  1036f8:	0000                	unimp
  1036fa:	0000                	unimp
  1036fc:	0000                	unimp
  1036fe:	0000                	unimp
  103700:	0000                	unimp
  103702:	0000                	unimp
  103704:	0000                	unimp
  103706:	0000                	unimp
  103708:	0000                	unimp
  10370a:	0000                	unimp
  10370c:	0000                	unimp
  10370e:	0000                	unimp
  103710:	0000                	unimp
  103712:	0000                	unimp
  103714:	0000                	unimp
  103716:	0000                	unimp
  103718:	0000                	unimp
  10371a:	0000                	unimp
  10371c:	0000                	unimp
  10371e:	0000                	unimp
  103720:	0000                	unimp
  103722:	0000                	unimp
  103724:	0000                	unimp
  103726:	0000                	unimp
  103728:	0000                	unimp
  10372a:	0000                	unimp
  10372c:	0000                	unimp
  10372e:	0000                	unimp
  103730:	0000                	unimp
  103732:	0000                	unimp
  103734:	0000                	unimp
  103736:	0000                	unimp
  103738:	0000                	unimp
  10373a:	0000                	unimp
  10373c:	0000                	unimp
  10373e:	0000                	unimp
  103740:	0000                	unimp
  103742:	0000                	unimp
  103744:	0000                	unimp
  103746:	0000                	unimp
  103748:	0000                	unimp
  10374a:	0000                	unimp
  10374c:	0000                	unimp
  10374e:	0000                	unimp
  103750:	0000                	unimp
  103752:	0000                	unimp
  103754:	0000                	unimp
  103756:	0000                	unimp
  103758:	0000                	unimp
  10375a:	0000                	unimp
  10375c:	0000                	unimp
  10375e:	0000                	unimp
  103760:	0000                	unimp
  103762:	0000                	unimp
  103764:	0000                	unimp
  103766:	0000                	unimp
  103768:	0000                	unimp
  10376a:	0000                	unimp
  10376c:	0000                	unimp
  10376e:	0000                	unimp
  103770:	0000                	unimp
  103772:	0000                	unimp
  103774:	0000                	unimp
  103776:	0000                	unimp
  103778:	0000                	unimp
  10377a:	0000                	unimp
  10377c:	0000                	unimp
  10377e:	0000                	unimp
  103780:	0000                	unimp
  103782:	0000                	unimp
  103784:	0000                	unimp
  103786:	0000                	unimp
  103788:	0000                	unimp
  10378a:	0000                	unimp
  10378c:	0000                	unimp
  10378e:	0000                	unimp
  103790:	0000                	unimp
  103792:	0000                	unimp
  103794:	0000                	unimp
  103796:	0000                	unimp
  103798:	0000                	unimp
  10379a:	0000                	unimp
  10379c:	0000                	unimp
  10379e:	0000                	unimp
  1037a0:	0000                	unimp
  1037a2:	0000                	unimp
  1037a4:	0000                	unimp
  1037a6:	0000                	unimp
  1037a8:	0000                	unimp
  1037aa:	0000                	unimp
  1037ac:	0000                	unimp
  1037ae:	0000                	unimp
  1037b0:	0000                	unimp
  1037b2:	0000                	unimp
  1037b4:	0000                	unimp
  1037b6:	0000                	unimp
  1037b8:	0000                	unimp
  1037ba:	0000                	unimp
  1037bc:	0000                	unimp
  1037be:	0000                	unimp
  1037c0:	0000                	unimp
  1037c2:	0000                	unimp
  1037c4:	0000                	unimp
  1037c6:	0000                	unimp
  1037c8:	0000                	unimp
  1037ca:	0000                	unimp
  1037cc:	0000                	unimp
  1037ce:	0000                	unimp
  1037d0:	0000                	unimp
  1037d2:	0000                	unimp
  1037d4:	0000                	unimp
  1037d6:	0000                	unimp
  1037d8:	0000                	unimp
  1037da:	0000                	unimp
  1037dc:	0000                	unimp
  1037de:	0000                	unimp
  1037e0:	0000                	unimp
  1037e2:	0000                	unimp
  1037e4:	0000                	unimp
  1037e6:	0000                	unimp
  1037e8:	0000                	unimp
  1037ea:	0000                	unimp
  1037ec:	0000                	unimp
  1037ee:	0000                	unimp
  1037f0:	0000                	unimp
  1037f2:	0000                	unimp
  1037f4:	0000                	unimp
  1037f6:	0000                	unimp
  1037f8:	0000                	unimp
  1037fa:	0000                	unimp
  1037fc:	0000                	unimp
  1037fe:	0000                	unimp
  103800:	0000                	unimp
  103802:	0000                	unimp
  103804:	0000                	unimp
  103806:	0000                	unimp
  103808:	0000                	unimp
  10380a:	0000                	unimp
  10380c:	0000                	unimp
  10380e:	0000                	unimp
  103810:	0000                	unimp
  103812:	0000                	unimp
  103814:	0000                	unimp
  103816:	0000                	unimp
  103818:	0000                	unimp
  10381a:	0000                	unimp
  10381c:	0000                	unimp
  10381e:	0000                	unimp
  103820:	0000                	unimp
  103822:	0000                	unimp
  103824:	0000                	unimp
  103826:	0000                	unimp
  103828:	0000                	unimp
  10382a:	0000                	unimp
  10382c:	0000                	unimp
  10382e:	0000                	unimp
  103830:	0000                	unimp
  103832:	0000                	unimp
  103834:	0000                	unimp
  103836:	0000                	unimp
  103838:	0000                	unimp
  10383a:	0000                	unimp
  10383c:	0000                	unimp
  10383e:	0000                	unimp
  103840:	0000                	unimp
  103842:	0000                	unimp
  103844:	0000                	unimp
  103846:	0000                	unimp
  103848:	0000                	unimp
  10384a:	0000                	unimp
  10384c:	0000                	unimp
  10384e:	0000                	unimp
  103850:	0000                	unimp
  103852:	0000                	unimp
  103854:	0000                	unimp
  103856:	0000                	unimp
  103858:	0000                	unimp
  10385a:	0000                	unimp
  10385c:	0000                	unimp
  10385e:	0000                	unimp
  103860:	0000                	unimp
  103862:	0000                	unimp
  103864:	0000                	unimp
  103866:	0000                	unimp
  103868:	0000                	unimp
  10386a:	0000                	unimp
  10386c:	0000                	unimp
  10386e:	0000                	unimp
  103870:	0000                	unimp
  103872:	0000                	unimp
  103874:	0000                	unimp
  103876:	0000                	unimp
  103878:	0000                	unimp
  10387a:	0000                	unimp
  10387c:	0000                	unimp
  10387e:	0000                	unimp
  103880:	0000                	unimp
  103882:	0000                	unimp
  103884:	0000                	unimp
  103886:	0000                	unimp
  103888:	0000                	unimp
  10388a:	0000                	unimp
  10388c:	0000                	unimp
  10388e:	0000                	unimp
  103890:	0000                	unimp
  103892:	0000                	unimp
  103894:	0000                	unimp
  103896:	0000                	unimp
  103898:	0000                	unimp
  10389a:	0000                	unimp
  10389c:	0000                	unimp
  10389e:	0000                	unimp
  1038a0:	0000                	unimp
  1038a2:	0000                	unimp
  1038a4:	0000                	unimp
  1038a6:	0000                	unimp
  1038a8:	0000                	unimp
  1038aa:	0000                	unimp
  1038ac:	0000                	unimp
  1038ae:	0000                	unimp
  1038b0:	0000                	unimp
  1038b2:	0000                	unimp
  1038b4:	0000                	unimp
  1038b6:	0000                	unimp
  1038b8:	0000                	unimp
  1038ba:	0000                	unimp
  1038bc:	0000                	unimp
  1038be:	0000                	unimp
  1038c0:	0000                	unimp
  1038c2:	0000                	unimp
  1038c4:	0000                	unimp
  1038c6:	0000                	unimp
  1038c8:	0000                	unimp
  1038ca:	0000                	unimp
  1038cc:	0000                	unimp
  1038ce:	0000                	unimp
  1038d0:	0000                	unimp
  1038d2:	0000                	unimp
  1038d4:	0000                	unimp
  1038d6:	0000                	unimp
  1038d8:	0000                	unimp
  1038da:	0000                	unimp
  1038dc:	0000                	unimp
  1038de:	0000                	unimp
  1038e0:	0000                	unimp
  1038e2:	0000                	unimp
  1038e4:	0000                	unimp
  1038e6:	0000                	unimp
  1038e8:	0000                	unimp
  1038ea:	0000                	unimp
  1038ec:	0000                	unimp
  1038ee:	0000                	unimp
  1038f0:	0000                	unimp
  1038f2:	0000                	unimp
  1038f4:	0000                	unimp
  1038f6:	0000                	unimp
  1038f8:	0000                	unimp
  1038fa:	0000                	unimp
  1038fc:	0000                	unimp
  1038fe:	0000                	unimp
  103900:	0000                	unimp
  103902:	0000                	unimp
  103904:	0000                	unimp
  103906:	0000                	unimp
  103908:	0000                	unimp
  10390a:	0000                	unimp
  10390c:	0000                	unimp
  10390e:	0000                	unimp
  103910:	0000                	unimp
  103912:	0000                	unimp
  103914:	0000                	unimp
  103916:	0000                	unimp
  103918:	0000                	unimp
  10391a:	0000                	unimp
  10391c:	0000                	unimp
  10391e:	0000                	unimp
  103920:	0000                	unimp
  103922:	0000                	unimp
  103924:	0000                	unimp
  103926:	0000                	unimp
  103928:	0000                	unimp
  10392a:	0000                	unimp
  10392c:	0000                	unimp
  10392e:	0000                	unimp
  103930:	0000                	unimp
  103932:	0000                	unimp
  103934:	0000                	unimp
  103936:	0000                	unimp
  103938:	0000                	unimp
  10393a:	0000                	unimp
  10393c:	0000                	unimp
  10393e:	0000                	unimp
  103940:	0000                	unimp
  103942:	0000                	unimp
  103944:	0000                	unimp
  103946:	0000                	unimp
  103948:	0000                	unimp
  10394a:	0000                	unimp
  10394c:	0000                	unimp
  10394e:	0000                	unimp
  103950:	0000                	unimp
  103952:	0000                	unimp
  103954:	0000                	unimp
  103956:	0000                	unimp
  103958:	0000                	unimp
  10395a:	0000                	unimp
  10395c:	0000                	unimp
  10395e:	0000                	unimp
  103960:	0000                	unimp
  103962:	0000                	unimp
  103964:	0000                	unimp
  103966:	0000                	unimp
  103968:	0000                	unimp
  10396a:	0000                	unimp
  10396c:	0000                	unimp
  10396e:	0000                	unimp
  103970:	0000                	unimp
  103972:	0000                	unimp
  103974:	0000                	unimp
  103976:	0000                	unimp
  103978:	0000                	unimp
  10397a:	0000                	unimp
  10397c:	0000                	unimp
  10397e:	0000                	unimp
  103980:	0000                	unimp
  103982:	0000                	unimp
  103984:	0000                	unimp
  103986:	0000                	unimp
  103988:	0000                	unimp
  10398a:	0000                	unimp
  10398c:	0000                	unimp
  10398e:	0000                	unimp
  103990:	0000                	unimp
  103992:	0000                	unimp
  103994:	0000                	unimp
  103996:	0000                	unimp
  103998:	0000                	unimp
  10399a:	0000                	unimp
  10399c:	0000                	unimp
  10399e:	0000                	unimp
  1039a0:	0000                	unimp
  1039a2:	0000                	unimp
  1039a4:	0000                	unimp
  1039a6:	0000                	unimp
  1039a8:	0000                	unimp
  1039aa:	0000                	unimp
  1039ac:	0000                	unimp
  1039ae:	0000                	unimp
  1039b0:	0000                	unimp
  1039b2:	0000                	unimp
  1039b4:	0000                	unimp
  1039b6:	0000                	unimp
  1039b8:	0000                	unimp
  1039ba:	0000                	unimp
  1039bc:	0000                	unimp
  1039be:	0000                	unimp
  1039c0:	0000                	unimp
  1039c2:	0000                	unimp
  1039c4:	0000                	unimp
  1039c6:	0000                	unimp
  1039c8:	0000                	unimp
  1039ca:	0000                	unimp
  1039cc:	0000                	unimp
  1039ce:	0000                	unimp
  1039d0:	0000                	unimp
  1039d2:	0000                	unimp
  1039d4:	0000                	unimp
  1039d6:	0000                	unimp
  1039d8:	0000                	unimp
  1039da:	0000                	unimp
  1039dc:	0000                	unimp
  1039de:	0000                	unimp
  1039e0:	0000                	unimp
  1039e2:	0000                	unimp
  1039e4:	0000                	unimp
  1039e6:	0000                	unimp
  1039e8:	0000                	unimp
  1039ea:	0000                	unimp
  1039ec:	0000                	unimp
  1039ee:	0000                	unimp
  1039f0:	0000                	unimp
  1039f2:	0000                	unimp
  1039f4:	0000                	unimp
  1039f6:	0000                	unimp
  1039f8:	0000                	unimp
  1039fa:	0000                	unimp
  1039fc:	0000                	unimp
  1039fe:	0000                	unimp
  103a00:	0000                	unimp
  103a02:	0000                	unimp
  103a04:	0000                	unimp
  103a06:	0000                	unimp
  103a08:	0000                	unimp
  103a0a:	0000                	unimp
  103a0c:	0000                	unimp
  103a0e:	0000                	unimp
  103a10:	0000                	unimp
  103a12:	0000                	unimp
  103a14:	0000                	unimp
  103a16:	0000                	unimp
  103a18:	0000                	unimp
  103a1a:	0000                	unimp
  103a1c:	0000                	unimp
  103a1e:	0000                	unimp
  103a20:	0000                	unimp
  103a22:	0000                	unimp
  103a24:	0000                	unimp
  103a26:	0000                	unimp
  103a28:	0000                	unimp
  103a2a:	0000                	unimp
  103a2c:	0000                	unimp
  103a2e:	0000                	unimp
  103a30:	0000                	unimp
  103a32:	0000                	unimp
  103a34:	0000                	unimp
  103a36:	0000                	unimp
  103a38:	0000                	unimp
  103a3a:	0000                	unimp
  103a3c:	0000                	unimp
  103a3e:	0000                	unimp
  103a40:	0000                	unimp
  103a42:	0000                	unimp
  103a44:	0000                	unimp
  103a46:	0000                	unimp
  103a48:	0000                	unimp
  103a4a:	0000                	unimp
  103a4c:	0000                	unimp
  103a4e:	0000                	unimp
  103a50:	0000                	unimp
  103a52:	0000                	unimp
  103a54:	0000                	unimp
  103a56:	0000                	unimp
  103a58:	0000                	unimp
  103a5a:	0000                	unimp
  103a5c:	0000                	unimp
  103a5e:	0000                	unimp
  103a60:	0000                	unimp
  103a62:	0000                	unimp
  103a64:	0000                	unimp
  103a66:	0000                	unimp
  103a68:	0000                	unimp
  103a6a:	0000                	unimp
  103a6c:	0000                	unimp
  103a6e:	0000                	unimp
  103a70:	0000                	unimp
  103a72:	0000                	unimp
  103a74:	0000                	unimp
  103a76:	0000                	unimp
  103a78:	0000                	unimp
  103a7a:	0000                	unimp
  103a7c:	0000                	unimp
  103a7e:	0000                	unimp
  103a80:	0000                	unimp
  103a82:	0000                	unimp
  103a84:	0000                	unimp
  103a86:	0000                	unimp
  103a88:	0000                	unimp
  103a8a:	0000                	unimp
  103a8c:	0000                	unimp
  103a8e:	0000                	unimp
  103a90:	0000                	unimp
  103a92:	0000                	unimp
  103a94:	0000                	unimp
  103a96:	0000                	unimp
  103a98:	0000                	unimp
  103a9a:	0000                	unimp
  103a9c:	0000                	unimp
  103a9e:	0000                	unimp
  103aa0:	0000                	unimp
  103aa2:	0000                	unimp
  103aa4:	0000                	unimp
  103aa6:	0000                	unimp
  103aa8:	0000                	unimp
  103aaa:	0000                	unimp
  103aac:	0000                	unimp
  103aae:	0000                	unimp
  103ab0:	0000                	unimp
  103ab2:	0000                	unimp
  103ab4:	0000                	unimp
  103ab6:	0000                	unimp
  103ab8:	0000                	unimp
  103aba:	0000                	unimp
  103abc:	0000                	unimp
  103abe:	0000                	unimp
  103ac0:	0000                	unimp
  103ac2:	0000                	unimp
  103ac4:	0000                	unimp
  103ac6:	0000                	unimp
  103ac8:	0000                	unimp
  103aca:	0000                	unimp
  103acc:	0000                	unimp
  103ace:	0000                	unimp
  103ad0:	0000                	unimp
  103ad2:	0000                	unimp
  103ad4:	0000                	unimp
  103ad6:	0000                	unimp
  103ad8:	0000                	unimp
  103ada:	0000                	unimp
  103adc:	0000                	unimp
  103ade:	0000                	unimp
  103ae0:	0000                	unimp
  103ae2:	0000                	unimp
  103ae4:	0000                	unimp
  103ae6:	0000                	unimp
  103ae8:	0000                	unimp
  103aea:	0000                	unimp
  103aec:	0000                	unimp
  103aee:	0000                	unimp
  103af0:	0000                	unimp
  103af2:	0000                	unimp
  103af4:	0000                	unimp
  103af6:	0000                	unimp
  103af8:	0000                	unimp
  103afa:	0000                	unimp
  103afc:	0000                	unimp
  103afe:	0000                	unimp
  103b00:	0000                	unimp
  103b02:	0000                	unimp
  103b04:	0000                	unimp
  103b06:	0000                	unimp
  103b08:	0000                	unimp
  103b0a:	0000                	unimp
  103b0c:	0000                	unimp
  103b0e:	0000                	unimp
  103b10:	0000                	unimp
  103b12:	0000                	unimp
  103b14:	0000                	unimp
  103b16:	0000                	unimp
  103b18:	0000                	unimp
  103b1a:	0000                	unimp
  103b1c:	0000                	unimp
  103b1e:	0000                	unimp
  103b20:	0000                	unimp
  103b22:	0000                	unimp
  103b24:	0000                	unimp
  103b26:	0000                	unimp
  103b28:	0000                	unimp
  103b2a:	0000                	unimp
  103b2c:	0000                	unimp
  103b2e:	0000                	unimp
  103b30:	0000                	unimp
  103b32:	0000                	unimp
  103b34:	0000                	unimp
  103b36:	0000                	unimp
  103b38:	0000                	unimp
  103b3a:	0000                	unimp
  103b3c:	0000                	unimp
  103b3e:	0000                	unimp
  103b40:	0000                	unimp
  103b42:	0000                	unimp
  103b44:	0000                	unimp
  103b46:	0000                	unimp
  103b48:	0000                	unimp
  103b4a:	0000                	unimp
  103b4c:	0000                	unimp
  103b4e:	0000                	unimp
  103b50:	0000                	unimp
  103b52:	0000                	unimp
  103b54:	0000                	unimp
  103b56:	0000                	unimp
  103b58:	0000                	unimp
  103b5a:	0000                	unimp
  103b5c:	0000                	unimp
  103b5e:	0000                	unimp
  103b60:	0000                	unimp
  103b62:	0000                	unimp
  103b64:	0000                	unimp
  103b66:	0000                	unimp
  103b68:	0000                	unimp
  103b6a:	0000                	unimp
  103b6c:	0000                	unimp
  103b6e:	0000                	unimp
  103b70:	0000                	unimp
  103b72:	0000                	unimp
  103b74:	0000                	unimp
  103b76:	0000                	unimp
  103b78:	0000                	unimp
  103b7a:	0000                	unimp
  103b7c:	0000                	unimp
  103b7e:	0000                	unimp
  103b80:	0000                	unimp
  103b82:	0000                	unimp
  103b84:	0000                	unimp
  103b86:	0000                	unimp
  103b88:	0000                	unimp
  103b8a:	0000                	unimp
  103b8c:	0000                	unimp
  103b8e:	0000                	unimp
  103b90:	0000                	unimp
  103b92:	0000                	unimp
  103b94:	0000                	unimp
  103b96:	0000                	unimp
  103b98:	0000                	unimp
  103b9a:	0000                	unimp
  103b9c:	0000                	unimp
  103b9e:	0000                	unimp
  103ba0:	0000                	unimp
  103ba2:	0000                	unimp
  103ba4:	0000                	unimp
  103ba6:	0000                	unimp
  103ba8:	0000                	unimp
  103baa:	0000                	unimp
  103bac:	0000                	unimp
  103bae:	0000                	unimp
  103bb0:	0000                	unimp
  103bb2:	0000                	unimp
  103bb4:	0000                	unimp
  103bb6:	0000                	unimp
  103bb8:	0000                	unimp
  103bba:	0000                	unimp
  103bbc:	0000                	unimp
  103bbe:	0000                	unimp
  103bc0:	0000                	unimp
  103bc2:	0000                	unimp
  103bc4:	0000                	unimp
  103bc6:	0000                	unimp
  103bc8:	0000                	unimp
  103bca:	0000                	unimp
  103bcc:	0000                	unimp
  103bce:	0000                	unimp
  103bd0:	0000                	unimp
  103bd2:	0000                	unimp
  103bd4:	0000                	unimp
  103bd6:	0000                	unimp
  103bd8:	0000                	unimp
  103bda:	0000                	unimp
  103bdc:	0000                	unimp
  103bde:	0000                	unimp
  103be0:	0000                	unimp
  103be2:	0000                	unimp
  103be4:	0000                	unimp
  103be6:	0000                	unimp
  103be8:	0000                	unimp
  103bea:	0000                	unimp
  103bec:	0000                	unimp
  103bee:	0000                	unimp
  103bf0:	0000                	unimp
  103bf2:	0000                	unimp
  103bf4:	0000                	unimp
  103bf6:	0000                	unimp
  103bf8:	0000                	unimp
  103bfa:	0000                	unimp
  103bfc:	0000                	unimp
  103bfe:	0000                	unimp
  103c00:	0000                	unimp
  103c02:	0000                	unimp
  103c04:	0000                	unimp
  103c06:	0000                	unimp
  103c08:	0000                	unimp
  103c0a:	0000                	unimp
  103c0c:	0000                	unimp
  103c0e:	0000                	unimp
  103c10:	0000                	unimp
  103c12:	0000                	unimp
  103c14:	0000                	unimp
  103c16:	0000                	unimp
  103c18:	0000                	unimp
  103c1a:	0000                	unimp
  103c1c:	0000                	unimp
  103c1e:	0000                	unimp
  103c20:	0000                	unimp
  103c22:	0000                	unimp
  103c24:	0000                	unimp
  103c26:	0000                	unimp
  103c28:	0000                	unimp
  103c2a:	0000                	unimp
  103c2c:	0000                	unimp
  103c2e:	0000                	unimp
  103c30:	0000                	unimp
  103c32:	0000                	unimp
  103c34:	0000                	unimp
  103c36:	0000                	unimp
  103c38:	0000                	unimp
  103c3a:	0000                	unimp
  103c3c:	0000                	unimp
  103c3e:	0000                	unimp
  103c40:	0000                	unimp
  103c42:	0000                	unimp
  103c44:	0000                	unimp
  103c46:	0000                	unimp
  103c48:	0000                	unimp
  103c4a:	0000                	unimp
  103c4c:	0000                	unimp
  103c4e:	0000                	unimp
  103c50:	0000                	unimp
  103c52:	0000                	unimp
  103c54:	0000                	unimp
  103c56:	0000                	unimp
  103c58:	0000                	unimp
  103c5a:	0000                	unimp
  103c5c:	0000                	unimp
  103c5e:	0000                	unimp
  103c60:	0000                	unimp
  103c62:	0000                	unimp
  103c64:	0000                	unimp
  103c66:	0000                	unimp
  103c68:	0000                	unimp
  103c6a:	0000                	unimp
  103c6c:	0000                	unimp
  103c6e:	0000                	unimp
  103c70:	0000                	unimp
  103c72:	0000                	unimp
  103c74:	0000                	unimp
  103c76:	0000                	unimp
  103c78:	0000                	unimp
  103c7a:	0000                	unimp
  103c7c:	0000                	unimp
  103c7e:	0000                	unimp
  103c80:	0000                	unimp
  103c82:	0000                	unimp
  103c84:	0000                	unimp
  103c86:	0000                	unimp
  103c88:	0000                	unimp
  103c8a:	0000                	unimp
  103c8c:	0000                	unimp
  103c8e:	0000                	unimp
  103c90:	0000                	unimp
  103c92:	0000                	unimp
  103c94:	0000                	unimp
  103c96:	0000                	unimp
  103c98:	0000                	unimp
  103c9a:	0000                	unimp
  103c9c:	0000                	unimp
  103c9e:	0000                	unimp
  103ca0:	0000                	unimp
  103ca2:	0000                	unimp
  103ca4:	0000                	unimp
  103ca6:	0000                	unimp
  103ca8:	0000                	unimp
  103caa:	0000                	unimp
  103cac:	0000                	unimp
  103cae:	0000                	unimp
  103cb0:	0000                	unimp
  103cb2:	0000                	unimp
  103cb4:	0000                	unimp
  103cb6:	0000                	unimp
  103cb8:	0000                	unimp
  103cba:	0000                	unimp
  103cbc:	0000                	unimp
  103cbe:	0000                	unimp
  103cc0:	0000                	unimp
  103cc2:	0000                	unimp
  103cc4:	0000                	unimp
  103cc6:	0000                	unimp
  103cc8:	0000                	unimp
  103cca:	0000                	unimp
  103ccc:	0000                	unimp
  103cce:	0000                	unimp
  103cd0:	0000                	unimp
  103cd2:	0000                	unimp
  103cd4:	0000                	unimp
  103cd6:	0000                	unimp
  103cd8:	0000                	unimp
  103cda:	0000                	unimp
  103cdc:	0000                	unimp
  103cde:	0000                	unimp
  103ce0:	0000                	unimp
  103ce2:	0000                	unimp
  103ce4:	0000                	unimp
  103ce6:	0000                	unimp
  103ce8:	0000                	unimp
  103cea:	0000                	unimp
  103cec:	0000                	unimp
  103cee:	0000                	unimp
  103cf0:	0000                	unimp
  103cf2:	0000                	unimp
  103cf4:	0000                	unimp
  103cf6:	0000                	unimp
  103cf8:	0000                	unimp
  103cfa:	0000                	unimp
  103cfc:	0000                	unimp
  103cfe:	0000                	unimp
  103d00:	0000                	unimp
  103d02:	0000                	unimp
  103d04:	0000                	unimp
  103d06:	0000                	unimp
  103d08:	0000                	unimp
  103d0a:	0000                	unimp
  103d0c:	0000                	unimp
  103d0e:	0000                	unimp
  103d10:	0000                	unimp
  103d12:	0000                	unimp
  103d14:	0000                	unimp
  103d16:	0000                	unimp
  103d18:	0000                	unimp
  103d1a:	0000                	unimp
  103d1c:	0000                	unimp
  103d1e:	0000                	unimp
  103d20:	0000                	unimp
  103d22:	0000                	unimp
  103d24:	0000                	unimp
  103d26:	0000                	unimp
  103d28:	0000                	unimp
  103d2a:	0000                	unimp
  103d2c:	0000                	unimp
  103d2e:	0000                	unimp

00103d30 <ascii_or_pixel.1582>:
  103d30:	0000                	unimp
  103d32:	0000                	unimp

00103d34 <ch.1608>:
  103d34:	0000                	unimp
  103d36:	0000                	unimp

00103d38 <ntok>:
  103d38:	0000                	unimp
  103d3a:	0000                	unimp

00103d3c <vga_line>:
  103d3c:	0000                	unimp
  103d3e:	0000                	unimp

00103d40 <vga_ch>:
  103d40:	0000                	unimp
  103d42:	0000                	unimp

00103d44 <tokens>:
  103d44:	0000                	unimp
  103d46:	0000                	unimp
  103d48:	0000                	unimp
  103d4a:	0000                	unimp
  103d4c:	0000                	unimp
  103d4e:	0000                	unimp
  103d50:	0000                	unimp
  103d52:	0000                	unimp
  103d54:	0000                	unimp
  103d56:	0000                	unimp
  103d58:	0000                	unimp
  103d5a:	0000                	unimp
  103d5c:	0000                	unimp
  103d5e:	0000                	unimp
  103d60:	0000                	unimp
  103d62:	0000                	unimp
  103d64:	0000                	unimp
  103d66:	0000                	unimp
  103d68:	0000                	unimp
  103d6a:	0000                	unimp
  103d6c:	0000                	unimp
  103d6e:	0000                	unimp
  103d70:	0000                	unimp
  103d72:	0000                	unimp
  103d74:	0000                	unimp
  103d76:	0000                	unimp
  103d78:	0000                	unimp
  103d7a:	0000                	unimp
  103d7c:	0000                	unimp
  103d7e:	0000                	unimp
  103d80:	0000                	unimp
  103d82:	0000                	unimp
  103d84:	0000                	unimp
  103d86:	0000                	unimp
  103d88:	0000                	unimp
  103d8a:	0000                	unimp
  103d8c:	0000                	unimp
  103d8e:	0000                	unimp
  103d90:	0000                	unimp
  103d92:	0000                	unimp
  103d94:	0000                	unimp
  103d96:	0000                	unimp
  103d98:	0000                	unimp
  103d9a:	0000                	unimp
  103d9c:	0000                	unimp
  103d9e:	0000                	unimp
  103da0:	0000                	unimp
  103da2:	0000                	unimp
  103da4:	0000                	unimp
  103da6:	0000                	unimp
  103da8:	0000                	unimp
  103daa:	0000                	unimp
  103dac:	0000                	unimp
  103dae:	0000                	unimp
  103db0:	0000                	unimp
  103db2:	0000                	unimp
  103db4:	0000                	unimp
  103db6:	0000                	unimp
  103db8:	0000                	unimp
  103dba:	0000                	unimp
  103dbc:	0000                	unimp
  103dbe:	0000                	unimp
  103dc0:	0000                	unimp
  103dc2:	0000                	unimp
  103dc4:	0000                	unimp
  103dc6:	0000                	unimp
  103dc8:	0000                	unimp
  103dca:	0000                	unimp
  103dcc:	0000                	unimp
  103dce:	0000                	unimp
  103dd0:	0000                	unimp
  103dd2:	0000                	unimp
  103dd4:	0000                	unimp
  103dd6:	0000                	unimp
  103dd8:	0000                	unimp
  103dda:	0000                	unimp
  103ddc:	0000                	unimp
  103dde:	0000                	unimp
  103de0:	0000                	unimp
  103de2:	0000                	unimp
  103de4:	0000                	unimp
  103de6:	0000                	unimp
  103de8:	0000                	unimp
  103dea:	0000                	unimp
  103dec:	0000                	unimp
  103dee:	0000                	unimp
  103df0:	0000                	unimp
  103df2:	0000                	unimp
  103df4:	0000                	unimp
  103df6:	0000                	unimp
  103df8:	0000                	unimp
  103dfa:	0000                	unimp
  103dfc:	0000                	unimp
  103dfe:	0000                	unimp
  103e00:	0000                	unimp
  103e02:	0000                	unimp
  103e04:	0000                	unimp
  103e06:	0000                	unimp
  103e08:	0000                	unimp
  103e0a:	0000                	unimp
  103e0c:	0000                	unimp
  103e0e:	0000                	unimp
  103e10:	0000                	unimp
  103e12:	0000                	unimp
  103e14:	0000                	unimp
  103e16:	0000                	unimp
  103e18:	0000                	unimp
  103e1a:	0000                	unimp
  103e1c:	0000                	unimp
  103e1e:	0000                	unimp
  103e20:	0000                	unimp
  103e22:	0000                	unimp
  103e24:	0000                	unimp
  103e26:	0000                	unimp
  103e28:	0000                	unimp
  103e2a:	0000                	unimp
  103e2c:	0000                	unimp
  103e2e:	0000                	unimp
  103e30:	0000                	unimp
  103e32:	0000                	unimp
  103e34:	0000                	unimp
  103e36:	0000                	unimp
  103e38:	0000                	unimp
  103e3a:	0000                	unimp
  103e3c:	0000                	unimp
  103e3e:	0000                	unimp
  103e40:	0000                	unimp
  103e42:	0000                	unimp
  103e44:	0000                	unimp
  103e46:	0000                	unimp
  103e48:	0000                	unimp
  103e4a:	0000                	unimp
  103e4c:	0000                	unimp
  103e4e:	0000                	unimp
  103e50:	0000                	unimp
  103e52:	0000                	unimp
  103e54:	0000                	unimp
  103e56:	0000                	unimp
  103e58:	0000                	unimp
  103e5a:	0000                	unimp
  103e5c:	0000                	unimp
  103e5e:	0000                	unimp
  103e60:	0000                	unimp
  103e62:	0000                	unimp
  103e64:	0000                	unimp
  103e66:	0000                	unimp
  103e68:	0000                	unimp
  103e6a:	0000                	unimp
  103e6c:	0000                	unimp
  103e6e:	0000                	unimp
  103e70:	0000                	unimp
  103e72:	0000                	unimp
  103e74:	0000                	unimp
  103e76:	0000                	unimp
  103e78:	0000                	unimp
  103e7a:	0000                	unimp
  103e7c:	0000                	unimp
  103e7e:	0000                	unimp
  103e80:	0000                	unimp
  103e82:	0000                	unimp
  103e84:	0000                	unimp
  103e86:	0000                	unimp
  103e88:	0000                	unimp
  103e8a:	0000                	unimp
  103e8c:	0000                	unimp
  103e8e:	0000                	unimp
  103e90:	0000                	unimp
  103e92:	0000                	unimp
  103e94:	0000                	unimp
  103e96:	0000                	unimp
  103e98:	0000                	unimp
  103e9a:	0000                	unimp
  103e9c:	0000                	unimp
  103e9e:	0000                	unimp
  103ea0:	0000                	unimp
  103ea2:	0000                	unimp
  103ea4:	0000                	unimp
  103ea6:	0000                	unimp
  103ea8:	0000                	unimp
  103eaa:	0000                	unimp
  103eac:	0000                	unimp
  103eae:	0000                	unimp
  103eb0:	0000                	unimp
  103eb2:	0000                	unimp
  103eb4:	0000                	unimp
  103eb6:	0000                	unimp
  103eb8:	0000                	unimp
  103eba:	0000                	unimp
  103ebc:	0000                	unimp
  103ebe:	0000                	unimp
  103ec0:	0000                	unimp
  103ec2:	0000                	unimp
  103ec4:	0000                	unimp
  103ec6:	0000                	unimp
  103ec8:	0000                	unimp
  103eca:	0000                	unimp
  103ecc:	0000                	unimp
  103ece:	0000                	unimp
  103ed0:	0000                	unimp
  103ed2:	0000                	unimp
  103ed4:	0000                	unimp
  103ed6:	0000                	unimp
  103ed8:	0000                	unimp
  103eda:	0000                	unimp
  103edc:	0000                	unimp
  103ede:	0000                	unimp
  103ee0:	0000                	unimp
  103ee2:	0000                	unimp
  103ee4:	0000                	unimp
  103ee6:	0000                	unimp
  103ee8:	0000                	unimp
  103eea:	0000                	unimp
  103eec:	0000                	unimp
  103eee:	0000                	unimp
  103ef0:	0000                	unimp
  103ef2:	0000                	unimp
  103ef4:	0000                	unimp
  103ef6:	0000                	unimp
  103ef8:	0000                	unimp
  103efa:	0000                	unimp
  103efc:	0000                	unimp
  103efe:	0000                	unimp
  103f00:	0000                	unimp
  103f02:	0000                	unimp
  103f04:	0000                	unimp
  103f06:	0000                	unimp
  103f08:	0000                	unimp
  103f0a:	0000                	unimp
  103f0c:	0000                	unimp
  103f0e:	0000                	unimp
  103f10:	0000                	unimp
  103f12:	0000                	unimp
  103f14:	0000                	unimp
  103f16:	0000                	unimp
  103f18:	0000                	unimp
  103f1a:	0000                	unimp
  103f1c:	0000                	unimp
  103f1e:	0000                	unimp
  103f20:	0000                	unimp
  103f22:	0000                	unimp
  103f24:	0000                	unimp
  103f26:	0000                	unimp
  103f28:	0000                	unimp
  103f2a:	0000                	unimp
  103f2c:	0000                	unimp
  103f2e:	0000                	unimp
  103f30:	0000                	unimp
  103f32:	0000                	unimp
  103f34:	0000                	unimp
  103f36:	0000                	unimp
  103f38:	0000                	unimp
  103f3a:	0000                	unimp
  103f3c:	0000                	unimp
  103f3e:	0000                	unimp
  103f40:	0000                	unimp
  103f42:	0000                	unimp
  103f44:	0000                	unimp
  103f46:	0000                	unimp
  103f48:	0000                	unimp
  103f4a:	0000                	unimp
  103f4c:	0000                	unimp
  103f4e:	0000                	unimp
  103f50:	0000                	unimp
  103f52:	0000                	unimp
  103f54:	0000                	unimp
  103f56:	0000                	unimp
  103f58:	0000                	unimp
  103f5a:	0000                	unimp
  103f5c:	0000                	unimp
  103f5e:	0000                	unimp
  103f60:	0000                	unimp
  103f62:	0000                	unimp
  103f64:	0000                	unimp
  103f66:	0000                	unimp
  103f68:	0000                	unimp
  103f6a:	0000                	unimp
  103f6c:	0000                	unimp
  103f6e:	0000                	unimp
  103f70:	0000                	unimp
  103f72:	0000                	unimp
  103f74:	0000                	unimp
  103f76:	0000                	unimp
  103f78:	0000                	unimp
  103f7a:	0000                	unimp
  103f7c:	0000                	unimp
  103f7e:	0000                	unimp
  103f80:	0000                	unimp
  103f82:	0000                	unimp
  103f84:	0000                	unimp
  103f86:	0000                	unimp
  103f88:	0000                	unimp
  103f8a:	0000                	unimp
  103f8c:	0000                	unimp
  103f8e:	0000                	unimp
  103f90:	0000                	unimp
  103f92:	0000                	unimp
  103f94:	0000                	unimp
  103f96:	0000                	unimp
  103f98:	0000                	unimp
  103f9a:	0000                	unimp
  103f9c:	0000                	unimp
  103f9e:	0000                	unimp
  103fa0:	0000                	unimp
  103fa2:	0000                	unimp
  103fa4:	0000                	unimp
  103fa6:	0000                	unimp
  103fa8:	0000                	unimp
  103faa:	0000                	unimp
  103fac:	0000                	unimp
  103fae:	0000                	unimp
  103fb0:	0000                	unimp
  103fb2:	0000                	unimp
  103fb4:	0000                	unimp
  103fb6:	0000                	unimp
  103fb8:	0000                	unimp
  103fba:	0000                	unimp
  103fbc:	0000                	unimp
  103fbe:	0000                	unimp
  103fc0:	0000                	unimp
  103fc2:	0000                	unimp
  103fc4:	0000                	unimp
  103fc6:	0000                	unimp
  103fc8:	0000                	unimp
  103fca:	0000                	unimp
  103fcc:	0000                	unimp
  103fce:	0000                	unimp
  103fd0:	0000                	unimp
  103fd2:	0000                	unimp
  103fd4:	0000                	unimp
  103fd6:	0000                	unimp
  103fd8:	0000                	unimp
  103fda:	0000                	unimp
  103fdc:	0000                	unimp
  103fde:	0000                	unimp
  103fe0:	0000                	unimp
  103fe2:	0000                	unimp
  103fe4:	0000                	unimp
  103fe6:	0000                	unimp
  103fe8:	0000                	unimp
  103fea:	0000                	unimp
  103fec:	0000                	unimp
  103fee:	0000                	unimp
  103ff0:	0000                	unimp
  103ff2:	0000                	unimp
  103ff4:	0000                	unimp
  103ff6:	0000                	unimp
  103ff8:	0000                	unimp
  103ffa:	0000                	unimp
  103ffc:	0000                	unimp
  103ffe:	0000                	unimp
  104000:	0000                	unimp
  104002:	0000                	unimp
  104004:	0000                	unimp
  104006:	0000                	unimp
  104008:	0000                	unimp
  10400a:	0000                	unimp
  10400c:	0000                	unimp
  10400e:	0000                	unimp
  104010:	0000                	unimp
  104012:	0000                	unimp
  104014:	0000                	unimp
  104016:	0000                	unimp
  104018:	0000                	unimp
  10401a:	0000                	unimp
  10401c:	0000                	unimp
  10401e:	0000                	unimp
  104020:	0000                	unimp
  104022:	0000                	unimp
  104024:	0000                	unimp
  104026:	0000                	unimp
  104028:	0000                	unimp
  10402a:	0000                	unimp
  10402c:	0000                	unimp
  10402e:	0000                	unimp
  104030:	0000                	unimp
  104032:	0000                	unimp
  104034:	0000                	unimp
  104036:	0000                	unimp
  104038:	0000                	unimp
  10403a:	0000                	unimp
  10403c:	0000                	unimp
  10403e:	0000                	unimp
  104040:	0000                	unimp
  104042:	0000                	unimp
  104044:	0000                	unimp
  104046:	0000                	unimp
  104048:	0000                	unimp
  10404a:	0000                	unimp
  10404c:	0000                	unimp
  10404e:	0000                	unimp
  104050:	0000                	unimp
  104052:	0000                	unimp
  104054:	0000                	unimp
  104056:	0000                	unimp
  104058:	0000                	unimp
  10405a:	0000                	unimp
  10405c:	0000                	unimp
  10405e:	0000                	unimp
  104060:	0000                	unimp
  104062:	0000                	unimp
  104064:	0000                	unimp
  104066:	0000                	unimp
  104068:	0000                	unimp
  10406a:	0000                	unimp
  10406c:	0000                	unimp
  10406e:	0000                	unimp
  104070:	0000                	unimp
  104072:	0000                	unimp
  104074:	0000                	unimp
  104076:	0000                	unimp
  104078:	0000                	unimp
  10407a:	0000                	unimp
  10407c:	0000                	unimp
  10407e:	0000                	unimp
  104080:	0000                	unimp
  104082:	0000                	unimp
  104084:	0000                	unimp
  104086:	0000                	unimp
  104088:	0000                	unimp
  10408a:	0000                	unimp
  10408c:	0000                	unimp
  10408e:	0000                	unimp
  104090:	0000                	unimp
  104092:	0000                	unimp
  104094:	0000                	unimp
  104096:	0000                	unimp
  104098:	0000                	unimp
  10409a:	0000                	unimp
  10409c:	0000                	unimp
  10409e:	0000                	unimp
  1040a0:	0000                	unimp
  1040a2:	0000                	unimp
  1040a4:	0000                	unimp
  1040a6:	0000                	unimp
  1040a8:	0000                	unimp
  1040aa:	0000                	unimp
  1040ac:	0000                	unimp
  1040ae:	0000                	unimp
  1040b0:	0000                	unimp
  1040b2:	0000                	unimp
  1040b4:	0000                	unimp
  1040b6:	0000                	unimp
  1040b8:	0000                	unimp
  1040ba:	0000                	unimp
  1040bc:	0000                	unimp
  1040be:	0000                	unimp
  1040c0:	0000                	unimp
  1040c2:	0000                	unimp
  1040c4:	0000                	unimp
  1040c6:	0000                	unimp
  1040c8:	0000                	unimp
  1040ca:	0000                	unimp
  1040cc:	0000                	unimp
  1040ce:	0000                	unimp
  1040d0:	0000                	unimp
  1040d2:	0000                	unimp
  1040d4:	0000                	unimp
  1040d6:	0000                	unimp
  1040d8:	0000                	unimp
  1040da:	0000                	unimp
  1040dc:	0000                	unimp
  1040de:	0000                	unimp
  1040e0:	0000                	unimp
  1040e2:	0000                	unimp
  1040e4:	0000                	unimp
  1040e6:	0000                	unimp
  1040e8:	0000                	unimp
  1040ea:	0000                	unimp
  1040ec:	0000                	unimp
  1040ee:	0000                	unimp
  1040f0:	0000                	unimp
  1040f2:	0000                	unimp
  1040f4:	0000                	unimp
  1040f6:	0000                	unimp
  1040f8:	0000                	unimp
  1040fa:	0000                	unimp
  1040fc:	0000                	unimp
  1040fe:	0000                	unimp
  104100:	0000                	unimp
  104102:	0000                	unimp
  104104:	0000                	unimp
  104106:	0000                	unimp
  104108:	0000                	unimp
  10410a:	0000                	unimp
  10410c:	0000                	unimp
  10410e:	0000                	unimp
  104110:	0000                	unimp
  104112:	0000                	unimp
  104114:	0000                	unimp
  104116:	0000                	unimp
  104118:	0000                	unimp
  10411a:	0000                	unimp
  10411c:	0000                	unimp
  10411e:	0000                	unimp
  104120:	0000                	unimp
  104122:	0000                	unimp
  104124:	0000                	unimp
  104126:	0000                	unimp
  104128:	0000                	unimp
  10412a:	0000                	unimp
  10412c:	0000                	unimp
  10412e:	0000                	unimp
  104130:	0000                	unimp
  104132:	0000                	unimp
  104134:	0000                	unimp
  104136:	0000                	unimp
  104138:	0000                	unimp
  10413a:	0000                	unimp
  10413c:	0000                	unimp
  10413e:	0000                	unimp
  104140:	0000                	unimp
  104142:	0000                	unimp
  104144:	0000                	unimp
  104146:	0000                	unimp
  104148:	0000                	unimp
  10414a:	0000                	unimp
  10414c:	0000                	unimp
  10414e:	0000                	unimp
  104150:	0000                	unimp
  104152:	0000                	unimp
  104154:	0000                	unimp
  104156:	0000                	unimp
  104158:	0000                	unimp
  10415a:	0000                	unimp
  10415c:	0000                	unimp
  10415e:	0000                	unimp
  104160:	0000                	unimp
  104162:	0000                	unimp
  104164:	0000                	unimp
  104166:	0000                	unimp
  104168:	0000                	unimp
  10416a:	0000                	unimp
  10416c:	0000                	unimp
  10416e:	0000                	unimp
  104170:	0000                	unimp
  104172:	0000                	unimp
  104174:	0000                	unimp
  104176:	0000                	unimp
  104178:	0000                	unimp
  10417a:	0000                	unimp
  10417c:	0000                	unimp
  10417e:	0000                	unimp
  104180:	0000                	unimp
  104182:	0000                	unimp
  104184:	0000                	unimp
  104186:	0000                	unimp
  104188:	0000                	unimp
  10418a:	0000                	unimp
  10418c:	0000                	unimp
  10418e:	0000                	unimp
  104190:	0000                	unimp
  104192:	0000                	unimp
  104194:	0000                	unimp
  104196:	0000                	unimp
  104198:	0000                	unimp
  10419a:	0000                	unimp
  10419c:	0000                	unimp
  10419e:	0000                	unimp
  1041a0:	0000                	unimp
  1041a2:	0000                	unimp
  1041a4:	0000                	unimp
  1041a6:	0000                	unimp
  1041a8:	0000                	unimp
  1041aa:	0000                	unimp
  1041ac:	0000                	unimp
  1041ae:	0000                	unimp
  1041b0:	0000                	unimp
  1041b2:	0000                	unimp
  1041b4:	0000                	unimp
  1041b6:	0000                	unimp
  1041b8:	0000                	unimp
  1041ba:	0000                	unimp
  1041bc:	0000                	unimp
  1041be:	0000                	unimp
  1041c0:	0000                	unimp
  1041c2:	0000                	unimp
  1041c4:	0000                	unimp
  1041c6:	0000                	unimp
  1041c8:	0000                	unimp
  1041ca:	0000                	unimp
  1041cc:	0000                	unimp
  1041ce:	0000                	unimp
  1041d0:	0000                	unimp
  1041d2:	0000                	unimp
  1041d4:	0000                	unimp
  1041d6:	0000                	unimp
  1041d8:	0000                	unimp
  1041da:	0000                	unimp
  1041dc:	0000                	unimp
  1041de:	0000                	unimp
  1041e0:	0000                	unimp
  1041e2:	0000                	unimp
  1041e4:	0000                	unimp
  1041e6:	0000                	unimp
  1041e8:	0000                	unimp
  1041ea:	0000                	unimp
  1041ec:	0000                	unimp
  1041ee:	0000                	unimp
  1041f0:	0000                	unimp
  1041f2:	0000                	unimp
  1041f4:	0000                	unimp
  1041f6:	0000                	unimp
  1041f8:	0000                	unimp
  1041fa:	0000                	unimp
  1041fc:	0000                	unimp
  1041fe:	0000                	unimp
  104200:	0000                	unimp
  104202:	0000                	unimp
  104204:	0000                	unimp
  104206:	0000                	unimp
  104208:	0000                	unimp
  10420a:	0000                	unimp
  10420c:	0000                	unimp
  10420e:	0000                	unimp
  104210:	0000                	unimp
  104212:	0000                	unimp
  104214:	0000                	unimp
  104216:	0000                	unimp
  104218:	0000                	unimp
  10421a:	0000                	unimp
  10421c:	0000                	unimp
  10421e:	0000                	unimp
  104220:	0000                	unimp
  104222:	0000                	unimp
  104224:	0000                	unimp
  104226:	0000                	unimp
  104228:	0000                	unimp
  10422a:	0000                	unimp
  10422c:	0000                	unimp
  10422e:	0000                	unimp
  104230:	0000                	unimp
  104232:	0000                	unimp
  104234:	0000                	unimp
  104236:	0000                	unimp
  104238:	0000                	unimp
  10423a:	0000                	unimp
  10423c:	0000                	unimp
  10423e:	0000                	unimp
  104240:	0000                	unimp
  104242:	0000                	unimp
  104244:	0000                	unimp
  104246:	0000                	unimp
  104248:	0000                	unimp
  10424a:	0000                	unimp
  10424c:	0000                	unimp
  10424e:	0000                	unimp
  104250:	0000                	unimp
  104252:	0000                	unimp
  104254:	0000                	unimp
  104256:	0000                	unimp
  104258:	0000                	unimp
  10425a:	0000                	unimp
  10425c:	0000                	unimp
  10425e:	0000                	unimp
  104260:	0000                	unimp
  104262:	0000                	unimp
  104264:	0000                	unimp
  104266:	0000                	unimp
  104268:	0000                	unimp
  10426a:	0000                	unimp
  10426c:	0000                	unimp
  10426e:	0000                	unimp
  104270:	0000                	unimp
  104272:	0000                	unimp
  104274:	0000                	unimp
  104276:	0000                	unimp
  104278:	0000                	unimp
  10427a:	0000                	unimp
  10427c:	0000                	unimp
  10427e:	0000                	unimp
  104280:	0000                	unimp
  104282:	0000                	unimp
  104284:	0000                	unimp
  104286:	0000                	unimp
  104288:	0000                	unimp
  10428a:	0000                	unimp
  10428c:	0000                	unimp
  10428e:	0000                	unimp
  104290:	0000                	unimp
  104292:	0000                	unimp
  104294:	0000                	unimp
  104296:	0000                	unimp
  104298:	0000                	unimp
  10429a:	0000                	unimp
  10429c:	0000                	unimp
  10429e:	0000                	unimp
  1042a0:	0000                	unimp
  1042a2:	0000                	unimp
  1042a4:	0000                	unimp
  1042a6:	0000                	unimp
  1042a8:	0000                	unimp
  1042aa:	0000                	unimp
  1042ac:	0000                	unimp
  1042ae:	0000                	unimp
  1042b0:	0000                	unimp
  1042b2:	0000                	unimp
  1042b4:	0000                	unimp
  1042b6:	0000                	unimp
  1042b8:	0000                	unimp
  1042ba:	0000                	unimp
  1042bc:	0000                	unimp
  1042be:	0000                	unimp
  1042c0:	0000                	unimp
  1042c2:	0000                	unimp
  1042c4:	0000                	unimp
  1042c6:	0000                	unimp
  1042c8:	0000                	unimp
  1042ca:	0000                	unimp
  1042cc:	0000                	unimp
  1042ce:	0000                	unimp
  1042d0:	0000                	unimp
  1042d2:	0000                	unimp
  1042d4:	0000                	unimp
  1042d6:	0000                	unimp
  1042d8:	0000                	unimp
  1042da:	0000                	unimp
  1042dc:	0000                	unimp
  1042de:	0000                	unimp
  1042e0:	0000                	unimp
  1042e2:	0000                	unimp
  1042e4:	0000                	unimp
  1042e6:	0000                	unimp
  1042e8:	0000                	unimp
  1042ea:	0000                	unimp
  1042ec:	0000                	unimp
  1042ee:	0000                	unimp
  1042f0:	0000                	unimp
  1042f2:	0000                	unimp
  1042f4:	0000                	unimp
  1042f6:	0000                	unimp
  1042f8:	0000                	unimp
  1042fa:	0000                	unimp
  1042fc:	0000                	unimp
  1042fe:	0000                	unimp
  104300:	0000                	unimp
  104302:	0000                	unimp
  104304:	0000                	unimp
  104306:	0000                	unimp
  104308:	0000                	unimp
  10430a:	0000                	unimp
  10430c:	0000                	unimp
  10430e:	0000                	unimp
  104310:	0000                	unimp
  104312:	0000                	unimp
  104314:	0000                	unimp
  104316:	0000                	unimp
  104318:	0000                	unimp
  10431a:	0000                	unimp
  10431c:	0000                	unimp
  10431e:	0000                	unimp
  104320:	0000                	unimp
  104322:	0000                	unimp
  104324:	0000                	unimp
  104326:	0000                	unimp
  104328:	0000                	unimp
  10432a:	0000                	unimp
  10432c:	0000                	unimp
  10432e:	0000                	unimp
  104330:	0000                	unimp
  104332:	0000                	unimp
  104334:	0000                	unimp
  104336:	0000                	unimp
  104338:	0000                	unimp
  10433a:	0000                	unimp
  10433c:	0000                	unimp
  10433e:	0000                	unimp
  104340:	0000                	unimp
  104342:	0000                	unimp
  104344:	0000                	unimp
  104346:	0000                	unimp
  104348:	0000                	unimp
  10434a:	0000                	unimp
  10434c:	0000                	unimp
  10434e:	0000                	unimp
  104350:	0000                	unimp
  104352:	0000                	unimp
  104354:	0000                	unimp
  104356:	0000                	unimp
  104358:	0000                	unimp
  10435a:	0000                	unimp
  10435c:	0000                	unimp
  10435e:	0000                	unimp
  104360:	0000                	unimp
  104362:	0000                	unimp
  104364:	0000                	unimp
  104366:	0000                	unimp
  104368:	0000                	unimp
  10436a:	0000                	unimp
  10436c:	0000                	unimp
  10436e:	0000                	unimp
  104370:	0000                	unimp
  104372:	0000                	unimp
  104374:	0000                	unimp
  104376:	0000                	unimp
  104378:	0000                	unimp
  10437a:	0000                	unimp
  10437c:	0000                	unimp
  10437e:	0000                	unimp
  104380:	0000                	unimp
  104382:	0000                	unimp
  104384:	0000                	unimp
  104386:	0000                	unimp
  104388:	0000                	unimp
  10438a:	0000                	unimp
  10438c:	0000                	unimp
  10438e:	0000                	unimp
  104390:	0000                	unimp
  104392:	0000                	unimp
  104394:	0000                	unimp
  104396:	0000                	unimp
  104398:	0000                	unimp
  10439a:	0000                	unimp
  10439c:	0000                	unimp
  10439e:	0000                	unimp
  1043a0:	0000                	unimp
  1043a2:	0000                	unimp
  1043a4:	0000                	unimp
  1043a6:	0000                	unimp
  1043a8:	0000                	unimp
  1043aa:	0000                	unimp
  1043ac:	0000                	unimp
  1043ae:	0000                	unimp
  1043b0:	0000                	unimp
  1043b2:	0000                	unimp
  1043b4:	0000                	unimp
  1043b6:	0000                	unimp
  1043b8:	0000                	unimp
  1043ba:	0000                	unimp
  1043bc:	0000                	unimp
  1043be:	0000                	unimp
  1043c0:	0000                	unimp
  1043c2:	0000                	unimp
  1043c4:	0000                	unimp
  1043c6:	0000                	unimp
  1043c8:	0000                	unimp
  1043ca:	0000                	unimp
  1043cc:	0000                	unimp
  1043ce:	0000                	unimp
  1043d0:	0000                	unimp
  1043d2:	0000                	unimp
  1043d4:	0000                	unimp
  1043d6:	0000                	unimp
  1043d8:	0000                	unimp
  1043da:	0000                	unimp
  1043dc:	0000                	unimp
  1043de:	0000                	unimp
  1043e0:	0000                	unimp
  1043e2:	0000                	unimp
  1043e4:	0000                	unimp
  1043e6:	0000                	unimp
  1043e8:	0000                	unimp
  1043ea:	0000                	unimp
  1043ec:	0000                	unimp
  1043ee:	0000                	unimp
  1043f0:	0000                	unimp
  1043f2:	0000                	unimp
  1043f4:	0000                	unimp
  1043f6:	0000                	unimp
  1043f8:	0000                	unimp
  1043fa:	0000                	unimp
  1043fc:	0000                	unimp
  1043fe:	0000                	unimp
  104400:	0000                	unimp
  104402:	0000                	unimp
  104404:	0000                	unimp
  104406:	0000                	unimp
  104408:	0000                	unimp
  10440a:	0000                	unimp
  10440c:	0000                	unimp
  10440e:	0000                	unimp
  104410:	0000                	unimp
  104412:	0000                	unimp
  104414:	0000                	unimp
  104416:	0000                	unimp
  104418:	0000                	unimp
  10441a:	0000                	unimp
  10441c:	0000                	unimp
  10441e:	0000                	unimp
  104420:	0000                	unimp
  104422:	0000                	unimp
  104424:	0000                	unimp
  104426:	0000                	unimp
  104428:	0000                	unimp
  10442a:	0000                	unimp
  10442c:	0000                	unimp
  10442e:	0000                	unimp
  104430:	0000                	unimp
  104432:	0000                	unimp
  104434:	0000                	unimp
  104436:	0000                	unimp
  104438:	0000                	unimp
  10443a:	0000                	unimp
  10443c:	0000                	unimp
  10443e:	0000                	unimp
  104440:	0000                	unimp
  104442:	0000                	unimp
  104444:	0000                	unimp
  104446:	0000                	unimp
  104448:	0000                	unimp
  10444a:	0000                	unimp
  10444c:	0000                	unimp
  10444e:	0000                	unimp
  104450:	0000                	unimp
  104452:	0000                	unimp
  104454:	0000                	unimp
  104456:	0000                	unimp
  104458:	0000                	unimp
  10445a:	0000                	unimp
  10445c:	0000                	unimp
  10445e:	0000                	unimp
  104460:	0000                	unimp
  104462:	0000                	unimp
  104464:	0000                	unimp
  104466:	0000                	unimp
  104468:	0000                	unimp
  10446a:	0000                	unimp
  10446c:	0000                	unimp
  10446e:	0000                	unimp
  104470:	0000                	unimp
  104472:	0000                	unimp
  104474:	0000                	unimp
  104476:	0000                	unimp
  104478:	0000                	unimp
  10447a:	0000                	unimp
  10447c:	0000                	unimp
  10447e:	0000                	unimp
  104480:	0000                	unimp
  104482:	0000                	unimp
  104484:	0000                	unimp
  104486:	0000                	unimp
  104488:	0000                	unimp
  10448a:	0000                	unimp
  10448c:	0000                	unimp
  10448e:	0000                	unimp
  104490:	0000                	unimp
  104492:	0000                	unimp
  104494:	0000                	unimp
  104496:	0000                	unimp
  104498:	0000                	unimp
  10449a:	0000                	unimp
  10449c:	0000                	unimp
  10449e:	0000                	unimp
  1044a0:	0000                	unimp
  1044a2:	0000                	unimp
  1044a4:	0000                	unimp
  1044a6:	0000                	unimp
  1044a8:	0000                	unimp
  1044aa:	0000                	unimp
  1044ac:	0000                	unimp
  1044ae:	0000                	unimp
  1044b0:	0000                	unimp
  1044b2:	0000                	unimp
  1044b4:	0000                	unimp
  1044b6:	0000                	unimp
  1044b8:	0000                	unimp
  1044ba:	0000                	unimp
  1044bc:	0000                	unimp
  1044be:	0000                	unimp
  1044c0:	0000                	unimp
  1044c2:	0000                	unimp
  1044c4:	0000                	unimp
  1044c6:	0000                	unimp
  1044c8:	0000                	unimp
  1044ca:	0000                	unimp
  1044cc:	0000                	unimp
  1044ce:	0000                	unimp
  1044d0:	0000                	unimp
  1044d2:	0000                	unimp
  1044d4:	0000                	unimp
  1044d6:	0000                	unimp
  1044d8:	0000                	unimp
  1044da:	0000                	unimp
  1044dc:	0000                	unimp
  1044de:	0000                	unimp
  1044e0:	0000                	unimp
  1044e2:	0000                	unimp
  1044e4:	0000                	unimp
  1044e6:	0000                	unimp
  1044e8:	0000                	unimp
  1044ea:	0000                	unimp
  1044ec:	0000                	unimp
  1044ee:	0000                	unimp
  1044f0:	0000                	unimp
  1044f2:	0000                	unimp
  1044f4:	0000                	unimp
  1044f6:	0000                	unimp
  1044f8:	0000                	unimp
  1044fa:	0000                	unimp
  1044fc:	0000                	unimp
  1044fe:	0000                	unimp
  104500:	0000                	unimp
  104502:	0000                	unimp
  104504:	0000                	unimp
  104506:	0000                	unimp
  104508:	0000                	unimp
  10450a:	0000                	unimp
  10450c:	0000                	unimp
  10450e:	0000                	unimp
  104510:	0000                	unimp
  104512:	0000                	unimp
  104514:	0000                	unimp
  104516:	0000                	unimp
  104518:	0000                	unimp
  10451a:	0000                	unimp
  10451c:	0000                	unimp
  10451e:	0000                	unimp
  104520:	0000                	unimp
  104522:	0000                	unimp
  104524:	0000                	unimp
  104526:	0000                	unimp
  104528:	0000                	unimp
  10452a:	0000                	unimp
  10452c:	0000                	unimp
  10452e:	0000                	unimp
  104530:	0000                	unimp
  104532:	0000                	unimp
  104534:	0000                	unimp
  104536:	0000                	unimp
  104538:	0000                	unimp
  10453a:	0000                	unimp
  10453c:	0000                	unimp
  10453e:	0000                	unimp
  104540:	0000                	unimp
  104542:	0000                	unimp
  104544:	0000                	unimp
  104546:	0000                	unimp
  104548:	0000                	unimp
  10454a:	0000                	unimp
  10454c:	0000                	unimp
  10454e:	0000                	unimp
  104550:	0000                	unimp
  104552:	0000                	unimp
  104554:	0000                	unimp
  104556:	0000                	unimp
  104558:	0000                	unimp
  10455a:	0000                	unimp
  10455c:	0000                	unimp
  10455e:	0000                	unimp
  104560:	0000                	unimp
  104562:	0000                	unimp
  104564:	0000                	unimp
  104566:	0000                	unimp
  104568:	0000                	unimp
  10456a:	0000                	unimp
  10456c:	0000                	unimp
  10456e:	0000                	unimp
  104570:	0000                	unimp
  104572:	0000                	unimp
  104574:	0000                	unimp
  104576:	0000                	unimp
  104578:	0000                	unimp
  10457a:	0000                	unimp
  10457c:	0000                	unimp
  10457e:	0000                	unimp
  104580:	0000                	unimp
  104582:	0000                	unimp
  104584:	0000                	unimp
  104586:	0000                	unimp
  104588:	0000                	unimp
  10458a:	0000                	unimp
  10458c:	0000                	unimp
  10458e:	0000                	unimp
  104590:	0000                	unimp
  104592:	0000                	unimp
  104594:	0000                	unimp
  104596:	0000                	unimp
  104598:	0000                	unimp
  10459a:	0000                	unimp
  10459c:	0000                	unimp
  10459e:	0000                	unimp
  1045a0:	0000                	unimp
  1045a2:	0000                	unimp
  1045a4:	0000                	unimp
  1045a6:	0000                	unimp
  1045a8:	0000                	unimp
  1045aa:	0000                	unimp
  1045ac:	0000                	unimp
  1045ae:	0000                	unimp
  1045b0:	0000                	unimp
  1045b2:	0000                	unimp
  1045b4:	0000                	unimp
  1045b6:	0000                	unimp
  1045b8:	0000                	unimp
  1045ba:	0000                	unimp
  1045bc:	0000                	unimp
  1045be:	0000                	unimp
  1045c0:	0000                	unimp
  1045c2:	0000                	unimp
  1045c4:	0000                	unimp
  1045c6:	0000                	unimp
  1045c8:	0000                	unimp
  1045ca:	0000                	unimp
  1045cc:	0000                	unimp
  1045ce:	0000                	unimp
  1045d0:	0000                	unimp
  1045d2:	0000                	unimp
  1045d4:	0000                	unimp
  1045d6:	0000                	unimp
  1045d8:	0000                	unimp
  1045da:	0000                	unimp
  1045dc:	0000                	unimp
  1045de:	0000                	unimp
  1045e0:	0000                	unimp
  1045e2:	0000                	unimp
  1045e4:	0000                	unimp
  1045e6:	0000                	unimp
  1045e8:	0000                	unimp
  1045ea:	0000                	unimp
  1045ec:	0000                	unimp
  1045ee:	0000                	unimp
  1045f0:	0000                	unimp
  1045f2:	0000                	unimp
  1045f4:	0000                	unimp
  1045f6:	0000                	unimp
  1045f8:	0000                	unimp
  1045fa:	0000                	unimp
  1045fc:	0000                	unimp
  1045fe:	0000                	unimp
  104600:	0000                	unimp
  104602:	0000                	unimp
  104604:	0000                	unimp
  104606:	0000                	unimp
  104608:	0000                	unimp
  10460a:	0000                	unimp
  10460c:	0000                	unimp
  10460e:	0000                	unimp
  104610:	0000                	unimp
  104612:	0000                	unimp
  104614:	0000                	unimp
  104616:	0000                	unimp
  104618:	0000                	unimp
  10461a:	0000                	unimp
  10461c:	0000                	unimp
  10461e:	0000                	unimp
  104620:	0000                	unimp
  104622:	0000                	unimp
  104624:	0000                	unimp
  104626:	0000                	unimp
  104628:	0000                	unimp
  10462a:	0000                	unimp
  10462c:	0000                	unimp
  10462e:	0000                	unimp
  104630:	0000                	unimp
  104632:	0000                	unimp
  104634:	0000                	unimp
  104636:	0000                	unimp
  104638:	0000                	unimp
  10463a:	0000                	unimp
  10463c:	0000                	unimp
  10463e:	0000                	unimp
  104640:	0000                	unimp
  104642:	0000                	unimp
  104644:	0000                	unimp
  104646:	0000                	unimp
  104648:	0000                	unimp
  10464a:	0000                	unimp
  10464c:	0000                	unimp
  10464e:	0000                	unimp
  104650:	0000                	unimp
  104652:	0000                	unimp
  104654:	0000                	unimp
  104656:	0000                	unimp
  104658:	0000                	unimp
  10465a:	0000                	unimp
  10465c:	0000                	unimp
  10465e:	0000                	unimp
  104660:	0000                	unimp
  104662:	0000                	unimp
  104664:	0000                	unimp
  104666:	0000                	unimp
  104668:	0000                	unimp
  10466a:	0000                	unimp
  10466c:	0000                	unimp
  10466e:	0000                	unimp
  104670:	0000                	unimp
  104672:	0000                	unimp
  104674:	0000                	unimp
  104676:	0000                	unimp
  104678:	0000                	unimp
  10467a:	0000                	unimp
  10467c:	0000                	unimp
  10467e:	0000                	unimp
  104680:	0000                	unimp
  104682:	0000                	unimp
  104684:	0000                	unimp
  104686:	0000                	unimp
  104688:	0000                	unimp
  10468a:	0000                	unimp
  10468c:	0000                	unimp
  10468e:	0000                	unimp
  104690:	0000                	unimp
  104692:	0000                	unimp
  104694:	0000                	unimp
  104696:	0000                	unimp
  104698:	0000                	unimp
  10469a:	0000                	unimp
  10469c:	0000                	unimp
  10469e:	0000                	unimp
  1046a0:	0000                	unimp
  1046a2:	0000                	unimp
  1046a4:	0000                	unimp
  1046a6:	0000                	unimp
  1046a8:	0000                	unimp
  1046aa:	0000                	unimp
  1046ac:	0000                	unimp
  1046ae:	0000                	unimp
  1046b0:	0000                	unimp
  1046b2:	0000                	unimp
  1046b4:	0000                	unimp
  1046b6:	0000                	unimp
  1046b8:	0000                	unimp
  1046ba:	0000                	unimp
  1046bc:	0000                	unimp
  1046be:	0000                	unimp
  1046c0:	0000                	unimp
  1046c2:	0000                	unimp
  1046c4:	0000                	unimp
  1046c6:	0000                	unimp
  1046c8:	0000                	unimp
  1046ca:	0000                	unimp
  1046cc:	0000                	unimp
  1046ce:	0000                	unimp
  1046d0:	0000                	unimp
  1046d2:	0000                	unimp
  1046d4:	0000                	unimp
  1046d6:	0000                	unimp
  1046d8:	0000                	unimp
  1046da:	0000                	unimp
  1046dc:	0000                	unimp
  1046de:	0000                	unimp
  1046e0:	0000                	unimp
  1046e2:	0000                	unimp
  1046e4:	0000                	unimp
  1046e6:	0000                	unimp
  1046e8:	0000                	unimp
  1046ea:	0000                	unimp
  1046ec:	0000                	unimp
  1046ee:	0000                	unimp
  1046f0:	0000                	unimp
  1046f2:	0000                	unimp
  1046f4:	0000                	unimp
  1046f6:	0000                	unimp
  1046f8:	0000                	unimp
  1046fa:	0000                	unimp
  1046fc:	0000                	unimp
  1046fe:	0000                	unimp
  104700:	0000                	unimp
  104702:	0000                	unimp
  104704:	0000                	unimp
  104706:	0000                	unimp
  104708:	0000                	unimp
  10470a:	0000                	unimp
  10470c:	0000                	unimp
  10470e:	0000                	unimp
  104710:	0000                	unimp
  104712:	0000                	unimp
  104714:	0000                	unimp
  104716:	0000                	unimp
  104718:	0000                	unimp
  10471a:	0000                	unimp
  10471c:	0000                	unimp
  10471e:	0000                	unimp
  104720:	0000                	unimp
  104722:	0000                	unimp
  104724:	0000                	unimp
  104726:	0000                	unimp
  104728:	0000                	unimp
  10472a:	0000                	unimp
  10472c:	0000                	unimp
  10472e:	0000                	unimp
  104730:	0000                	unimp
  104732:	0000                	unimp
  104734:	0000                	unimp
  104736:	0000                	unimp
  104738:	0000                	unimp
  10473a:	0000                	unimp
  10473c:	0000                	unimp
  10473e:	0000                	unimp
  104740:	0000                	unimp
  104742:	0000                	unimp
  104744:	0000                	unimp
  104746:	0000                	unimp
  104748:	0000                	unimp
  10474a:	0000                	unimp
  10474c:	0000                	unimp
  10474e:	0000                	unimp
  104750:	0000                	unimp
  104752:	0000                	unimp
  104754:	0000                	unimp
  104756:	0000                	unimp
  104758:	0000                	unimp
  10475a:	0000                	unimp
  10475c:	0000                	unimp
  10475e:	0000                	unimp
  104760:	0000                	unimp
  104762:	0000                	unimp
  104764:	0000                	unimp
  104766:	0000                	unimp
  104768:	0000                	unimp
  10476a:	0000                	unimp
  10476c:	0000                	unimp
  10476e:	0000                	unimp
  104770:	0000                	unimp
  104772:	0000                	unimp
  104774:	0000                	unimp
  104776:	0000                	unimp
  104778:	0000                	unimp
  10477a:	0000                	unimp
  10477c:	0000                	unimp
  10477e:	0000                	unimp
  104780:	0000                	unimp
  104782:	0000                	unimp
  104784:	0000                	unimp
  104786:	0000                	unimp
  104788:	0000                	unimp
  10478a:	0000                	unimp
  10478c:	0000                	unimp
  10478e:	0000                	unimp
  104790:	0000                	unimp
  104792:	0000                	unimp
  104794:	0000                	unimp
  104796:	0000                	unimp
  104798:	0000                	unimp
  10479a:	0000                	unimp
  10479c:	0000                	unimp
  10479e:	0000                	unimp
  1047a0:	0000                	unimp
  1047a2:	0000                	unimp
  1047a4:	0000                	unimp
  1047a6:	0000                	unimp
  1047a8:	0000                	unimp
  1047aa:	0000                	unimp
  1047ac:	0000                	unimp
  1047ae:	0000                	unimp
  1047b0:	0000                	unimp
  1047b2:	0000                	unimp
  1047b4:	0000                	unimp
  1047b6:	0000                	unimp
  1047b8:	0000                	unimp
  1047ba:	0000                	unimp
  1047bc:	0000                	unimp
  1047be:	0000                	unimp
  1047c0:	0000                	unimp
  1047c2:	0000                	unimp
  1047c4:	0000                	unimp
  1047c6:	0000                	unimp
  1047c8:	0000                	unimp
  1047ca:	0000                	unimp
  1047cc:	0000                	unimp
  1047ce:	0000                	unimp
  1047d0:	0000                	unimp
  1047d2:	0000                	unimp
  1047d4:	0000                	unimp
  1047d6:	0000                	unimp
  1047d8:	0000                	unimp
  1047da:	0000                	unimp
  1047dc:	0000                	unimp
  1047de:	0000                	unimp
  1047e0:	0000                	unimp
  1047e2:	0000                	unimp
  1047e4:	0000                	unimp
  1047e6:	0000                	unimp
  1047e8:	0000                	unimp
  1047ea:	0000                	unimp
  1047ec:	0000                	unimp
  1047ee:	0000                	unimp
  1047f0:	0000                	unimp
  1047f2:	0000                	unimp
  1047f4:	0000                	unimp
  1047f6:	0000                	unimp
  1047f8:	0000                	unimp
  1047fa:	0000                	unimp
  1047fc:	0000                	unimp
  1047fe:	0000                	unimp
  104800:	0000                	unimp
  104802:	0000                	unimp
  104804:	0000                	unimp
  104806:	0000                	unimp
  104808:	0000                	unimp
  10480a:	0000                	unimp
  10480c:	0000                	unimp
  10480e:	0000                	unimp
  104810:	0000                	unimp
  104812:	0000                	unimp
  104814:	0000                	unimp
  104816:	0000                	unimp
  104818:	0000                	unimp
  10481a:	0000                	unimp
  10481c:	0000                	unimp
  10481e:	0000                	unimp
  104820:	0000                	unimp
  104822:	0000                	unimp
  104824:	0000                	unimp
  104826:	0000                	unimp
  104828:	0000                	unimp
  10482a:	0000                	unimp
  10482c:	0000                	unimp
  10482e:	0000                	unimp
  104830:	0000                	unimp
  104832:	0000                	unimp
  104834:	0000                	unimp
  104836:	0000                	unimp
  104838:	0000                	unimp
  10483a:	0000                	unimp
  10483c:	0000                	unimp
  10483e:	0000                	unimp
  104840:	0000                	unimp
  104842:	0000                	unimp
  104844:	0000                	unimp
  104846:	0000                	unimp
  104848:	0000                	unimp
  10484a:	0000                	unimp
  10484c:	0000                	unimp
  10484e:	0000                	unimp
  104850:	0000                	unimp
  104852:	0000                	unimp
  104854:	0000                	unimp
  104856:	0000                	unimp
  104858:	0000                	unimp
  10485a:	0000                	unimp
  10485c:	0000                	unimp
  10485e:	0000                	unimp
  104860:	0000                	unimp
  104862:	0000                	unimp
  104864:	0000                	unimp
  104866:	0000                	unimp
  104868:	0000                	unimp
  10486a:	0000                	unimp
  10486c:	0000                	unimp
  10486e:	0000                	unimp
  104870:	0000                	unimp
  104872:	0000                	unimp
  104874:	0000                	unimp
  104876:	0000                	unimp
  104878:	0000                	unimp
  10487a:	0000                	unimp
  10487c:	0000                	unimp
  10487e:	0000                	unimp
  104880:	0000                	unimp
  104882:	0000                	unimp
  104884:	0000                	unimp
  104886:	0000                	unimp
  104888:	0000                	unimp
  10488a:	0000                	unimp
  10488c:	0000                	unimp
  10488e:	0000                	unimp
  104890:	0000                	unimp
  104892:	0000                	unimp
  104894:	0000                	unimp
  104896:	0000                	unimp
  104898:	0000                	unimp
  10489a:	0000                	unimp
  10489c:	0000                	unimp
  10489e:	0000                	unimp
  1048a0:	0000                	unimp
  1048a2:	0000                	unimp
  1048a4:	0000                	unimp
  1048a6:	0000                	unimp
  1048a8:	0000                	unimp
  1048aa:	0000                	unimp
  1048ac:	0000                	unimp
  1048ae:	0000                	unimp
  1048b0:	0000                	unimp
  1048b2:	0000                	unimp
  1048b4:	0000                	unimp
  1048b6:	0000                	unimp
  1048b8:	0000                	unimp
  1048ba:	0000                	unimp
  1048bc:	0000                	unimp
  1048be:	0000                	unimp
  1048c0:	0000                	unimp
  1048c2:	0000                	unimp
  1048c4:	0000                	unimp
  1048c6:	0000                	unimp
  1048c8:	0000                	unimp
  1048ca:	0000                	unimp
  1048cc:	0000                	unimp
  1048ce:	0000                	unimp
  1048d0:	0000                	unimp
  1048d2:	0000                	unimp
  1048d4:	0000                	unimp
  1048d6:	0000                	unimp
  1048d8:	0000                	unimp
  1048da:	0000                	unimp
  1048dc:	0000                	unimp
  1048de:	0000                	unimp
  1048e0:	0000                	unimp
  1048e2:	0000                	unimp
  1048e4:	0000                	unimp
  1048e6:	0000                	unimp
  1048e8:	0000                	unimp
  1048ea:	0000                	unimp
  1048ec:	0000                	unimp
  1048ee:	0000                	unimp
  1048f0:	0000                	unimp
  1048f2:	0000                	unimp
  1048f4:	0000                	unimp
  1048f6:	0000                	unimp
  1048f8:	0000                	unimp
  1048fa:	0000                	unimp
  1048fc:	0000                	unimp
  1048fe:	0000                	unimp
  104900:	0000                	unimp
  104902:	0000                	unimp
  104904:	0000                	unimp
  104906:	0000                	unimp
  104908:	0000                	unimp
  10490a:	0000                	unimp
  10490c:	0000                	unimp
  10490e:	0000                	unimp
  104910:	0000                	unimp
  104912:	0000                	unimp
  104914:	0000                	unimp
  104916:	0000                	unimp
  104918:	0000                	unimp
  10491a:	0000                	unimp
  10491c:	0000                	unimp
  10491e:	0000                	unimp
  104920:	0000                	unimp
  104922:	0000                	unimp
  104924:	0000                	unimp
  104926:	0000                	unimp
  104928:	0000                	unimp
  10492a:	0000                	unimp
  10492c:	0000                	unimp
  10492e:	0000                	unimp
  104930:	0000                	unimp
  104932:	0000                	unimp
  104934:	0000                	unimp
  104936:	0000                	unimp

Disassembly of section .comment:

00000000 <.comment>:
   0:	3a434347          	fmsub.d	ft6,ft6,ft4,ft7,rmm
   4:	2820                	fld	fs0,80(s0)
   6:	2029                	jal	10 <entry+0x10>
   8:	2e38                	fld	fa4,88(a2)
   a:	00302e33          	sgtz	t3,gp

Disassembly of section .riscv.attributes:

00000000 <.riscv.attributes>:
   0:	1b41                	addi	s6,s6,-16
   2:	0000                	unimp
   4:	7200                	flw	fs0,32(a2)
   6:	7369                	lui	t1,0xffffa
   8:	01007663          	bgeu	zero,a6,14 <entry+0x14>
   c:	0011                	c.nop	4
   e:	0000                	unimp
  10:	1004                	addi	s1,sp,32
  12:	7205                	lui	tp,0xfffe1
  14:	3376                	fld	ft6,376(sp)
  16:	6932                	flw	fs2,12(sp)
  18:	7032                	flw	ft0,44(sp)
  1a:	0030                	addi	a2,sp,8
