
main.elf:     file format elf32-littleriscv


Disassembly of section .text:

00000000 <next>:
       0:	fe010113          	addi	sp,sp,-32
       4:	00112e23          	sw	ra,28(sp)
       8:	00812c23          	sw	s0,24(sp)
       c:	02010413          	addi	s0,sp,32
      10:	fea42623          	sw	a0,-20(s0)
      14:	fec42783          	lw	a5,-20(s0)
      18:	00178793          	addi	a5,a5,1
      1c:	02300593          	li	a1,35
      20:	00078513          	mv	a0,a5
      24:	644010ef          	jal	ra,1668 <__modsi3>
      28:	00050793          	mv	a5,a0
      2c:	00078513          	mv	a0,a5
      30:	01c12083          	lw	ra,28(sp)
      34:	01812403          	lw	s0,24(sp)
      38:	02010113          	addi	sp,sp,32
      3c:	00008067          	ret

00000040 <prev>:
      40:	fe010113          	addi	sp,sp,-32
      44:	00112e23          	sw	ra,28(sp)
      48:	00812c23          	sw	s0,24(sp)
      4c:	02010413          	addi	s0,sp,32
      50:	fea42623          	sw	a0,-20(s0)
      54:	fec42783          	lw	a5,-20(s0)
      58:	02278793          	addi	a5,a5,34
      5c:	02300593          	li	a1,35
      60:	00078513          	mv	a0,a5
      64:	604010ef          	jal	ra,1668 <__modsi3>
      68:	00050793          	mv	a5,a0
      6c:	00078513          	mv	a0,a5
      70:	01c12083          	lw	ra,28(sp)
      74:	01812403          	lw	s0,24(sp)
      78:	02010113          	addi	sp,sp,32
      7c:	00008067          	ret

00000080 <entry>:
      80:	ff010113          	addi	sp,sp,-16
      84:	00112623          	sw	ra,12(sp)
      88:	00812423          	sw	s0,8(sp)
      8c:	01010413          	addi	s0,sp,16
      90:	00120137          	lui	sp,0x120
      94:	ffc10113          	addi	sp,sp,-4 # 11fffc <_end+0x1e3fc>
      98:	124000ef          	jal	ra,1bc <main>
      9c:	00000013          	nop
      a0:	00c12083          	lw	ra,12(sp)
      a4:	00812403          	lw	s0,8(sp)
      a8:	01010113          	addi	sp,sp,16
      ac:	00008067          	ret

000000b0 <exec>:
      b0:	fe010113          	addi	sp,sp,-32
      b4:	00112e23          	sw	ra,28(sp)
      b8:	00812c23          	sw	s0,24(sp)
      bc:	02010413          	addi	s0,sp,32
      c0:	fea42623          	sw	a0,-20(s0)
      c4:	00400613          	li	a2,4
      c8:	00100597          	auipc	a1,0x100
      cc:	f4058593          	addi	a1,a1,-192 # 100008 <_etext+0xfe3ac>
      d0:	fec42503          	lw	a0,-20(s0)
      d4:	208010ef          	jal	ra,12dc <kstrncmp>
      d8:	00050793          	mv	a5,a0
      dc:	00079e63          	bnez	a5,f8 <exec+0x48>
      e0:	fec42783          	lw	a5,-20(s0)
      e4:	00578793          	addi	a5,a5,5
      e8:	00078513          	mv	a0,a5
      ec:	408000ef          	jal	ra,4f4 <exec_echo>
      f0:	00000793          	li	a5,0
      f4:	0b40006f          	j	1a8 <exec+0xf8>
      f8:	00300613          	li	a2,3
      fc:	00100597          	auipc	a1,0x100
     100:	f1458593          	addi	a1,a1,-236 # 100010 <_etext+0xfe3b4>
     104:	fec42503          	lw	a0,-20(s0)
     108:	1d4010ef          	jal	ra,12dc <kstrncmp>
     10c:	00050793          	mv	a5,a0
     110:	00079e63          	bnez	a5,12c <exec+0x7c>
     114:	fec42783          	lw	a5,-20(s0)
     118:	00478793          	addi	a5,a5,4
     11c:	00078513          	mv	a0,a5
     120:	4f5000ef          	jal	ra,e14 <exec_fib>
     124:	00000793          	li	a5,0
     128:	0800006f          	j	1a8 <exec+0xf8>
     12c:	00400613          	li	a2,4
     130:	00100597          	auipc	a1,0x100
     134:	ee458593          	addi	a1,a1,-284 # 100014 <_etext+0xfe3b8>
     138:	fec42503          	lw	a0,-20(s0)
     13c:	1a0010ef          	jal	ra,12dc <kstrncmp>
     140:	00050793          	mv	a5,a0
     144:	00079e63          	bnez	a5,160 <exec+0xb0>
     148:	fec42783          	lw	a5,-20(s0)
     14c:	00578793          	addi	a5,a5,5
     150:	00078513          	mv	a0,a5
     154:	429000ef          	jal	ra,d7c <exec_eval>
     158:	00000793          	li	a5,0
     15c:	04c0006f          	j	1a8 <exec+0xf8>
     160:	00500613          	li	a2,5
     164:	00100597          	auipc	a1,0x100
     168:	eb858593          	addi	a1,a1,-328 # 10001c <_etext+0xfe3c0>
     16c:	fec42503          	lw	a0,-20(s0)
     170:	16c010ef          	jal	ra,12dc <kstrncmp>
     174:	00050793          	mv	a5,a0
     178:	00079e63          	bnez	a5,194 <exec+0xe4>
     17c:	fec42783          	lw	a5,-20(s0)
     180:	00678793          	addi	a5,a5,6
     184:	00078513          	mv	a0,a5
     188:	340000ef          	jal	ra,4c8 <exec_clear>
     18c:	00000793          	li	a5,0
     190:	0180006f          	j	1a8 <exec+0xf8>
     194:	fec42583          	lw	a1,-20(s0)
     198:	00100517          	auipc	a0,0x100
     19c:	e8c50513          	addi	a0,a0,-372 # 100024 <_etext+0xfe3c8>
     1a0:	68d000ef          	jal	ra,102c <kprintf>
     1a4:	00100793          	li	a5,1
     1a8:	00078513          	mv	a0,a5
     1ac:	01c12083          	lw	ra,28(sp)
     1b0:	01812403          	lw	s0,24(sp)
     1b4:	02010113          	addi	sp,sp,32
     1b8:	00008067          	ret

000001bc <main>:
     1bc:	fd010113          	addi	sp,sp,-48
     1c0:	02112623          	sw	ra,44(sp)
     1c4:	02812423          	sw	s0,40(sp)
     1c8:	03010413          	addi	s0,sp,48
     1cc:	fe042623          	sw	zero,-20(s0)
     1d0:	fe042423          	sw	zero,-24(s0)
     1d4:	fc042e23          	sw	zero,-36(s0)
     1d8:	fe042223          	sw	zero,-28(s0)
     1dc:	4ec010ef          	jal	ra,16c8 <gettimeofday>
     1e0:	fea42023          	sw	a0,-32(s0)
     1e4:	57c010ef          	jal	ra,1760 <vga_init>
     1e8:	00100517          	auipc	a0,0x100
     1ec:	e5450513          	addi	a0,a0,-428 # 10003c <_etext+0xfe3e0>
     1f0:	1dd010ef          	jal	ra,1bcc <putstr>
     1f4:	4d4010ef          	jal	ra,16c8 <gettimeofday>
     1f8:	00050713          	mv	a4,a0
     1fc:	fe042783          	lw	a5,-32(s0)
     200:	40f70733          	sub	a4,a4,a5
     204:	3e800793          	li	a5,1000
     208:	00e7f863          	bgeu	a5,a4,218 <main+0x5c>
     20c:	4bc010ef          	jal	ra,16c8 <gettimeofday>
     210:	fea42023          	sw	a0,-32(s0)
     214:	688010ef          	jal	ra,189c <blink>
     218:	215010ef          	jal	ra,1c2c <readkey>
     21c:	00050793          	mv	a5,a0
     220:	fcf40da3          	sb	a5,-37(s0)
     224:	fdb44783          	lbu	a5,-37(s0)
     228:	0b800713          	li	a4,184
     22c:	02e78e63          	beq	a5,a4,268 <main+0xac>
     230:	0b800713          	li	a4,184
     234:	20f74a63          	blt	a4,a5,448 <main+0x28c>
     238:	0b200713          	li	a4,178
     23c:	26e78263          	beq	a5,a4,4a0 <main+0x2e4>
     240:	0b200713          	li	a4,178
     244:	20f74263          	blt	a4,a5,448 <main+0x28c>
     248:	00d00713          	li	a4,13
     24c:	12e78463          	beq	a5,a4,374 <main+0x1b8>
     250:	00d00713          	li	a4,13
     254:	1ef74a63          	blt	a4,a5,448 <main+0x28c>
     258:	24078863          	beqz	a5,4a8 <main+0x2ec>
     25c:	00800713          	li	a4,8
     260:	0ce78063          	beq	a5,a4,320 <main+0x164>
     264:	1e40006f          	j	448 <main+0x28c>
     268:	fe442703          	lw	a4,-28(s0)
     26c:	fe842783          	lw	a5,-24(s0)
     270:	24f70063          	beq	a4,a5,4b0 <main+0x2f4>
     274:	0180006f          	j	28c <main+0xd0>
     278:	00800513          	li	a0,8
     27c:	6b8010ef          	jal	ra,1934 <putch>
     280:	fec42783          	lw	a5,-20(s0)
     284:	fff78793          	addi	a5,a5,-1
     288:	fef42623          	sw	a5,-20(s0)
     28c:	fec42783          	lw	a5,-20(s0)
     290:	fe0794e3          	bnez	a5,278 <main+0xbc>
     294:	fe442503          	lw	a0,-28(s0)
     298:	da9ff0ef          	jal	ra,40 <prev>
     29c:	fea42223          	sw	a0,-28(s0)
     2a0:	0480006f          	j	2e8 <main+0x12c>
     2a4:	00101697          	auipc	a3,0x101
     2a8:	da468693          	addi	a3,a3,-604 # 101048 <cmd.0>
     2ac:	fe442703          	lw	a4,-28(s0)
     2b0:	00070793          	mv	a5,a4
     2b4:	00379793          	slli	a5,a5,0x3
     2b8:	40e787b3          	sub	a5,a5,a4
     2bc:	00379793          	slli	a5,a5,0x3
     2c0:	40e787b3          	sub	a5,a5,a4
     2c4:	00f68733          	add	a4,a3,a5
     2c8:	fec42783          	lw	a5,-20(s0)
     2cc:	00f707b3          	add	a5,a4,a5
     2d0:	0007c783          	lbu	a5,0(a5)
     2d4:	00078513          	mv	a0,a5
     2d8:	65c010ef          	jal	ra,1934 <putch>
     2dc:	fec42783          	lw	a5,-20(s0)
     2e0:	00178793          	addi	a5,a5,1
     2e4:	fef42623          	sw	a5,-20(s0)
     2e8:	00101697          	auipc	a3,0x101
     2ec:	d6068693          	addi	a3,a3,-672 # 101048 <cmd.0>
     2f0:	fe442703          	lw	a4,-28(s0)
     2f4:	00070793          	mv	a5,a4
     2f8:	00379793          	slli	a5,a5,0x3
     2fc:	40e787b3          	sub	a5,a5,a4
     300:	00379793          	slli	a5,a5,0x3
     304:	40e787b3          	sub	a5,a5,a4
     308:	00f68733          	add	a4,a3,a5
     30c:	fec42783          	lw	a5,-20(s0)
     310:	00f707b3          	add	a5,a4,a5
     314:	0007c783          	lbu	a5,0(a5)
     318:	f80796e3          	bnez	a5,2a4 <main+0xe8>
     31c:	1940006f          	j	4b0 <main+0x2f4>
     320:	fec42783          	lw	a5,-20(s0)
     324:	18078a63          	beqz	a5,4b8 <main+0x2fc>
     328:	fdb44783          	lbu	a5,-37(s0)
     32c:	00078513          	mv	a0,a5
     330:	604010ef          	jal	ra,1934 <putch>
     334:	00101697          	auipc	a3,0x101
     338:	d1468693          	addi	a3,a3,-748 # 101048 <cmd.0>
     33c:	fe442703          	lw	a4,-28(s0)
     340:	00070793          	mv	a5,a4
     344:	00379793          	slli	a5,a5,0x3
     348:	40e787b3          	sub	a5,a5,a4
     34c:	00379793          	slli	a5,a5,0x3
     350:	40e787b3          	sub	a5,a5,a4
     354:	00f68733          	add	a4,a3,a5
     358:	fec42783          	lw	a5,-20(s0)
     35c:	00f707b3          	add	a5,a4,a5
     360:	00078023          	sb	zero,0(a5)
     364:	fec42783          	lw	a5,-20(s0)
     368:	fff78793          	addi	a5,a5,-1
     36c:	fef42623          	sw	a5,-20(s0)
     370:	1480006f          	j	4b8 <main+0x2fc>
     374:	00d00513          	li	a0,13
     378:	5bc010ef          	jal	ra,1934 <putch>
     37c:	00101697          	auipc	a3,0x101
     380:	ccc68693          	addi	a3,a3,-820 # 101048 <cmd.0>
     384:	fe442703          	lw	a4,-28(s0)
     388:	00070793          	mv	a5,a4
     38c:	00379793          	slli	a5,a5,0x3
     390:	40e787b3          	sub	a5,a5,a4
     394:	00379793          	slli	a5,a5,0x3
     398:	40e787b3          	sub	a5,a5,a4
     39c:	00f68733          	add	a4,a3,a5
     3a0:	fec42783          	lw	a5,-20(s0)
     3a4:	00f707b3          	add	a5,a4,a5
     3a8:	00078023          	sb	zero,0(a5)
     3ac:	fe442703          	lw	a4,-28(s0)
     3b0:	00070793          	mv	a5,a4
     3b4:	00379793          	slli	a5,a5,0x3
     3b8:	40e787b3          	sub	a5,a5,a4
     3bc:	00379793          	slli	a5,a5,0x3
     3c0:	40e787b3          	sub	a5,a5,a4
     3c4:	00101717          	auipc	a4,0x101
     3c8:	c8470713          	addi	a4,a4,-892 # 101048 <cmd.0>
     3cc:	00e787b3          	add	a5,a5,a4
     3d0:	00078513          	mv	a0,a5
     3d4:	cddff0ef          	jal	ra,b0 <exec>
     3d8:	fe442503          	lw	a0,-28(s0)
     3dc:	c25ff0ef          	jal	ra,0 <next>
     3e0:	fea42223          	sw	a0,-28(s0)
     3e4:	fe442783          	lw	a5,-28(s0)
     3e8:	fcf42e23          	sw	a5,-36(s0)
     3ec:	fdc42703          	lw	a4,-36(s0)
     3f0:	fe842783          	lw	a5,-24(s0)
     3f4:	00f71863          	bne	a4,a5,404 <main+0x248>
     3f8:	fe842503          	lw	a0,-24(s0)
     3fc:	c05ff0ef          	jal	ra,0 <next>
     400:	fea42423          	sw	a0,-24(s0)
     404:	fe042623          	sw	zero,-20(s0)
     408:	00101697          	auipc	a3,0x101
     40c:	c4068693          	addi	a3,a3,-960 # 101048 <cmd.0>
     410:	fe442703          	lw	a4,-28(s0)
     414:	00070793          	mv	a5,a4
     418:	00379793          	slli	a5,a5,0x3
     41c:	40e787b3          	sub	a5,a5,a4
     420:	00379793          	slli	a5,a5,0x3
     424:	40e787b3          	sub	a5,a5,a4
     428:	00f68733          	add	a4,a3,a5
     42c:	fec42783          	lw	a5,-20(s0)
     430:	00f707b3          	add	a5,a4,a5
     434:	00078023          	sb	zero,0(a5)
     438:	00100517          	auipc	a0,0x100
     43c:	c0450513          	addi	a0,a0,-1020 # 10003c <_etext+0xfe3e0>
     440:	78c010ef          	jal	ra,1bcc <putstr>
     444:	0800006f          	j	4c4 <main+0x308>
     448:	fec42703          	lw	a4,-20(s0)
     44c:	01c00793          	li	a5,28
     450:	06e7c863          	blt	a5,a4,4c0 <main+0x304>
     454:	fdb44783          	lbu	a5,-37(s0)
     458:	00078513          	mv	a0,a5
     45c:	4d8010ef          	jal	ra,1934 <putch>
     460:	fec42683          	lw	a3,-20(s0)
     464:	00168793          	addi	a5,a3,1
     468:	fef42623          	sw	a5,-20(s0)
     46c:	00101617          	auipc	a2,0x101
     470:	bdc60613          	addi	a2,a2,-1060 # 101048 <cmd.0>
     474:	fe442703          	lw	a4,-28(s0)
     478:	00070793          	mv	a5,a4
     47c:	00379793          	slli	a5,a5,0x3
     480:	40e787b3          	sub	a5,a5,a4
     484:	00379793          	slli	a5,a5,0x3
     488:	40e787b3          	sub	a5,a5,a4
     48c:	00f607b3          	add	a5,a2,a5
     490:	00d787b3          	add	a5,a5,a3
     494:	fdb44703          	lbu	a4,-37(s0)
     498:	00e78023          	sb	a4,0(a5)
     49c:	0240006f          	j	4c0 <main+0x304>
     4a0:	00000013          	nop
     4a4:	d51ff06f          	j	1f4 <main+0x38>
     4a8:	00000013          	nop
     4ac:	d49ff06f          	j	1f4 <main+0x38>
     4b0:	00000013          	nop
     4b4:	d41ff06f          	j	1f4 <main+0x38>
     4b8:	00000013          	nop
     4bc:	d39ff06f          	j	1f4 <main+0x38>
     4c0:	00000013          	nop
     4c4:	d31ff06f          	j	1f4 <main+0x38>

000004c8 <exec_clear>:
     4c8:	fe010113          	addi	sp,sp,-32
     4cc:	00112e23          	sw	ra,28(sp)
     4d0:	00812c23          	sw	s0,24(sp)
     4d4:	02010413          	addi	s0,sp,32
     4d8:	fea42623          	sw	a0,-20(s0)
     4dc:	284010ef          	jal	ra,1760 <vga_init>
     4e0:	00000013          	nop
     4e4:	01c12083          	lw	ra,28(sp)
     4e8:	01812403          	lw	s0,24(sp)
     4ec:	02010113          	addi	sp,sp,32
     4f0:	00008067          	ret

000004f4 <exec_echo>:
     4f4:	fe010113          	addi	sp,sp,-32
     4f8:	00112e23          	sw	ra,28(sp)
     4fc:	00812c23          	sw	s0,24(sp)
     500:	02010413          	addi	s0,sp,32
     504:	fea42623          	sw	a0,-20(s0)
     508:	0100006f          	j	518 <exec_echo+0x24>
     50c:	fec42783          	lw	a5,-20(s0)
     510:	00178793          	addi	a5,a5,1
     514:	fef42623          	sw	a5,-20(s0)
     518:	fec42783          	lw	a5,-20(s0)
     51c:	0007c703          	lbu	a4,0(a5)
     520:	02000793          	li	a5,32
     524:	fef704e3          	beq	a4,a5,50c <exec_echo+0x18>
     528:	fec42503          	lw	a0,-20(s0)
     52c:	6a0010ef          	jal	ra,1bcc <putstr>
     530:	00a00513          	li	a0,10
     534:	400010ef          	jal	ra,1934 <putch>
     538:	00000013          	nop
     53c:	01c12083          	lw	ra,28(sp)
     540:	01812403          	lw	s0,24(sp)
     544:	02010113          	addi	sp,sp,32
     548:	00008067          	ret

0000054c <next_bracket>:
     54c:	fd010113          	addi	sp,sp,-48
     550:	02812623          	sw	s0,44(sp)
     554:	03010413          	addi	s0,sp,48
     558:	fca42e23          	sw	a0,-36(s0)
     55c:	00100793          	li	a5,1
     560:	fef42623          	sw	a5,-20(s0)
     564:	fdc42783          	lw	a5,-36(s0)
     568:	00178793          	addi	a5,a5,1
     56c:	fcf42e23          	sw	a5,-36(s0)
     570:	0980006f          	j	608 <next_bracket+0xbc>
     574:	00100697          	auipc	a3,0x100
     578:	ee068693          	addi	a3,a3,-288 # 100454 <tokens>
     57c:	fdc42703          	lw	a4,-36(s0)
     580:	00070793          	mv	a5,a4
     584:	00179793          	slli	a5,a5,0x1
     588:	00e787b3          	add	a5,a5,a4
     58c:	00279793          	slli	a5,a5,0x2
     590:	00f687b3          	add	a5,a3,a5
     594:	0007a703          	lw	a4,0(a5)
     598:	00100793          	li	a5,1
     59c:	04f71e63          	bne	a4,a5,5f8 <next_bracket+0xac>
     5a0:	00100697          	auipc	a3,0x100
     5a4:	eb468693          	addi	a3,a3,-332 # 100454 <tokens>
     5a8:	fdc42703          	lw	a4,-36(s0)
     5ac:	00070793          	mv	a5,a4
     5b0:	00179793          	slli	a5,a5,0x1
     5b4:	00e787b3          	add	a5,a5,a4
     5b8:	00279793          	slli	a5,a5,0x2
     5bc:	00f687b3          	add	a5,a3,a5
     5c0:	0047a783          	lw	a5,4(a5)
     5c4:	02800713          	li	a4,40
     5c8:	00e78863          	beq	a5,a4,5d8 <next_bracket+0x8c>
     5cc:	02900713          	li	a4,41
     5d0:	00e78c63          	beq	a5,a4,5e8 <next_bracket+0x9c>
     5d4:	0280006f          	j	5fc <next_bracket+0xb0>
     5d8:	fec42783          	lw	a5,-20(s0)
     5dc:	00178793          	addi	a5,a5,1
     5e0:	fef42623          	sw	a5,-20(s0)
     5e4:	0180006f          	j	5fc <next_bracket+0xb0>
     5e8:	fec42783          	lw	a5,-20(s0)
     5ec:	fff78793          	addi	a5,a5,-1
     5f0:	fef42623          	sw	a5,-20(s0)
     5f4:	0080006f          	j	5fc <next_bracket+0xb0>
     5f8:	00000013          	nop
     5fc:	fdc42783          	lw	a5,-36(s0)
     600:	00178793          	addi	a5,a5,1
     604:	fcf42e23          	sw	a5,-36(s0)
     608:	fec42783          	lw	a5,-20(s0)
     60c:	f60794e3          	bnez	a5,574 <next_bracket+0x28>
     610:	fdc42783          	lw	a5,-36(s0)
     614:	00078513          	mv	a0,a5
     618:	02c12403          	lw	s0,44(sp)
     61c:	03010113          	addi	sp,sp,48
     620:	00008067          	ret

00000624 <LB>:
     624:	ff010113          	addi	sp,sp,-16
     628:	00812623          	sw	s0,12(sp)
     62c:	00912423          	sw	s1,8(sp)
     630:	01010413          	addi	s0,sp,16
     634:	00050493          	mv	s1,a0
     638:	0004a703          	lw	a4,0(s1)
     63c:	00100793          	li	a5,1
     640:	00f71c63          	bne	a4,a5,658 <LB+0x34>
     644:	0044a703          	lw	a4,4(s1)
     648:	02800793          	li	a5,40
     64c:	00f71663          	bne	a4,a5,658 <LB+0x34>
     650:	00100793          	li	a5,1
     654:	0080006f          	j	65c <LB+0x38>
     658:	00000793          	li	a5,0
     65c:	00078513          	mv	a0,a5
     660:	00c12403          	lw	s0,12(sp)
     664:	00812483          	lw	s1,8(sp)
     668:	01010113          	addi	sp,sp,16
     66c:	00008067          	ret

00000670 <RB>:
     670:	ff010113          	addi	sp,sp,-16
     674:	00812623          	sw	s0,12(sp)
     678:	00912423          	sw	s1,8(sp)
     67c:	01010413          	addi	s0,sp,16
     680:	00050493          	mv	s1,a0
     684:	0004a703          	lw	a4,0(s1)
     688:	00100793          	li	a5,1
     68c:	00f71c63          	bne	a4,a5,6a4 <RB+0x34>
     690:	0044a703          	lw	a4,4(s1)
     694:	02900793          	li	a5,41
     698:	00f71663          	bne	a4,a5,6a4 <RB+0x34>
     69c:	00100793          	li	a5,1
     6a0:	0080006f          	j	6a8 <RB+0x38>
     6a4:	00000793          	li	a5,0
     6a8:	00078513          	mv	a0,a5
     6ac:	00c12403          	lw	s0,12(sp)
     6b0:	00812483          	lw	s1,8(sp)
     6b4:	01010113          	addi	sp,sp,16
     6b8:	00008067          	ret

000006bc <ksm>:
     6bc:	fd010113          	addi	sp,sp,-48
     6c0:	02112623          	sw	ra,44(sp)
     6c4:	02812423          	sw	s0,40(sp)
     6c8:	03010413          	addi	s0,sp,48
     6cc:	fca42e23          	sw	a0,-36(s0)
     6d0:	fcb42c23          	sw	a1,-40(s0)
     6d4:	00100793          	li	a5,1
     6d8:	fef42623          	sw	a5,-20(s0)
     6dc:	0180006f          	j	6f4 <ksm+0x38>
     6e0:	fdc42583          	lw	a1,-36(s0)
     6e4:	fec42503          	lw	a0,-20(s0)
     6e8:	4d9000ef          	jal	ra,13c0 <__mulsi3>
     6ec:	00050793          	mv	a5,a0
     6f0:	fef42623          	sw	a5,-20(s0)
     6f4:	fd842783          	lw	a5,-40(s0)
     6f8:	fff78713          	addi	a4,a5,-1
     6fc:	fce42c23          	sw	a4,-40(s0)
     700:	fe0790e3          	bnez	a5,6e0 <ksm+0x24>
     704:	fec42783          	lw	a5,-20(s0)
     708:	00078513          	mv	a0,a5
     70c:	02c12083          	lw	ra,44(sp)
     710:	02812403          	lw	s0,40(sp)
     714:	03010113          	addi	sp,sp,48
     718:	00008067          	ret

0000071c <eval>:
     71c:	fc010113          	addi	sp,sp,-64
     720:	02112e23          	sw	ra,60(sp)
     724:	02812c23          	sw	s0,56(sp)
     728:	04010413          	addi	s0,sp,64
     72c:	fca42e23          	sw	a0,-36(s0)
     730:	fcb42c23          	sw	a1,-40(s0)
     734:	fd842703          	lw	a4,-40(s0)
     738:	fdc42783          	lw	a5,-36(s0)
     73c:	00e7c663          	blt	a5,a4,748 <eval+0x2c>
     740:	00000793          	li	a5,0
     744:	3a80006f          	j	aec <eval+0x3d0>
     748:	fdc42783          	lw	a5,-36(s0)
     74c:	00178793          	addi	a5,a5,1
     750:	fd842703          	lw	a4,-40(s0)
     754:	02f71663          	bne	a4,a5,780 <eval+0x64>
     758:	00100697          	auipc	a3,0x100
     75c:	cfc68693          	addi	a3,a3,-772 # 100454 <tokens>
     760:	fdc42703          	lw	a4,-36(s0)
     764:	00070793          	mv	a5,a4
     768:	00179793          	slli	a5,a5,0x1
     76c:	00e787b3          	add	a5,a5,a4
     770:	00279793          	slli	a5,a5,0x2
     774:	00f687b3          	add	a5,a3,a5
     778:	0087a783          	lw	a5,8(a5)
     77c:	3700006f          	j	aec <eval+0x3d0>
     780:	00100697          	auipc	a3,0x100
     784:	cd468693          	addi	a3,a3,-812 # 100454 <tokens>
     788:	fdc42703          	lw	a4,-36(s0)
     78c:	00070793          	mv	a5,a4
     790:	00179793          	slli	a5,a5,0x1
     794:	00e787b3          	add	a5,a5,a4
     798:	00279793          	slli	a5,a5,0x2
     79c:	00f687b3          	add	a5,a3,a5
     7a0:	0007a703          	lw	a4,0(a5)
     7a4:	fce42023          	sw	a4,-64(s0)
     7a8:	0047a703          	lw	a4,4(a5)
     7ac:	fce42223          	sw	a4,-60(s0)
     7b0:	0087a783          	lw	a5,8(a5)
     7b4:	fcf42423          	sw	a5,-56(s0)
     7b8:	fc040793          	addi	a5,s0,-64
     7bc:	00078513          	mv	a0,a5
     7c0:	e65ff0ef          	jal	ra,624 <LB>
     7c4:	00050793          	mv	a5,a0
     7c8:	06078c63          	beqz	a5,840 <eval+0x124>
     7cc:	fd842783          	lw	a5,-40(s0)
     7d0:	fff78713          	addi	a4,a5,-1
     7d4:	00100697          	auipc	a3,0x100
     7d8:	c8068693          	addi	a3,a3,-896 # 100454 <tokens>
     7dc:	00070793          	mv	a5,a4
     7e0:	00179793          	slli	a5,a5,0x1
     7e4:	00e787b3          	add	a5,a5,a4
     7e8:	00279793          	slli	a5,a5,0x2
     7ec:	00f687b3          	add	a5,a3,a5
     7f0:	0007a703          	lw	a4,0(a5)
     7f4:	fce42023          	sw	a4,-64(s0)
     7f8:	0047a703          	lw	a4,4(a5)
     7fc:	fce42223          	sw	a4,-60(s0)
     800:	0087a783          	lw	a5,8(a5)
     804:	fcf42423          	sw	a5,-56(s0)
     808:	fc040793          	addi	a5,s0,-64
     80c:	00078513          	mv	a0,a5
     810:	e61ff0ef          	jal	ra,670 <RB>
     814:	00050793          	mv	a5,a0
     818:	02078463          	beqz	a5,840 <eval+0x124>
     81c:	fdc42783          	lw	a5,-36(s0)
     820:	00178713          	addi	a4,a5,1
     824:	fd842783          	lw	a5,-40(s0)
     828:	fff78793          	addi	a5,a5,-1
     82c:	00078593          	mv	a1,a5
     830:	00070513          	mv	a0,a4
     834:	ee9ff0ef          	jal	ra,71c <eval>
     838:	00050793          	mv	a5,a0
     83c:	2b00006f          	j	aec <eval+0x3d0>
     840:	fdc42783          	lw	a5,-36(s0)
     844:	fef42623          	sw	a5,-20(s0)
     848:	fff00793          	li	a5,-1
     84c:	fef42423          	sw	a5,-24(s0)
     850:	1980006f          	j	9e8 <eval+0x2cc>
     854:	00100697          	auipc	a3,0x100
     858:	c0068693          	addi	a3,a3,-1024 # 100454 <tokens>
     85c:	fec42703          	lw	a4,-20(s0)
     860:	00070793          	mv	a5,a4
     864:	00179793          	slli	a5,a5,0x1
     868:	00e787b3          	add	a5,a5,a4
     86c:	00279793          	slli	a5,a5,0x2
     870:	00f687b3          	add	a5,a3,a5
     874:	0007a703          	lw	a4,0(a5)
     878:	fce42023          	sw	a4,-64(s0)
     87c:	0047a703          	lw	a4,4(a5)
     880:	fce42223          	sw	a4,-60(s0)
     884:	0087a783          	lw	a5,8(a5)
     888:	fcf42423          	sw	a5,-56(s0)
     88c:	fc040793          	addi	a5,s0,-64
     890:	00078513          	mv	a0,a5
     894:	d91ff0ef          	jal	ra,624 <LB>
     898:	00050793          	mv	a5,a0
     89c:	00078e63          	beqz	a5,8b8 <eval+0x19c>
     8a0:	fec42503          	lw	a0,-20(s0)
     8a4:	ca9ff0ef          	jal	ra,54c <next_bracket>
     8a8:	fea42623          	sw	a0,-20(s0)
     8ac:	fec42703          	lw	a4,-20(s0)
     8b0:	fd842783          	lw	a5,-40(s0)
     8b4:	14f70263          	beq	a4,a5,9f8 <eval+0x2dc>
     8b8:	00100697          	auipc	a3,0x100
     8bc:	b9c68693          	addi	a3,a3,-1124 # 100454 <tokens>
     8c0:	fec42703          	lw	a4,-20(s0)
     8c4:	00070793          	mv	a5,a4
     8c8:	00179793          	slli	a5,a5,0x1
     8cc:	00e787b3          	add	a5,a5,a4
     8d0:	00279793          	slli	a5,a5,0x2
     8d4:	00f687b3          	add	a5,a3,a5
     8d8:	0007a783          	lw	a5,0(a5)
     8dc:	0e078e63          	beqz	a5,9d8 <eval+0x2bc>
     8e0:	fe842703          	lw	a4,-24(s0)
     8e4:	fff00793          	li	a5,-1
     8e8:	06f70c63          	beq	a4,a5,960 <eval+0x244>
     8ec:	00100697          	auipc	a3,0x100
     8f0:	b6868693          	addi	a3,a3,-1176 # 100454 <tokens>
     8f4:	fec42703          	lw	a4,-20(s0)
     8f8:	00070793          	mv	a5,a4
     8fc:	00179793          	slli	a5,a5,0x1
     900:	00e787b3          	add	a5,a5,a4
     904:	00279793          	slli	a5,a5,0x2
     908:	00f687b3          	add	a5,a3,a5
     90c:	0047a783          	lw	a5,4(a5)
     910:	000ff717          	auipc	a4,0xff
     914:	73470713          	addi	a4,a4,1844 # 100044 <prior>
     918:	00279793          	slli	a5,a5,0x2
     91c:	00f707b3          	add	a5,a4,a5
     920:	0007a683          	lw	a3,0(a5)
     924:	00100617          	auipc	a2,0x100
     928:	b3060613          	addi	a2,a2,-1232 # 100454 <tokens>
     92c:	fe842703          	lw	a4,-24(s0)
     930:	00070793          	mv	a5,a4
     934:	00179793          	slli	a5,a5,0x1
     938:	00e787b3          	add	a5,a5,a4
     93c:	00279793          	slli	a5,a5,0x2
     940:	00f607b3          	add	a5,a2,a5
     944:	0047a783          	lw	a5,4(a5)
     948:	000ff717          	auipc	a4,0xff
     94c:	6fc70713          	addi	a4,a4,1788 # 100044 <prior>
     950:	00279793          	slli	a5,a5,0x2
     954:	00f707b3          	add	a5,a4,a5
     958:	0007a783          	lw	a5,0(a5)
     95c:	00f6d663          	bge	a3,a5,968 <eval+0x24c>
     960:	fec42783          	lw	a5,-20(s0)
     964:	fef42423          	sw	a5,-24(s0)
     968:	fe842703          	lw	a4,-24(s0)
     96c:	fff00793          	li	a5,-1
     970:	06f70663          	beq	a4,a5,9dc <eval+0x2c0>
     974:	00100697          	auipc	a3,0x100
     978:	ae068693          	addi	a3,a3,-1312 # 100454 <tokens>
     97c:	fe842703          	lw	a4,-24(s0)
     980:	00070793          	mv	a5,a4
     984:	00179793          	slli	a5,a5,0x1
     988:	00e787b3          	add	a5,a5,a4
     98c:	00279793          	slli	a5,a5,0x2
     990:	00f687b3          	add	a5,a3,a5
     994:	0047a703          	lw	a4,4(a5)
     998:	02d00793          	li	a5,45
     99c:	04f71063          	bne	a4,a5,9dc <eval+0x2c0>
     9a0:	00100697          	auipc	a3,0x100
     9a4:	ab468693          	addi	a3,a3,-1356 # 100454 <tokens>
     9a8:	fec42703          	lw	a4,-20(s0)
     9ac:	00070793          	mv	a5,a4
     9b0:	00179793          	slli	a5,a5,0x1
     9b4:	00e787b3          	add	a5,a5,a4
     9b8:	00279793          	slli	a5,a5,0x2
     9bc:	00f687b3          	add	a5,a3,a5
     9c0:	0047a703          	lw	a4,4(a5)
     9c4:	02b00793          	li	a5,43
     9c8:	00f71a63          	bne	a4,a5,9dc <eval+0x2c0>
     9cc:	fec42783          	lw	a5,-20(s0)
     9d0:	fef42423          	sw	a5,-24(s0)
     9d4:	0080006f          	j	9dc <eval+0x2c0>
     9d8:	00000013          	nop
     9dc:	fec42783          	lw	a5,-20(s0)
     9e0:	00178793          	addi	a5,a5,1
     9e4:	fef42623          	sw	a5,-20(s0)
     9e8:	fec42703          	lw	a4,-20(s0)
     9ec:	fd842783          	lw	a5,-40(s0)
     9f0:	e6f712e3          	bne	a4,a5,854 <eval+0x138>
     9f4:	0080006f          	j	9fc <eval+0x2e0>
     9f8:	00000013          	nop
     9fc:	fe842583          	lw	a1,-24(s0)
     a00:	fdc42503          	lw	a0,-36(s0)
     a04:	d19ff0ef          	jal	ra,71c <eval>
     a08:	fea42223          	sw	a0,-28(s0)
     a0c:	fe842783          	lw	a5,-24(s0)
     a10:	00178793          	addi	a5,a5,1
     a14:	fd842583          	lw	a1,-40(s0)
     a18:	00078513          	mv	a0,a5
     a1c:	d01ff0ef          	jal	ra,71c <eval>
     a20:	fea42023          	sw	a0,-32(s0)
     a24:	00100697          	auipc	a3,0x100
     a28:	a3068693          	addi	a3,a3,-1488 # 100454 <tokens>
     a2c:	fe842703          	lw	a4,-24(s0)
     a30:	00070793          	mv	a5,a4
     a34:	00179793          	slli	a5,a5,0x1
     a38:	00e787b3          	add	a5,a5,a4
     a3c:	00279793          	slli	a5,a5,0x2
     a40:	00f687b3          	add	a5,a3,a5
     a44:	0047a783          	lw	a5,4(a5)
     a48:	05e00713          	li	a4,94
     a4c:	04e78063          	beq	a5,a4,a8c <eval+0x370>
     a50:	05e00713          	li	a4,94
     a54:	08f74a63          	blt	a4,a5,ae8 <eval+0x3cc>
     a58:	02f00713          	li	a4,47
     a5c:	04e78c63          	beq	a5,a4,ab4 <eval+0x398>
     a60:	02f00713          	li	a4,47
     a64:	08f74263          	blt	a4,a5,ae8 <eval+0x3cc>
     a68:	02d00713          	li	a4,45
     a6c:	06e78663          	beq	a5,a4,ad8 <eval+0x3bc>
     a70:	02d00713          	li	a4,45
     a74:	06f74a63          	blt	a4,a5,ae8 <eval+0x3cc>
     a78:	02a00713          	li	a4,42
     a7c:	02e78263          	beq	a5,a4,aa0 <eval+0x384>
     a80:	02b00713          	li	a4,43
     a84:	04e78263          	beq	a5,a4,ac8 <eval+0x3ac>
     a88:	0600006f          	j	ae8 <eval+0x3cc>
     a8c:	fe042583          	lw	a1,-32(s0)
     a90:	fe442503          	lw	a0,-28(s0)
     a94:	c29ff0ef          	jal	ra,6bc <ksm>
     a98:	00050793          	mv	a5,a0
     a9c:	0500006f          	j	aec <eval+0x3d0>
     aa0:	fe042583          	lw	a1,-32(s0)
     aa4:	fe442503          	lw	a0,-28(s0)
     aa8:	119000ef          	jal	ra,13c0 <__mulsi3>
     aac:	00050793          	mv	a5,a0
     ab0:	03c0006f          	j	aec <eval+0x3d0>
     ab4:	fe042583          	lw	a1,-32(s0)
     ab8:	fe442503          	lw	a0,-28(s0)
     abc:	2e9000ef          	jal	ra,15a4 <__divsi3>
     ac0:	00050793          	mv	a5,a0
     ac4:	0280006f          	j	aec <eval+0x3d0>
     ac8:	fe442703          	lw	a4,-28(s0)
     acc:	fe042783          	lw	a5,-32(s0)
     ad0:	00f707b3          	add	a5,a4,a5
     ad4:	0180006f          	j	aec <eval+0x3d0>
     ad8:	fe442703          	lw	a4,-28(s0)
     adc:	fe042783          	lw	a5,-32(s0)
     ae0:	40f707b3          	sub	a5,a4,a5
     ae4:	0080006f          	j	aec <eval+0x3d0>
     ae8:	00000793          	li	a5,0
     aec:	00078513          	mv	a0,a5
     af0:	03c12083          	lw	ra,60(sp)
     af4:	03812403          	lw	s0,56(sp)
     af8:	04010113          	addi	sp,sp,64
     afc:	00008067          	ret

00000b00 <parse>:
     b00:	fa010113          	addi	sp,sp,-96
     b04:	04812e23          	sw	s0,92(sp)
     b08:	06010413          	addi	s0,sp,96
     b0c:	faa42623          	sw	a0,-84(s0)
     b10:	fab42423          	sw	a1,-88(s0)
     b14:	fe042623          	sw	zero,-20(s0)
     b18:	fe042423          	sw	zero,-24(s0)
     b1c:	fac42783          	lw	a5,-84(s0)
     b20:	fef42223          	sw	a5,-28(s0)
     b24:	1a80006f          	j	ccc <parse+0x1cc>
     b28:	fe442783          	lw	a5,-28(s0)
     b2c:	0007c783          	lbu	a5,0(a5)
     b30:	fef401a3          	sb	a5,-29(s0)
     b34:	fe344703          	lbu	a4,-29(s0)
     b38:	02f00793          	li	a5,47
     b3c:	04e7f263          	bgeu	a5,a4,b80 <parse+0x80>
     b40:	fe344703          	lbu	a4,-29(s0)
     b44:	03900793          	li	a5,57
     b48:	02e7ec63          	bltu	a5,a4,b80 <parse+0x80>
     b4c:	fec42703          	lw	a4,-20(s0)
     b50:	00070793          	mv	a5,a4
     b54:	00279793          	slli	a5,a5,0x2
     b58:	00e787b3          	add	a5,a5,a4
     b5c:	00179793          	slli	a5,a5,0x1
     b60:	00078713          	mv	a4,a5
     b64:	fe344783          	lbu	a5,-29(s0)
     b68:	00f707b3          	add	a5,a4,a5
     b6c:	fd078793          	addi	a5,a5,-48
     b70:	fef42623          	sw	a5,-20(s0)
     b74:	00100793          	li	a5,1
     b78:	fef42423          	sw	a5,-24(s0)
     b7c:	1440006f          	j	cc0 <parse+0x1c0>
     b80:	fe842783          	lw	a5,-24(s0)
     b84:	08078863          	beqz	a5,c14 <parse+0x114>
     b88:	00101797          	auipc	a5,0x101
     b8c:	c4878793          	addi	a5,a5,-952 # 1017d0 <ntok>
     b90:	0007a703          	lw	a4,0(a5)
     b94:	00170693          	addi	a3,a4,1
     b98:	00101797          	auipc	a5,0x101
     b9c:	c3878793          	addi	a5,a5,-968 # 1017d0 <ntok>
     ba0:	00d7a023          	sw	a3,0(a5)
     ba4:	00100697          	auipc	a3,0x100
     ba8:	8b068693          	addi	a3,a3,-1872 # 100454 <tokens>
     bac:	00070793          	mv	a5,a4
     bb0:	00179793          	slli	a5,a5,0x1
     bb4:	00e787b3          	add	a5,a5,a4
     bb8:	00279793          	slli	a5,a5,0x2
     bbc:	00f687b3          	add	a5,a3,a5
     bc0:	0007a023          	sw	zero,0(a5)
     bc4:	00100697          	auipc	a3,0x100
     bc8:	89068693          	addi	a3,a3,-1904 # 100454 <tokens>
     bcc:	00070793          	mv	a5,a4
     bd0:	00179793          	slli	a5,a5,0x1
     bd4:	00e787b3          	add	a5,a5,a4
     bd8:	00279793          	slli	a5,a5,0x2
     bdc:	00f687b3          	add	a5,a3,a5
     be0:	fff00693          	li	a3,-1
     be4:	00d7a223          	sw	a3,4(a5)
     be8:	00100697          	auipc	a3,0x100
     bec:	86c68693          	addi	a3,a3,-1940 # 100454 <tokens>
     bf0:	00070793          	mv	a5,a4
     bf4:	00179793          	slli	a5,a5,0x1
     bf8:	00e787b3          	add	a5,a5,a4
     bfc:	00279793          	slli	a5,a5,0x2
     c00:	00f687b3          	add	a5,a3,a5
     c04:	fec42703          	lw	a4,-20(s0)
     c08:	00e7a423          	sw	a4,8(a5)
     c0c:	fe042623          	sw	zero,-20(s0)
     c10:	fe042423          	sw	zero,-24(s0)
     c14:	fe344703          	lbu	a4,-29(s0)
     c18:	02000793          	li	a5,32
     c1c:	0af70263          	beq	a4,a5,cc0 <parse+0x1c0>
     c20:	fe344703          	lbu	a4,-29(s0)
     c24:	00a00793          	li	a5,10
     c28:	08f70c63          	beq	a4,a5,cc0 <parse+0x1c0>
     c2c:	fe344703          	lbu	a4,-29(s0)
     c30:	00900793          	li	a5,9
     c34:	08f70663          	beq	a4,a5,cc0 <parse+0x1c0>
     c38:	00101797          	auipc	a5,0x101
     c3c:	b9878793          	addi	a5,a5,-1128 # 1017d0 <ntok>
     c40:	0007a703          	lw	a4,0(a5)
     c44:	00170693          	addi	a3,a4,1
     c48:	00101797          	auipc	a5,0x101
     c4c:	b8878793          	addi	a5,a5,-1144 # 1017d0 <ntok>
     c50:	00d7a023          	sw	a3,0(a5)
     c54:	fe344683          	lbu	a3,-29(s0)
     c58:	000ff617          	auipc	a2,0xff
     c5c:	7fc60613          	addi	a2,a2,2044 # 100454 <tokens>
     c60:	00070793          	mv	a5,a4
     c64:	00179793          	slli	a5,a5,0x1
     c68:	00e787b3          	add	a5,a5,a4
     c6c:	00279793          	slli	a5,a5,0x2
     c70:	00f607b3          	add	a5,a2,a5
     c74:	00100613          	li	a2,1
     c78:	00c7a023          	sw	a2,0(a5)
     c7c:	000ff617          	auipc	a2,0xff
     c80:	7d860613          	addi	a2,a2,2008 # 100454 <tokens>
     c84:	00070793          	mv	a5,a4
     c88:	00179793          	slli	a5,a5,0x1
     c8c:	00e787b3          	add	a5,a5,a4
     c90:	00279793          	slli	a5,a5,0x2
     c94:	00f607b3          	add	a5,a2,a5
     c98:	00d7a223          	sw	a3,4(a5)
     c9c:	000ff697          	auipc	a3,0xff
     ca0:	7b868693          	addi	a3,a3,1976 # 100454 <tokens>
     ca4:	00070793          	mv	a5,a4
     ca8:	00179793          	slli	a5,a5,0x1
     cac:	00e787b3          	add	a5,a5,a4
     cb0:	00279793          	slli	a5,a5,0x2
     cb4:	00f687b3          	add	a5,a3,a5
     cb8:	fff00713          	li	a4,-1
     cbc:	00e7a423          	sw	a4,8(a5)
     cc0:	fe442783          	lw	a5,-28(s0)
     cc4:	00178793          	addi	a5,a5,1
     cc8:	fef42223          	sw	a5,-28(s0)
     ccc:	fa842783          	lw	a5,-88(s0)
     cd0:	fac42703          	lw	a4,-84(s0)
     cd4:	00f707b3          	add	a5,a4,a5
     cd8:	fe442703          	lw	a4,-28(s0)
     cdc:	e4f716e3          	bne	a4,a5,b28 <parse+0x28>
     ce0:	fe842783          	lw	a5,-24(s0)
     ce4:	08078463          	beqz	a5,d6c <parse+0x26c>
     ce8:	00101797          	auipc	a5,0x101
     cec:	ae878793          	addi	a5,a5,-1304 # 1017d0 <ntok>
     cf0:	0007a703          	lw	a4,0(a5)
     cf4:	00170693          	addi	a3,a4,1
     cf8:	00101797          	auipc	a5,0x101
     cfc:	ad878793          	addi	a5,a5,-1320 # 1017d0 <ntok>
     d00:	00d7a023          	sw	a3,0(a5)
     d04:	000ff697          	auipc	a3,0xff
     d08:	75068693          	addi	a3,a3,1872 # 100454 <tokens>
     d0c:	00070793          	mv	a5,a4
     d10:	00179793          	slli	a5,a5,0x1
     d14:	00e787b3          	add	a5,a5,a4
     d18:	00279793          	slli	a5,a5,0x2
     d1c:	00f687b3          	add	a5,a3,a5
     d20:	0007a023          	sw	zero,0(a5)
     d24:	000ff697          	auipc	a3,0xff
     d28:	73068693          	addi	a3,a3,1840 # 100454 <tokens>
     d2c:	00070793          	mv	a5,a4
     d30:	00179793          	slli	a5,a5,0x1
     d34:	00e787b3          	add	a5,a5,a4
     d38:	00279793          	slli	a5,a5,0x2
     d3c:	00f687b3          	add	a5,a3,a5
     d40:	fff00693          	li	a3,-1
     d44:	00d7a223          	sw	a3,4(a5)
     d48:	000ff697          	auipc	a3,0xff
     d4c:	70c68693          	addi	a3,a3,1804 # 100454 <tokens>
     d50:	00070793          	mv	a5,a4
     d54:	00179793          	slli	a5,a5,0x1
     d58:	00e787b3          	add	a5,a5,a4
     d5c:	00279793          	slli	a5,a5,0x2
     d60:	00f687b3          	add	a5,a3,a5
     d64:	fec42703          	lw	a4,-20(s0)
     d68:	00e7a423          	sw	a4,8(a5)
     d6c:	00000013          	nop
     d70:	05c12403          	lw	s0,92(sp)
     d74:	06010113          	addi	sp,sp,96
     d78:	00008067          	ret

00000d7c <exec_eval>:
     d7c:	fe010113          	addi	sp,sp,-32
     d80:	00112e23          	sw	ra,28(sp)
     d84:	00812c23          	sw	s0,24(sp)
     d88:	02010413          	addi	s0,sp,32
     d8c:	fea42623          	sw	a0,-20(s0)
     d90:	0100006f          	j	da0 <exec_eval+0x24>
     d94:	fec42783          	lw	a5,-20(s0)
     d98:	00178793          	addi	a5,a5,1
     d9c:	fef42623          	sw	a5,-20(s0)
     da0:	fec42783          	lw	a5,-20(s0)
     da4:	0007c703          	lbu	a4,0(a5)
     da8:	02000793          	li	a5,32
     dac:	fef704e3          	beq	a4,a5,d94 <exec_eval+0x18>
     db0:	00101797          	auipc	a5,0x101
     db4:	a2078793          	addi	a5,a5,-1504 # 1017d0 <ntok>
     db8:	0007a023          	sw	zero,0(a5)
     dbc:	fec42503          	lw	a0,-20(s0)
     dc0:	418000ef          	jal	ra,11d8 <kstrlen>
     dc4:	00050793          	mv	a5,a0
     dc8:	00078593          	mv	a1,a5
     dcc:	fec42503          	lw	a0,-20(s0)
     dd0:	d31ff0ef          	jal	ra,b00 <parse>
     dd4:	00101797          	auipc	a5,0x101
     dd8:	9fc78793          	addi	a5,a5,-1540 # 1017d0 <ntok>
     ddc:	0007a783          	lw	a5,0(a5)
     de0:	00078593          	mv	a1,a5
     de4:	00000513          	li	a0,0
     de8:	935ff0ef          	jal	ra,71c <eval>
     dec:	00050793          	mv	a5,a0
     df0:	00078593          	mv	a1,a5
     df4:	000ff517          	auipc	a0,0xff
     df8:	20c50513          	addi	a0,a0,524 # 100000 <_etext+0xfe3a4>
     dfc:	230000ef          	jal	ra,102c <kprintf>
     e00:	00000013          	nop
     e04:	01c12083          	lw	ra,28(sp)
     e08:	01812403          	lw	s0,24(sp)
     e0c:	02010113          	addi	sp,sp,32
     e10:	00008067          	ret

00000e14 <exec_fib>:
     e14:	fd010113          	addi	sp,sp,-48
     e18:	02112623          	sw	ra,44(sp)
     e1c:	02812423          	sw	s0,40(sp)
     e20:	03010413          	addi	s0,sp,48
     e24:	fca42e23          	sw	a0,-36(s0)
     e28:	0100006f          	j	e38 <exec_fib+0x24>
     e2c:	fdc42783          	lw	a5,-36(s0)
     e30:	00178793          	addi	a5,a5,1
     e34:	fcf42e23          	sw	a5,-36(s0)
     e38:	fdc42783          	lw	a5,-36(s0)
     e3c:	0007c703          	lbu	a4,0(a5)
     e40:	02000793          	li	a5,32
     e44:	fef704e3          	beq	a4,a5,e2c <exec_fib+0x18>
     e48:	fe042623          	sw	zero,-20(s0)
     e4c:	03c0006f          	j	e88 <exec_fib+0x74>
     e50:	fec42703          	lw	a4,-20(s0)
     e54:	00070793          	mv	a5,a4
     e58:	00279793          	slli	a5,a5,0x2
     e5c:	00e787b3          	add	a5,a5,a4
     e60:	00179793          	slli	a5,a5,0x1
     e64:	00078713          	mv	a4,a5
     e68:	fdc42783          	lw	a5,-36(s0)
     e6c:	0007c783          	lbu	a5,0(a5)
     e70:	00f707b3          	add	a5,a4,a5
     e74:	fd078793          	addi	a5,a5,-48
     e78:	fef42623          	sw	a5,-20(s0)
     e7c:	fdc42783          	lw	a5,-36(s0)
     e80:	00178793          	addi	a5,a5,1
     e84:	fcf42e23          	sw	a5,-36(s0)
     e88:	fdc42783          	lw	a5,-36(s0)
     e8c:	0007c703          	lbu	a4,0(a5)
     e90:	02f00793          	li	a5,47
     e94:	00e7fa63          	bgeu	a5,a4,ea8 <exec_fib+0x94>
     e98:	fdc42783          	lw	a5,-36(s0)
     e9c:	0007c703          	lbu	a4,0(a5)
     ea0:	03900793          	li	a5,57
     ea4:	fae7f6e3          	bgeu	a5,a4,e50 <exec_fib+0x3c>
     ea8:	00100793          	li	a5,1
     eac:	fef42423          	sw	a5,-24(s0)
     eb0:	00100793          	li	a5,1
     eb4:	fef42223          	sw	a5,-28(s0)
     eb8:	00200793          	li	a5,2
     ebc:	fef42023          	sw	a5,-32(s0)
     ec0:	0300006f          	j	ef0 <exec_fib+0xdc>
     ec4:	fe442703          	lw	a4,-28(s0)
     ec8:	fe842783          	lw	a5,-24(s0)
     ecc:	00f707b3          	add	a5,a4,a5
     ed0:	fef42223          	sw	a5,-28(s0)
     ed4:	fe442703          	lw	a4,-28(s0)
     ed8:	fe842783          	lw	a5,-24(s0)
     edc:	40f707b3          	sub	a5,a4,a5
     ee0:	fef42423          	sw	a5,-24(s0)
     ee4:	fe042783          	lw	a5,-32(s0)
     ee8:	00178793          	addi	a5,a5,1
     eec:	fef42023          	sw	a5,-32(s0)
     ef0:	fe042703          	lw	a4,-32(s0)
     ef4:	fec42783          	lw	a5,-20(s0)
     ef8:	fce7d6e3          	bge	a5,a4,ec4 <exec_fib+0xb0>
     efc:	fe442583          	lw	a1,-28(s0)
     f00:	000ff517          	auipc	a0,0xff
     f04:	10450513          	addi	a0,a0,260 # 100004 <_etext+0xfe3a8>
     f08:	124000ef          	jal	ra,102c <kprintf>
     f0c:	00000013          	nop
     f10:	02c12083          	lw	ra,44(sp)
     f14:	02812403          	lw	s0,40(sp)
     f18:	03010113          	addi	sp,sp,48
     f1c:	00008067          	ret

00000f20 <putu_>:
     f20:	fe010113          	addi	sp,sp,-32
     f24:	00112e23          	sw	ra,28(sp)
     f28:	00812c23          	sw	s0,24(sp)
     f2c:	02010413          	addi	s0,sp,32
     f30:	fea42623          	sw	a0,-20(s0)
     f34:	fec42783          	lw	a5,-20(s0)
     f38:	04078663          	beqz	a5,f84 <putu_+0x64>
     f3c:	fec42783          	lw	a5,-20(s0)
     f40:	00a00593          	li	a1,10
     f44:	00078513          	mv	a0,a5
     f48:	5a0000ef          	jal	ra,14e8 <__udivsi3>
     f4c:	00050793          	mv	a5,a0
     f50:	00078513          	mv	a0,a5
     f54:	fcdff0ef          	jal	ra,f20 <putu_>
     f58:	fec42783          	lw	a5,-20(s0)
     f5c:	00a00593          	li	a1,10
     f60:	00078513          	mv	a0,a5
     f64:	4c8000ef          	jal	ra,142c <__umodsi3>
     f68:	00050793          	mv	a5,a0
     f6c:	0ff7f793          	andi	a5,a5,255
     f70:	03078793          	addi	a5,a5,48
     f74:	0ff7f793          	andi	a5,a5,255
     f78:	00078513          	mv	a0,a5
     f7c:	1b9000ef          	jal	ra,1934 <putch>
     f80:	0080006f          	j	f88 <putu_+0x68>
     f84:	00000013          	nop
     f88:	01c12083          	lw	ra,28(sp)
     f8c:	01812403          	lw	s0,24(sp)
     f90:	02010113          	addi	sp,sp,32
     f94:	00008067          	ret

00000f98 <putu>:
     f98:	fe010113          	addi	sp,sp,-32
     f9c:	00112e23          	sw	ra,28(sp)
     fa0:	00812c23          	sw	s0,24(sp)
     fa4:	02010413          	addi	s0,sp,32
     fa8:	fea42623          	sw	a0,-20(s0)
     fac:	fec42783          	lw	a5,-20(s0)
     fb0:	00079863          	bnez	a5,fc0 <putu+0x28>
     fb4:	03000513          	li	a0,48
     fb8:	17d000ef          	jal	ra,1934 <putch>
     fbc:	00c0006f          	j	fc8 <putu+0x30>
     fc0:	fec42503          	lw	a0,-20(s0)
     fc4:	f5dff0ef          	jal	ra,f20 <putu_>
     fc8:	00000013          	nop
     fcc:	01c12083          	lw	ra,28(sp)
     fd0:	01812403          	lw	s0,24(sp)
     fd4:	02010113          	addi	sp,sp,32
     fd8:	00008067          	ret

00000fdc <puti>:
     fdc:	fe010113          	addi	sp,sp,-32
     fe0:	00112e23          	sw	ra,28(sp)
     fe4:	00812c23          	sw	s0,24(sp)
     fe8:	02010413          	addi	s0,sp,32
     fec:	fea42623          	sw	a0,-20(s0)
     ff0:	fec42783          	lw	a5,-20(s0)
     ff4:	0007dc63          	bgez	a5,100c <puti+0x30>
     ff8:	fec42783          	lw	a5,-20(s0)
     ffc:	40f007b3          	neg	a5,a5
    1000:	fef42623          	sw	a5,-20(s0)
    1004:	02d00513          	li	a0,45
    1008:	12d000ef          	jal	ra,1934 <putch>
    100c:	fec42783          	lw	a5,-20(s0)
    1010:	00078513          	mv	a0,a5
    1014:	f85ff0ef          	jal	ra,f98 <putu>
    1018:	00000013          	nop
    101c:	01c12083          	lw	ra,28(sp)
    1020:	01812403          	lw	s0,24(sp)
    1024:	02010113          	addi	sp,sp,32
    1028:	00008067          	ret

0000102c <kprintf>:
    102c:	fb010113          	addi	sp,sp,-80
    1030:	02112623          	sw	ra,44(sp)
    1034:	02812423          	sw	s0,40(sp)
    1038:	03010413          	addi	s0,sp,48
    103c:	fca42e23          	sw	a0,-36(s0)
    1040:	00b42223          	sw	a1,4(s0)
    1044:	00c42423          	sw	a2,8(s0)
    1048:	00d42623          	sw	a3,12(s0)
    104c:	00e42823          	sw	a4,16(s0)
    1050:	00f42a23          	sw	a5,20(s0)
    1054:	01042c23          	sw	a6,24(s0)
    1058:	01142e23          	sw	a7,28(s0)
    105c:	02040793          	addi	a5,s0,32
    1060:	fcf42c23          	sw	a5,-40(s0)
    1064:	fd842783          	lw	a5,-40(s0)
    1068:	fe478793          	addi	a5,a5,-28
    106c:	fef42423          	sw	a5,-24(s0)
    1070:	fdc42783          	lw	a5,-36(s0)
    1074:	fef42623          	sw	a5,-20(s0)
    1078:	10c0006f          	j	1184 <kprintf+0x158>
    107c:	fec42783          	lw	a5,-20(s0)
    1080:	0007c703          	lbu	a4,0(a5)
    1084:	02500793          	li	a5,37
    1088:	00f70c63          	beq	a4,a5,10a0 <kprintf+0x74>
    108c:	fec42783          	lw	a5,-20(s0)
    1090:	0007c783          	lbu	a5,0(a5)
    1094:	00078513          	mv	a0,a5
    1098:	09d000ef          	jal	ra,1934 <putch>
    109c:	0dc0006f          	j	1178 <kprintf+0x14c>
    10a0:	fec42783          	lw	a5,-20(s0)
    10a4:	00178793          	addi	a5,a5,1
    10a8:	fef42623          	sw	a5,-20(s0)
    10ac:	fec42783          	lw	a5,-20(s0)
    10b0:	0007c783          	lbu	a5,0(a5)
    10b4:	07500713          	li	a4,117
    10b8:	06e78663          	beq	a5,a4,1124 <kprintf+0xf8>
    10bc:	07500713          	li	a4,117
    10c0:	0af74c63          	blt	a4,a5,1178 <kprintf+0x14c>
    10c4:	07300713          	li	a4,115
    10c8:	08e78a63          	beq	a5,a4,115c <kprintf+0x130>
    10cc:	07300713          	li	a4,115
    10d0:	0af74463          	blt	a4,a5,1178 <kprintf+0x14c>
    10d4:	06400713          	li	a4,100
    10d8:	06e78463          	beq	a5,a4,1140 <kprintf+0x114>
    10dc:	06400713          	li	a4,100
    10e0:	08f74c63          	blt	a4,a5,1178 <kprintf+0x14c>
    10e4:	02500713          	li	a4,37
    10e8:	00e78863          	beq	a5,a4,10f8 <kprintf+0xcc>
    10ec:	06300713          	li	a4,99
    10f0:	00e78a63          	beq	a5,a4,1104 <kprintf+0xd8>
    10f4:	0840006f          	j	1178 <kprintf+0x14c>
    10f8:	02500513          	li	a0,37
    10fc:	039000ef          	jal	ra,1934 <putch>
    1100:	0780006f          	j	1178 <kprintf+0x14c>
    1104:	fe842783          	lw	a5,-24(s0)
    1108:	00478713          	addi	a4,a5,4
    110c:	fee42423          	sw	a4,-24(s0)
    1110:	0007a783          	lw	a5,0(a5)
    1114:	0ff7f793          	andi	a5,a5,255
    1118:	00078513          	mv	a0,a5
    111c:	019000ef          	jal	ra,1934 <putch>
    1120:	0580006f          	j	1178 <kprintf+0x14c>
    1124:	fe842783          	lw	a5,-24(s0)
    1128:	00478713          	addi	a4,a5,4
    112c:	fee42423          	sw	a4,-24(s0)
    1130:	0007a783          	lw	a5,0(a5)
    1134:	00078513          	mv	a0,a5
    1138:	e61ff0ef          	jal	ra,f98 <putu>
    113c:	03c0006f          	j	1178 <kprintf+0x14c>
    1140:	fe842783          	lw	a5,-24(s0)
    1144:	00478713          	addi	a4,a5,4
    1148:	fee42423          	sw	a4,-24(s0)
    114c:	0007a783          	lw	a5,0(a5)
    1150:	00078513          	mv	a0,a5
    1154:	e89ff0ef          	jal	ra,fdc <puti>
    1158:	0200006f          	j	1178 <kprintf+0x14c>
    115c:	fe842783          	lw	a5,-24(s0)
    1160:	00478713          	addi	a4,a5,4
    1164:	fee42423          	sw	a4,-24(s0)
    1168:	0007a783          	lw	a5,0(a5)
    116c:	00078513          	mv	a0,a5
    1170:	25d000ef          	jal	ra,1bcc <putstr>
    1174:	00000013          	nop
    1178:	fec42783          	lw	a5,-20(s0)
    117c:	00178793          	addi	a5,a5,1
    1180:	fef42623          	sw	a5,-20(s0)
    1184:	fec42783          	lw	a5,-20(s0)
    1188:	0007c783          	lbu	a5,0(a5)
    118c:	ee0798e3          	bnez	a5,107c <kprintf+0x50>
    1190:	00000013          	nop
    1194:	00000013          	nop
    1198:	02c12083          	lw	ra,44(sp)
    119c:	02812403          	lw	s0,40(sp)
    11a0:	05010113          	addi	sp,sp,80
    11a4:	00008067          	ret

000011a8 <kputs>:
    11a8:	fe010113          	addi	sp,sp,-32
    11ac:	00112e23          	sw	ra,28(sp)
    11b0:	00812c23          	sw	s0,24(sp)
    11b4:	02010413          	addi	s0,sp,32
    11b8:	fea42623          	sw	a0,-20(s0)
    11bc:	fec42503          	lw	a0,-20(s0)
    11c0:	20d000ef          	jal	ra,1bcc <putstr>
    11c4:	00000013          	nop
    11c8:	01c12083          	lw	ra,28(sp)
    11cc:	01812403          	lw	s0,24(sp)
    11d0:	02010113          	addi	sp,sp,32
    11d4:	00008067          	ret

000011d8 <kstrlen>:
    11d8:	fd010113          	addi	sp,sp,-48
    11dc:	02812623          	sw	s0,44(sp)
    11e0:	03010413          	addi	s0,sp,48
    11e4:	fca42e23          	sw	a0,-36(s0)
    11e8:	fe042623          	sw	zero,-20(s0)
    11ec:	0100006f          	j	11fc <kstrlen+0x24>
    11f0:	fec42783          	lw	a5,-20(s0)
    11f4:	00178793          	addi	a5,a5,1
    11f8:	fef42623          	sw	a5,-20(s0)
    11fc:	fec42783          	lw	a5,-20(s0)
    1200:	fdc42703          	lw	a4,-36(s0)
    1204:	00f707b3          	add	a5,a4,a5
    1208:	0007c783          	lbu	a5,0(a5)
    120c:	fe0792e3          	bnez	a5,11f0 <kstrlen+0x18>
    1210:	fec42783          	lw	a5,-20(s0)
    1214:	00078513          	mv	a0,a5
    1218:	02c12403          	lw	s0,44(sp)
    121c:	03010113          	addi	sp,sp,48
    1220:	00008067          	ret

00001224 <kstrcmp>:
    1224:	fd010113          	addi	sp,sp,-48
    1228:	02812623          	sw	s0,44(sp)
    122c:	03010413          	addi	s0,sp,48
    1230:	fca42e23          	sw	a0,-36(s0)
    1234:	fcb42c23          	sw	a1,-40(s0)
    1238:	fdc42783          	lw	a5,-36(s0)
    123c:	fef42623          	sw	a5,-20(s0)
    1240:	fd842783          	lw	a5,-40(s0)
    1244:	fef42423          	sw	a5,-24(s0)
    1248:	01c0006f          	j	1264 <kstrcmp+0x40>
    124c:	fec42783          	lw	a5,-20(s0)
    1250:	00178793          	addi	a5,a5,1
    1254:	fef42623          	sw	a5,-20(s0)
    1258:	fe842783          	lw	a5,-24(s0)
    125c:	00178793          	addi	a5,a5,1
    1260:	fef42423          	sw	a5,-24(s0)
    1264:	fec42783          	lw	a5,-20(s0)
    1268:	0007c703          	lbu	a4,0(a5)
    126c:	fe842783          	lw	a5,-24(s0)
    1270:	0007c783          	lbu	a5,0(a5)
    1274:	00f71e63          	bne	a4,a5,1290 <kstrcmp+0x6c>
    1278:	fec42783          	lw	a5,-20(s0)
    127c:	0007c783          	lbu	a5,0(a5)
    1280:	00078863          	beqz	a5,1290 <kstrcmp+0x6c>
    1284:	fe842783          	lw	a5,-24(s0)
    1288:	0007c783          	lbu	a5,0(a5)
    128c:	fc0790e3          	bnez	a5,124c <kstrcmp+0x28>
    1290:	fec42783          	lw	a5,-20(s0)
    1294:	0007c703          	lbu	a4,0(a5)
    1298:	fe842783          	lw	a5,-24(s0)
    129c:	0007c783          	lbu	a5,0(a5)
    12a0:	00f71663          	bne	a4,a5,12ac <kstrcmp+0x88>
    12a4:	00000793          	li	a5,0
    12a8:	0240006f          	j	12cc <kstrcmp+0xa8>
    12ac:	fec42783          	lw	a5,-20(s0)
    12b0:	0007c703          	lbu	a4,0(a5)
    12b4:	fe842783          	lw	a5,-24(s0)
    12b8:	0007c783          	lbu	a5,0(a5)
    12bc:	00e7f663          	bgeu	a5,a4,12c8 <kstrcmp+0xa4>
    12c0:	00100793          	li	a5,1
    12c4:	0080006f          	j	12cc <kstrcmp+0xa8>
    12c8:	fff00793          	li	a5,-1
    12cc:	00078513          	mv	a0,a5
    12d0:	02c12403          	lw	s0,44(sp)
    12d4:	03010113          	addi	sp,sp,48
    12d8:	00008067          	ret

000012dc <kstrncmp>:
    12dc:	fd010113          	addi	sp,sp,-48
    12e0:	02812623          	sw	s0,44(sp)
    12e4:	03010413          	addi	s0,sp,48
    12e8:	fca42e23          	sw	a0,-36(s0)
    12ec:	fcb42c23          	sw	a1,-40(s0)
    12f0:	fcc42a23          	sw	a2,-44(s0)
    12f4:	fe042623          	sw	zero,-20(s0)
    12f8:	fdc42783          	lw	a5,-36(s0)
    12fc:	fef42423          	sw	a5,-24(s0)
    1300:	fd842783          	lw	a5,-40(s0)
    1304:	fef42223          	sw	a5,-28(s0)
    1308:	0280006f          	j	1330 <kstrncmp+0x54>
    130c:	fe842783          	lw	a5,-24(s0)
    1310:	00178793          	addi	a5,a5,1
    1314:	fef42423          	sw	a5,-24(s0)
    1318:	fe442783          	lw	a5,-28(s0)
    131c:	00178793          	addi	a5,a5,1
    1320:	fef42223          	sw	a5,-28(s0)
    1324:	fec42783          	lw	a5,-20(s0)
    1328:	00178793          	addi	a5,a5,1
    132c:	fef42623          	sw	a5,-20(s0)
    1330:	fe842783          	lw	a5,-24(s0)
    1334:	0007c703          	lbu	a4,0(a5)
    1338:	fe442783          	lw	a5,-28(s0)
    133c:	0007c783          	lbu	a5,0(a5)
    1340:	02f71463          	bne	a4,a5,1368 <kstrncmp+0x8c>
    1344:	fe842783          	lw	a5,-24(s0)
    1348:	0007c783          	lbu	a5,0(a5)
    134c:	00078e63          	beqz	a5,1368 <kstrncmp+0x8c>
    1350:	fe442783          	lw	a5,-28(s0)
    1354:	0007c783          	lbu	a5,0(a5)
    1358:	00078863          	beqz	a5,1368 <kstrncmp+0x8c>
    135c:	fec42703          	lw	a4,-20(s0)
    1360:	fd442783          	lw	a5,-44(s0)
    1364:	faf744e3          	blt	a4,a5,130c <kstrncmp+0x30>
    1368:	fe842783          	lw	a5,-24(s0)
    136c:	0007c703          	lbu	a4,0(a5)
    1370:	fe442783          	lw	a5,-28(s0)
    1374:	0007c783          	lbu	a5,0(a5)
    1378:	00f70863          	beq	a4,a5,1388 <kstrncmp+0xac>
    137c:	fec42703          	lw	a4,-20(s0)
    1380:	fd442783          	lw	a5,-44(s0)
    1384:	00f71663          	bne	a4,a5,1390 <kstrncmp+0xb4>
    1388:	00000793          	li	a5,0
    138c:	0240006f          	j	13b0 <kstrncmp+0xd4>
    1390:	fe842783          	lw	a5,-24(s0)
    1394:	0007c703          	lbu	a4,0(a5)
    1398:	fe442783          	lw	a5,-28(s0)
    139c:	0007c783          	lbu	a5,0(a5)
    13a0:	00e7f663          	bgeu	a5,a4,13ac <kstrncmp+0xd0>
    13a4:	00100793          	li	a5,1
    13a8:	0080006f          	j	13b0 <kstrncmp+0xd4>
    13ac:	fff00793          	li	a5,-1
    13b0:	00078513          	mv	a0,a5
    13b4:	02c12403          	lw	s0,44(sp)
    13b8:	03010113          	addi	sp,sp,48
    13bc:	00008067          	ret

000013c0 <__mulsi3>:
    13c0:	fd010113          	addi	sp,sp,-48
    13c4:	02812623          	sw	s0,44(sp)
    13c8:	03010413          	addi	s0,sp,48
    13cc:	fca42e23          	sw	a0,-36(s0)
    13d0:	fcb42c23          	sw	a1,-40(s0)
    13d4:	fe042623          	sw	zero,-20(s0)
    13d8:	0380006f          	j	1410 <__mulsi3+0x50>
    13dc:	fdc42783          	lw	a5,-36(s0)
    13e0:	0017f793          	andi	a5,a5,1
    13e4:	00078a63          	beqz	a5,13f8 <__mulsi3+0x38>
    13e8:	fec42703          	lw	a4,-20(s0)
    13ec:	fd842783          	lw	a5,-40(s0)
    13f0:	00f707b3          	add	a5,a4,a5
    13f4:	fef42623          	sw	a5,-20(s0)
    13f8:	fdc42783          	lw	a5,-36(s0)
    13fc:	0017d793          	srli	a5,a5,0x1
    1400:	fcf42e23          	sw	a5,-36(s0)
    1404:	fd842783          	lw	a5,-40(s0)
    1408:	00179793          	slli	a5,a5,0x1
    140c:	fcf42c23          	sw	a5,-40(s0)
    1410:	fdc42783          	lw	a5,-36(s0)
    1414:	fc0794e3          	bnez	a5,13dc <__mulsi3+0x1c>
    1418:	fec42783          	lw	a5,-20(s0)
    141c:	00078513          	mv	a0,a5
    1420:	02c12403          	lw	s0,44(sp)
    1424:	03010113          	addi	sp,sp,48
    1428:	00008067          	ret

0000142c <__umodsi3>:
    142c:	fd010113          	addi	sp,sp,-48
    1430:	02812623          	sw	s0,44(sp)
    1434:	03010413          	addi	s0,sp,48
    1438:	fca42e23          	sw	a0,-36(s0)
    143c:	fcb42c23          	sw	a1,-40(s0)
    1440:	00100793          	li	a5,1
    1444:	fef42623          	sw	a5,-20(s0)
    1448:	fe042423          	sw	zero,-24(s0)
    144c:	01c0006f          	j	1468 <__umodsi3+0x3c>
    1450:	fd842783          	lw	a5,-40(s0)
    1454:	00179793          	slli	a5,a5,0x1
    1458:	fcf42c23          	sw	a5,-40(s0)
    145c:	fec42783          	lw	a5,-20(s0)
    1460:	00179793          	slli	a5,a5,0x1
    1464:	fef42623          	sw	a5,-20(s0)
    1468:	fd842703          	lw	a4,-40(s0)
    146c:	fdc42783          	lw	a5,-36(s0)
    1470:	04f77e63          	bgeu	a4,a5,14cc <__umodsi3+0xa0>
    1474:	fec42783          	lw	a5,-20(s0)
    1478:	04078a63          	beqz	a5,14cc <__umodsi3+0xa0>
    147c:	fd842783          	lw	a5,-40(s0)
    1480:	fc07d8e3          	bgez	a5,1450 <__umodsi3+0x24>
    1484:	0480006f          	j	14cc <__umodsi3+0xa0>
    1488:	fdc42703          	lw	a4,-36(s0)
    148c:	fd842783          	lw	a5,-40(s0)
    1490:	02f76263          	bltu	a4,a5,14b4 <__umodsi3+0x88>
    1494:	fdc42703          	lw	a4,-36(s0)
    1498:	fd842783          	lw	a5,-40(s0)
    149c:	40f707b3          	sub	a5,a4,a5
    14a0:	fcf42e23          	sw	a5,-36(s0)
    14a4:	fe842703          	lw	a4,-24(s0)
    14a8:	fec42783          	lw	a5,-20(s0)
    14ac:	00f767b3          	or	a5,a4,a5
    14b0:	fef42423          	sw	a5,-24(s0)
    14b4:	fec42783          	lw	a5,-20(s0)
    14b8:	0017d793          	srli	a5,a5,0x1
    14bc:	fef42623          	sw	a5,-20(s0)
    14c0:	fd842783          	lw	a5,-40(s0)
    14c4:	0017d793          	srli	a5,a5,0x1
    14c8:	fcf42c23          	sw	a5,-40(s0)
    14cc:	fec42783          	lw	a5,-20(s0)
    14d0:	fa079ce3          	bnez	a5,1488 <__umodsi3+0x5c>
    14d4:	fdc42783          	lw	a5,-36(s0)
    14d8:	00078513          	mv	a0,a5
    14dc:	02c12403          	lw	s0,44(sp)
    14e0:	03010113          	addi	sp,sp,48
    14e4:	00008067          	ret

000014e8 <__udivsi3>:
    14e8:	fd010113          	addi	sp,sp,-48
    14ec:	02812623          	sw	s0,44(sp)
    14f0:	03010413          	addi	s0,sp,48
    14f4:	fca42e23          	sw	a0,-36(s0)
    14f8:	fcb42c23          	sw	a1,-40(s0)
    14fc:	00100793          	li	a5,1
    1500:	fef42623          	sw	a5,-20(s0)
    1504:	fe042423          	sw	zero,-24(s0)
    1508:	01c0006f          	j	1524 <__udivsi3+0x3c>
    150c:	fd842783          	lw	a5,-40(s0)
    1510:	00179793          	slli	a5,a5,0x1
    1514:	fcf42c23          	sw	a5,-40(s0)
    1518:	fec42783          	lw	a5,-20(s0)
    151c:	00179793          	slli	a5,a5,0x1
    1520:	fef42623          	sw	a5,-20(s0)
    1524:	fd842703          	lw	a4,-40(s0)
    1528:	fdc42783          	lw	a5,-36(s0)
    152c:	04f77e63          	bgeu	a4,a5,1588 <__udivsi3+0xa0>
    1530:	fec42783          	lw	a5,-20(s0)
    1534:	04078a63          	beqz	a5,1588 <__udivsi3+0xa0>
    1538:	fd842783          	lw	a5,-40(s0)
    153c:	fc07d8e3          	bgez	a5,150c <__udivsi3+0x24>
    1540:	0480006f          	j	1588 <__udivsi3+0xa0>
    1544:	fdc42703          	lw	a4,-36(s0)
    1548:	fd842783          	lw	a5,-40(s0)
    154c:	02f76263          	bltu	a4,a5,1570 <__udivsi3+0x88>
    1550:	fdc42703          	lw	a4,-36(s0)
    1554:	fd842783          	lw	a5,-40(s0)
    1558:	40f707b3          	sub	a5,a4,a5
    155c:	fcf42e23          	sw	a5,-36(s0)
    1560:	fe842703          	lw	a4,-24(s0)
    1564:	fec42783          	lw	a5,-20(s0)
    1568:	00f767b3          	or	a5,a4,a5
    156c:	fef42423          	sw	a5,-24(s0)
    1570:	fec42783          	lw	a5,-20(s0)
    1574:	0017d793          	srli	a5,a5,0x1
    1578:	fef42623          	sw	a5,-20(s0)
    157c:	fd842783          	lw	a5,-40(s0)
    1580:	0017d793          	srli	a5,a5,0x1
    1584:	fcf42c23          	sw	a5,-40(s0)
    1588:	fec42783          	lw	a5,-20(s0)
    158c:	fa079ce3          	bnez	a5,1544 <__udivsi3+0x5c>
    1590:	fe842783          	lw	a5,-24(s0)
    1594:	00078513          	mv	a0,a5
    1598:	02c12403          	lw	s0,44(sp)
    159c:	03010113          	addi	sp,sp,48
    15a0:	00008067          	ret

000015a4 <__divsi3>:
    15a4:	fe010113          	addi	sp,sp,-32
    15a8:	00112e23          	sw	ra,28(sp)
    15ac:	00812c23          	sw	s0,24(sp)
    15b0:	02010413          	addi	s0,sp,32
    15b4:	fea42623          	sw	a0,-20(s0)
    15b8:	feb42423          	sw	a1,-24(s0)
    15bc:	fec42783          	lw	a5,-20(s0)
    15c0:	00078663          	beqz	a5,15cc <__divsi3+0x28>
    15c4:	fe842783          	lw	a5,-24(s0)
    15c8:	00079663          	bnez	a5,15d4 <__divsi3+0x30>
    15cc:	00000793          	li	a5,0
    15d0:	0840006f          	j	1654 <__divsi3+0xb0>
    15d4:	fec42783          	lw	a5,-20(s0)
    15d8:	0207d463          	bgez	a5,1600 <__divsi3+0x5c>
    15dc:	fe842783          	lw	a5,-24(s0)
    15e0:	0207d063          	bgez	a5,1600 <__divsi3+0x5c>
    15e4:	fec42783          	lw	a5,-20(s0)
    15e8:	40f007b3          	neg	a5,a5
    15ec:	fef42623          	sw	a5,-20(s0)
    15f0:	fe842783          	lw	a5,-24(s0)
    15f4:	40f007b3          	neg	a5,a5
    15f8:	fef42423          	sw	a5,-24(s0)
    15fc:	0400006f          	j	163c <__divsi3+0x98>
    1600:	fec42783          	lw	a5,-20(s0)
    1604:	00f05e63          	blez	a5,1620 <__divsi3+0x7c>
    1608:	fe842783          	lw	a5,-24(s0)
    160c:	0007da63          	bgez	a5,1620 <__divsi3+0x7c>
    1610:	fe842783          	lw	a5,-24(s0)
    1614:	40f007b3          	neg	a5,a5
    1618:	fef42423          	sw	a5,-24(s0)
    161c:	0200006f          	j	163c <__divsi3+0x98>
    1620:	fec42783          	lw	a5,-20(s0)
    1624:	0007dc63          	bgez	a5,163c <__divsi3+0x98>
    1628:	fe842783          	lw	a5,-24(s0)
    162c:	00f05863          	blez	a5,163c <__divsi3+0x98>
    1630:	fec42783          	lw	a5,-20(s0)
    1634:	40f007b3          	neg	a5,a5
    1638:	fef42623          	sw	a5,-20(s0)
    163c:	fec42783          	lw	a5,-20(s0)
    1640:	fe842703          	lw	a4,-24(s0)
    1644:	00070593          	mv	a1,a4
    1648:	00078513          	mv	a0,a5
    164c:	e9dff0ef          	jal	ra,14e8 <__udivsi3>
    1650:	00050793          	mv	a5,a0
    1654:	00078513          	mv	a0,a5
    1658:	01c12083          	lw	ra,28(sp)
    165c:	01812403          	lw	s0,24(sp)
    1660:	02010113          	addi	sp,sp,32
    1664:	00008067          	ret

00001668 <__modsi3>:
    1668:	fd010113          	addi	sp,sp,-48
    166c:	02112623          	sw	ra,44(sp)
    1670:	02812423          	sw	s0,40(sp)
    1674:	03010413          	addi	s0,sp,48
    1678:	fca42e23          	sw	a0,-36(s0)
    167c:	fcb42c23          	sw	a1,-40(s0)
    1680:	fd842583          	lw	a1,-40(s0)
    1684:	fdc42503          	lw	a0,-36(s0)
    1688:	f1dff0ef          	jal	ra,15a4 <__divsi3>
    168c:	fea42623          	sw	a0,-20(s0)
    1690:	fd842783          	lw	a5,-40(s0)
    1694:	fec42703          	lw	a4,-20(s0)
    1698:	00070593          	mv	a1,a4
    169c:	00078513          	mv	a0,a5
    16a0:	d21ff0ef          	jal	ra,13c0 <__mulsi3>
    16a4:	00050793          	mv	a5,a0
    16a8:	00078713          	mv	a4,a5
    16ac:	fdc42783          	lw	a5,-36(s0)
    16b0:	40e787b3          	sub	a5,a5,a4
    16b4:	00078513          	mv	a0,a5
    16b8:	02c12083          	lw	ra,44(sp)
    16bc:	02812403          	lw	s0,40(sp)
    16c0:	03010113          	addi	sp,sp,48
    16c4:	00008067          	ret

000016c8 <gettimeofday>:
    16c8:	ff010113          	addi	sp,sp,-16
    16cc:	00812623          	sw	s0,12(sp)
    16d0:	01010413          	addi	s0,sp,16
    16d4:	000ff797          	auipc	a5,0xff
    16d8:	d7478793          	addi	a5,a5,-652 # 100448 <time>
    16dc:	0007a783          	lw	a5,0(a5)
    16e0:	0007a783          	lw	a5,0(a5)
    16e4:	00078513          	mv	a0,a5
    16e8:	00c12403          	lw	s0,12(sp)
    16ec:	01010113          	addi	sp,sp,16
    16f0:	00008067          	ret

000016f4 <sleep>:
    16f4:	fd010113          	addi	sp,sp,-48
    16f8:	02812623          	sw	s0,44(sp)
    16fc:	03010413          	addi	s0,sp,48
    1700:	fca42e23          	sw	a0,-36(s0)
    1704:	fe042623          	sw	zero,-20(s0)
    1708:	fdc42703          	lw	a4,-36(s0)
    170c:	00070793          	mv	a5,a4
    1710:	00279793          	slli	a5,a5,0x2
    1714:	00e787b3          	add	a5,a5,a4
    1718:	00379793          	slli	a5,a5,0x3
    171c:	40e787b3          	sub	a5,a5,a4
    1720:	00479793          	slli	a5,a5,0x4
    1724:	00e787b3          	add	a5,a5,a4
    1728:	00479793          	slli	a5,a5,0x4
    172c:	fcf42e23          	sw	a5,-36(s0)
    1730:	0100006f          	j	1740 <sleep+0x4c>
    1734:	fec42783          	lw	a5,-20(s0)
    1738:	00178793          	addi	a5,a5,1
    173c:	fef42623          	sw	a5,-20(s0)
    1740:	fec42703          	lw	a4,-20(s0)
    1744:	fdc42783          	lw	a5,-36(s0)
    1748:	fef746e3          	blt	a4,a5,1734 <sleep+0x40>
    174c:	00000013          	nop
    1750:	00000013          	nop
    1754:	02c12403          	lw	s0,44(sp)
    1758:	03010113          	addi	sp,sp,48
    175c:	00008067          	ret

00001760 <vga_init>:
    1760:	fe010113          	addi	sp,sp,-32
    1764:	00812e23          	sw	s0,28(sp)
    1768:	02010413          	addi	s0,sp,32
    176c:	00100797          	auipc	a5,0x100
    1770:	06878793          	addi	a5,a5,104 # 1017d4 <vga_line>
    1774:	0007a023          	sw	zero,0(a5)
    1778:	00100797          	auipc	a5,0x100
    177c:	06078793          	addi	a5,a5,96 # 1017d8 <vga_ch>
    1780:	0007a023          	sw	zero,0(a5)
    1784:	fe042623          	sw	zero,-20(s0)
    1788:	0680006f          	j	17f0 <vga_init+0x90>
    178c:	fe042423          	sw	zero,-24(s0)
    1790:	0480006f          	j	17d8 <vga_init+0x78>
    1794:	000ff797          	auipc	a5,0xff
    1798:	cb078793          	addi	a5,a5,-848 # 100444 <vga_start>
    179c:	0007a783          	lw	a5,0(a5)
    17a0:	000ff717          	auipc	a4,0xff
    17a4:	cac70713          	addi	a4,a4,-852 # 10044c <start_line>
    17a8:	00072703          	lw	a4,0(a4)
    17ac:	00072683          	lw	a3,0(a4)
    17b0:	fec42703          	lw	a4,-20(s0)
    17b4:	00e68733          	add	a4,a3,a4
    17b8:	00771693          	slli	a3,a4,0x7
    17bc:	fe842703          	lw	a4,-24(s0)
    17c0:	00e68733          	add	a4,a3,a4
    17c4:	00e787b3          	add	a5,a5,a4
    17c8:	00078023          	sb	zero,0(a5)
    17cc:	fe842783          	lw	a5,-24(s0)
    17d0:	00178793          	addi	a5,a5,1
    17d4:	fef42423          	sw	a5,-24(s0)
    17d8:	fe842703          	lw	a4,-24(s0)
    17dc:	04500793          	li	a5,69
    17e0:	fae7dae3          	bge	a5,a4,1794 <vga_init+0x34>
    17e4:	fec42783          	lw	a5,-20(s0)
    17e8:	00178793          	addi	a5,a5,1
    17ec:	fef42623          	sw	a5,-20(s0)
    17f0:	fec42703          	lw	a4,-20(s0)
    17f4:	01d00793          	li	a5,29
    17f8:	f8e7dae3          	bge	a5,a4,178c <vga_init+0x2c>
    17fc:	00000013          	nop
    1800:	00000013          	nop
    1804:	01c12403          	lw	s0,28(sp)
    1808:	02010113          	addi	sp,sp,32
    180c:	00008067          	ret

00001810 <vga_roll>:
    1810:	fe010113          	addi	sp,sp,-32
    1814:	00812e23          	sw	s0,28(sp)
    1818:	02010413          	addi	s0,sp,32
    181c:	000ff797          	auipc	a5,0xff
    1820:	c3078793          	addi	a5,a5,-976 # 10044c <start_line>
    1824:	0007a783          	lw	a5,0(a5)
    1828:	0007a703          	lw	a4,0(a5)
    182c:	00170713          	addi	a4,a4,1
    1830:	00e7a023          	sw	a4,0(a5)
    1834:	fe042623          	sw	zero,-20(s0)
    1838:	0440006f          	j	187c <vga_roll+0x6c>
    183c:	000ff797          	auipc	a5,0xff
    1840:	c0878793          	addi	a5,a5,-1016 # 100444 <vga_start>
    1844:	0007a783          	lw	a5,0(a5)
    1848:	000ff717          	auipc	a4,0xff
    184c:	c0470713          	addi	a4,a4,-1020 # 10044c <start_line>
    1850:	00072703          	lw	a4,0(a4)
    1854:	00072703          	lw	a4,0(a4)
    1858:	01d70713          	addi	a4,a4,29
    185c:	00771693          	slli	a3,a4,0x7
    1860:	fec42703          	lw	a4,-20(s0)
    1864:	00e68733          	add	a4,a3,a4
    1868:	00e787b3          	add	a5,a5,a4
    186c:	00078023          	sb	zero,0(a5)
    1870:	fec42783          	lw	a5,-20(s0)
    1874:	00178793          	addi	a5,a5,1
    1878:	fef42623          	sw	a5,-20(s0)
    187c:	fec42703          	lw	a4,-20(s0)
    1880:	04500793          	li	a5,69
    1884:	fae7dce3          	bge	a5,a4,183c <vga_roll+0x2c>
    1888:	00000013          	nop
    188c:	00000013          	nop
    1890:	01c12403          	lw	s0,28(sp)
    1894:	02010113          	addi	sp,sp,32
    1898:	00008067          	ret

0000189c <blink>:
    189c:	ff010113          	addi	sp,sp,-16
    18a0:	00812623          	sw	s0,12(sp)
    18a4:	01010413          	addi	s0,sp,16
    18a8:	00100797          	auipc	a5,0x100
    18ac:	f2578793          	addi	a5,a5,-219 # 1017cd <ch.0>
    18b0:	0007c783          	lbu	a5,0(a5)
    18b4:	00079663          	bnez	a5,18c0 <blink+0x24>
    18b8:	05f00793          	li	a5,95
    18bc:	0080006f          	j	18c4 <blink+0x28>
    18c0:	00000793          	li	a5,0
    18c4:	00100717          	auipc	a4,0x100
    18c8:	f0970713          	addi	a4,a4,-247 # 1017cd <ch.0>
    18cc:	00f70023          	sb	a5,0(a4)
    18d0:	000ff797          	auipc	a5,0xff
    18d4:	b7478793          	addi	a5,a5,-1164 # 100444 <vga_start>
    18d8:	0007a783          	lw	a5,0(a5)
    18dc:	000ff717          	auipc	a4,0xff
    18e0:	b7070713          	addi	a4,a4,-1168 # 10044c <start_line>
    18e4:	00072703          	lw	a4,0(a4)
    18e8:	00072683          	lw	a3,0(a4)
    18ec:	00100717          	auipc	a4,0x100
    18f0:	ee870713          	addi	a4,a4,-280 # 1017d4 <vga_line>
    18f4:	00072703          	lw	a4,0(a4)
    18f8:	00e68733          	add	a4,a3,a4
    18fc:	00771693          	slli	a3,a4,0x7
    1900:	00100717          	auipc	a4,0x100
    1904:	ed870713          	addi	a4,a4,-296 # 1017d8 <vga_ch>
    1908:	00072703          	lw	a4,0(a4)
    190c:	00e68733          	add	a4,a3,a4
    1910:	00e787b3          	add	a5,a5,a4
    1914:	00100717          	auipc	a4,0x100
    1918:	eb970713          	addi	a4,a4,-327 # 1017cd <ch.0>
    191c:	00074703          	lbu	a4,0(a4)
    1920:	00e78023          	sb	a4,0(a5)
    1924:	00000013          	nop
    1928:	00c12403          	lw	s0,12(sp)
    192c:	01010113          	addi	sp,sp,16
    1930:	00008067          	ret

00001934 <putch>:
    1934:	fe010113          	addi	sp,sp,-32
    1938:	00112e23          	sw	ra,28(sp)
    193c:	00812c23          	sw	s0,24(sp)
    1940:	02010413          	addi	s0,sp,32
    1944:	00050793          	mv	a5,a0
    1948:	fef407a3          	sb	a5,-17(s0)
    194c:	fef44703          	lbu	a4,-17(s0)
    1950:	00a00793          	li	a5,10
    1954:	00f71663          	bne	a4,a5,1960 <putch+0x2c>
    1958:	00d00793          	li	a5,13
    195c:	fef407a3          	sb	a5,-17(s0)
    1960:	fef44783          	lbu	a5,-17(s0)
    1964:	00800713          	li	a4,8
    1968:	00e78863          	beq	a5,a4,1978 <putch+0x44>
    196c:	00d00713          	li	a4,13
    1970:	0ce78863          	beq	a5,a4,1a40 <putch+0x10c>
    1974:	1680006f          	j	1adc <putch+0x1a8>
    1978:	00100797          	auipc	a5,0x100
    197c:	e5c78793          	addi	a5,a5,-420 # 1017d4 <vga_line>
    1980:	0007a783          	lw	a5,0(a5)
    1984:	00079a63          	bnez	a5,1998 <putch+0x64>
    1988:	00100797          	auipc	a5,0x100
    198c:	e5078793          	addi	a5,a5,-432 # 1017d8 <vga_ch>
    1990:	0007a783          	lw	a5,0(a5)
    1994:	20078c63          	beqz	a5,1bac <putch+0x278>
    1998:	000ff797          	auipc	a5,0xff
    199c:	aac78793          	addi	a5,a5,-1364 # 100444 <vga_start>
    19a0:	0007a783          	lw	a5,0(a5)
    19a4:	000ff717          	auipc	a4,0xff
    19a8:	aa870713          	addi	a4,a4,-1368 # 10044c <start_line>
    19ac:	00072703          	lw	a4,0(a4)
    19b0:	00072683          	lw	a3,0(a4)
    19b4:	00100717          	auipc	a4,0x100
    19b8:	e2070713          	addi	a4,a4,-480 # 1017d4 <vga_line>
    19bc:	00072703          	lw	a4,0(a4)
    19c0:	00e68733          	add	a4,a3,a4
    19c4:	00771693          	slli	a3,a4,0x7
    19c8:	00100717          	auipc	a4,0x100
    19cc:	e1070713          	addi	a4,a4,-496 # 1017d8 <vga_ch>
    19d0:	00072703          	lw	a4,0(a4)
    19d4:	00e68733          	add	a4,a3,a4
    19d8:	00e787b3          	add	a5,a5,a4
    19dc:	00078023          	sb	zero,0(a5)
    19e0:	00100797          	auipc	a5,0x100
    19e4:	df878793          	addi	a5,a5,-520 # 1017d8 <vga_ch>
    19e8:	0007a783          	lw	a5,0(a5)
    19ec:	02079a63          	bnez	a5,1a20 <putch+0xec>
    19f0:	00100797          	auipc	a5,0x100
    19f4:	de478793          	addi	a5,a5,-540 # 1017d4 <vga_line>
    19f8:	0007a783          	lw	a5,0(a5)
    19fc:	fff78713          	addi	a4,a5,-1
    1a00:	00100797          	auipc	a5,0x100
    1a04:	dd478793          	addi	a5,a5,-556 # 1017d4 <vga_line>
    1a08:	00e7a023          	sw	a4,0(a5)
    1a0c:	00100797          	auipc	a5,0x100
    1a10:	dcc78793          	addi	a5,a5,-564 # 1017d8 <vga_ch>
    1a14:	04500713          	li	a4,69
    1a18:	00e7a023          	sw	a4,0(a5)
    1a1c:	1900006f          	j	1bac <putch+0x278>
    1a20:	00100797          	auipc	a5,0x100
    1a24:	db878793          	addi	a5,a5,-584 # 1017d8 <vga_ch>
    1a28:	0007a783          	lw	a5,0(a5)
    1a2c:	fff78713          	addi	a4,a5,-1
    1a30:	00100797          	auipc	a5,0x100
    1a34:	da878793          	addi	a5,a5,-600 # 1017d8 <vga_ch>
    1a38:	00e7a023          	sw	a4,0(a5)
    1a3c:	1700006f          	j	1bac <putch+0x278>
    1a40:	000ff797          	auipc	a5,0xff
    1a44:	a0478793          	addi	a5,a5,-1532 # 100444 <vga_start>
    1a48:	0007a783          	lw	a5,0(a5)
    1a4c:	000ff717          	auipc	a4,0xff
    1a50:	a0070713          	addi	a4,a4,-1536 # 10044c <start_line>
    1a54:	00072703          	lw	a4,0(a4)
    1a58:	00072683          	lw	a3,0(a4)
    1a5c:	00100717          	auipc	a4,0x100
    1a60:	d7870713          	addi	a4,a4,-648 # 1017d4 <vga_line>
    1a64:	00072703          	lw	a4,0(a4)
    1a68:	00e68733          	add	a4,a3,a4
    1a6c:	00771693          	slli	a3,a4,0x7
    1a70:	00100717          	auipc	a4,0x100
    1a74:	d6870713          	addi	a4,a4,-664 # 1017d8 <vga_ch>
    1a78:	00072703          	lw	a4,0(a4)
    1a7c:	00e68733          	add	a4,a3,a4
    1a80:	00e787b3          	add	a5,a5,a4
    1a84:	00078023          	sb	zero,0(a5)
    1a88:	00100797          	auipc	a5,0x100
    1a8c:	d4c78793          	addi	a5,a5,-692 # 1017d4 <vga_line>
    1a90:	0007a783          	lw	a5,0(a5)
    1a94:	00178713          	addi	a4,a5,1
    1a98:	00100797          	auipc	a5,0x100
    1a9c:	d3c78793          	addi	a5,a5,-708 # 1017d4 <vga_line>
    1aa0:	00e7a023          	sw	a4,0(a5)
    1aa4:	00100797          	auipc	a5,0x100
    1aa8:	d3078793          	addi	a5,a5,-720 # 1017d4 <vga_line>
    1aac:	0007a703          	lw	a4,0(a5)
    1ab0:	01d00793          	li	a5,29
    1ab4:	00e7dc63          	bge	a5,a4,1acc <putch+0x198>
    1ab8:	d59ff0ef          	jal	ra,1810 <vga_roll>
    1abc:	00100797          	auipc	a5,0x100
    1ac0:	d1878793          	addi	a5,a5,-744 # 1017d4 <vga_line>
    1ac4:	01d00713          	li	a4,29
    1ac8:	00e7a023          	sw	a4,0(a5)
    1acc:	00100797          	auipc	a5,0x100
    1ad0:	d0c78793          	addi	a5,a5,-756 # 1017d8 <vga_ch>
    1ad4:	0007a023          	sw	zero,0(a5)
    1ad8:	0e00006f          	j	1bb8 <putch+0x284>
    1adc:	000ff797          	auipc	a5,0xff
    1ae0:	96878793          	addi	a5,a5,-1688 # 100444 <vga_start>
    1ae4:	0007a783          	lw	a5,0(a5)
    1ae8:	000ff717          	auipc	a4,0xff
    1aec:	96470713          	addi	a4,a4,-1692 # 10044c <start_line>
    1af0:	00072703          	lw	a4,0(a4)
    1af4:	00072683          	lw	a3,0(a4)
    1af8:	00100717          	auipc	a4,0x100
    1afc:	cdc70713          	addi	a4,a4,-804 # 1017d4 <vga_line>
    1b00:	00072703          	lw	a4,0(a4)
    1b04:	00e68733          	add	a4,a3,a4
    1b08:	00771693          	slli	a3,a4,0x7
    1b0c:	00100717          	auipc	a4,0x100
    1b10:	ccc70713          	addi	a4,a4,-820 # 1017d8 <vga_ch>
    1b14:	00072703          	lw	a4,0(a4)
    1b18:	00e68733          	add	a4,a3,a4
    1b1c:	00e787b3          	add	a5,a5,a4
    1b20:	fef44703          	lbu	a4,-17(s0)
    1b24:	00e78023          	sb	a4,0(a5)
    1b28:	00100797          	auipc	a5,0x100
    1b2c:	cb078793          	addi	a5,a5,-848 # 1017d8 <vga_ch>
    1b30:	0007a783          	lw	a5,0(a5)
    1b34:	00178713          	addi	a4,a5,1
    1b38:	00100797          	auipc	a5,0x100
    1b3c:	ca078793          	addi	a5,a5,-864 # 1017d8 <vga_ch>
    1b40:	00e7a023          	sw	a4,0(a5)
    1b44:	00100797          	auipc	a5,0x100
    1b48:	c9478793          	addi	a5,a5,-876 # 1017d8 <vga_ch>
    1b4c:	0007a703          	lw	a4,0(a5)
    1b50:	04500793          	li	a5,69
    1b54:	06e7d063          	bge	a5,a4,1bb4 <putch+0x280>
    1b58:	00100797          	auipc	a5,0x100
    1b5c:	c7c78793          	addi	a5,a5,-900 # 1017d4 <vga_line>
    1b60:	0007a783          	lw	a5,0(a5)
    1b64:	00178713          	addi	a4,a5,1
    1b68:	00100797          	auipc	a5,0x100
    1b6c:	c6c78793          	addi	a5,a5,-916 # 1017d4 <vga_line>
    1b70:	00e7a023          	sw	a4,0(a5)
    1b74:	00100797          	auipc	a5,0x100
    1b78:	c6078793          	addi	a5,a5,-928 # 1017d4 <vga_line>
    1b7c:	0007a703          	lw	a4,0(a5)
    1b80:	01d00793          	li	a5,29
    1b84:	00e7dc63          	bge	a5,a4,1b9c <putch+0x268>
    1b88:	c89ff0ef          	jal	ra,1810 <vga_roll>
    1b8c:	00100797          	auipc	a5,0x100
    1b90:	c4878793          	addi	a5,a5,-952 # 1017d4 <vga_line>
    1b94:	01d00713          	li	a4,29
    1b98:	00e7a023          	sw	a4,0(a5)
    1b9c:	00100797          	auipc	a5,0x100
    1ba0:	c3c78793          	addi	a5,a5,-964 # 1017d8 <vga_ch>
    1ba4:	0007a023          	sw	zero,0(a5)
    1ba8:	00c0006f          	j	1bb4 <putch+0x280>
    1bac:	00000013          	nop
    1bb0:	0080006f          	j	1bb8 <putch+0x284>
    1bb4:	00000013          	nop
    1bb8:	00000013          	nop
    1bbc:	01c12083          	lw	ra,28(sp)
    1bc0:	01812403          	lw	s0,24(sp)
    1bc4:	02010113          	addi	sp,sp,32
    1bc8:	00008067          	ret

00001bcc <putstr>:
    1bcc:	fd010113          	addi	sp,sp,-48
    1bd0:	02112623          	sw	ra,44(sp)
    1bd4:	02812423          	sw	s0,40(sp)
    1bd8:	03010413          	addi	s0,sp,48
    1bdc:	fca42e23          	sw	a0,-36(s0)
    1be0:	fdc42783          	lw	a5,-36(s0)
    1be4:	fef42623          	sw	a5,-20(s0)
    1be8:	0200006f          	j	1c08 <putstr+0x3c>
    1bec:	fec42783          	lw	a5,-20(s0)
    1bf0:	0007c783          	lbu	a5,0(a5)
    1bf4:	00078513          	mv	a0,a5
    1bf8:	d3dff0ef          	jal	ra,1934 <putch>
    1bfc:	fec42783          	lw	a5,-20(s0)
    1c00:	00178793          	addi	a5,a5,1
    1c04:	fef42623          	sw	a5,-20(s0)
    1c08:	fec42783          	lw	a5,-20(s0)
    1c0c:	0007c783          	lbu	a5,0(a5)
    1c10:	fc079ee3          	bnez	a5,1bec <putstr+0x20>
    1c14:	00000013          	nop
    1c18:	00000013          	nop
    1c1c:	02c12083          	lw	ra,44(sp)
    1c20:	02812403          	lw	s0,40(sp)
    1c24:	03010113          	addi	sp,sp,48
    1c28:	00008067          	ret

00001c2c <readkey>:
    1c2c:	ff010113          	addi	sp,sp,-16
    1c30:	00812623          	sw	s0,12(sp)
    1c34:	01010413          	addi	s0,sp,16
    1c38:	000ff797          	auipc	a5,0xff
    1c3c:	81878793          	addi	a5,a5,-2024 # 100450 <key>
    1c40:	0007a783          	lw	a5,0(a5)
    1c44:	0007a783          	lw	a5,0(a5)
    1c48:	0ff7f793          	andi	a5,a5,255
    1c4c:	00078513          	mv	a0,a5
    1c50:	00c12403          	lw	s0,12(sp)
    1c54:	01010113          	addi	sp,sp,16
    1c58:	00008067          	ret

Disassembly of section .rodata:

00100000 <.rodata>:
  100000:	6425                	lui	s0,0x9
  100002:	000a                	c.slli	zero,0x2
  100004:	6425                	lui	s0,0x9
  100006:	000a                	c.slli	zero,0x2
  100008:	6365                	lui	t1,0x19
  10000a:	6f68                	flw	fa0,92(a4)
  10000c:	0000                	unimp
  10000e:	0000                	unimp
  100010:	6966                	flw	fs2,88(sp)
  100012:	0062                	c.slli	zero,0x18
  100014:	7665                	lui	a2,0xffff9
  100016:	6c61                	lui	s8,0x18
  100018:	0000                	unimp
  10001a:	0000                	unimp
  10001c:	61656c63          	bltu	a0,s6,100634 <tokens+0x1e0>
  100020:	0072                	c.slli	zero,0x1c
  100022:	0000                	unimp
  100024:	7325                	lui	t1,0xfffe9
  100026:	203a                	fld	ft0,392(sp)
  100028:	6d6d6f63          	bltu	s10,s6,100706 <tokens+0x2b2>
  10002c:	6e61                	lui	t3,0x18
  10002e:	2064                	fld	fs1,192(s0)
  100030:	6f6e                	flw	ft10,216(sp)
  100032:	2074                	fld	fa3,192(s0)
  100034:	6f66                	flw	ft10,88(sp)
  100036:	6e75                	lui	t3,0x1d
  100038:	0a64                	addi	s1,sp,284
  10003a:	0000                	unimp
  10003c:	794e                	flw	fs2,240(sp)
  10003e:	6e61                	lui	t3,0x18
  100040:	003e                	c.slli	zero,0xf

Disassembly of section .data:

00100044 <prior>:
  100044:	0000                	unimp
  100046:	0000                	unimp
  100048:	0000                	unimp
  10004a:	0000                	unimp
  10004c:	0000                	unimp
  10004e:	0000                	unimp
  100050:	0000                	unimp
  100052:	0000                	unimp
  100054:	0000                	unimp
  100056:	0000                	unimp
  100058:	0000                	unimp
  10005a:	0000                	unimp
  10005c:	0000                	unimp
  10005e:	0000                	unimp
  100060:	0000                	unimp
  100062:	0000                	unimp
  100064:	0000                	unimp
  100066:	0000                	unimp
  100068:	0000                	unimp
  10006a:	0000                	unimp
  10006c:	0000                	unimp
  10006e:	0000                	unimp
  100070:	0000                	unimp
  100072:	0000                	unimp
  100074:	0000                	unimp
  100076:	0000                	unimp
  100078:	0000                	unimp
  10007a:	0000                	unimp
  10007c:	0000                	unimp
  10007e:	0000                	unimp
  100080:	0000                	unimp
  100082:	0000                	unimp
  100084:	0000                	unimp
  100086:	0000                	unimp
  100088:	0000                	unimp
  10008a:	0000                	unimp
  10008c:	0000                	unimp
  10008e:	0000                	unimp
  100090:	0000                	unimp
  100092:	0000                	unimp
  100094:	0000                	unimp
  100096:	0000                	unimp
  100098:	0000                	unimp
  10009a:	0000                	unimp
  10009c:	0000                	unimp
  10009e:	0000                	unimp
  1000a0:	0000                	unimp
  1000a2:	0000                	unimp
  1000a4:	0000                	unimp
  1000a6:	0000                	unimp
  1000a8:	0000                	unimp
  1000aa:	0000                	unimp
  1000ac:	0000                	unimp
  1000ae:	0000                	unimp
  1000b0:	0000                	unimp
  1000b2:	0000                	unimp
  1000b4:	0000                	unimp
  1000b6:	0000                	unimp
  1000b8:	0000                	unimp
  1000ba:	0000                	unimp
  1000bc:	0000                	unimp
  1000be:	0000                	unimp
  1000c0:	0000                	unimp
  1000c2:	0000                	unimp
  1000c4:	0000                	unimp
  1000c6:	0000                	unimp
  1000c8:	0000                	unimp
  1000ca:	0000                	unimp
  1000cc:	0000                	unimp
  1000ce:	0000                	unimp
  1000d0:	0000                	unimp
  1000d2:	0000                	unimp
  1000d4:	0000                	unimp
  1000d6:	0000                	unimp
  1000d8:	0000                	unimp
  1000da:	0000                	unimp
  1000dc:	0000                	unimp
  1000de:	0000                	unimp
  1000e0:	0000                	unimp
  1000e2:	0000                	unimp
  1000e4:	0000                	unimp
  1000e6:	0000                	unimp
  1000e8:	0000                	unimp
  1000ea:	0000                	unimp
  1000ec:	0004                	0x4
  1000ee:	0000                	unimp
  1000f0:	00000003          	lb	zero,0(zero) # 0 <next>
  1000f4:	0000                	unimp
  1000f6:	0000                	unimp
  1000f8:	00000003          	lb	zero,0(zero) # 0 <next>
  1000fc:	0000                	unimp
  1000fe:	0000                	unimp
  100100:	0004                	0x4
  100102:	0000                	unimp
  100104:	0000                	unimp
  100106:	0000                	unimp
  100108:	0000                	unimp
  10010a:	0000                	unimp
  10010c:	0000                	unimp
  10010e:	0000                	unimp
  100110:	0000                	unimp
  100112:	0000                	unimp
  100114:	0000                	unimp
  100116:	0000                	unimp
  100118:	0000                	unimp
  10011a:	0000                	unimp
  10011c:	0000                	unimp
  10011e:	0000                	unimp
  100120:	0000                	unimp
  100122:	0000                	unimp
  100124:	0000                	unimp
  100126:	0000                	unimp
  100128:	0000                	unimp
  10012a:	0000                	unimp
  10012c:	0000                	unimp
  10012e:	0000                	unimp
  100130:	0000                	unimp
  100132:	0000                	unimp
  100134:	0000                	unimp
  100136:	0000                	unimp
  100138:	0000                	unimp
  10013a:	0000                	unimp
  10013c:	0000                	unimp
  10013e:	0000                	unimp
  100140:	0000                	unimp
  100142:	0000                	unimp
  100144:	0000                	unimp
  100146:	0000                	unimp
  100148:	0000                	unimp
  10014a:	0000                	unimp
  10014c:	0000                	unimp
  10014e:	0000                	unimp
  100150:	0000                	unimp
  100152:	0000                	unimp
  100154:	0000                	unimp
  100156:	0000                	unimp
  100158:	0000                	unimp
  10015a:	0000                	unimp
  10015c:	0000                	unimp
  10015e:	0000                	unimp
  100160:	0000                	unimp
  100162:	0000                	unimp
  100164:	0000                	unimp
  100166:	0000                	unimp
  100168:	0000                	unimp
  10016a:	0000                	unimp
  10016c:	0000                	unimp
  10016e:	0000                	unimp
  100170:	0000                	unimp
  100172:	0000                	unimp
  100174:	0000                	unimp
  100176:	0000                	unimp
  100178:	0000                	unimp
  10017a:	0000                	unimp
  10017c:	0000                	unimp
  10017e:	0000                	unimp
  100180:	0000                	unimp
  100182:	0000                	unimp
  100184:	0000                	unimp
  100186:	0000                	unimp
  100188:	0000                	unimp
  10018a:	0000                	unimp
  10018c:	0000                	unimp
  10018e:	0000                	unimp
  100190:	0000                	unimp
  100192:	0000                	unimp
  100194:	0000                	unimp
  100196:	0000                	unimp
  100198:	0000                	unimp
  10019a:	0000                	unimp
  10019c:	0000                	unimp
  10019e:	0000                	unimp
  1001a0:	0000                	unimp
  1001a2:	0000                	unimp
  1001a4:	0000                	unimp
  1001a6:	0000                	unimp
  1001a8:	0000                	unimp
  1001aa:	0000                	unimp
  1001ac:	0000                	unimp
  1001ae:	0000                	unimp
  1001b0:	0000                	unimp
  1001b2:	0000                	unimp
  1001b4:	0000                	unimp
  1001b6:	0000                	unimp
  1001b8:	0000                	unimp
  1001ba:	0000                	unimp
  1001bc:	0005                	c.nop	1
  1001be:	0000                	unimp
  1001c0:	0000                	unimp
  1001c2:	0000                	unimp
  1001c4:	0000                	unimp
  1001c6:	0000                	unimp
  1001c8:	0000                	unimp
  1001ca:	0000                	unimp
  1001cc:	0000                	unimp
  1001ce:	0000                	unimp
  1001d0:	0000                	unimp
  1001d2:	0000                	unimp
  1001d4:	0000                	unimp
  1001d6:	0000                	unimp
  1001d8:	0000                	unimp
  1001da:	0000                	unimp
  1001dc:	0000                	unimp
  1001de:	0000                	unimp
  1001e0:	0000                	unimp
  1001e2:	0000                	unimp
  1001e4:	0000                	unimp
  1001e6:	0000                	unimp
  1001e8:	0000                	unimp
  1001ea:	0000                	unimp
  1001ec:	0000                	unimp
  1001ee:	0000                	unimp
  1001f0:	0000                	unimp
  1001f2:	0000                	unimp
  1001f4:	0000                	unimp
  1001f6:	0000                	unimp
  1001f8:	0000                	unimp
  1001fa:	0000                	unimp
  1001fc:	0000                	unimp
  1001fe:	0000                	unimp
  100200:	0000                	unimp
  100202:	0000                	unimp
  100204:	0000                	unimp
  100206:	0000                	unimp
  100208:	0000                	unimp
  10020a:	0000                	unimp
  10020c:	0000                	unimp
  10020e:	0000                	unimp
  100210:	0000                	unimp
  100212:	0000                	unimp
  100214:	0000                	unimp
  100216:	0000                	unimp
  100218:	0000                	unimp
  10021a:	0000                	unimp
  10021c:	0000                	unimp
  10021e:	0000                	unimp
  100220:	0000                	unimp
  100222:	0000                	unimp
  100224:	0000                	unimp
  100226:	0000                	unimp
  100228:	0000                	unimp
  10022a:	0000                	unimp
  10022c:	0000                	unimp
  10022e:	0000                	unimp
  100230:	0000                	unimp
  100232:	0000                	unimp
  100234:	0000                	unimp
  100236:	0000                	unimp
  100238:	0000                	unimp
  10023a:	0000                	unimp
  10023c:	0000                	unimp
  10023e:	0000                	unimp
  100240:	0000                	unimp
  100242:	0000                	unimp
  100244:	0000                	unimp
  100246:	0000                	unimp
  100248:	0000                	unimp
  10024a:	0000                	unimp
  10024c:	0000                	unimp
  10024e:	0000                	unimp
  100250:	0000                	unimp
  100252:	0000                	unimp
  100254:	0000                	unimp
  100256:	0000                	unimp
  100258:	0000                	unimp
  10025a:	0000                	unimp
  10025c:	0000                	unimp
  10025e:	0000                	unimp
  100260:	0000                	unimp
  100262:	0000                	unimp
  100264:	0000                	unimp
  100266:	0000                	unimp
  100268:	0000                	unimp
  10026a:	0000                	unimp
  10026c:	0000                	unimp
  10026e:	0000                	unimp
  100270:	0000                	unimp
  100272:	0000                	unimp
  100274:	0000                	unimp
  100276:	0000                	unimp
  100278:	0000                	unimp
  10027a:	0000                	unimp
  10027c:	0000                	unimp
  10027e:	0000                	unimp
  100280:	0000                	unimp
  100282:	0000                	unimp
  100284:	0000                	unimp
  100286:	0000                	unimp
  100288:	0000                	unimp
  10028a:	0000                	unimp
  10028c:	0000                	unimp
  10028e:	0000                	unimp
  100290:	0000                	unimp
  100292:	0000                	unimp
  100294:	0000                	unimp
  100296:	0000                	unimp
  100298:	0000                	unimp
  10029a:	0000                	unimp
  10029c:	0000                	unimp
  10029e:	0000                	unimp
  1002a0:	0000                	unimp
  1002a2:	0000                	unimp
  1002a4:	0000                	unimp
  1002a6:	0000                	unimp
  1002a8:	0000                	unimp
  1002aa:	0000                	unimp
  1002ac:	0000                	unimp
  1002ae:	0000                	unimp
  1002b0:	0000                	unimp
  1002b2:	0000                	unimp
  1002b4:	0000                	unimp
  1002b6:	0000                	unimp
  1002b8:	0000                	unimp
  1002ba:	0000                	unimp
  1002bc:	0000                	unimp
  1002be:	0000                	unimp
  1002c0:	0000                	unimp
  1002c2:	0000                	unimp
  1002c4:	0000                	unimp
  1002c6:	0000                	unimp
  1002c8:	0000                	unimp
  1002ca:	0000                	unimp
  1002cc:	0000                	unimp
  1002ce:	0000                	unimp
  1002d0:	0000                	unimp
  1002d2:	0000                	unimp
  1002d4:	0000                	unimp
  1002d6:	0000                	unimp
  1002d8:	0000                	unimp
  1002da:	0000                	unimp
  1002dc:	0000                	unimp
  1002de:	0000                	unimp
  1002e0:	0000                	unimp
  1002e2:	0000                	unimp
  1002e4:	0000                	unimp
  1002e6:	0000                	unimp
  1002e8:	0000                	unimp
  1002ea:	0000                	unimp
  1002ec:	0000                	unimp
  1002ee:	0000                	unimp
  1002f0:	0000                	unimp
  1002f2:	0000                	unimp
  1002f4:	0000                	unimp
  1002f6:	0000                	unimp
  1002f8:	0000                	unimp
  1002fa:	0000                	unimp
  1002fc:	0000                	unimp
  1002fe:	0000                	unimp
  100300:	0000                	unimp
  100302:	0000                	unimp
  100304:	0000                	unimp
  100306:	0000                	unimp
  100308:	0000                	unimp
  10030a:	0000                	unimp
  10030c:	0000                	unimp
  10030e:	0000                	unimp
  100310:	0000                	unimp
  100312:	0000                	unimp
  100314:	0000                	unimp
  100316:	0000                	unimp
  100318:	0000                	unimp
  10031a:	0000                	unimp
  10031c:	0000                	unimp
  10031e:	0000                	unimp
  100320:	0000                	unimp
  100322:	0000                	unimp
  100324:	0000                	unimp
  100326:	0000                	unimp
  100328:	0000                	unimp
  10032a:	0000                	unimp
  10032c:	0000                	unimp
  10032e:	0000                	unimp
  100330:	0000                	unimp
  100332:	0000                	unimp
  100334:	0000                	unimp
  100336:	0000                	unimp
  100338:	0000                	unimp
  10033a:	0000                	unimp
  10033c:	0000                	unimp
  10033e:	0000                	unimp
  100340:	0000                	unimp
  100342:	0000                	unimp
  100344:	0000                	unimp
  100346:	0000                	unimp
  100348:	0000                	unimp
  10034a:	0000                	unimp
  10034c:	0000                	unimp
  10034e:	0000                	unimp
  100350:	0000                	unimp
  100352:	0000                	unimp
  100354:	0000                	unimp
  100356:	0000                	unimp
  100358:	0000                	unimp
  10035a:	0000                	unimp
  10035c:	0000                	unimp
  10035e:	0000                	unimp
  100360:	0000                	unimp
  100362:	0000                	unimp
  100364:	0000                	unimp
  100366:	0000                	unimp
  100368:	0000                	unimp
  10036a:	0000                	unimp
  10036c:	0000                	unimp
  10036e:	0000                	unimp
  100370:	0000                	unimp
  100372:	0000                	unimp
  100374:	0000                	unimp
  100376:	0000                	unimp
  100378:	0000                	unimp
  10037a:	0000                	unimp
  10037c:	0000                	unimp
  10037e:	0000                	unimp
  100380:	0000                	unimp
  100382:	0000                	unimp
  100384:	0000                	unimp
  100386:	0000                	unimp
  100388:	0000                	unimp
  10038a:	0000                	unimp
  10038c:	0000                	unimp
  10038e:	0000                	unimp
  100390:	0000                	unimp
  100392:	0000                	unimp
  100394:	0000                	unimp
  100396:	0000                	unimp
  100398:	0000                	unimp
  10039a:	0000                	unimp
  10039c:	0000                	unimp
  10039e:	0000                	unimp
  1003a0:	0000                	unimp
  1003a2:	0000                	unimp
  1003a4:	0000                	unimp
  1003a6:	0000                	unimp
  1003a8:	0000                	unimp
  1003aa:	0000                	unimp
  1003ac:	0000                	unimp
  1003ae:	0000                	unimp
  1003b0:	0000                	unimp
  1003b2:	0000                	unimp
  1003b4:	0000                	unimp
  1003b6:	0000                	unimp
  1003b8:	0000                	unimp
  1003ba:	0000                	unimp
  1003bc:	0000                	unimp
  1003be:	0000                	unimp
  1003c0:	0000                	unimp
  1003c2:	0000                	unimp
  1003c4:	0000                	unimp
  1003c6:	0000                	unimp
  1003c8:	0000                	unimp
  1003ca:	0000                	unimp
  1003cc:	0000                	unimp
  1003ce:	0000                	unimp
  1003d0:	0000                	unimp
  1003d2:	0000                	unimp
  1003d4:	0000                	unimp
  1003d6:	0000                	unimp
  1003d8:	0000                	unimp
  1003da:	0000                	unimp
  1003dc:	0000                	unimp
  1003de:	0000                	unimp
  1003e0:	0000                	unimp
  1003e2:	0000                	unimp
  1003e4:	0000                	unimp
  1003e6:	0000                	unimp
  1003e8:	0000                	unimp
  1003ea:	0000                	unimp
  1003ec:	0000                	unimp
  1003ee:	0000                	unimp
  1003f0:	0000                	unimp
  1003f2:	0000                	unimp
  1003f4:	0000                	unimp
  1003f6:	0000                	unimp
  1003f8:	0000                	unimp
  1003fa:	0000                	unimp
  1003fc:	0000                	unimp
  1003fe:	0000                	unimp
  100400:	0000                	unimp
  100402:	0000                	unimp
  100404:	0000                	unimp
  100406:	0000                	unimp
  100408:	0000                	unimp
  10040a:	0000                	unimp
  10040c:	0000                	unimp
  10040e:	0000                	unimp
  100410:	0000                	unimp
  100412:	0000                	unimp
  100414:	0000                	unimp
  100416:	0000                	unimp
  100418:	0000                	unimp
  10041a:	0000                	unimp
  10041c:	0000                	unimp
  10041e:	0000                	unimp
  100420:	0000                	unimp
  100422:	0000                	unimp
  100424:	0000                	unimp
  100426:	0000                	unimp
  100428:	0000                	unimp
  10042a:	0000                	unimp
  10042c:	0000                	unimp
  10042e:	0000                	unimp
  100430:	0000                	unimp
  100432:	0000                	unimp
  100434:	0000                	unimp
  100436:	0000                	unimp
  100438:	0000                	unimp
  10043a:	0000                	unimp
  10043c:	0000                	unimp
  10043e:	0000                	unimp
  100440:	0000                	unimp
  100442:	0000                	unimp

Disassembly of section .sdata:

00100444 <vga_start>:
  100444:	0000                	unimp
  100446:	0020                	addi	s0,sp,8

00100448 <time>:
  100448:	0000                	unimp
  10044a:	0040                	addi	s0,sp,4

0010044c <start_line>:
  10044c:	0000                	unimp
  10044e:	0050                	addi	a2,sp,4

00100450 <key>:
  100450:	0000                	unimp
  100452:	0030                	addi	a2,sp,8

Disassembly of section .bss:

00100454 <tokens>:
  100454:	0000                	unimp
  100456:	0000                	unimp
  100458:	0000                	unimp
  10045a:	0000                	unimp
  10045c:	0000                	unimp
  10045e:	0000                	unimp
  100460:	0000                	unimp
  100462:	0000                	unimp
  100464:	0000                	unimp
  100466:	0000                	unimp
  100468:	0000                	unimp
  10046a:	0000                	unimp
  10046c:	0000                	unimp
  10046e:	0000                	unimp
  100470:	0000                	unimp
  100472:	0000                	unimp
  100474:	0000                	unimp
  100476:	0000                	unimp
  100478:	0000                	unimp
  10047a:	0000                	unimp
  10047c:	0000                	unimp
  10047e:	0000                	unimp
  100480:	0000                	unimp
  100482:	0000                	unimp
  100484:	0000                	unimp
  100486:	0000                	unimp
  100488:	0000                	unimp
  10048a:	0000                	unimp
  10048c:	0000                	unimp
  10048e:	0000                	unimp
  100490:	0000                	unimp
  100492:	0000                	unimp
  100494:	0000                	unimp
  100496:	0000                	unimp
  100498:	0000                	unimp
  10049a:	0000                	unimp
  10049c:	0000                	unimp
  10049e:	0000                	unimp
  1004a0:	0000                	unimp
  1004a2:	0000                	unimp
  1004a4:	0000                	unimp
  1004a6:	0000                	unimp
  1004a8:	0000                	unimp
  1004aa:	0000                	unimp
  1004ac:	0000                	unimp
  1004ae:	0000                	unimp
  1004b0:	0000                	unimp
  1004b2:	0000                	unimp
  1004b4:	0000                	unimp
  1004b6:	0000                	unimp
  1004b8:	0000                	unimp
  1004ba:	0000                	unimp
  1004bc:	0000                	unimp
  1004be:	0000                	unimp
  1004c0:	0000                	unimp
  1004c2:	0000                	unimp
  1004c4:	0000                	unimp
  1004c6:	0000                	unimp
  1004c8:	0000                	unimp
  1004ca:	0000                	unimp
  1004cc:	0000                	unimp
  1004ce:	0000                	unimp
  1004d0:	0000                	unimp
  1004d2:	0000                	unimp
  1004d4:	0000                	unimp
  1004d6:	0000                	unimp
  1004d8:	0000                	unimp
  1004da:	0000                	unimp
  1004dc:	0000                	unimp
  1004de:	0000                	unimp
  1004e0:	0000                	unimp
  1004e2:	0000                	unimp
  1004e4:	0000                	unimp
  1004e6:	0000                	unimp
  1004e8:	0000                	unimp
  1004ea:	0000                	unimp
  1004ec:	0000                	unimp
  1004ee:	0000                	unimp
  1004f0:	0000                	unimp
  1004f2:	0000                	unimp
  1004f4:	0000                	unimp
  1004f6:	0000                	unimp
  1004f8:	0000                	unimp
  1004fa:	0000                	unimp
  1004fc:	0000                	unimp
  1004fe:	0000                	unimp
  100500:	0000                	unimp
  100502:	0000                	unimp
  100504:	0000                	unimp
  100506:	0000                	unimp
  100508:	0000                	unimp
  10050a:	0000                	unimp
  10050c:	0000                	unimp
  10050e:	0000                	unimp
  100510:	0000                	unimp
  100512:	0000                	unimp
  100514:	0000                	unimp
  100516:	0000                	unimp
  100518:	0000                	unimp
  10051a:	0000                	unimp
  10051c:	0000                	unimp
  10051e:	0000                	unimp
  100520:	0000                	unimp
  100522:	0000                	unimp
  100524:	0000                	unimp
  100526:	0000                	unimp
  100528:	0000                	unimp
  10052a:	0000                	unimp
  10052c:	0000                	unimp
  10052e:	0000                	unimp
  100530:	0000                	unimp
  100532:	0000                	unimp
  100534:	0000                	unimp
  100536:	0000                	unimp
  100538:	0000                	unimp
  10053a:	0000                	unimp
  10053c:	0000                	unimp
  10053e:	0000                	unimp
  100540:	0000                	unimp
  100542:	0000                	unimp
  100544:	0000                	unimp
  100546:	0000                	unimp
  100548:	0000                	unimp
  10054a:	0000                	unimp
  10054c:	0000                	unimp
  10054e:	0000                	unimp
  100550:	0000                	unimp
  100552:	0000                	unimp
  100554:	0000                	unimp
  100556:	0000                	unimp
  100558:	0000                	unimp
  10055a:	0000                	unimp
  10055c:	0000                	unimp
  10055e:	0000                	unimp
  100560:	0000                	unimp
  100562:	0000                	unimp
  100564:	0000                	unimp
  100566:	0000                	unimp
  100568:	0000                	unimp
  10056a:	0000                	unimp
  10056c:	0000                	unimp
  10056e:	0000                	unimp
  100570:	0000                	unimp
  100572:	0000                	unimp
  100574:	0000                	unimp
  100576:	0000                	unimp
  100578:	0000                	unimp
  10057a:	0000                	unimp
  10057c:	0000                	unimp
  10057e:	0000                	unimp
  100580:	0000                	unimp
  100582:	0000                	unimp
  100584:	0000                	unimp
  100586:	0000                	unimp
  100588:	0000                	unimp
  10058a:	0000                	unimp
  10058c:	0000                	unimp
  10058e:	0000                	unimp
  100590:	0000                	unimp
  100592:	0000                	unimp
  100594:	0000                	unimp
  100596:	0000                	unimp
  100598:	0000                	unimp
  10059a:	0000                	unimp
  10059c:	0000                	unimp
  10059e:	0000                	unimp
  1005a0:	0000                	unimp
  1005a2:	0000                	unimp
  1005a4:	0000                	unimp
  1005a6:	0000                	unimp
  1005a8:	0000                	unimp
  1005aa:	0000                	unimp
  1005ac:	0000                	unimp
  1005ae:	0000                	unimp
  1005b0:	0000                	unimp
  1005b2:	0000                	unimp
  1005b4:	0000                	unimp
  1005b6:	0000                	unimp
  1005b8:	0000                	unimp
  1005ba:	0000                	unimp
  1005bc:	0000                	unimp
  1005be:	0000                	unimp
  1005c0:	0000                	unimp
  1005c2:	0000                	unimp
  1005c4:	0000                	unimp
  1005c6:	0000                	unimp
  1005c8:	0000                	unimp
  1005ca:	0000                	unimp
  1005cc:	0000                	unimp
  1005ce:	0000                	unimp
  1005d0:	0000                	unimp
  1005d2:	0000                	unimp
  1005d4:	0000                	unimp
  1005d6:	0000                	unimp
  1005d8:	0000                	unimp
  1005da:	0000                	unimp
  1005dc:	0000                	unimp
  1005de:	0000                	unimp
  1005e0:	0000                	unimp
  1005e2:	0000                	unimp
  1005e4:	0000                	unimp
  1005e6:	0000                	unimp
  1005e8:	0000                	unimp
  1005ea:	0000                	unimp
  1005ec:	0000                	unimp
  1005ee:	0000                	unimp
  1005f0:	0000                	unimp
  1005f2:	0000                	unimp
  1005f4:	0000                	unimp
  1005f6:	0000                	unimp
  1005f8:	0000                	unimp
  1005fa:	0000                	unimp
  1005fc:	0000                	unimp
  1005fe:	0000                	unimp
  100600:	0000                	unimp
  100602:	0000                	unimp
  100604:	0000                	unimp
  100606:	0000                	unimp
  100608:	0000                	unimp
  10060a:	0000                	unimp
  10060c:	0000                	unimp
  10060e:	0000                	unimp
  100610:	0000                	unimp
  100612:	0000                	unimp
  100614:	0000                	unimp
  100616:	0000                	unimp
  100618:	0000                	unimp
  10061a:	0000                	unimp
  10061c:	0000                	unimp
  10061e:	0000                	unimp
  100620:	0000                	unimp
  100622:	0000                	unimp
  100624:	0000                	unimp
  100626:	0000                	unimp
  100628:	0000                	unimp
  10062a:	0000                	unimp
  10062c:	0000                	unimp
  10062e:	0000                	unimp
  100630:	0000                	unimp
  100632:	0000                	unimp
  100634:	0000                	unimp
  100636:	0000                	unimp
  100638:	0000                	unimp
  10063a:	0000                	unimp
  10063c:	0000                	unimp
  10063e:	0000                	unimp
  100640:	0000                	unimp
  100642:	0000                	unimp
  100644:	0000                	unimp
  100646:	0000                	unimp
  100648:	0000                	unimp
  10064a:	0000                	unimp
  10064c:	0000                	unimp
  10064e:	0000                	unimp
  100650:	0000                	unimp
  100652:	0000                	unimp
  100654:	0000                	unimp
  100656:	0000                	unimp
  100658:	0000                	unimp
  10065a:	0000                	unimp
  10065c:	0000                	unimp
  10065e:	0000                	unimp
  100660:	0000                	unimp
  100662:	0000                	unimp
  100664:	0000                	unimp
  100666:	0000                	unimp
  100668:	0000                	unimp
  10066a:	0000                	unimp
  10066c:	0000                	unimp
  10066e:	0000                	unimp
  100670:	0000                	unimp
  100672:	0000                	unimp
  100674:	0000                	unimp
  100676:	0000                	unimp
  100678:	0000                	unimp
  10067a:	0000                	unimp
  10067c:	0000                	unimp
  10067e:	0000                	unimp
  100680:	0000                	unimp
  100682:	0000                	unimp
  100684:	0000                	unimp
  100686:	0000                	unimp
  100688:	0000                	unimp
  10068a:	0000                	unimp
  10068c:	0000                	unimp
  10068e:	0000                	unimp
  100690:	0000                	unimp
  100692:	0000                	unimp
  100694:	0000                	unimp
  100696:	0000                	unimp
  100698:	0000                	unimp
  10069a:	0000                	unimp
  10069c:	0000                	unimp
  10069e:	0000                	unimp
  1006a0:	0000                	unimp
  1006a2:	0000                	unimp
  1006a4:	0000                	unimp
  1006a6:	0000                	unimp
  1006a8:	0000                	unimp
  1006aa:	0000                	unimp
  1006ac:	0000                	unimp
  1006ae:	0000                	unimp
  1006b0:	0000                	unimp
  1006b2:	0000                	unimp
  1006b4:	0000                	unimp
  1006b6:	0000                	unimp
  1006b8:	0000                	unimp
  1006ba:	0000                	unimp
  1006bc:	0000                	unimp
  1006be:	0000                	unimp
  1006c0:	0000                	unimp
  1006c2:	0000                	unimp
  1006c4:	0000                	unimp
  1006c6:	0000                	unimp
  1006c8:	0000                	unimp
  1006ca:	0000                	unimp
  1006cc:	0000                	unimp
  1006ce:	0000                	unimp
  1006d0:	0000                	unimp
  1006d2:	0000                	unimp
  1006d4:	0000                	unimp
  1006d6:	0000                	unimp
  1006d8:	0000                	unimp
  1006da:	0000                	unimp
  1006dc:	0000                	unimp
  1006de:	0000                	unimp
  1006e0:	0000                	unimp
  1006e2:	0000                	unimp
  1006e4:	0000                	unimp
  1006e6:	0000                	unimp
  1006e8:	0000                	unimp
  1006ea:	0000                	unimp
  1006ec:	0000                	unimp
  1006ee:	0000                	unimp
  1006f0:	0000                	unimp
  1006f2:	0000                	unimp
  1006f4:	0000                	unimp
  1006f6:	0000                	unimp
  1006f8:	0000                	unimp
  1006fa:	0000                	unimp
  1006fc:	0000                	unimp
  1006fe:	0000                	unimp
  100700:	0000                	unimp
  100702:	0000                	unimp
  100704:	0000                	unimp
  100706:	0000                	unimp
  100708:	0000                	unimp
  10070a:	0000                	unimp
  10070c:	0000                	unimp
  10070e:	0000                	unimp
  100710:	0000                	unimp
  100712:	0000                	unimp
  100714:	0000                	unimp
  100716:	0000                	unimp
  100718:	0000                	unimp
  10071a:	0000                	unimp
  10071c:	0000                	unimp
  10071e:	0000                	unimp
  100720:	0000                	unimp
  100722:	0000                	unimp
  100724:	0000                	unimp
  100726:	0000                	unimp
  100728:	0000                	unimp
  10072a:	0000                	unimp
  10072c:	0000                	unimp
  10072e:	0000                	unimp
  100730:	0000                	unimp
  100732:	0000                	unimp
  100734:	0000                	unimp
  100736:	0000                	unimp
  100738:	0000                	unimp
  10073a:	0000                	unimp
  10073c:	0000                	unimp
  10073e:	0000                	unimp
  100740:	0000                	unimp
  100742:	0000                	unimp
  100744:	0000                	unimp
  100746:	0000                	unimp
  100748:	0000                	unimp
  10074a:	0000                	unimp
  10074c:	0000                	unimp
  10074e:	0000                	unimp
  100750:	0000                	unimp
  100752:	0000                	unimp
  100754:	0000                	unimp
  100756:	0000                	unimp
  100758:	0000                	unimp
  10075a:	0000                	unimp
  10075c:	0000                	unimp
  10075e:	0000                	unimp
  100760:	0000                	unimp
  100762:	0000                	unimp
  100764:	0000                	unimp
  100766:	0000                	unimp
  100768:	0000                	unimp
  10076a:	0000                	unimp
  10076c:	0000                	unimp
  10076e:	0000                	unimp
  100770:	0000                	unimp
  100772:	0000                	unimp
  100774:	0000                	unimp
  100776:	0000                	unimp
  100778:	0000                	unimp
  10077a:	0000                	unimp
  10077c:	0000                	unimp
  10077e:	0000                	unimp
  100780:	0000                	unimp
  100782:	0000                	unimp
  100784:	0000                	unimp
  100786:	0000                	unimp
  100788:	0000                	unimp
  10078a:	0000                	unimp
  10078c:	0000                	unimp
  10078e:	0000                	unimp
  100790:	0000                	unimp
  100792:	0000                	unimp
  100794:	0000                	unimp
  100796:	0000                	unimp
  100798:	0000                	unimp
  10079a:	0000                	unimp
  10079c:	0000                	unimp
  10079e:	0000                	unimp
  1007a0:	0000                	unimp
  1007a2:	0000                	unimp
  1007a4:	0000                	unimp
  1007a6:	0000                	unimp
  1007a8:	0000                	unimp
  1007aa:	0000                	unimp
  1007ac:	0000                	unimp
  1007ae:	0000                	unimp
  1007b0:	0000                	unimp
  1007b2:	0000                	unimp
  1007b4:	0000                	unimp
  1007b6:	0000                	unimp
  1007b8:	0000                	unimp
  1007ba:	0000                	unimp
  1007bc:	0000                	unimp
  1007be:	0000                	unimp
  1007c0:	0000                	unimp
  1007c2:	0000                	unimp
  1007c4:	0000                	unimp
  1007c6:	0000                	unimp
  1007c8:	0000                	unimp
  1007ca:	0000                	unimp
  1007cc:	0000                	unimp
  1007ce:	0000                	unimp
  1007d0:	0000                	unimp
  1007d2:	0000                	unimp
  1007d4:	0000                	unimp
  1007d6:	0000                	unimp
  1007d8:	0000                	unimp
  1007da:	0000                	unimp
  1007dc:	0000                	unimp
  1007de:	0000                	unimp
  1007e0:	0000                	unimp
  1007e2:	0000                	unimp
  1007e4:	0000                	unimp
  1007e6:	0000                	unimp
  1007e8:	0000                	unimp
  1007ea:	0000                	unimp
  1007ec:	0000                	unimp
  1007ee:	0000                	unimp
  1007f0:	0000                	unimp
  1007f2:	0000                	unimp
  1007f4:	0000                	unimp
  1007f6:	0000                	unimp
  1007f8:	0000                	unimp
  1007fa:	0000                	unimp
  1007fc:	0000                	unimp
  1007fe:	0000                	unimp
  100800:	0000                	unimp
  100802:	0000                	unimp
  100804:	0000                	unimp
  100806:	0000                	unimp
  100808:	0000                	unimp
  10080a:	0000                	unimp
  10080c:	0000                	unimp
  10080e:	0000                	unimp
  100810:	0000                	unimp
  100812:	0000                	unimp
  100814:	0000                	unimp
  100816:	0000                	unimp
  100818:	0000                	unimp
  10081a:	0000                	unimp
  10081c:	0000                	unimp
  10081e:	0000                	unimp
  100820:	0000                	unimp
  100822:	0000                	unimp
  100824:	0000                	unimp
  100826:	0000                	unimp
  100828:	0000                	unimp
  10082a:	0000                	unimp
  10082c:	0000                	unimp
  10082e:	0000                	unimp
  100830:	0000                	unimp
  100832:	0000                	unimp
  100834:	0000                	unimp
  100836:	0000                	unimp
  100838:	0000                	unimp
  10083a:	0000                	unimp
  10083c:	0000                	unimp
  10083e:	0000                	unimp
  100840:	0000                	unimp
  100842:	0000                	unimp
  100844:	0000                	unimp
  100846:	0000                	unimp
  100848:	0000                	unimp
  10084a:	0000                	unimp
  10084c:	0000                	unimp
  10084e:	0000                	unimp
  100850:	0000                	unimp
  100852:	0000                	unimp
  100854:	0000                	unimp
  100856:	0000                	unimp
  100858:	0000                	unimp
  10085a:	0000                	unimp
  10085c:	0000                	unimp
  10085e:	0000                	unimp
  100860:	0000                	unimp
  100862:	0000                	unimp
  100864:	0000                	unimp
  100866:	0000                	unimp
  100868:	0000                	unimp
  10086a:	0000                	unimp
  10086c:	0000                	unimp
  10086e:	0000                	unimp
  100870:	0000                	unimp
  100872:	0000                	unimp
  100874:	0000                	unimp
  100876:	0000                	unimp
  100878:	0000                	unimp
  10087a:	0000                	unimp
  10087c:	0000                	unimp
  10087e:	0000                	unimp
  100880:	0000                	unimp
  100882:	0000                	unimp
  100884:	0000                	unimp
  100886:	0000                	unimp
  100888:	0000                	unimp
  10088a:	0000                	unimp
  10088c:	0000                	unimp
  10088e:	0000                	unimp
  100890:	0000                	unimp
  100892:	0000                	unimp
  100894:	0000                	unimp
  100896:	0000                	unimp
  100898:	0000                	unimp
  10089a:	0000                	unimp
  10089c:	0000                	unimp
  10089e:	0000                	unimp
  1008a0:	0000                	unimp
  1008a2:	0000                	unimp
  1008a4:	0000                	unimp
  1008a6:	0000                	unimp
  1008a8:	0000                	unimp
  1008aa:	0000                	unimp
  1008ac:	0000                	unimp
  1008ae:	0000                	unimp
  1008b0:	0000                	unimp
  1008b2:	0000                	unimp
  1008b4:	0000                	unimp
  1008b6:	0000                	unimp
  1008b8:	0000                	unimp
  1008ba:	0000                	unimp
  1008bc:	0000                	unimp
  1008be:	0000                	unimp
  1008c0:	0000                	unimp
  1008c2:	0000                	unimp
  1008c4:	0000                	unimp
  1008c6:	0000                	unimp
  1008c8:	0000                	unimp
  1008ca:	0000                	unimp
  1008cc:	0000                	unimp
  1008ce:	0000                	unimp
  1008d0:	0000                	unimp
  1008d2:	0000                	unimp
  1008d4:	0000                	unimp
  1008d6:	0000                	unimp
  1008d8:	0000                	unimp
  1008da:	0000                	unimp
  1008dc:	0000                	unimp
  1008de:	0000                	unimp
  1008e0:	0000                	unimp
  1008e2:	0000                	unimp
  1008e4:	0000                	unimp
  1008e6:	0000                	unimp
  1008e8:	0000                	unimp
  1008ea:	0000                	unimp
  1008ec:	0000                	unimp
  1008ee:	0000                	unimp
  1008f0:	0000                	unimp
  1008f2:	0000                	unimp
  1008f4:	0000                	unimp
  1008f6:	0000                	unimp
  1008f8:	0000                	unimp
  1008fa:	0000                	unimp
  1008fc:	0000                	unimp
  1008fe:	0000                	unimp
  100900:	0000                	unimp
  100902:	0000                	unimp
  100904:	0000                	unimp
  100906:	0000                	unimp
  100908:	0000                	unimp
  10090a:	0000                	unimp
  10090c:	0000                	unimp
  10090e:	0000                	unimp
  100910:	0000                	unimp
  100912:	0000                	unimp
  100914:	0000                	unimp
  100916:	0000                	unimp
  100918:	0000                	unimp
  10091a:	0000                	unimp
  10091c:	0000                	unimp
  10091e:	0000                	unimp
  100920:	0000                	unimp
  100922:	0000                	unimp
  100924:	0000                	unimp
  100926:	0000                	unimp
  100928:	0000                	unimp
  10092a:	0000                	unimp
  10092c:	0000                	unimp
  10092e:	0000                	unimp
  100930:	0000                	unimp
  100932:	0000                	unimp
  100934:	0000                	unimp
  100936:	0000                	unimp
  100938:	0000                	unimp
  10093a:	0000                	unimp
  10093c:	0000                	unimp
  10093e:	0000                	unimp
  100940:	0000                	unimp
  100942:	0000                	unimp
  100944:	0000                	unimp
  100946:	0000                	unimp
  100948:	0000                	unimp
  10094a:	0000                	unimp
  10094c:	0000                	unimp
  10094e:	0000                	unimp
  100950:	0000                	unimp
  100952:	0000                	unimp
  100954:	0000                	unimp
  100956:	0000                	unimp
  100958:	0000                	unimp
  10095a:	0000                	unimp
  10095c:	0000                	unimp
  10095e:	0000                	unimp
  100960:	0000                	unimp
  100962:	0000                	unimp
  100964:	0000                	unimp
  100966:	0000                	unimp
  100968:	0000                	unimp
  10096a:	0000                	unimp
  10096c:	0000                	unimp
  10096e:	0000                	unimp
  100970:	0000                	unimp
  100972:	0000                	unimp
  100974:	0000                	unimp
  100976:	0000                	unimp
  100978:	0000                	unimp
  10097a:	0000                	unimp
  10097c:	0000                	unimp
  10097e:	0000                	unimp
  100980:	0000                	unimp
  100982:	0000                	unimp
  100984:	0000                	unimp
  100986:	0000                	unimp
  100988:	0000                	unimp
  10098a:	0000                	unimp
  10098c:	0000                	unimp
  10098e:	0000                	unimp
  100990:	0000                	unimp
  100992:	0000                	unimp
  100994:	0000                	unimp
  100996:	0000                	unimp
  100998:	0000                	unimp
  10099a:	0000                	unimp
  10099c:	0000                	unimp
  10099e:	0000                	unimp
  1009a0:	0000                	unimp
  1009a2:	0000                	unimp
  1009a4:	0000                	unimp
  1009a6:	0000                	unimp
  1009a8:	0000                	unimp
  1009aa:	0000                	unimp
  1009ac:	0000                	unimp
  1009ae:	0000                	unimp
  1009b0:	0000                	unimp
  1009b2:	0000                	unimp
  1009b4:	0000                	unimp
  1009b6:	0000                	unimp
  1009b8:	0000                	unimp
  1009ba:	0000                	unimp
  1009bc:	0000                	unimp
  1009be:	0000                	unimp
  1009c0:	0000                	unimp
  1009c2:	0000                	unimp
  1009c4:	0000                	unimp
  1009c6:	0000                	unimp
  1009c8:	0000                	unimp
  1009ca:	0000                	unimp
  1009cc:	0000                	unimp
  1009ce:	0000                	unimp
  1009d0:	0000                	unimp
  1009d2:	0000                	unimp
  1009d4:	0000                	unimp
  1009d6:	0000                	unimp
  1009d8:	0000                	unimp
  1009da:	0000                	unimp
  1009dc:	0000                	unimp
  1009de:	0000                	unimp
  1009e0:	0000                	unimp
  1009e2:	0000                	unimp
  1009e4:	0000                	unimp
  1009e6:	0000                	unimp
  1009e8:	0000                	unimp
  1009ea:	0000                	unimp
  1009ec:	0000                	unimp
  1009ee:	0000                	unimp
  1009f0:	0000                	unimp
  1009f2:	0000                	unimp
  1009f4:	0000                	unimp
  1009f6:	0000                	unimp
  1009f8:	0000                	unimp
  1009fa:	0000                	unimp
  1009fc:	0000                	unimp
  1009fe:	0000                	unimp
  100a00:	0000                	unimp
  100a02:	0000                	unimp
  100a04:	0000                	unimp
  100a06:	0000                	unimp
  100a08:	0000                	unimp
  100a0a:	0000                	unimp
  100a0c:	0000                	unimp
  100a0e:	0000                	unimp
  100a10:	0000                	unimp
  100a12:	0000                	unimp
  100a14:	0000                	unimp
  100a16:	0000                	unimp
  100a18:	0000                	unimp
  100a1a:	0000                	unimp
  100a1c:	0000                	unimp
  100a1e:	0000                	unimp
  100a20:	0000                	unimp
  100a22:	0000                	unimp
  100a24:	0000                	unimp
  100a26:	0000                	unimp
  100a28:	0000                	unimp
  100a2a:	0000                	unimp
  100a2c:	0000                	unimp
  100a2e:	0000                	unimp
  100a30:	0000                	unimp
  100a32:	0000                	unimp
  100a34:	0000                	unimp
  100a36:	0000                	unimp
  100a38:	0000                	unimp
  100a3a:	0000                	unimp
  100a3c:	0000                	unimp
  100a3e:	0000                	unimp
  100a40:	0000                	unimp
  100a42:	0000                	unimp
  100a44:	0000                	unimp
  100a46:	0000                	unimp
  100a48:	0000                	unimp
  100a4a:	0000                	unimp
  100a4c:	0000                	unimp
  100a4e:	0000                	unimp
  100a50:	0000                	unimp
  100a52:	0000                	unimp
  100a54:	0000                	unimp
  100a56:	0000                	unimp
  100a58:	0000                	unimp
  100a5a:	0000                	unimp
  100a5c:	0000                	unimp
  100a5e:	0000                	unimp
  100a60:	0000                	unimp
  100a62:	0000                	unimp
  100a64:	0000                	unimp
  100a66:	0000                	unimp
  100a68:	0000                	unimp
  100a6a:	0000                	unimp
  100a6c:	0000                	unimp
  100a6e:	0000                	unimp
  100a70:	0000                	unimp
  100a72:	0000                	unimp
  100a74:	0000                	unimp
  100a76:	0000                	unimp
  100a78:	0000                	unimp
  100a7a:	0000                	unimp
  100a7c:	0000                	unimp
  100a7e:	0000                	unimp
  100a80:	0000                	unimp
  100a82:	0000                	unimp
  100a84:	0000                	unimp
  100a86:	0000                	unimp
  100a88:	0000                	unimp
  100a8a:	0000                	unimp
  100a8c:	0000                	unimp
  100a8e:	0000                	unimp
  100a90:	0000                	unimp
  100a92:	0000                	unimp
  100a94:	0000                	unimp
  100a96:	0000                	unimp
  100a98:	0000                	unimp
  100a9a:	0000                	unimp
  100a9c:	0000                	unimp
  100a9e:	0000                	unimp
  100aa0:	0000                	unimp
  100aa2:	0000                	unimp
  100aa4:	0000                	unimp
  100aa6:	0000                	unimp
  100aa8:	0000                	unimp
  100aaa:	0000                	unimp
  100aac:	0000                	unimp
  100aae:	0000                	unimp
  100ab0:	0000                	unimp
  100ab2:	0000                	unimp
  100ab4:	0000                	unimp
  100ab6:	0000                	unimp
  100ab8:	0000                	unimp
  100aba:	0000                	unimp
  100abc:	0000                	unimp
  100abe:	0000                	unimp
  100ac0:	0000                	unimp
  100ac2:	0000                	unimp
  100ac4:	0000                	unimp
  100ac6:	0000                	unimp
  100ac8:	0000                	unimp
  100aca:	0000                	unimp
  100acc:	0000                	unimp
  100ace:	0000                	unimp
  100ad0:	0000                	unimp
  100ad2:	0000                	unimp
  100ad4:	0000                	unimp
  100ad6:	0000                	unimp
  100ad8:	0000                	unimp
  100ada:	0000                	unimp
  100adc:	0000                	unimp
  100ade:	0000                	unimp
  100ae0:	0000                	unimp
  100ae2:	0000                	unimp
  100ae4:	0000                	unimp
  100ae6:	0000                	unimp
  100ae8:	0000                	unimp
  100aea:	0000                	unimp
  100aec:	0000                	unimp
  100aee:	0000                	unimp
  100af0:	0000                	unimp
  100af2:	0000                	unimp
  100af4:	0000                	unimp
  100af6:	0000                	unimp
  100af8:	0000                	unimp
  100afa:	0000                	unimp
  100afc:	0000                	unimp
  100afe:	0000                	unimp
  100b00:	0000                	unimp
  100b02:	0000                	unimp
  100b04:	0000                	unimp
  100b06:	0000                	unimp
  100b08:	0000                	unimp
  100b0a:	0000                	unimp
  100b0c:	0000                	unimp
  100b0e:	0000                	unimp
  100b10:	0000                	unimp
  100b12:	0000                	unimp
  100b14:	0000                	unimp
  100b16:	0000                	unimp
  100b18:	0000                	unimp
  100b1a:	0000                	unimp
  100b1c:	0000                	unimp
  100b1e:	0000                	unimp
  100b20:	0000                	unimp
  100b22:	0000                	unimp
  100b24:	0000                	unimp
  100b26:	0000                	unimp
  100b28:	0000                	unimp
  100b2a:	0000                	unimp
  100b2c:	0000                	unimp
  100b2e:	0000                	unimp
  100b30:	0000                	unimp
  100b32:	0000                	unimp
  100b34:	0000                	unimp
  100b36:	0000                	unimp
  100b38:	0000                	unimp
  100b3a:	0000                	unimp
  100b3c:	0000                	unimp
  100b3e:	0000                	unimp
  100b40:	0000                	unimp
  100b42:	0000                	unimp
  100b44:	0000                	unimp
  100b46:	0000                	unimp
  100b48:	0000                	unimp
  100b4a:	0000                	unimp
  100b4c:	0000                	unimp
  100b4e:	0000                	unimp
  100b50:	0000                	unimp
  100b52:	0000                	unimp
  100b54:	0000                	unimp
  100b56:	0000                	unimp
  100b58:	0000                	unimp
  100b5a:	0000                	unimp
  100b5c:	0000                	unimp
  100b5e:	0000                	unimp
  100b60:	0000                	unimp
  100b62:	0000                	unimp
  100b64:	0000                	unimp
  100b66:	0000                	unimp
  100b68:	0000                	unimp
  100b6a:	0000                	unimp
  100b6c:	0000                	unimp
  100b6e:	0000                	unimp
  100b70:	0000                	unimp
  100b72:	0000                	unimp
  100b74:	0000                	unimp
  100b76:	0000                	unimp
  100b78:	0000                	unimp
  100b7a:	0000                	unimp
  100b7c:	0000                	unimp
  100b7e:	0000                	unimp
  100b80:	0000                	unimp
  100b82:	0000                	unimp
  100b84:	0000                	unimp
  100b86:	0000                	unimp
  100b88:	0000                	unimp
  100b8a:	0000                	unimp
  100b8c:	0000                	unimp
  100b8e:	0000                	unimp
  100b90:	0000                	unimp
  100b92:	0000                	unimp
  100b94:	0000                	unimp
  100b96:	0000                	unimp
  100b98:	0000                	unimp
  100b9a:	0000                	unimp
  100b9c:	0000                	unimp
  100b9e:	0000                	unimp
  100ba0:	0000                	unimp
  100ba2:	0000                	unimp
  100ba4:	0000                	unimp
  100ba6:	0000                	unimp
  100ba8:	0000                	unimp
  100baa:	0000                	unimp
  100bac:	0000                	unimp
  100bae:	0000                	unimp
  100bb0:	0000                	unimp
  100bb2:	0000                	unimp
  100bb4:	0000                	unimp
  100bb6:	0000                	unimp
  100bb8:	0000                	unimp
  100bba:	0000                	unimp
  100bbc:	0000                	unimp
  100bbe:	0000                	unimp
  100bc0:	0000                	unimp
  100bc2:	0000                	unimp
  100bc4:	0000                	unimp
  100bc6:	0000                	unimp
  100bc8:	0000                	unimp
  100bca:	0000                	unimp
  100bcc:	0000                	unimp
  100bce:	0000                	unimp
  100bd0:	0000                	unimp
  100bd2:	0000                	unimp
  100bd4:	0000                	unimp
  100bd6:	0000                	unimp
  100bd8:	0000                	unimp
  100bda:	0000                	unimp
  100bdc:	0000                	unimp
  100bde:	0000                	unimp
  100be0:	0000                	unimp
  100be2:	0000                	unimp
  100be4:	0000                	unimp
  100be6:	0000                	unimp
  100be8:	0000                	unimp
  100bea:	0000                	unimp
  100bec:	0000                	unimp
  100bee:	0000                	unimp
  100bf0:	0000                	unimp
  100bf2:	0000                	unimp
  100bf4:	0000                	unimp
  100bf6:	0000                	unimp
  100bf8:	0000                	unimp
  100bfa:	0000                	unimp
  100bfc:	0000                	unimp
  100bfe:	0000                	unimp
  100c00:	0000                	unimp
  100c02:	0000                	unimp
  100c04:	0000                	unimp
  100c06:	0000                	unimp
  100c08:	0000                	unimp
  100c0a:	0000                	unimp
  100c0c:	0000                	unimp
  100c0e:	0000                	unimp
  100c10:	0000                	unimp
  100c12:	0000                	unimp
  100c14:	0000                	unimp
  100c16:	0000                	unimp
  100c18:	0000                	unimp
  100c1a:	0000                	unimp
  100c1c:	0000                	unimp
  100c1e:	0000                	unimp
  100c20:	0000                	unimp
  100c22:	0000                	unimp
  100c24:	0000                	unimp
  100c26:	0000                	unimp
  100c28:	0000                	unimp
  100c2a:	0000                	unimp
  100c2c:	0000                	unimp
  100c2e:	0000                	unimp
  100c30:	0000                	unimp
  100c32:	0000                	unimp
  100c34:	0000                	unimp
  100c36:	0000                	unimp
  100c38:	0000                	unimp
  100c3a:	0000                	unimp
  100c3c:	0000                	unimp
  100c3e:	0000                	unimp
  100c40:	0000                	unimp
  100c42:	0000                	unimp
  100c44:	0000                	unimp
  100c46:	0000                	unimp
  100c48:	0000                	unimp
  100c4a:	0000                	unimp
  100c4c:	0000                	unimp
  100c4e:	0000                	unimp
  100c50:	0000                	unimp
  100c52:	0000                	unimp
  100c54:	0000                	unimp
  100c56:	0000                	unimp
  100c58:	0000                	unimp
  100c5a:	0000                	unimp
  100c5c:	0000                	unimp
  100c5e:	0000                	unimp
  100c60:	0000                	unimp
  100c62:	0000                	unimp
  100c64:	0000                	unimp
  100c66:	0000                	unimp
  100c68:	0000                	unimp
  100c6a:	0000                	unimp
  100c6c:	0000                	unimp
  100c6e:	0000                	unimp
  100c70:	0000                	unimp
  100c72:	0000                	unimp
  100c74:	0000                	unimp
  100c76:	0000                	unimp
  100c78:	0000                	unimp
  100c7a:	0000                	unimp
  100c7c:	0000                	unimp
  100c7e:	0000                	unimp
  100c80:	0000                	unimp
  100c82:	0000                	unimp
  100c84:	0000                	unimp
  100c86:	0000                	unimp
  100c88:	0000                	unimp
  100c8a:	0000                	unimp
  100c8c:	0000                	unimp
  100c8e:	0000                	unimp
  100c90:	0000                	unimp
  100c92:	0000                	unimp
  100c94:	0000                	unimp
  100c96:	0000                	unimp
  100c98:	0000                	unimp
  100c9a:	0000                	unimp
  100c9c:	0000                	unimp
  100c9e:	0000                	unimp
  100ca0:	0000                	unimp
  100ca2:	0000                	unimp
  100ca4:	0000                	unimp
  100ca6:	0000                	unimp
  100ca8:	0000                	unimp
  100caa:	0000                	unimp
  100cac:	0000                	unimp
  100cae:	0000                	unimp
  100cb0:	0000                	unimp
  100cb2:	0000                	unimp
  100cb4:	0000                	unimp
  100cb6:	0000                	unimp
  100cb8:	0000                	unimp
  100cba:	0000                	unimp
  100cbc:	0000                	unimp
  100cbe:	0000                	unimp
  100cc0:	0000                	unimp
  100cc2:	0000                	unimp
  100cc4:	0000                	unimp
  100cc6:	0000                	unimp
  100cc8:	0000                	unimp
  100cca:	0000                	unimp
  100ccc:	0000                	unimp
  100cce:	0000                	unimp
  100cd0:	0000                	unimp
  100cd2:	0000                	unimp
  100cd4:	0000                	unimp
  100cd6:	0000                	unimp
  100cd8:	0000                	unimp
  100cda:	0000                	unimp
  100cdc:	0000                	unimp
  100cde:	0000                	unimp
  100ce0:	0000                	unimp
  100ce2:	0000                	unimp
  100ce4:	0000                	unimp
  100ce6:	0000                	unimp
  100ce8:	0000                	unimp
  100cea:	0000                	unimp
  100cec:	0000                	unimp
  100cee:	0000                	unimp
  100cf0:	0000                	unimp
  100cf2:	0000                	unimp
  100cf4:	0000                	unimp
  100cf6:	0000                	unimp
  100cf8:	0000                	unimp
  100cfa:	0000                	unimp
  100cfc:	0000                	unimp
  100cfe:	0000                	unimp
  100d00:	0000                	unimp
  100d02:	0000                	unimp
  100d04:	0000                	unimp
  100d06:	0000                	unimp
  100d08:	0000                	unimp
  100d0a:	0000                	unimp
  100d0c:	0000                	unimp
  100d0e:	0000                	unimp
  100d10:	0000                	unimp
  100d12:	0000                	unimp
  100d14:	0000                	unimp
  100d16:	0000                	unimp
  100d18:	0000                	unimp
  100d1a:	0000                	unimp
  100d1c:	0000                	unimp
  100d1e:	0000                	unimp
  100d20:	0000                	unimp
  100d22:	0000                	unimp
  100d24:	0000                	unimp
  100d26:	0000                	unimp
  100d28:	0000                	unimp
  100d2a:	0000                	unimp
  100d2c:	0000                	unimp
  100d2e:	0000                	unimp
  100d30:	0000                	unimp
  100d32:	0000                	unimp
  100d34:	0000                	unimp
  100d36:	0000                	unimp
  100d38:	0000                	unimp
  100d3a:	0000                	unimp
  100d3c:	0000                	unimp
  100d3e:	0000                	unimp
  100d40:	0000                	unimp
  100d42:	0000                	unimp
  100d44:	0000                	unimp
  100d46:	0000                	unimp
  100d48:	0000                	unimp
  100d4a:	0000                	unimp
  100d4c:	0000                	unimp
  100d4e:	0000                	unimp
  100d50:	0000                	unimp
  100d52:	0000                	unimp
  100d54:	0000                	unimp
  100d56:	0000                	unimp
  100d58:	0000                	unimp
  100d5a:	0000                	unimp
  100d5c:	0000                	unimp
  100d5e:	0000                	unimp
  100d60:	0000                	unimp
  100d62:	0000                	unimp
  100d64:	0000                	unimp
  100d66:	0000                	unimp
  100d68:	0000                	unimp
  100d6a:	0000                	unimp
  100d6c:	0000                	unimp
  100d6e:	0000                	unimp
  100d70:	0000                	unimp
  100d72:	0000                	unimp
  100d74:	0000                	unimp
  100d76:	0000                	unimp
  100d78:	0000                	unimp
  100d7a:	0000                	unimp
  100d7c:	0000                	unimp
  100d7e:	0000                	unimp
  100d80:	0000                	unimp
  100d82:	0000                	unimp
  100d84:	0000                	unimp
  100d86:	0000                	unimp
  100d88:	0000                	unimp
  100d8a:	0000                	unimp
  100d8c:	0000                	unimp
  100d8e:	0000                	unimp
  100d90:	0000                	unimp
  100d92:	0000                	unimp
  100d94:	0000                	unimp
  100d96:	0000                	unimp
  100d98:	0000                	unimp
  100d9a:	0000                	unimp
  100d9c:	0000                	unimp
  100d9e:	0000                	unimp
  100da0:	0000                	unimp
  100da2:	0000                	unimp
  100da4:	0000                	unimp
  100da6:	0000                	unimp
  100da8:	0000                	unimp
  100daa:	0000                	unimp
  100dac:	0000                	unimp
  100dae:	0000                	unimp
  100db0:	0000                	unimp
  100db2:	0000                	unimp
  100db4:	0000                	unimp
  100db6:	0000                	unimp
  100db8:	0000                	unimp
  100dba:	0000                	unimp
  100dbc:	0000                	unimp
  100dbe:	0000                	unimp
  100dc0:	0000                	unimp
  100dc2:	0000                	unimp
  100dc4:	0000                	unimp
  100dc6:	0000                	unimp
  100dc8:	0000                	unimp
  100dca:	0000                	unimp
  100dcc:	0000                	unimp
  100dce:	0000                	unimp
  100dd0:	0000                	unimp
  100dd2:	0000                	unimp
  100dd4:	0000                	unimp
  100dd6:	0000                	unimp
  100dd8:	0000                	unimp
  100dda:	0000                	unimp
  100ddc:	0000                	unimp
  100dde:	0000                	unimp
  100de0:	0000                	unimp
  100de2:	0000                	unimp
  100de4:	0000                	unimp
  100de6:	0000                	unimp
  100de8:	0000                	unimp
  100dea:	0000                	unimp
  100dec:	0000                	unimp
  100dee:	0000                	unimp
  100df0:	0000                	unimp
  100df2:	0000                	unimp
  100df4:	0000                	unimp
  100df6:	0000                	unimp
  100df8:	0000                	unimp
  100dfa:	0000                	unimp
  100dfc:	0000                	unimp
  100dfe:	0000                	unimp
  100e00:	0000                	unimp
  100e02:	0000                	unimp
  100e04:	0000                	unimp
  100e06:	0000                	unimp
  100e08:	0000                	unimp
  100e0a:	0000                	unimp
  100e0c:	0000                	unimp
  100e0e:	0000                	unimp
  100e10:	0000                	unimp
  100e12:	0000                	unimp
  100e14:	0000                	unimp
  100e16:	0000                	unimp
  100e18:	0000                	unimp
  100e1a:	0000                	unimp
  100e1c:	0000                	unimp
  100e1e:	0000                	unimp
  100e20:	0000                	unimp
  100e22:	0000                	unimp
  100e24:	0000                	unimp
  100e26:	0000                	unimp
  100e28:	0000                	unimp
  100e2a:	0000                	unimp
  100e2c:	0000                	unimp
  100e2e:	0000                	unimp
  100e30:	0000                	unimp
  100e32:	0000                	unimp
  100e34:	0000                	unimp
  100e36:	0000                	unimp
  100e38:	0000                	unimp
  100e3a:	0000                	unimp
  100e3c:	0000                	unimp
  100e3e:	0000                	unimp
  100e40:	0000                	unimp
  100e42:	0000                	unimp
  100e44:	0000                	unimp
  100e46:	0000                	unimp
  100e48:	0000                	unimp
  100e4a:	0000                	unimp
  100e4c:	0000                	unimp
  100e4e:	0000                	unimp
  100e50:	0000                	unimp
  100e52:	0000                	unimp
  100e54:	0000                	unimp
  100e56:	0000                	unimp
  100e58:	0000                	unimp
  100e5a:	0000                	unimp
  100e5c:	0000                	unimp
  100e5e:	0000                	unimp
  100e60:	0000                	unimp
  100e62:	0000                	unimp
  100e64:	0000                	unimp
  100e66:	0000                	unimp
  100e68:	0000                	unimp
  100e6a:	0000                	unimp
  100e6c:	0000                	unimp
  100e6e:	0000                	unimp
  100e70:	0000                	unimp
  100e72:	0000                	unimp
  100e74:	0000                	unimp
  100e76:	0000                	unimp
  100e78:	0000                	unimp
  100e7a:	0000                	unimp
  100e7c:	0000                	unimp
  100e7e:	0000                	unimp
  100e80:	0000                	unimp
  100e82:	0000                	unimp
  100e84:	0000                	unimp
  100e86:	0000                	unimp
  100e88:	0000                	unimp
  100e8a:	0000                	unimp
  100e8c:	0000                	unimp
  100e8e:	0000                	unimp
  100e90:	0000                	unimp
  100e92:	0000                	unimp
  100e94:	0000                	unimp
  100e96:	0000                	unimp
  100e98:	0000                	unimp
  100e9a:	0000                	unimp
  100e9c:	0000                	unimp
  100e9e:	0000                	unimp
  100ea0:	0000                	unimp
  100ea2:	0000                	unimp
  100ea4:	0000                	unimp
  100ea6:	0000                	unimp
  100ea8:	0000                	unimp
  100eaa:	0000                	unimp
  100eac:	0000                	unimp
  100eae:	0000                	unimp
  100eb0:	0000                	unimp
  100eb2:	0000                	unimp
  100eb4:	0000                	unimp
  100eb6:	0000                	unimp
  100eb8:	0000                	unimp
  100eba:	0000                	unimp
  100ebc:	0000                	unimp
  100ebe:	0000                	unimp
  100ec0:	0000                	unimp
  100ec2:	0000                	unimp
  100ec4:	0000                	unimp
  100ec6:	0000                	unimp
  100ec8:	0000                	unimp
  100eca:	0000                	unimp
  100ecc:	0000                	unimp
  100ece:	0000                	unimp
  100ed0:	0000                	unimp
  100ed2:	0000                	unimp
  100ed4:	0000                	unimp
  100ed6:	0000                	unimp
  100ed8:	0000                	unimp
  100eda:	0000                	unimp
  100edc:	0000                	unimp
  100ede:	0000                	unimp
  100ee0:	0000                	unimp
  100ee2:	0000                	unimp
  100ee4:	0000                	unimp
  100ee6:	0000                	unimp
  100ee8:	0000                	unimp
  100eea:	0000                	unimp
  100eec:	0000                	unimp
  100eee:	0000                	unimp
  100ef0:	0000                	unimp
  100ef2:	0000                	unimp
  100ef4:	0000                	unimp
  100ef6:	0000                	unimp
  100ef8:	0000                	unimp
  100efa:	0000                	unimp
  100efc:	0000                	unimp
  100efe:	0000                	unimp
  100f00:	0000                	unimp
  100f02:	0000                	unimp
  100f04:	0000                	unimp
  100f06:	0000                	unimp
  100f08:	0000                	unimp
  100f0a:	0000                	unimp
  100f0c:	0000                	unimp
  100f0e:	0000                	unimp
  100f10:	0000                	unimp
  100f12:	0000                	unimp
  100f14:	0000                	unimp
  100f16:	0000                	unimp
  100f18:	0000                	unimp
  100f1a:	0000                	unimp
  100f1c:	0000                	unimp
  100f1e:	0000                	unimp
  100f20:	0000                	unimp
  100f22:	0000                	unimp
  100f24:	0000                	unimp
  100f26:	0000                	unimp
  100f28:	0000                	unimp
  100f2a:	0000                	unimp
  100f2c:	0000                	unimp
  100f2e:	0000                	unimp
  100f30:	0000                	unimp
  100f32:	0000                	unimp
  100f34:	0000                	unimp
  100f36:	0000                	unimp
  100f38:	0000                	unimp
  100f3a:	0000                	unimp
  100f3c:	0000                	unimp
  100f3e:	0000                	unimp
  100f40:	0000                	unimp
  100f42:	0000                	unimp
  100f44:	0000                	unimp
  100f46:	0000                	unimp
  100f48:	0000                	unimp
  100f4a:	0000                	unimp
  100f4c:	0000                	unimp
  100f4e:	0000                	unimp
  100f50:	0000                	unimp
  100f52:	0000                	unimp
  100f54:	0000                	unimp
  100f56:	0000                	unimp
  100f58:	0000                	unimp
  100f5a:	0000                	unimp
  100f5c:	0000                	unimp
  100f5e:	0000                	unimp
  100f60:	0000                	unimp
  100f62:	0000                	unimp
  100f64:	0000                	unimp
  100f66:	0000                	unimp
  100f68:	0000                	unimp
  100f6a:	0000                	unimp
  100f6c:	0000                	unimp
  100f6e:	0000                	unimp
  100f70:	0000                	unimp
  100f72:	0000                	unimp
  100f74:	0000                	unimp
  100f76:	0000                	unimp
  100f78:	0000                	unimp
  100f7a:	0000                	unimp
  100f7c:	0000                	unimp
  100f7e:	0000                	unimp
  100f80:	0000                	unimp
  100f82:	0000                	unimp
  100f84:	0000                	unimp
  100f86:	0000                	unimp
  100f88:	0000                	unimp
  100f8a:	0000                	unimp
  100f8c:	0000                	unimp
  100f8e:	0000                	unimp
  100f90:	0000                	unimp
  100f92:	0000                	unimp
  100f94:	0000                	unimp
  100f96:	0000                	unimp
  100f98:	0000                	unimp
  100f9a:	0000                	unimp
  100f9c:	0000                	unimp
  100f9e:	0000                	unimp
  100fa0:	0000                	unimp
  100fa2:	0000                	unimp
  100fa4:	0000                	unimp
  100fa6:	0000                	unimp
  100fa8:	0000                	unimp
  100faa:	0000                	unimp
  100fac:	0000                	unimp
  100fae:	0000                	unimp
  100fb0:	0000                	unimp
  100fb2:	0000                	unimp
  100fb4:	0000                	unimp
  100fb6:	0000                	unimp
  100fb8:	0000                	unimp
  100fba:	0000                	unimp
  100fbc:	0000                	unimp
  100fbe:	0000                	unimp
  100fc0:	0000                	unimp
  100fc2:	0000                	unimp
  100fc4:	0000                	unimp
  100fc6:	0000                	unimp
  100fc8:	0000                	unimp
  100fca:	0000                	unimp
  100fcc:	0000                	unimp
  100fce:	0000                	unimp
  100fd0:	0000                	unimp
  100fd2:	0000                	unimp
  100fd4:	0000                	unimp
  100fd6:	0000                	unimp
  100fd8:	0000                	unimp
  100fda:	0000                	unimp
  100fdc:	0000                	unimp
  100fde:	0000                	unimp
  100fe0:	0000                	unimp
  100fe2:	0000                	unimp
  100fe4:	0000                	unimp
  100fe6:	0000                	unimp
  100fe8:	0000                	unimp
  100fea:	0000                	unimp
  100fec:	0000                	unimp
  100fee:	0000                	unimp
  100ff0:	0000                	unimp
  100ff2:	0000                	unimp
  100ff4:	0000                	unimp
  100ff6:	0000                	unimp
  100ff8:	0000                	unimp
  100ffa:	0000                	unimp
  100ffc:	0000                	unimp
  100ffe:	0000                	unimp
  101000:	0000                	unimp
  101002:	0000                	unimp
  101004:	0000                	unimp
  101006:	0000                	unimp
  101008:	0000                	unimp
  10100a:	0000                	unimp
  10100c:	0000                	unimp
  10100e:	0000                	unimp
  101010:	0000                	unimp
  101012:	0000                	unimp
  101014:	0000                	unimp
  101016:	0000                	unimp
  101018:	0000                	unimp
  10101a:	0000                	unimp
  10101c:	0000                	unimp
  10101e:	0000                	unimp
  101020:	0000                	unimp
  101022:	0000                	unimp
  101024:	0000                	unimp
  101026:	0000                	unimp
  101028:	0000                	unimp
  10102a:	0000                	unimp
  10102c:	0000                	unimp
  10102e:	0000                	unimp
  101030:	0000                	unimp
  101032:	0000                	unimp
  101034:	0000                	unimp
  101036:	0000                	unimp
  101038:	0000                	unimp
  10103a:	0000                	unimp
  10103c:	0000                	unimp
  10103e:	0000                	unimp
  101040:	0000                	unimp
  101042:	0000                	unimp
  101044:	0000                	unimp
  101046:	0000                	unimp

00101048 <cmd.0>:
  101048:	0000                	unimp
  10104a:	0000                	unimp
  10104c:	0000                	unimp
  10104e:	0000                	unimp
  101050:	0000                	unimp
  101052:	0000                	unimp
  101054:	0000                	unimp
  101056:	0000                	unimp
  101058:	0000                	unimp
  10105a:	0000                	unimp
  10105c:	0000                	unimp
  10105e:	0000                	unimp
  101060:	0000                	unimp
  101062:	0000                	unimp
  101064:	0000                	unimp
  101066:	0000                	unimp
  101068:	0000                	unimp
  10106a:	0000                	unimp
  10106c:	0000                	unimp
  10106e:	0000                	unimp
  101070:	0000                	unimp
  101072:	0000                	unimp
  101074:	0000                	unimp
  101076:	0000                	unimp
  101078:	0000                	unimp
  10107a:	0000                	unimp
  10107c:	0000                	unimp
  10107e:	0000                	unimp
  101080:	0000                	unimp
  101082:	0000                	unimp
  101084:	0000                	unimp
  101086:	0000                	unimp
  101088:	0000                	unimp
  10108a:	0000                	unimp
  10108c:	0000                	unimp
  10108e:	0000                	unimp
  101090:	0000                	unimp
  101092:	0000                	unimp
  101094:	0000                	unimp
  101096:	0000                	unimp
  101098:	0000                	unimp
  10109a:	0000                	unimp
  10109c:	0000                	unimp
  10109e:	0000                	unimp
  1010a0:	0000                	unimp
  1010a2:	0000                	unimp
  1010a4:	0000                	unimp
  1010a6:	0000                	unimp
  1010a8:	0000                	unimp
  1010aa:	0000                	unimp
  1010ac:	0000                	unimp
  1010ae:	0000                	unimp
  1010b0:	0000                	unimp
  1010b2:	0000                	unimp
  1010b4:	0000                	unimp
  1010b6:	0000                	unimp
  1010b8:	0000                	unimp
  1010ba:	0000                	unimp
  1010bc:	0000                	unimp
  1010be:	0000                	unimp
  1010c0:	0000                	unimp
  1010c2:	0000                	unimp
  1010c4:	0000                	unimp
  1010c6:	0000                	unimp
  1010c8:	0000                	unimp
  1010ca:	0000                	unimp
  1010cc:	0000                	unimp
  1010ce:	0000                	unimp
  1010d0:	0000                	unimp
  1010d2:	0000                	unimp
  1010d4:	0000                	unimp
  1010d6:	0000                	unimp
  1010d8:	0000                	unimp
  1010da:	0000                	unimp
  1010dc:	0000                	unimp
  1010de:	0000                	unimp
  1010e0:	0000                	unimp
  1010e2:	0000                	unimp
  1010e4:	0000                	unimp
  1010e6:	0000                	unimp
  1010e8:	0000                	unimp
  1010ea:	0000                	unimp
  1010ec:	0000                	unimp
  1010ee:	0000                	unimp
  1010f0:	0000                	unimp
  1010f2:	0000                	unimp
  1010f4:	0000                	unimp
  1010f6:	0000                	unimp
  1010f8:	0000                	unimp
  1010fa:	0000                	unimp
  1010fc:	0000                	unimp
  1010fe:	0000                	unimp
  101100:	0000                	unimp
  101102:	0000                	unimp
  101104:	0000                	unimp
  101106:	0000                	unimp
  101108:	0000                	unimp
  10110a:	0000                	unimp
  10110c:	0000                	unimp
  10110e:	0000                	unimp
  101110:	0000                	unimp
  101112:	0000                	unimp
  101114:	0000                	unimp
  101116:	0000                	unimp
  101118:	0000                	unimp
  10111a:	0000                	unimp
  10111c:	0000                	unimp
  10111e:	0000                	unimp
  101120:	0000                	unimp
  101122:	0000                	unimp
  101124:	0000                	unimp
  101126:	0000                	unimp
  101128:	0000                	unimp
  10112a:	0000                	unimp
  10112c:	0000                	unimp
  10112e:	0000                	unimp
  101130:	0000                	unimp
  101132:	0000                	unimp
  101134:	0000                	unimp
  101136:	0000                	unimp
  101138:	0000                	unimp
  10113a:	0000                	unimp
  10113c:	0000                	unimp
  10113e:	0000                	unimp
  101140:	0000                	unimp
  101142:	0000                	unimp
  101144:	0000                	unimp
  101146:	0000                	unimp
  101148:	0000                	unimp
  10114a:	0000                	unimp
  10114c:	0000                	unimp
  10114e:	0000                	unimp
  101150:	0000                	unimp
  101152:	0000                	unimp
  101154:	0000                	unimp
  101156:	0000                	unimp
  101158:	0000                	unimp
  10115a:	0000                	unimp
  10115c:	0000                	unimp
  10115e:	0000                	unimp
  101160:	0000                	unimp
  101162:	0000                	unimp
  101164:	0000                	unimp
  101166:	0000                	unimp
  101168:	0000                	unimp
  10116a:	0000                	unimp
  10116c:	0000                	unimp
  10116e:	0000                	unimp
  101170:	0000                	unimp
  101172:	0000                	unimp
  101174:	0000                	unimp
  101176:	0000                	unimp
  101178:	0000                	unimp
  10117a:	0000                	unimp
  10117c:	0000                	unimp
  10117e:	0000                	unimp
  101180:	0000                	unimp
  101182:	0000                	unimp
  101184:	0000                	unimp
  101186:	0000                	unimp
  101188:	0000                	unimp
  10118a:	0000                	unimp
  10118c:	0000                	unimp
  10118e:	0000                	unimp
  101190:	0000                	unimp
  101192:	0000                	unimp
  101194:	0000                	unimp
  101196:	0000                	unimp
  101198:	0000                	unimp
  10119a:	0000                	unimp
  10119c:	0000                	unimp
  10119e:	0000                	unimp
  1011a0:	0000                	unimp
  1011a2:	0000                	unimp
  1011a4:	0000                	unimp
  1011a6:	0000                	unimp
  1011a8:	0000                	unimp
  1011aa:	0000                	unimp
  1011ac:	0000                	unimp
  1011ae:	0000                	unimp
  1011b0:	0000                	unimp
  1011b2:	0000                	unimp
  1011b4:	0000                	unimp
  1011b6:	0000                	unimp
  1011b8:	0000                	unimp
  1011ba:	0000                	unimp
  1011bc:	0000                	unimp
  1011be:	0000                	unimp
  1011c0:	0000                	unimp
  1011c2:	0000                	unimp
  1011c4:	0000                	unimp
  1011c6:	0000                	unimp
  1011c8:	0000                	unimp
  1011ca:	0000                	unimp
  1011cc:	0000                	unimp
  1011ce:	0000                	unimp
  1011d0:	0000                	unimp
  1011d2:	0000                	unimp
  1011d4:	0000                	unimp
  1011d6:	0000                	unimp
  1011d8:	0000                	unimp
  1011da:	0000                	unimp
  1011dc:	0000                	unimp
  1011de:	0000                	unimp
  1011e0:	0000                	unimp
  1011e2:	0000                	unimp
  1011e4:	0000                	unimp
  1011e6:	0000                	unimp
  1011e8:	0000                	unimp
  1011ea:	0000                	unimp
  1011ec:	0000                	unimp
  1011ee:	0000                	unimp
  1011f0:	0000                	unimp
  1011f2:	0000                	unimp
  1011f4:	0000                	unimp
  1011f6:	0000                	unimp
  1011f8:	0000                	unimp
  1011fa:	0000                	unimp
  1011fc:	0000                	unimp
  1011fe:	0000                	unimp
  101200:	0000                	unimp
  101202:	0000                	unimp
  101204:	0000                	unimp
  101206:	0000                	unimp
  101208:	0000                	unimp
  10120a:	0000                	unimp
  10120c:	0000                	unimp
  10120e:	0000                	unimp
  101210:	0000                	unimp
  101212:	0000                	unimp
  101214:	0000                	unimp
  101216:	0000                	unimp
  101218:	0000                	unimp
  10121a:	0000                	unimp
  10121c:	0000                	unimp
  10121e:	0000                	unimp
  101220:	0000                	unimp
  101222:	0000                	unimp
  101224:	0000                	unimp
  101226:	0000                	unimp
  101228:	0000                	unimp
  10122a:	0000                	unimp
  10122c:	0000                	unimp
  10122e:	0000                	unimp
  101230:	0000                	unimp
  101232:	0000                	unimp
  101234:	0000                	unimp
  101236:	0000                	unimp
  101238:	0000                	unimp
  10123a:	0000                	unimp
  10123c:	0000                	unimp
  10123e:	0000                	unimp
  101240:	0000                	unimp
  101242:	0000                	unimp
  101244:	0000                	unimp
  101246:	0000                	unimp
  101248:	0000                	unimp
  10124a:	0000                	unimp
  10124c:	0000                	unimp
  10124e:	0000                	unimp
  101250:	0000                	unimp
  101252:	0000                	unimp
  101254:	0000                	unimp
  101256:	0000                	unimp
  101258:	0000                	unimp
  10125a:	0000                	unimp
  10125c:	0000                	unimp
  10125e:	0000                	unimp
  101260:	0000                	unimp
  101262:	0000                	unimp
  101264:	0000                	unimp
  101266:	0000                	unimp
  101268:	0000                	unimp
  10126a:	0000                	unimp
  10126c:	0000                	unimp
  10126e:	0000                	unimp
  101270:	0000                	unimp
  101272:	0000                	unimp
  101274:	0000                	unimp
  101276:	0000                	unimp
  101278:	0000                	unimp
  10127a:	0000                	unimp
  10127c:	0000                	unimp
  10127e:	0000                	unimp
  101280:	0000                	unimp
  101282:	0000                	unimp
  101284:	0000                	unimp
  101286:	0000                	unimp
  101288:	0000                	unimp
  10128a:	0000                	unimp
  10128c:	0000                	unimp
  10128e:	0000                	unimp
  101290:	0000                	unimp
  101292:	0000                	unimp
  101294:	0000                	unimp
  101296:	0000                	unimp
  101298:	0000                	unimp
  10129a:	0000                	unimp
  10129c:	0000                	unimp
  10129e:	0000                	unimp
  1012a0:	0000                	unimp
  1012a2:	0000                	unimp
  1012a4:	0000                	unimp
  1012a6:	0000                	unimp
  1012a8:	0000                	unimp
  1012aa:	0000                	unimp
  1012ac:	0000                	unimp
  1012ae:	0000                	unimp
  1012b0:	0000                	unimp
  1012b2:	0000                	unimp
  1012b4:	0000                	unimp
  1012b6:	0000                	unimp
  1012b8:	0000                	unimp
  1012ba:	0000                	unimp
  1012bc:	0000                	unimp
  1012be:	0000                	unimp
  1012c0:	0000                	unimp
  1012c2:	0000                	unimp
  1012c4:	0000                	unimp
  1012c6:	0000                	unimp
  1012c8:	0000                	unimp
  1012ca:	0000                	unimp
  1012cc:	0000                	unimp
  1012ce:	0000                	unimp
  1012d0:	0000                	unimp
  1012d2:	0000                	unimp
  1012d4:	0000                	unimp
  1012d6:	0000                	unimp
  1012d8:	0000                	unimp
  1012da:	0000                	unimp
  1012dc:	0000                	unimp
  1012de:	0000                	unimp
  1012e0:	0000                	unimp
  1012e2:	0000                	unimp
  1012e4:	0000                	unimp
  1012e6:	0000                	unimp
  1012e8:	0000                	unimp
  1012ea:	0000                	unimp
  1012ec:	0000                	unimp
  1012ee:	0000                	unimp
  1012f0:	0000                	unimp
  1012f2:	0000                	unimp
  1012f4:	0000                	unimp
  1012f6:	0000                	unimp
  1012f8:	0000                	unimp
  1012fa:	0000                	unimp
  1012fc:	0000                	unimp
  1012fe:	0000                	unimp
  101300:	0000                	unimp
  101302:	0000                	unimp
  101304:	0000                	unimp
  101306:	0000                	unimp
  101308:	0000                	unimp
  10130a:	0000                	unimp
  10130c:	0000                	unimp
  10130e:	0000                	unimp
  101310:	0000                	unimp
  101312:	0000                	unimp
  101314:	0000                	unimp
  101316:	0000                	unimp
  101318:	0000                	unimp
  10131a:	0000                	unimp
  10131c:	0000                	unimp
  10131e:	0000                	unimp
  101320:	0000                	unimp
  101322:	0000                	unimp
  101324:	0000                	unimp
  101326:	0000                	unimp
  101328:	0000                	unimp
  10132a:	0000                	unimp
  10132c:	0000                	unimp
  10132e:	0000                	unimp
  101330:	0000                	unimp
  101332:	0000                	unimp
  101334:	0000                	unimp
  101336:	0000                	unimp
  101338:	0000                	unimp
  10133a:	0000                	unimp
  10133c:	0000                	unimp
  10133e:	0000                	unimp
  101340:	0000                	unimp
  101342:	0000                	unimp
  101344:	0000                	unimp
  101346:	0000                	unimp
  101348:	0000                	unimp
  10134a:	0000                	unimp
  10134c:	0000                	unimp
  10134e:	0000                	unimp
  101350:	0000                	unimp
  101352:	0000                	unimp
  101354:	0000                	unimp
  101356:	0000                	unimp
  101358:	0000                	unimp
  10135a:	0000                	unimp
  10135c:	0000                	unimp
  10135e:	0000                	unimp
  101360:	0000                	unimp
  101362:	0000                	unimp
  101364:	0000                	unimp
  101366:	0000                	unimp
  101368:	0000                	unimp
  10136a:	0000                	unimp
  10136c:	0000                	unimp
  10136e:	0000                	unimp
  101370:	0000                	unimp
  101372:	0000                	unimp
  101374:	0000                	unimp
  101376:	0000                	unimp
  101378:	0000                	unimp
  10137a:	0000                	unimp
  10137c:	0000                	unimp
  10137e:	0000                	unimp
  101380:	0000                	unimp
  101382:	0000                	unimp
  101384:	0000                	unimp
  101386:	0000                	unimp
  101388:	0000                	unimp
  10138a:	0000                	unimp
  10138c:	0000                	unimp
  10138e:	0000                	unimp
  101390:	0000                	unimp
  101392:	0000                	unimp
  101394:	0000                	unimp
  101396:	0000                	unimp
  101398:	0000                	unimp
  10139a:	0000                	unimp
  10139c:	0000                	unimp
  10139e:	0000                	unimp
  1013a0:	0000                	unimp
  1013a2:	0000                	unimp
  1013a4:	0000                	unimp
  1013a6:	0000                	unimp
  1013a8:	0000                	unimp
  1013aa:	0000                	unimp
  1013ac:	0000                	unimp
  1013ae:	0000                	unimp
  1013b0:	0000                	unimp
  1013b2:	0000                	unimp
  1013b4:	0000                	unimp
  1013b6:	0000                	unimp
  1013b8:	0000                	unimp
  1013ba:	0000                	unimp
  1013bc:	0000                	unimp
  1013be:	0000                	unimp
  1013c0:	0000                	unimp
  1013c2:	0000                	unimp
  1013c4:	0000                	unimp
  1013c6:	0000                	unimp
  1013c8:	0000                	unimp
  1013ca:	0000                	unimp
  1013cc:	0000                	unimp
  1013ce:	0000                	unimp
  1013d0:	0000                	unimp
  1013d2:	0000                	unimp
  1013d4:	0000                	unimp
  1013d6:	0000                	unimp
  1013d8:	0000                	unimp
  1013da:	0000                	unimp
  1013dc:	0000                	unimp
  1013de:	0000                	unimp
  1013e0:	0000                	unimp
  1013e2:	0000                	unimp
  1013e4:	0000                	unimp
  1013e6:	0000                	unimp
  1013e8:	0000                	unimp
  1013ea:	0000                	unimp
  1013ec:	0000                	unimp
  1013ee:	0000                	unimp
  1013f0:	0000                	unimp
  1013f2:	0000                	unimp
  1013f4:	0000                	unimp
  1013f6:	0000                	unimp
  1013f8:	0000                	unimp
  1013fa:	0000                	unimp
  1013fc:	0000                	unimp
  1013fe:	0000                	unimp
  101400:	0000                	unimp
  101402:	0000                	unimp
  101404:	0000                	unimp
  101406:	0000                	unimp
  101408:	0000                	unimp
  10140a:	0000                	unimp
  10140c:	0000                	unimp
  10140e:	0000                	unimp
  101410:	0000                	unimp
  101412:	0000                	unimp
  101414:	0000                	unimp
  101416:	0000                	unimp
  101418:	0000                	unimp
  10141a:	0000                	unimp
  10141c:	0000                	unimp
  10141e:	0000                	unimp
  101420:	0000                	unimp
  101422:	0000                	unimp
  101424:	0000                	unimp
  101426:	0000                	unimp
  101428:	0000                	unimp
  10142a:	0000                	unimp
  10142c:	0000                	unimp
  10142e:	0000                	unimp
  101430:	0000                	unimp
  101432:	0000                	unimp
  101434:	0000                	unimp
  101436:	0000                	unimp
  101438:	0000                	unimp
  10143a:	0000                	unimp
  10143c:	0000                	unimp
  10143e:	0000                	unimp
  101440:	0000                	unimp
  101442:	0000                	unimp
  101444:	0000                	unimp
  101446:	0000                	unimp
  101448:	0000                	unimp
  10144a:	0000                	unimp
  10144c:	0000                	unimp
  10144e:	0000                	unimp
  101450:	0000                	unimp
  101452:	0000                	unimp
  101454:	0000                	unimp
  101456:	0000                	unimp
  101458:	0000                	unimp
  10145a:	0000                	unimp
  10145c:	0000                	unimp
  10145e:	0000                	unimp
  101460:	0000                	unimp
  101462:	0000                	unimp
  101464:	0000                	unimp
  101466:	0000                	unimp
  101468:	0000                	unimp
  10146a:	0000                	unimp
  10146c:	0000                	unimp
  10146e:	0000                	unimp
  101470:	0000                	unimp
  101472:	0000                	unimp
  101474:	0000                	unimp
  101476:	0000                	unimp
  101478:	0000                	unimp
  10147a:	0000                	unimp
  10147c:	0000                	unimp
  10147e:	0000                	unimp
  101480:	0000                	unimp
  101482:	0000                	unimp
  101484:	0000                	unimp
  101486:	0000                	unimp
  101488:	0000                	unimp
  10148a:	0000                	unimp
  10148c:	0000                	unimp
  10148e:	0000                	unimp
  101490:	0000                	unimp
  101492:	0000                	unimp
  101494:	0000                	unimp
  101496:	0000                	unimp
  101498:	0000                	unimp
  10149a:	0000                	unimp
  10149c:	0000                	unimp
  10149e:	0000                	unimp
  1014a0:	0000                	unimp
  1014a2:	0000                	unimp
  1014a4:	0000                	unimp
  1014a6:	0000                	unimp
  1014a8:	0000                	unimp
  1014aa:	0000                	unimp
  1014ac:	0000                	unimp
  1014ae:	0000                	unimp
  1014b0:	0000                	unimp
  1014b2:	0000                	unimp
  1014b4:	0000                	unimp
  1014b6:	0000                	unimp
  1014b8:	0000                	unimp
  1014ba:	0000                	unimp
  1014bc:	0000                	unimp
  1014be:	0000                	unimp
  1014c0:	0000                	unimp
  1014c2:	0000                	unimp
  1014c4:	0000                	unimp
  1014c6:	0000                	unimp
  1014c8:	0000                	unimp
  1014ca:	0000                	unimp
  1014cc:	0000                	unimp
  1014ce:	0000                	unimp
  1014d0:	0000                	unimp
  1014d2:	0000                	unimp
  1014d4:	0000                	unimp
  1014d6:	0000                	unimp
  1014d8:	0000                	unimp
  1014da:	0000                	unimp
  1014dc:	0000                	unimp
  1014de:	0000                	unimp
  1014e0:	0000                	unimp
  1014e2:	0000                	unimp
  1014e4:	0000                	unimp
  1014e6:	0000                	unimp
  1014e8:	0000                	unimp
  1014ea:	0000                	unimp
  1014ec:	0000                	unimp
  1014ee:	0000                	unimp
  1014f0:	0000                	unimp
  1014f2:	0000                	unimp
  1014f4:	0000                	unimp
  1014f6:	0000                	unimp
  1014f8:	0000                	unimp
  1014fa:	0000                	unimp
  1014fc:	0000                	unimp
  1014fe:	0000                	unimp
  101500:	0000                	unimp
  101502:	0000                	unimp
  101504:	0000                	unimp
  101506:	0000                	unimp
  101508:	0000                	unimp
  10150a:	0000                	unimp
  10150c:	0000                	unimp
  10150e:	0000                	unimp
  101510:	0000                	unimp
  101512:	0000                	unimp
  101514:	0000                	unimp
  101516:	0000                	unimp
  101518:	0000                	unimp
  10151a:	0000                	unimp
  10151c:	0000                	unimp
  10151e:	0000                	unimp
  101520:	0000                	unimp
  101522:	0000                	unimp
  101524:	0000                	unimp
  101526:	0000                	unimp
  101528:	0000                	unimp
  10152a:	0000                	unimp
  10152c:	0000                	unimp
  10152e:	0000                	unimp
  101530:	0000                	unimp
  101532:	0000                	unimp
  101534:	0000                	unimp
  101536:	0000                	unimp
  101538:	0000                	unimp
  10153a:	0000                	unimp
  10153c:	0000                	unimp
  10153e:	0000                	unimp
  101540:	0000                	unimp
  101542:	0000                	unimp
  101544:	0000                	unimp
  101546:	0000                	unimp
  101548:	0000                	unimp
  10154a:	0000                	unimp
  10154c:	0000                	unimp
  10154e:	0000                	unimp
  101550:	0000                	unimp
  101552:	0000                	unimp
  101554:	0000                	unimp
  101556:	0000                	unimp
  101558:	0000                	unimp
  10155a:	0000                	unimp
  10155c:	0000                	unimp
  10155e:	0000                	unimp
  101560:	0000                	unimp
  101562:	0000                	unimp
  101564:	0000                	unimp
  101566:	0000                	unimp
  101568:	0000                	unimp
  10156a:	0000                	unimp
  10156c:	0000                	unimp
  10156e:	0000                	unimp
  101570:	0000                	unimp
  101572:	0000                	unimp
  101574:	0000                	unimp
  101576:	0000                	unimp
  101578:	0000                	unimp
  10157a:	0000                	unimp
  10157c:	0000                	unimp
  10157e:	0000                	unimp
  101580:	0000                	unimp
  101582:	0000                	unimp
  101584:	0000                	unimp
  101586:	0000                	unimp
  101588:	0000                	unimp
  10158a:	0000                	unimp
  10158c:	0000                	unimp
  10158e:	0000                	unimp
  101590:	0000                	unimp
  101592:	0000                	unimp
  101594:	0000                	unimp
  101596:	0000                	unimp
  101598:	0000                	unimp
  10159a:	0000                	unimp
  10159c:	0000                	unimp
  10159e:	0000                	unimp
  1015a0:	0000                	unimp
  1015a2:	0000                	unimp
  1015a4:	0000                	unimp
  1015a6:	0000                	unimp
  1015a8:	0000                	unimp
  1015aa:	0000                	unimp
  1015ac:	0000                	unimp
  1015ae:	0000                	unimp
  1015b0:	0000                	unimp
  1015b2:	0000                	unimp
  1015b4:	0000                	unimp
  1015b6:	0000                	unimp
  1015b8:	0000                	unimp
  1015ba:	0000                	unimp
  1015bc:	0000                	unimp
  1015be:	0000                	unimp
  1015c0:	0000                	unimp
  1015c2:	0000                	unimp
  1015c4:	0000                	unimp
  1015c6:	0000                	unimp
  1015c8:	0000                	unimp
  1015ca:	0000                	unimp
  1015cc:	0000                	unimp
  1015ce:	0000                	unimp
  1015d0:	0000                	unimp
  1015d2:	0000                	unimp
  1015d4:	0000                	unimp
  1015d6:	0000                	unimp
  1015d8:	0000                	unimp
  1015da:	0000                	unimp
  1015dc:	0000                	unimp
  1015de:	0000                	unimp
  1015e0:	0000                	unimp
  1015e2:	0000                	unimp
  1015e4:	0000                	unimp
  1015e6:	0000                	unimp
  1015e8:	0000                	unimp
  1015ea:	0000                	unimp
  1015ec:	0000                	unimp
  1015ee:	0000                	unimp
  1015f0:	0000                	unimp
  1015f2:	0000                	unimp
  1015f4:	0000                	unimp
  1015f6:	0000                	unimp
  1015f8:	0000                	unimp
  1015fa:	0000                	unimp
  1015fc:	0000                	unimp
  1015fe:	0000                	unimp
  101600:	0000                	unimp
  101602:	0000                	unimp
  101604:	0000                	unimp
  101606:	0000                	unimp
  101608:	0000                	unimp
  10160a:	0000                	unimp
  10160c:	0000                	unimp
  10160e:	0000                	unimp
  101610:	0000                	unimp
  101612:	0000                	unimp
  101614:	0000                	unimp
  101616:	0000                	unimp
  101618:	0000                	unimp
  10161a:	0000                	unimp
  10161c:	0000                	unimp
  10161e:	0000                	unimp
  101620:	0000                	unimp
  101622:	0000                	unimp
  101624:	0000                	unimp
  101626:	0000                	unimp
  101628:	0000                	unimp
  10162a:	0000                	unimp
  10162c:	0000                	unimp
  10162e:	0000                	unimp
  101630:	0000                	unimp
  101632:	0000                	unimp
  101634:	0000                	unimp
  101636:	0000                	unimp
  101638:	0000                	unimp
  10163a:	0000                	unimp
  10163c:	0000                	unimp
  10163e:	0000                	unimp
  101640:	0000                	unimp
  101642:	0000                	unimp
  101644:	0000                	unimp
  101646:	0000                	unimp
  101648:	0000                	unimp
  10164a:	0000                	unimp
  10164c:	0000                	unimp
  10164e:	0000                	unimp
  101650:	0000                	unimp
  101652:	0000                	unimp
  101654:	0000                	unimp
  101656:	0000                	unimp
  101658:	0000                	unimp
  10165a:	0000                	unimp
  10165c:	0000                	unimp
  10165e:	0000                	unimp
  101660:	0000                	unimp
  101662:	0000                	unimp
  101664:	0000                	unimp
  101666:	0000                	unimp
  101668:	0000                	unimp
  10166a:	0000                	unimp
  10166c:	0000                	unimp
  10166e:	0000                	unimp
  101670:	0000                	unimp
  101672:	0000                	unimp
  101674:	0000                	unimp
  101676:	0000                	unimp
  101678:	0000                	unimp
  10167a:	0000                	unimp
  10167c:	0000                	unimp
  10167e:	0000                	unimp
  101680:	0000                	unimp
  101682:	0000                	unimp
  101684:	0000                	unimp
  101686:	0000                	unimp
  101688:	0000                	unimp
  10168a:	0000                	unimp
  10168c:	0000                	unimp
  10168e:	0000                	unimp
  101690:	0000                	unimp
  101692:	0000                	unimp
  101694:	0000                	unimp
  101696:	0000                	unimp
  101698:	0000                	unimp
  10169a:	0000                	unimp
  10169c:	0000                	unimp
  10169e:	0000                	unimp
  1016a0:	0000                	unimp
  1016a2:	0000                	unimp
  1016a4:	0000                	unimp
  1016a6:	0000                	unimp
  1016a8:	0000                	unimp
  1016aa:	0000                	unimp
  1016ac:	0000                	unimp
  1016ae:	0000                	unimp
  1016b0:	0000                	unimp
  1016b2:	0000                	unimp
  1016b4:	0000                	unimp
  1016b6:	0000                	unimp
  1016b8:	0000                	unimp
  1016ba:	0000                	unimp
  1016bc:	0000                	unimp
  1016be:	0000                	unimp
  1016c0:	0000                	unimp
  1016c2:	0000                	unimp
  1016c4:	0000                	unimp
  1016c6:	0000                	unimp
  1016c8:	0000                	unimp
  1016ca:	0000                	unimp
  1016cc:	0000                	unimp
  1016ce:	0000                	unimp
  1016d0:	0000                	unimp
  1016d2:	0000                	unimp
  1016d4:	0000                	unimp
  1016d6:	0000                	unimp
  1016d8:	0000                	unimp
  1016da:	0000                	unimp
  1016dc:	0000                	unimp
  1016de:	0000                	unimp
  1016e0:	0000                	unimp
  1016e2:	0000                	unimp
  1016e4:	0000                	unimp
  1016e6:	0000                	unimp
  1016e8:	0000                	unimp
  1016ea:	0000                	unimp
  1016ec:	0000                	unimp
  1016ee:	0000                	unimp
  1016f0:	0000                	unimp
  1016f2:	0000                	unimp
  1016f4:	0000                	unimp
  1016f6:	0000                	unimp
  1016f8:	0000                	unimp
  1016fa:	0000                	unimp
  1016fc:	0000                	unimp
  1016fe:	0000                	unimp
  101700:	0000                	unimp
  101702:	0000                	unimp
  101704:	0000                	unimp
  101706:	0000                	unimp
  101708:	0000                	unimp
  10170a:	0000                	unimp
  10170c:	0000                	unimp
  10170e:	0000                	unimp
  101710:	0000                	unimp
  101712:	0000                	unimp
  101714:	0000                	unimp
  101716:	0000                	unimp
  101718:	0000                	unimp
  10171a:	0000                	unimp
  10171c:	0000                	unimp
  10171e:	0000                	unimp
  101720:	0000                	unimp
  101722:	0000                	unimp
  101724:	0000                	unimp
  101726:	0000                	unimp
  101728:	0000                	unimp
  10172a:	0000                	unimp
  10172c:	0000                	unimp
  10172e:	0000                	unimp
  101730:	0000                	unimp
  101732:	0000                	unimp
  101734:	0000                	unimp
  101736:	0000                	unimp
  101738:	0000                	unimp
  10173a:	0000                	unimp
  10173c:	0000                	unimp
  10173e:	0000                	unimp
  101740:	0000                	unimp
  101742:	0000                	unimp
  101744:	0000                	unimp
  101746:	0000                	unimp
  101748:	0000                	unimp
  10174a:	0000                	unimp
  10174c:	0000                	unimp
  10174e:	0000                	unimp
  101750:	0000                	unimp
  101752:	0000                	unimp
  101754:	0000                	unimp
  101756:	0000                	unimp
  101758:	0000                	unimp
  10175a:	0000                	unimp
  10175c:	0000                	unimp
  10175e:	0000                	unimp
  101760:	0000                	unimp
  101762:	0000                	unimp
  101764:	0000                	unimp
  101766:	0000                	unimp
  101768:	0000                	unimp
  10176a:	0000                	unimp
  10176c:	0000                	unimp
  10176e:	0000                	unimp
  101770:	0000                	unimp
  101772:	0000                	unimp
  101774:	0000                	unimp
  101776:	0000                	unimp
  101778:	0000                	unimp
  10177a:	0000                	unimp
  10177c:	0000                	unimp
  10177e:	0000                	unimp
  101780:	0000                	unimp
  101782:	0000                	unimp
  101784:	0000                	unimp
  101786:	0000                	unimp
  101788:	0000                	unimp
  10178a:	0000                	unimp
  10178c:	0000                	unimp
  10178e:	0000                	unimp
  101790:	0000                	unimp
  101792:	0000                	unimp
  101794:	0000                	unimp
  101796:	0000                	unimp
  101798:	0000                	unimp
  10179a:	0000                	unimp
  10179c:	0000                	unimp
  10179e:	0000                	unimp
  1017a0:	0000                	unimp
  1017a2:	0000                	unimp
  1017a4:	0000                	unimp
  1017a6:	0000                	unimp
  1017a8:	0000                	unimp
  1017aa:	0000                	unimp
  1017ac:	0000                	unimp
  1017ae:	0000                	unimp
  1017b0:	0000                	unimp
  1017b2:	0000                	unimp
  1017b4:	0000                	unimp
  1017b6:	0000                	unimp
  1017b8:	0000                	unimp
  1017ba:	0000                	unimp
  1017bc:	0000                	unimp
  1017be:	0000                	unimp
  1017c0:	0000                	unimp
  1017c2:	0000                	unimp
  1017c4:	0000                	unimp
  1017c6:	0000                	unimp
  1017c8:	0000                	unimp
  1017ca:	0000                	unimp
  1017cc:	                	unimp

001017cd <ch.0>:
  1017cd:	0000                	unimp
  1017cf:	                	unimp

001017d0 <ntok>:
  1017d0:	0000                	unimp
  1017d2:	0000                	unimp

001017d4 <vga_line>:
  1017d4:	0000                	unimp
  1017d6:	0000                	unimp

001017d8 <vga_ch>:
  1017d8:	0000                	unimp
  1017da:	0000                	unimp

Disassembly of section .comment:

00000000 <.comment>:
   0:	3a434347          	fmsub.d	ft6,ft6,ft4,ft7,rmm
   4:	2820                	fld	fs0,80(s0)
   6:	2029                	jal	10 <next+0x10>
   8:	3031                	jal	fffff814 <_end+0xffefdc14>
   a:	322e                	fld	ft4,232(sp)
   c:	302e                	fld	ft0,232(sp)
   e:	00              	Address 0x000000000000000e is out of bounds.


Disassembly of section .riscv.attributes:

00000000 <.riscv.attributes>:
   0:	1b41                	addi	s6,s6,-16
   2:	0000                	unimp
   4:	7200                	flw	fs0,32(a2)
   6:	7369                	lui	t1,0xffffa
   8:	01007663          	bgeu	zero,a6,14 <next+0x14>
   c:	0011                	c.nop	4
   e:	0000                	unimp
  10:	1004                	addi	s1,sp,32
  12:	7205                	lui	tp,0xfffe1
  14:	3376                	fld	ft6,376(sp)
  16:	6932                	flw	fs2,12(sp)
  18:	7032                	flw	ft0,44(sp)
  1a:	0030                	addi	a2,sp,8
