
main.elf:     file format elf32-littleriscv


Disassembly of section .text:

00000000 <entry>:
       0:	ff010113          	addi	sp,sp,-16
       4:	00112623          	sw	ra,12(sp)
       8:	00812423          	sw	s0,8(sp)
       c:	01010413          	addi	s0,sp,16
      10:	00120137          	lui	sp,0x120
      14:	ffc10113          	addi	sp,sp,-4 # 11fffc <_end+0x1e7fc>
      18:	0b8000ef          	jal	ra,d0 <main>
      1c:	00000013          	nop
      20:	00c12083          	lw	ra,12(sp)
      24:	00812403          	lw	s0,8(sp)
      28:	01010113          	addi	sp,sp,16
      2c:	00008067          	ret

00000030 <exec>:
      30:	fe010113          	addi	sp,sp,-32
      34:	00112e23          	sw	ra,28(sp)
      38:	00812c23          	sw	s0,24(sp)
      3c:	02010413          	addi	s0,sp,32
      40:	fea42623          	sw	a0,-20(s0)
      44:	00100597          	auipc	a1,0x100
      48:	fc458593          	addi	a1,a1,-60 # 100008 <_etext+0xfe8c4>
      4c:	fec42503          	lw	a0,-20(s0)
      50:	0d4010ef          	jal	ra,1124 <strcmp>
      54:	00050793          	mv	a5,a0
      58:	00079a63          	bnez	a5,6c <exec+0x3c>
      5c:	fec42783          	lw	a5,-20(s0)
      60:	00578793          	addi	a5,a5,5
      64:	00078513          	mv	a0,a5
      68:	0e4000ef          	jal	ra,14c <exec_echo>
      6c:	00100597          	auipc	a1,0x100
      70:	fa458593          	addi	a1,a1,-92 # 100010 <_etext+0xfe8cc>
      74:	fec42503          	lw	a0,-20(s0)
      78:	0ac010ef          	jal	ra,1124 <strcmp>
      7c:	00050793          	mv	a5,a0
      80:	00079a63          	bnez	a5,94 <exec+0x64>
      84:	fec42783          	lw	a5,-20(s0)
      88:	00478793          	addi	a5,a5,4
      8c:	00078513          	mv	a0,a5
      90:	165000ef          	jal	ra,9f4 <exec_fib>
      94:	00100597          	auipc	a1,0x100
      98:	f8058593          	addi	a1,a1,-128 # 100014 <_etext+0xfe8d0>
      9c:	fec42503          	lw	a0,-20(s0)
      a0:	084010ef          	jal	ra,1124 <strcmp>
      a4:	00050793          	mv	a5,a0
      a8:	00079a63          	bnez	a5,bc <exec+0x8c>
      ac:	fec42783          	lw	a5,-20(s0)
      b0:	00578793          	addi	a5,a5,5
      b4:	00078513          	mv	a0,a5
      b8:	0a5000ef          	jal	ra,95c <exec_eval>
      bc:	00000013          	nop
      c0:	01c12083          	lw	ra,28(sp)
      c4:	01812403          	lw	s0,24(sp)
      c8:	02010113          	addi	sp,sp,32
      cc:	00008067          	ret

000000d0 <main>:
      d0:	fe010113          	addi	sp,sp,-32
      d4:	00112e23          	sw	ra,28(sp)
      d8:	00812c23          	sw	s0,24(sp)
      dc:	02010413          	addi	s0,sp,32
      e0:	260010ef          	jal	ra,1340 <vga_init>
      e4:	fe042623          	sw	zero,-20(s0)
      e8:	00100517          	auipc	a0,0x100
      ec:	36850513          	addi	a0,a0,872 # 100450 <nyan>
      f0:	5c8010ef          	jal	ra,16b8 <putstr>
      f4:	624010ef          	jal	ra,1718 <readkey>
      f8:	fea42423          	sw	a0,-24(s0)
      fc:	fec42783          	lw	a5,-20(s0)
     100:	00178713          	addi	a4,a5,1
     104:	fee42623          	sw	a4,-20(s0)
     108:	fe842703          	lw	a4,-24(s0)
     10c:	0ff77713          	andi	a4,a4,255
     110:	00101697          	auipc	a3,0x101
     114:	f4c68693          	addi	a3,a3,-180 # 10105c <cmd.0>
     118:	00f687b3          	add	a5,a3,a5
     11c:	00e78023          	sb	a4,0(a5)
     120:	fe842783          	lw	a5,-24(s0)
     124:	0ff7f793          	andi	a5,a5,255
     128:	00078513          	mv	a0,a5
     12c:	350010ef          	jal	ra,147c <putch>
     130:	fe842703          	lw	a4,-24(s0)
     134:	00a00793          	li	a5,10
     138:	faf71ee3          	bne	a4,a5,f4 <main+0x24>
     13c:	00101517          	auipc	a0,0x101
     140:	f2050513          	addi	a0,a0,-224 # 10105c <cmd.0>
     144:	eedff0ef          	jal	ra,30 <exec>
     148:	fadff06f          	j	f4 <main+0x24>

0000014c <exec_echo>:
     14c:	fe010113          	addi	sp,sp,-32
     150:	00112e23          	sw	ra,28(sp)
     154:	00812c23          	sw	s0,24(sp)
     158:	02010413          	addi	s0,sp,32
     15c:	fea42623          	sw	a0,-20(s0)
     160:	0100006f          	j	170 <exec_echo+0x24>
     164:	fec42783          	lw	a5,-20(s0)
     168:	00178793          	addi	a5,a5,1
     16c:	fef42623          	sw	a5,-20(s0)
     170:	fec42783          	lw	a5,-20(s0)
     174:	0007c703          	lbu	a4,0(a5)
     178:	02000793          	li	a5,32
     17c:	fef704e3          	beq	a4,a5,164 <exec_echo+0x18>
     180:	fec42503          	lw	a0,-20(s0)
     184:	534010ef          	jal	ra,16b8 <putstr>
     188:	00000013          	nop
     18c:	01c12083          	lw	ra,28(sp)
     190:	01812403          	lw	s0,24(sp)
     194:	02010113          	addi	sp,sp,32
     198:	00008067          	ret

0000019c <next_bracket>:
     19c:	fd010113          	addi	sp,sp,-48
     1a0:	02812623          	sw	s0,44(sp)
     1a4:	03010413          	addi	s0,sp,48
     1a8:	fca42e23          	sw	a0,-36(s0)
     1ac:	00100793          	li	a5,1
     1b0:	fef42623          	sw	a5,-20(s0)
     1b4:	fdc42783          	lw	a5,-36(s0)
     1b8:	00178793          	addi	a5,a5,1
     1bc:	fcf42e23          	sw	a5,-36(s0)
     1c0:	0980006f          	j	258 <next_bracket+0xbc>
     1c4:	00100697          	auipc	a3,0x100
     1c8:	2a468693          	addi	a3,a3,676 # 100468 <tokens>
     1cc:	fdc42703          	lw	a4,-36(s0)
     1d0:	00070793          	mv	a5,a4
     1d4:	00179793          	slli	a5,a5,0x1
     1d8:	00e787b3          	add	a5,a5,a4
     1dc:	00279793          	slli	a5,a5,0x2
     1e0:	00f687b3          	add	a5,a3,a5
     1e4:	0007a703          	lw	a4,0(a5)
     1e8:	00100793          	li	a5,1
     1ec:	04f71e63          	bne	a4,a5,248 <next_bracket+0xac>
     1f0:	00100697          	auipc	a3,0x100
     1f4:	27868693          	addi	a3,a3,632 # 100468 <tokens>
     1f8:	fdc42703          	lw	a4,-36(s0)
     1fc:	00070793          	mv	a5,a4
     200:	00179793          	slli	a5,a5,0x1
     204:	00e787b3          	add	a5,a5,a4
     208:	00279793          	slli	a5,a5,0x2
     20c:	00f687b3          	add	a5,a3,a5
     210:	0047c783          	lbu	a5,4(a5)
     214:	02800713          	li	a4,40
     218:	00e78863          	beq	a5,a4,228 <next_bracket+0x8c>
     21c:	02900713          	li	a4,41
     220:	00e78c63          	beq	a5,a4,238 <next_bracket+0x9c>
     224:	0280006f          	j	24c <next_bracket+0xb0>
     228:	fec42783          	lw	a5,-20(s0)
     22c:	00178793          	addi	a5,a5,1
     230:	fef42623          	sw	a5,-20(s0)
     234:	0180006f          	j	24c <next_bracket+0xb0>
     238:	fec42783          	lw	a5,-20(s0)
     23c:	fff78793          	addi	a5,a5,-1
     240:	fef42623          	sw	a5,-20(s0)
     244:	0080006f          	j	24c <next_bracket+0xb0>
     248:	00000013          	nop
     24c:	fdc42783          	lw	a5,-36(s0)
     250:	00178793          	addi	a5,a5,1
     254:	fcf42e23          	sw	a5,-36(s0)
     258:	fec42783          	lw	a5,-20(s0)
     25c:	f60794e3          	bnez	a5,1c4 <next_bracket+0x28>
     260:	fdc42783          	lw	a5,-36(s0)
     264:	00078513          	mv	a0,a5
     268:	02c12403          	lw	s0,44(sp)
     26c:	03010113          	addi	sp,sp,48
     270:	00008067          	ret

00000274 <LB>:
     274:	ff010113          	addi	sp,sp,-16
     278:	00812623          	sw	s0,12(sp)
     27c:	00912423          	sw	s1,8(sp)
     280:	01010413          	addi	s0,sp,16
     284:	00050493          	mv	s1,a0
     288:	0004a703          	lw	a4,0(s1)
     28c:	00100793          	li	a5,1
     290:	00f71c63          	bne	a4,a5,2a8 <LB+0x34>
     294:	0044c703          	lbu	a4,4(s1)
     298:	02800793          	li	a5,40
     29c:	00f71663          	bne	a4,a5,2a8 <LB+0x34>
     2a0:	00100793          	li	a5,1
     2a4:	0080006f          	j	2ac <LB+0x38>
     2a8:	00000793          	li	a5,0
     2ac:	00078513          	mv	a0,a5
     2b0:	00c12403          	lw	s0,12(sp)
     2b4:	00812483          	lw	s1,8(sp)
     2b8:	01010113          	addi	sp,sp,16
     2bc:	00008067          	ret

000002c0 <RB>:
     2c0:	ff010113          	addi	sp,sp,-16
     2c4:	00812623          	sw	s0,12(sp)
     2c8:	00912423          	sw	s1,8(sp)
     2cc:	01010413          	addi	s0,sp,16
     2d0:	00050493          	mv	s1,a0
     2d4:	0004a703          	lw	a4,0(s1)
     2d8:	00100793          	li	a5,1
     2dc:	00f71c63          	bne	a4,a5,2f4 <RB+0x34>
     2e0:	0044c703          	lbu	a4,4(s1)
     2e4:	02900793          	li	a5,41
     2e8:	00f71663          	bne	a4,a5,2f4 <RB+0x34>
     2ec:	00100793          	li	a5,1
     2f0:	0080006f          	j	2f8 <RB+0x38>
     2f4:	00000793          	li	a5,0
     2f8:	00078513          	mv	a0,a5
     2fc:	00c12403          	lw	s0,12(sp)
     300:	00812483          	lw	s1,8(sp)
     304:	01010113          	addi	sp,sp,16
     308:	00008067          	ret

0000030c <ksm>:
     30c:	fd010113          	addi	sp,sp,-48
     310:	02112623          	sw	ra,44(sp)
     314:	02812423          	sw	s0,40(sp)
     318:	03010413          	addi	s0,sp,48
     31c:	fca42e23          	sw	a0,-36(s0)
     320:	fcb42c23          	sw	a1,-40(s0)
     324:	00100793          	li	a5,1
     328:	fef42623          	sw	a5,-20(s0)
     32c:	0180006f          	j	344 <ksm+0x38>
     330:	fdc42583          	lw	a1,-36(s0)
     334:	fec42503          	lw	a0,-20(s0)
     338:	7c8000ef          	jal	ra,b00 <__mulsi3>
     33c:	00050793          	mv	a5,a0
     340:	fef42623          	sw	a5,-20(s0)
     344:	fd842783          	lw	a5,-40(s0)
     348:	fff78713          	addi	a4,a5,-1
     34c:	fce42c23          	sw	a4,-40(s0)
     350:	fe0790e3          	bnez	a5,330 <ksm+0x24>
     354:	fec42783          	lw	a5,-20(s0)
     358:	00078513          	mv	a0,a5
     35c:	02c12083          	lw	ra,44(sp)
     360:	02812403          	lw	s0,40(sp)
     364:	03010113          	addi	sp,sp,48
     368:	00008067          	ret

0000036c <eval>:
     36c:	fc010113          	addi	sp,sp,-64
     370:	02112e23          	sw	ra,60(sp)
     374:	02812c23          	sw	s0,56(sp)
     378:	04010413          	addi	s0,sp,64
     37c:	fca42e23          	sw	a0,-36(s0)
     380:	fcb42c23          	sw	a1,-40(s0)
     384:	fd842703          	lw	a4,-40(s0)
     388:	fdc42783          	lw	a5,-36(s0)
     38c:	00e7c663          	blt	a5,a4,398 <eval+0x2c>
     390:	00000793          	li	a5,0
     394:	3380006f          	j	6cc <eval+0x360>
     398:	fdc42783          	lw	a5,-36(s0)
     39c:	00178793          	addi	a5,a5,1
     3a0:	fd842703          	lw	a4,-40(s0)
     3a4:	02f71663          	bne	a4,a5,3d0 <eval+0x64>
     3a8:	00100697          	auipc	a3,0x100
     3ac:	0c068693          	addi	a3,a3,192 # 100468 <tokens>
     3b0:	fdc42703          	lw	a4,-36(s0)
     3b4:	00070793          	mv	a5,a4
     3b8:	00179793          	slli	a5,a5,0x1
     3bc:	00e787b3          	add	a5,a5,a4
     3c0:	00279793          	slli	a5,a5,0x2
     3c4:	00f687b3          	add	a5,a3,a5
     3c8:	0087a783          	lw	a5,8(a5)
     3cc:	3000006f          	j	6cc <eval+0x360>
     3d0:	00100697          	auipc	a3,0x100
     3d4:	09868693          	addi	a3,a3,152 # 100468 <tokens>
     3d8:	fdc42703          	lw	a4,-36(s0)
     3dc:	00070793          	mv	a5,a4
     3e0:	00179793          	slli	a5,a5,0x1
     3e4:	00e787b3          	add	a5,a5,a4
     3e8:	00279793          	slli	a5,a5,0x2
     3ec:	00f687b3          	add	a5,a3,a5
     3f0:	0007a703          	lw	a4,0(a5)
     3f4:	fce42023          	sw	a4,-64(s0)
     3f8:	0047a703          	lw	a4,4(a5)
     3fc:	fce42223          	sw	a4,-60(s0)
     400:	0087a783          	lw	a5,8(a5)
     404:	fcf42423          	sw	a5,-56(s0)
     408:	fc040793          	addi	a5,s0,-64
     40c:	00078513          	mv	a0,a5
     410:	e65ff0ef          	jal	ra,274 <LB>
     414:	00050793          	mv	a5,a0
     418:	06078c63          	beqz	a5,490 <eval+0x124>
     41c:	fd842783          	lw	a5,-40(s0)
     420:	fff78713          	addi	a4,a5,-1
     424:	00100697          	auipc	a3,0x100
     428:	04468693          	addi	a3,a3,68 # 100468 <tokens>
     42c:	00070793          	mv	a5,a4
     430:	00179793          	slli	a5,a5,0x1
     434:	00e787b3          	add	a5,a5,a4
     438:	00279793          	slli	a5,a5,0x2
     43c:	00f687b3          	add	a5,a3,a5
     440:	0007a703          	lw	a4,0(a5)
     444:	fce42023          	sw	a4,-64(s0)
     448:	0047a703          	lw	a4,4(a5)
     44c:	fce42223          	sw	a4,-60(s0)
     450:	0087a783          	lw	a5,8(a5)
     454:	fcf42423          	sw	a5,-56(s0)
     458:	fc040793          	addi	a5,s0,-64
     45c:	00078513          	mv	a0,a5
     460:	e61ff0ef          	jal	ra,2c0 <RB>
     464:	00050793          	mv	a5,a0
     468:	02078463          	beqz	a5,490 <eval+0x124>
     46c:	fdc42783          	lw	a5,-36(s0)
     470:	00178713          	addi	a4,a5,1
     474:	fd842783          	lw	a5,-40(s0)
     478:	fff78793          	addi	a5,a5,-1
     47c:	00078593          	mv	a1,a5
     480:	00070513          	mv	a0,a4
     484:	ee9ff0ef          	jal	ra,36c <eval>
     488:	00050793          	mv	a5,a0
     48c:	2400006f          	j	6cc <eval+0x360>
     490:	fdc42783          	lw	a5,-36(s0)
     494:	fef42623          	sw	a5,-20(s0)
     498:	fff00793          	li	a5,-1
     49c:	fef42423          	sw	a5,-24(s0)
     4a0:	12c0006f          	j	5cc <eval+0x260>
     4a4:	00100697          	auipc	a3,0x100
     4a8:	fc468693          	addi	a3,a3,-60 # 100468 <tokens>
     4ac:	fec42703          	lw	a4,-20(s0)
     4b0:	00070793          	mv	a5,a4
     4b4:	00179793          	slli	a5,a5,0x1
     4b8:	00e787b3          	add	a5,a5,a4
     4bc:	00279793          	slli	a5,a5,0x2
     4c0:	00f687b3          	add	a5,a3,a5
     4c4:	0007a703          	lw	a4,0(a5)
     4c8:	fce42023          	sw	a4,-64(s0)
     4cc:	0047a703          	lw	a4,4(a5)
     4d0:	fce42223          	sw	a4,-60(s0)
     4d4:	0087a783          	lw	a5,8(a5)
     4d8:	fcf42423          	sw	a5,-56(s0)
     4dc:	fc040793          	addi	a5,s0,-64
     4e0:	00078513          	mv	a0,a5
     4e4:	d91ff0ef          	jal	ra,274 <LB>
     4e8:	00050793          	mv	a5,a0
     4ec:	00078e63          	beqz	a5,508 <eval+0x19c>
     4f0:	fec42503          	lw	a0,-20(s0)
     4f4:	ca9ff0ef          	jal	ra,19c <next_bracket>
     4f8:	fea42623          	sw	a0,-20(s0)
     4fc:	fec42703          	lw	a4,-20(s0)
     500:	fd842783          	lw	a5,-40(s0)
     504:	0cf70c63          	beq	a4,a5,5dc <eval+0x270>
     508:	00100697          	auipc	a3,0x100
     50c:	f6068693          	addi	a3,a3,-160 # 100468 <tokens>
     510:	fec42703          	lw	a4,-20(s0)
     514:	00070793          	mv	a5,a4
     518:	00179793          	slli	a5,a5,0x1
     51c:	00e787b3          	add	a5,a5,a4
     520:	00279793          	slli	a5,a5,0x2
     524:	00f687b3          	add	a5,a3,a5
     528:	0007a783          	lw	a5,0(a5)
     52c:	08078863          	beqz	a5,5bc <eval+0x250>
     530:	fe842703          	lw	a4,-24(s0)
     534:	fff00793          	li	a5,-1
     538:	06f70c63          	beq	a4,a5,5b0 <eval+0x244>
     53c:	00100697          	auipc	a3,0x100
     540:	f2c68693          	addi	a3,a3,-212 # 100468 <tokens>
     544:	fec42703          	lw	a4,-20(s0)
     548:	00070793          	mv	a5,a4
     54c:	00179793          	slli	a5,a5,0x1
     550:	00e787b3          	add	a5,a5,a4
     554:	00279793          	slli	a5,a5,0x2
     558:	00f687b3          	add	a5,a3,a5
     55c:	0047c783          	lbu	a5,4(a5)
     560:	00100717          	auipc	a4,0x100
     564:	abc70713          	addi	a4,a4,-1348 # 10001c <prior>
     568:	00279793          	slli	a5,a5,0x2
     56c:	00f707b3          	add	a5,a4,a5
     570:	0007a683          	lw	a3,0(a5)
     574:	00100617          	auipc	a2,0x100
     578:	ef460613          	addi	a2,a2,-268 # 100468 <tokens>
     57c:	fe842703          	lw	a4,-24(s0)
     580:	00070793          	mv	a5,a4
     584:	00179793          	slli	a5,a5,0x1
     588:	00e787b3          	add	a5,a5,a4
     58c:	00279793          	slli	a5,a5,0x2
     590:	00f607b3          	add	a5,a2,a5
     594:	0047c783          	lbu	a5,4(a5)
     598:	00100717          	auipc	a4,0x100
     59c:	a8470713          	addi	a4,a4,-1404 # 10001c <prior>
     5a0:	00279793          	slli	a5,a5,0x2
     5a4:	00f707b3          	add	a5,a4,a5
     5a8:	0007a783          	lw	a5,0(a5)
     5ac:	00f6da63          	bge	a3,a5,5c0 <eval+0x254>
     5b0:	fec42783          	lw	a5,-20(s0)
     5b4:	fef42423          	sw	a5,-24(s0)
     5b8:	0080006f          	j	5c0 <eval+0x254>
     5bc:	00000013          	nop
     5c0:	fec42783          	lw	a5,-20(s0)
     5c4:	00178793          	addi	a5,a5,1
     5c8:	fef42623          	sw	a5,-20(s0)
     5cc:	fec42703          	lw	a4,-20(s0)
     5d0:	fd842783          	lw	a5,-40(s0)
     5d4:	ecf718e3          	bne	a4,a5,4a4 <eval+0x138>
     5d8:	0080006f          	j	5e0 <eval+0x274>
     5dc:	00000013          	nop
     5e0:	fe842583          	lw	a1,-24(s0)
     5e4:	fdc42503          	lw	a0,-36(s0)
     5e8:	d85ff0ef          	jal	ra,36c <eval>
     5ec:	fea42223          	sw	a0,-28(s0)
     5f0:	fe842783          	lw	a5,-24(s0)
     5f4:	00178793          	addi	a5,a5,1
     5f8:	fd842583          	lw	a1,-40(s0)
     5fc:	00078513          	mv	a0,a5
     600:	d6dff0ef          	jal	ra,36c <eval>
     604:	fea42023          	sw	a0,-32(s0)
     608:	00100697          	auipc	a3,0x100
     60c:	e6068693          	addi	a3,a3,-416 # 100468 <tokens>
     610:	fe842703          	lw	a4,-24(s0)
     614:	00070793          	mv	a5,a4
     618:	00179793          	slli	a5,a5,0x1
     61c:	00e787b3          	add	a5,a5,a4
     620:	00279793          	slli	a5,a5,0x2
     624:	00f687b3          	add	a5,a3,a5
     628:	0047c783          	lbu	a5,4(a5)
     62c:	05e00713          	li	a4,94
     630:	04e78063          	beq	a5,a4,670 <eval+0x304>
     634:	05e00713          	li	a4,94
     638:	08f74a63          	blt	a4,a5,6cc <eval+0x360>
     63c:	02f00713          	li	a4,47
     640:	04e78c63          	beq	a5,a4,698 <eval+0x32c>
     644:	02f00713          	li	a4,47
     648:	08f74263          	blt	a4,a5,6cc <eval+0x360>
     64c:	02d00713          	li	a4,45
     650:	06e78663          	beq	a5,a4,6bc <eval+0x350>
     654:	02d00713          	li	a4,45
     658:	06f74a63          	blt	a4,a5,6cc <eval+0x360>
     65c:	02a00713          	li	a4,42
     660:	02e78263          	beq	a5,a4,684 <eval+0x318>
     664:	02b00713          	li	a4,43
     668:	04e78263          	beq	a5,a4,6ac <eval+0x340>
     66c:	0600006f          	j	6cc <eval+0x360>
     670:	fe042583          	lw	a1,-32(s0)
     674:	fe442503          	lw	a0,-28(s0)
     678:	c95ff0ef          	jal	ra,30c <ksm>
     67c:	00050793          	mv	a5,a0
     680:	04c0006f          	j	6cc <eval+0x360>
     684:	fe042583          	lw	a1,-32(s0)
     688:	fe442503          	lw	a0,-28(s0)
     68c:	474000ef          	jal	ra,b00 <__mulsi3>
     690:	00050793          	mv	a5,a0
     694:	0380006f          	j	6cc <eval+0x360>
     698:	fe042583          	lw	a1,-32(s0)
     69c:	fe442503          	lw	a0,-28(s0)
     6a0:	644000ef          	jal	ra,ce4 <__divsi3>
     6a4:	00050793          	mv	a5,a0
     6a8:	0240006f          	j	6cc <eval+0x360>
     6ac:	fe442703          	lw	a4,-28(s0)
     6b0:	fe042783          	lw	a5,-32(s0)
     6b4:	00f707b3          	add	a5,a4,a5
     6b8:	0140006f          	j	6cc <eval+0x360>
     6bc:	fe442703          	lw	a4,-28(s0)
     6c0:	fe042783          	lw	a5,-32(s0)
     6c4:	40f707b3          	sub	a5,a4,a5
     6c8:	0040006f          	j	6cc <eval+0x360>
     6cc:	00078513          	mv	a0,a5
     6d0:	03c12083          	lw	ra,60(sp)
     6d4:	03812403          	lw	s0,56(sp)
     6d8:	04010113          	addi	sp,sp,64
     6dc:	00008067          	ret

000006e0 <parse>:
     6e0:	fa010113          	addi	sp,sp,-96
     6e4:	04812e23          	sw	s0,92(sp)
     6e8:	06010413          	addi	s0,sp,96
     6ec:	faa42623          	sw	a0,-84(s0)
     6f0:	fab42423          	sw	a1,-88(s0)
     6f4:	fe042623          	sw	zero,-20(s0)
     6f8:	fe042423          	sw	zero,-24(s0)
     6fc:	fac42783          	lw	a5,-84(s0)
     700:	fef42223          	sw	a5,-28(s0)
     704:	1a80006f          	j	8ac <parse+0x1cc>
     708:	fe442783          	lw	a5,-28(s0)
     70c:	0007c783          	lbu	a5,0(a5)
     710:	fef401a3          	sb	a5,-29(s0)
     714:	fe344703          	lbu	a4,-29(s0)
     718:	02f00793          	li	a5,47
     71c:	04e7f263          	bgeu	a5,a4,760 <parse+0x80>
     720:	fe344703          	lbu	a4,-29(s0)
     724:	03900793          	li	a5,57
     728:	02e7ec63          	bltu	a5,a4,760 <parse+0x80>
     72c:	fec42703          	lw	a4,-20(s0)
     730:	00070793          	mv	a5,a4
     734:	00279793          	slli	a5,a5,0x2
     738:	00e787b3          	add	a5,a5,a4
     73c:	00179793          	slli	a5,a5,0x1
     740:	00078713          	mv	a4,a5
     744:	fe344783          	lbu	a5,-29(s0)
     748:	00f707b3          	add	a5,a4,a5
     74c:	fd078793          	addi	a5,a5,-48
     750:	fef42623          	sw	a5,-20(s0)
     754:	00100793          	li	a5,1
     758:	fef42423          	sw	a5,-24(s0)
     75c:	1440006f          	j	8a0 <parse+0x1c0>
     760:	fe842783          	lw	a5,-24(s0)
     764:	08078863          	beqz	a5,7f4 <parse+0x114>
     768:	00101797          	auipc	a5,0x101
     76c:	9f478793          	addi	a5,a5,-1548 # 10115c <ntok>
     770:	0007a703          	lw	a4,0(a5)
     774:	00170693          	addi	a3,a4,1
     778:	00101797          	auipc	a5,0x101
     77c:	9e478793          	addi	a5,a5,-1564 # 10115c <ntok>
     780:	00d7a023          	sw	a3,0(a5)
     784:	00100697          	auipc	a3,0x100
     788:	ce468693          	addi	a3,a3,-796 # 100468 <tokens>
     78c:	00070793          	mv	a5,a4
     790:	00179793          	slli	a5,a5,0x1
     794:	00e787b3          	add	a5,a5,a4
     798:	00279793          	slli	a5,a5,0x2
     79c:	00f687b3          	add	a5,a3,a5
     7a0:	0007a023          	sw	zero,0(a5)
     7a4:	00100697          	auipc	a3,0x100
     7a8:	cc468693          	addi	a3,a3,-828 # 100468 <tokens>
     7ac:	00070793          	mv	a5,a4
     7b0:	00179793          	slli	a5,a5,0x1
     7b4:	00e787b3          	add	a5,a5,a4
     7b8:	00279793          	slli	a5,a5,0x2
     7bc:	00f687b3          	add	a5,a3,a5
     7c0:	fff00693          	li	a3,-1
     7c4:	00d78223          	sb	a3,4(a5)
     7c8:	00100697          	auipc	a3,0x100
     7cc:	ca068693          	addi	a3,a3,-864 # 100468 <tokens>
     7d0:	00070793          	mv	a5,a4
     7d4:	00179793          	slli	a5,a5,0x1
     7d8:	00e787b3          	add	a5,a5,a4
     7dc:	00279793          	slli	a5,a5,0x2
     7e0:	00f687b3          	add	a5,a3,a5
     7e4:	fec42703          	lw	a4,-20(s0)
     7e8:	00e7a423          	sw	a4,8(a5)
     7ec:	fe042623          	sw	zero,-20(s0)
     7f0:	fe042423          	sw	zero,-24(s0)
     7f4:	fe344703          	lbu	a4,-29(s0)
     7f8:	02000793          	li	a5,32
     7fc:	0af70263          	beq	a4,a5,8a0 <parse+0x1c0>
     800:	fe344703          	lbu	a4,-29(s0)
     804:	00a00793          	li	a5,10
     808:	08f70c63          	beq	a4,a5,8a0 <parse+0x1c0>
     80c:	fe344703          	lbu	a4,-29(s0)
     810:	00900793          	li	a5,9
     814:	08f70663          	beq	a4,a5,8a0 <parse+0x1c0>
     818:	00101797          	auipc	a5,0x101
     81c:	94478793          	addi	a5,a5,-1724 # 10115c <ntok>
     820:	0007a703          	lw	a4,0(a5)
     824:	00170693          	addi	a3,a4,1
     828:	00101797          	auipc	a5,0x101
     82c:	93478793          	addi	a5,a5,-1740 # 10115c <ntok>
     830:	00d7a023          	sw	a3,0(a5)
     834:	00100697          	auipc	a3,0x100
     838:	c3468693          	addi	a3,a3,-972 # 100468 <tokens>
     83c:	00070793          	mv	a5,a4
     840:	00179793          	slli	a5,a5,0x1
     844:	00e787b3          	add	a5,a5,a4
     848:	00279793          	slli	a5,a5,0x2
     84c:	00f687b3          	add	a5,a3,a5
     850:	00100693          	li	a3,1
     854:	00d7a023          	sw	a3,0(a5)
     858:	00100697          	auipc	a3,0x100
     85c:	c1068693          	addi	a3,a3,-1008 # 100468 <tokens>
     860:	00070793          	mv	a5,a4
     864:	00179793          	slli	a5,a5,0x1
     868:	00e787b3          	add	a5,a5,a4
     86c:	00279793          	slli	a5,a5,0x2
     870:	00f687b3          	add	a5,a3,a5
     874:	fe344683          	lbu	a3,-29(s0)
     878:	00d78223          	sb	a3,4(a5)
     87c:	00100697          	auipc	a3,0x100
     880:	bec68693          	addi	a3,a3,-1044 # 100468 <tokens>
     884:	00070793          	mv	a5,a4
     888:	00179793          	slli	a5,a5,0x1
     88c:	00e787b3          	add	a5,a5,a4
     890:	00279793          	slli	a5,a5,0x2
     894:	00f687b3          	add	a5,a3,a5
     898:	fff00713          	li	a4,-1
     89c:	00e7a423          	sw	a4,8(a5)
     8a0:	fe442783          	lw	a5,-28(s0)
     8a4:	00178793          	addi	a5,a5,1
     8a8:	fef42223          	sw	a5,-28(s0)
     8ac:	fa842783          	lw	a5,-88(s0)
     8b0:	fac42703          	lw	a4,-84(s0)
     8b4:	00f707b3          	add	a5,a4,a5
     8b8:	fe442703          	lw	a4,-28(s0)
     8bc:	e4f716e3          	bne	a4,a5,708 <parse+0x28>
     8c0:	fe842783          	lw	a5,-24(s0)
     8c4:	08078463          	beqz	a5,94c <parse+0x26c>
     8c8:	00101797          	auipc	a5,0x101
     8cc:	89478793          	addi	a5,a5,-1900 # 10115c <ntok>
     8d0:	0007a703          	lw	a4,0(a5)
     8d4:	00170693          	addi	a3,a4,1
     8d8:	00101797          	auipc	a5,0x101
     8dc:	88478793          	addi	a5,a5,-1916 # 10115c <ntok>
     8e0:	00d7a023          	sw	a3,0(a5)
     8e4:	00100697          	auipc	a3,0x100
     8e8:	b8468693          	addi	a3,a3,-1148 # 100468 <tokens>
     8ec:	00070793          	mv	a5,a4
     8f0:	00179793          	slli	a5,a5,0x1
     8f4:	00e787b3          	add	a5,a5,a4
     8f8:	00279793          	slli	a5,a5,0x2
     8fc:	00f687b3          	add	a5,a3,a5
     900:	0007a023          	sw	zero,0(a5)
     904:	00100697          	auipc	a3,0x100
     908:	b6468693          	addi	a3,a3,-1180 # 100468 <tokens>
     90c:	00070793          	mv	a5,a4
     910:	00179793          	slli	a5,a5,0x1
     914:	00e787b3          	add	a5,a5,a4
     918:	00279793          	slli	a5,a5,0x2
     91c:	00f687b3          	add	a5,a3,a5
     920:	fff00693          	li	a3,-1
     924:	00d78223          	sb	a3,4(a5)
     928:	00100697          	auipc	a3,0x100
     92c:	b4068693          	addi	a3,a3,-1216 # 100468 <tokens>
     930:	00070793          	mv	a5,a4
     934:	00179793          	slli	a5,a5,0x1
     938:	00e787b3          	add	a5,a5,a4
     93c:	00279793          	slli	a5,a5,0x2
     940:	00f687b3          	add	a5,a3,a5
     944:	fec42703          	lw	a4,-20(s0)
     948:	00e7a423          	sw	a4,8(a5)
     94c:	00000013          	nop
     950:	05c12403          	lw	s0,92(sp)
     954:	06010113          	addi	sp,sp,96
     958:	00008067          	ret

0000095c <exec_eval>:
     95c:	fe010113          	addi	sp,sp,-32
     960:	00112e23          	sw	ra,28(sp)
     964:	00812c23          	sw	s0,24(sp)
     968:	02010413          	addi	s0,sp,32
     96c:	fea42623          	sw	a0,-20(s0)
     970:	0100006f          	j	980 <exec_eval+0x24>
     974:	fec42783          	lw	a5,-20(s0)
     978:	00178793          	addi	a5,a5,1
     97c:	fef42623          	sw	a5,-20(s0)
     980:	fec42783          	lw	a5,-20(s0)
     984:	0007c703          	lbu	a4,0(a5)
     988:	02000793          	li	a5,32
     98c:	fef704e3          	beq	a4,a5,974 <exec_eval+0x18>
     990:	00100797          	auipc	a5,0x100
     994:	7cc78793          	addi	a5,a5,1996 # 10115c <ntok>
     998:	0007a023          	sw	zero,0(a5)
     99c:	fec42503          	lw	a0,-20(s0)
     9a0:	738000ef          	jal	ra,10d8 <strlen>
     9a4:	00050793          	mv	a5,a0
     9a8:	00078593          	mv	a1,a5
     9ac:	fec42503          	lw	a0,-20(s0)
     9b0:	d31ff0ef          	jal	ra,6e0 <parse>
     9b4:	00100797          	auipc	a5,0x100
     9b8:	7a878793          	addi	a5,a5,1960 # 10115c <ntok>
     9bc:	0007a783          	lw	a5,0(a5)
     9c0:	00078593          	mv	a1,a5
     9c4:	00000513          	li	a0,0
     9c8:	9a5ff0ef          	jal	ra,36c <eval>
     9cc:	00050793          	mv	a5,a0
     9d0:	00078593          	mv	a1,a5
     9d4:	000ff517          	auipc	a0,0xff
     9d8:	62c50513          	addi	a0,a0,1580 # 100000 <_etext+0xfe8bc>
     9dc:	550000ef          	jal	ra,f2c <printf>
     9e0:	00000013          	nop
     9e4:	01c12083          	lw	ra,28(sp)
     9e8:	01812403          	lw	s0,24(sp)
     9ec:	02010113          	addi	sp,sp,32
     9f0:	00008067          	ret

000009f4 <exec_fib>:
     9f4:	fd010113          	addi	sp,sp,-48
     9f8:	02112623          	sw	ra,44(sp)
     9fc:	02812423          	sw	s0,40(sp)
     a00:	03010413          	addi	s0,sp,48
     a04:	fca42e23          	sw	a0,-36(s0)
     a08:	0100006f          	j	a18 <exec_fib+0x24>
     a0c:	fdc42783          	lw	a5,-36(s0)
     a10:	00178793          	addi	a5,a5,1
     a14:	fcf42e23          	sw	a5,-36(s0)
     a18:	fdc42783          	lw	a5,-36(s0)
     a1c:	0007c703          	lbu	a4,0(a5)
     a20:	02000793          	li	a5,32
     a24:	fef704e3          	beq	a4,a5,a0c <exec_fib+0x18>
     a28:	fe042623          	sw	zero,-20(s0)
     a2c:	03c0006f          	j	a68 <exec_fib+0x74>
     a30:	fec42703          	lw	a4,-20(s0)
     a34:	00070793          	mv	a5,a4
     a38:	00279793          	slli	a5,a5,0x2
     a3c:	00e787b3          	add	a5,a5,a4
     a40:	00179793          	slli	a5,a5,0x1
     a44:	00078713          	mv	a4,a5
     a48:	fdc42783          	lw	a5,-36(s0)
     a4c:	0007c783          	lbu	a5,0(a5)
     a50:	00f707b3          	add	a5,a4,a5
     a54:	fd078793          	addi	a5,a5,-48
     a58:	fef42623          	sw	a5,-20(s0)
     a5c:	fdc42783          	lw	a5,-36(s0)
     a60:	00178793          	addi	a5,a5,1
     a64:	fcf42e23          	sw	a5,-36(s0)
     a68:	fdc42783          	lw	a5,-36(s0)
     a6c:	0007c703          	lbu	a4,0(a5)
     a70:	02f00793          	li	a5,47
     a74:	00e7fa63          	bgeu	a5,a4,a88 <exec_fib+0x94>
     a78:	fdc42783          	lw	a5,-36(s0)
     a7c:	0007c703          	lbu	a4,0(a5)
     a80:	03900793          	li	a5,57
     a84:	fae7f6e3          	bgeu	a5,a4,a30 <exec_fib+0x3c>
     a88:	00100793          	li	a5,1
     a8c:	fef42423          	sw	a5,-24(s0)
     a90:	00100793          	li	a5,1
     a94:	fef42223          	sw	a5,-28(s0)
     a98:	00200793          	li	a5,2
     a9c:	fef42023          	sw	a5,-32(s0)
     aa0:	0300006f          	j	ad0 <exec_fib+0xdc>
     aa4:	fe442703          	lw	a4,-28(s0)
     aa8:	fe842783          	lw	a5,-24(s0)
     aac:	00f707b3          	add	a5,a4,a5
     ab0:	fef42223          	sw	a5,-28(s0)
     ab4:	fe442703          	lw	a4,-28(s0)
     ab8:	fe842783          	lw	a5,-24(s0)
     abc:	40f707b3          	sub	a5,a4,a5
     ac0:	fef42423          	sw	a5,-24(s0)
     ac4:	fe042783          	lw	a5,-32(s0)
     ac8:	00178793          	addi	a5,a5,1
     acc:	fef42023          	sw	a5,-32(s0)
     ad0:	fe042703          	lw	a4,-32(s0)
     ad4:	fec42783          	lw	a5,-20(s0)
     ad8:	fce7d6e3          	bge	a5,a4,aa4 <exec_fib+0xb0>
     adc:	fe442583          	lw	a1,-28(s0)
     ae0:	000ff517          	auipc	a0,0xff
     ae4:	52450513          	addi	a0,a0,1316 # 100004 <_etext+0xfe8c0>
     ae8:	444000ef          	jal	ra,f2c <printf>
     aec:	00000013          	nop
     af0:	02c12083          	lw	ra,44(sp)
     af4:	02812403          	lw	s0,40(sp)
     af8:	03010113          	addi	sp,sp,48
     afc:	00008067          	ret

00000b00 <__mulsi3>:
     b00:	fd010113          	addi	sp,sp,-48
     b04:	02812623          	sw	s0,44(sp)
     b08:	03010413          	addi	s0,sp,48
     b0c:	fca42e23          	sw	a0,-36(s0)
     b10:	fcb42c23          	sw	a1,-40(s0)
     b14:	fe042623          	sw	zero,-20(s0)
     b18:	0380006f          	j	b50 <__mulsi3+0x50>
     b1c:	fdc42783          	lw	a5,-36(s0)
     b20:	0017f793          	andi	a5,a5,1
     b24:	00078a63          	beqz	a5,b38 <__mulsi3+0x38>
     b28:	fec42703          	lw	a4,-20(s0)
     b2c:	fd842783          	lw	a5,-40(s0)
     b30:	00f707b3          	add	a5,a4,a5
     b34:	fef42623          	sw	a5,-20(s0)
     b38:	fdc42783          	lw	a5,-36(s0)
     b3c:	0017d793          	srli	a5,a5,0x1
     b40:	fcf42e23          	sw	a5,-36(s0)
     b44:	fd842783          	lw	a5,-40(s0)
     b48:	00179793          	slli	a5,a5,0x1
     b4c:	fcf42c23          	sw	a5,-40(s0)
     b50:	fdc42783          	lw	a5,-36(s0)
     b54:	fc0794e3          	bnez	a5,b1c <__mulsi3+0x1c>
     b58:	fec42783          	lw	a5,-20(s0)
     b5c:	00078513          	mv	a0,a5
     b60:	02c12403          	lw	s0,44(sp)
     b64:	03010113          	addi	sp,sp,48
     b68:	00008067          	ret

00000b6c <__umodsi3>:
     b6c:	fd010113          	addi	sp,sp,-48
     b70:	02812623          	sw	s0,44(sp)
     b74:	03010413          	addi	s0,sp,48
     b78:	fca42e23          	sw	a0,-36(s0)
     b7c:	fcb42c23          	sw	a1,-40(s0)
     b80:	00100793          	li	a5,1
     b84:	fef42623          	sw	a5,-20(s0)
     b88:	fe042423          	sw	zero,-24(s0)
     b8c:	01c0006f          	j	ba8 <__umodsi3+0x3c>
     b90:	fd842783          	lw	a5,-40(s0)
     b94:	00179793          	slli	a5,a5,0x1
     b98:	fcf42c23          	sw	a5,-40(s0)
     b9c:	fec42783          	lw	a5,-20(s0)
     ba0:	00179793          	slli	a5,a5,0x1
     ba4:	fef42623          	sw	a5,-20(s0)
     ba8:	fd842703          	lw	a4,-40(s0)
     bac:	fdc42783          	lw	a5,-36(s0)
     bb0:	04f77e63          	bgeu	a4,a5,c0c <__umodsi3+0xa0>
     bb4:	fec42783          	lw	a5,-20(s0)
     bb8:	04078a63          	beqz	a5,c0c <__umodsi3+0xa0>
     bbc:	fd842783          	lw	a5,-40(s0)
     bc0:	fc07d8e3          	bgez	a5,b90 <__umodsi3+0x24>
     bc4:	0480006f          	j	c0c <__umodsi3+0xa0>
     bc8:	fdc42703          	lw	a4,-36(s0)
     bcc:	fd842783          	lw	a5,-40(s0)
     bd0:	02f76263          	bltu	a4,a5,bf4 <__umodsi3+0x88>
     bd4:	fdc42703          	lw	a4,-36(s0)
     bd8:	fd842783          	lw	a5,-40(s0)
     bdc:	40f707b3          	sub	a5,a4,a5
     be0:	fcf42e23          	sw	a5,-36(s0)
     be4:	fe842703          	lw	a4,-24(s0)
     be8:	fec42783          	lw	a5,-20(s0)
     bec:	00f767b3          	or	a5,a4,a5
     bf0:	fef42423          	sw	a5,-24(s0)
     bf4:	fec42783          	lw	a5,-20(s0)
     bf8:	0017d793          	srli	a5,a5,0x1
     bfc:	fef42623          	sw	a5,-20(s0)
     c00:	fd842783          	lw	a5,-40(s0)
     c04:	0017d793          	srli	a5,a5,0x1
     c08:	fcf42c23          	sw	a5,-40(s0)
     c0c:	fec42783          	lw	a5,-20(s0)
     c10:	fa079ce3          	bnez	a5,bc8 <__umodsi3+0x5c>
     c14:	fdc42783          	lw	a5,-36(s0)
     c18:	00078513          	mv	a0,a5
     c1c:	02c12403          	lw	s0,44(sp)
     c20:	03010113          	addi	sp,sp,48
     c24:	00008067          	ret

00000c28 <__udivsi3>:
     c28:	fd010113          	addi	sp,sp,-48
     c2c:	02812623          	sw	s0,44(sp)
     c30:	03010413          	addi	s0,sp,48
     c34:	fca42e23          	sw	a0,-36(s0)
     c38:	fcb42c23          	sw	a1,-40(s0)
     c3c:	00100793          	li	a5,1
     c40:	fef42623          	sw	a5,-20(s0)
     c44:	fe042423          	sw	zero,-24(s0)
     c48:	01c0006f          	j	c64 <__udivsi3+0x3c>
     c4c:	fd842783          	lw	a5,-40(s0)
     c50:	00179793          	slli	a5,a5,0x1
     c54:	fcf42c23          	sw	a5,-40(s0)
     c58:	fec42783          	lw	a5,-20(s0)
     c5c:	00179793          	slli	a5,a5,0x1
     c60:	fef42623          	sw	a5,-20(s0)
     c64:	fd842703          	lw	a4,-40(s0)
     c68:	fdc42783          	lw	a5,-36(s0)
     c6c:	04f77e63          	bgeu	a4,a5,cc8 <__udivsi3+0xa0>
     c70:	fec42783          	lw	a5,-20(s0)
     c74:	04078a63          	beqz	a5,cc8 <__udivsi3+0xa0>
     c78:	fd842783          	lw	a5,-40(s0)
     c7c:	fc07d8e3          	bgez	a5,c4c <__udivsi3+0x24>
     c80:	0480006f          	j	cc8 <__udivsi3+0xa0>
     c84:	fdc42703          	lw	a4,-36(s0)
     c88:	fd842783          	lw	a5,-40(s0)
     c8c:	02f76263          	bltu	a4,a5,cb0 <__udivsi3+0x88>
     c90:	fdc42703          	lw	a4,-36(s0)
     c94:	fd842783          	lw	a5,-40(s0)
     c98:	40f707b3          	sub	a5,a4,a5
     c9c:	fcf42e23          	sw	a5,-36(s0)
     ca0:	fe842703          	lw	a4,-24(s0)
     ca4:	fec42783          	lw	a5,-20(s0)
     ca8:	00f767b3          	or	a5,a4,a5
     cac:	fef42423          	sw	a5,-24(s0)
     cb0:	fec42783          	lw	a5,-20(s0)
     cb4:	0017d793          	srli	a5,a5,0x1
     cb8:	fef42623          	sw	a5,-20(s0)
     cbc:	fd842783          	lw	a5,-40(s0)
     cc0:	0017d793          	srli	a5,a5,0x1
     cc4:	fcf42c23          	sw	a5,-40(s0)
     cc8:	fec42783          	lw	a5,-20(s0)
     ccc:	fa079ce3          	bnez	a5,c84 <__udivsi3+0x5c>
     cd0:	fe842783          	lw	a5,-24(s0)
     cd4:	00078513          	mv	a0,a5
     cd8:	02c12403          	lw	s0,44(sp)
     cdc:	03010113          	addi	sp,sp,48
     ce0:	00008067          	ret

00000ce4 <__divsi3>:
     ce4:	fe010113          	addi	sp,sp,-32
     ce8:	00112e23          	sw	ra,28(sp)
     cec:	00812c23          	sw	s0,24(sp)
     cf0:	02010413          	addi	s0,sp,32
     cf4:	fea42623          	sw	a0,-20(s0)
     cf8:	feb42423          	sw	a1,-24(s0)
     cfc:	fec42783          	lw	a5,-20(s0)
     d00:	02f05463          	blez	a5,d28 <__divsi3+0x44>
     d04:	fe842783          	lw	a5,-24(s0)
     d08:	02f05063          	blez	a5,d28 <__divsi3+0x44>
     d0c:	fec42783          	lw	a5,-20(s0)
     d10:	fe842703          	lw	a4,-24(s0)
     d14:	00070593          	mv	a1,a4
     d18:	00078513          	mv	a0,a5
     d1c:	f0dff0ef          	jal	ra,c28 <__udivsi3>
     d20:	00050793          	mv	a5,a0
     d24:	0840006f          	j	da8 <__divsi3+0xc4>
     d28:	fec42783          	lw	a5,-20(s0)
     d2c:	0207da63          	bgez	a5,d60 <__divsi3+0x7c>
     d30:	fe842783          	lw	a5,-24(s0)
     d34:	0207d663          	bgez	a5,d60 <__divsi3+0x7c>
     d38:	fec42783          	lw	a5,-20(s0)
     d3c:	40f007b3          	neg	a5,a5
     d40:	00078713          	mv	a4,a5
     d44:	fe842783          	lw	a5,-24(s0)
     d48:	40f007b3          	neg	a5,a5
     d4c:	00078593          	mv	a1,a5
     d50:	00070513          	mv	a0,a4
     d54:	ed5ff0ef          	jal	ra,c28 <__udivsi3>
     d58:	00050793          	mv	a5,a0
     d5c:	04c0006f          	j	da8 <__divsi3+0xc4>
     d60:	fec42783          	lw	a5,-20(s0)
     d64:	02f05263          	blez	a5,d88 <__divsi3+0xa4>
     d68:	fec42703          	lw	a4,-20(s0)
     d6c:	fe842783          	lw	a5,-24(s0)
     d70:	40f007b3          	neg	a5,a5
     d74:	00078593          	mv	a1,a5
     d78:	00070513          	mv	a0,a4
     d7c:	eadff0ef          	jal	ra,c28 <__udivsi3>
     d80:	00050793          	mv	a5,a0
     d84:	0240006f          	j	da8 <__divsi3+0xc4>
     d88:	fec42783          	lw	a5,-20(s0)
     d8c:	40f007b3          	neg	a5,a5
     d90:	00078713          	mv	a4,a5
     d94:	fe842783          	lw	a5,-24(s0)
     d98:	00078593          	mv	a1,a5
     d9c:	00070513          	mv	a0,a4
     da0:	e89ff0ef          	jal	ra,c28 <__udivsi3>
     da4:	00050793          	mv	a5,a0
     da8:	00078513          	mv	a0,a5
     dac:	01c12083          	lw	ra,28(sp)
     db0:	01812403          	lw	s0,24(sp)
     db4:	02010113          	addi	sp,sp,32
     db8:	00008067          	ret

00000dbc <__modsi3>:
     dbc:	fd010113          	addi	sp,sp,-48
     dc0:	02112623          	sw	ra,44(sp)
     dc4:	02812423          	sw	s0,40(sp)
     dc8:	02912223          	sw	s1,36(sp)
     dcc:	03010413          	addi	s0,sp,48
     dd0:	fca42e23          	sw	a0,-36(s0)
     dd4:	fcb42c23          	sw	a1,-40(s0)
     dd8:	fd842583          	lw	a1,-40(s0)
     ddc:	fdc42503          	lw	a0,-36(s0)
     de0:	f05ff0ef          	jal	ra,ce4 <__divsi3>
     de4:	fea42623          	sw	a0,-20(s0)
     de8:	fdc42483          	lw	s1,-36(s0)
     dec:	fd842783          	lw	a5,-40(s0)
     df0:	fec42703          	lw	a4,-20(s0)
     df4:	00070593          	mv	a1,a4
     df8:	00078513          	mv	a0,a5
     dfc:	d05ff0ef          	jal	ra,b00 <__mulsi3>
     e00:	00050793          	mv	a5,a0
     e04:	40f487b3          	sub	a5,s1,a5
     e08:	00078513          	mv	a0,a5
     e0c:	02c12083          	lw	ra,44(sp)
     e10:	02812403          	lw	s0,40(sp)
     e14:	02412483          	lw	s1,36(sp)
     e18:	03010113          	addi	sp,sp,48
     e1c:	00008067          	ret

00000e20 <putu_>:
     e20:	fe010113          	addi	sp,sp,-32
     e24:	00112e23          	sw	ra,28(sp)
     e28:	00812c23          	sw	s0,24(sp)
     e2c:	02010413          	addi	s0,sp,32
     e30:	fea42623          	sw	a0,-20(s0)
     e34:	fec42783          	lw	a5,-20(s0)
     e38:	04078663          	beqz	a5,e84 <putu_+0x64>
     e3c:	fec42783          	lw	a5,-20(s0)
     e40:	00a00593          	li	a1,10
     e44:	00078513          	mv	a0,a5
     e48:	de1ff0ef          	jal	ra,c28 <__udivsi3>
     e4c:	00050793          	mv	a5,a0
     e50:	00078513          	mv	a0,a5
     e54:	fcdff0ef          	jal	ra,e20 <putu_>
     e58:	fec42783          	lw	a5,-20(s0)
     e5c:	00a00593          	li	a1,10
     e60:	00078513          	mv	a0,a5
     e64:	d09ff0ef          	jal	ra,b6c <__umodsi3>
     e68:	00050793          	mv	a5,a0
     e6c:	0ff7f793          	andi	a5,a5,255
     e70:	03078793          	addi	a5,a5,48
     e74:	0ff7f793          	andi	a5,a5,255
     e78:	00078513          	mv	a0,a5
     e7c:	600000ef          	jal	ra,147c <putch>
     e80:	0080006f          	j	e88 <putu_+0x68>
     e84:	00000013          	nop
     e88:	01c12083          	lw	ra,28(sp)
     e8c:	01812403          	lw	s0,24(sp)
     e90:	02010113          	addi	sp,sp,32
     e94:	00008067          	ret

00000e98 <putu>:
     e98:	fe010113          	addi	sp,sp,-32
     e9c:	00112e23          	sw	ra,28(sp)
     ea0:	00812c23          	sw	s0,24(sp)
     ea4:	02010413          	addi	s0,sp,32
     ea8:	fea42623          	sw	a0,-20(s0)
     eac:	fec42783          	lw	a5,-20(s0)
     eb0:	00079863          	bnez	a5,ec0 <putu+0x28>
     eb4:	03000513          	li	a0,48
     eb8:	5c4000ef          	jal	ra,147c <putch>
     ebc:	00c0006f          	j	ec8 <putu+0x30>
     ec0:	fec42503          	lw	a0,-20(s0)
     ec4:	f5dff0ef          	jal	ra,e20 <putu_>
     ec8:	00000013          	nop
     ecc:	01c12083          	lw	ra,28(sp)
     ed0:	01812403          	lw	s0,24(sp)
     ed4:	02010113          	addi	sp,sp,32
     ed8:	00008067          	ret

00000edc <puti>:
     edc:	fe010113          	addi	sp,sp,-32
     ee0:	00112e23          	sw	ra,28(sp)
     ee4:	00812c23          	sw	s0,24(sp)
     ee8:	02010413          	addi	s0,sp,32
     eec:	fea42623          	sw	a0,-20(s0)
     ef0:	fec42783          	lw	a5,-20(s0)
     ef4:	0007dc63          	bgez	a5,f0c <puti+0x30>
     ef8:	fec42783          	lw	a5,-20(s0)
     efc:	40f007b3          	neg	a5,a5
     f00:	fef42623          	sw	a5,-20(s0)
     f04:	02d00513          	li	a0,45
     f08:	574000ef          	jal	ra,147c <putch>
     f0c:	fec42783          	lw	a5,-20(s0)
     f10:	00078513          	mv	a0,a5
     f14:	f85ff0ef          	jal	ra,e98 <putu>
     f18:	00000013          	nop
     f1c:	01c12083          	lw	ra,28(sp)
     f20:	01812403          	lw	s0,24(sp)
     f24:	02010113          	addi	sp,sp,32
     f28:	00008067          	ret

00000f2c <printf>:
     f2c:	fb010113          	addi	sp,sp,-80
     f30:	02112623          	sw	ra,44(sp)
     f34:	02812423          	sw	s0,40(sp)
     f38:	03010413          	addi	s0,sp,48
     f3c:	fca42e23          	sw	a0,-36(s0)
     f40:	00b42223          	sw	a1,4(s0)
     f44:	00c42423          	sw	a2,8(s0)
     f48:	00d42623          	sw	a3,12(s0)
     f4c:	00e42823          	sw	a4,16(s0)
     f50:	00f42a23          	sw	a5,20(s0)
     f54:	01042c23          	sw	a6,24(s0)
     f58:	01142e23          	sw	a7,28(s0)
     f5c:	02040793          	addi	a5,s0,32
     f60:	fcf42c23          	sw	a5,-40(s0)
     f64:	fd842783          	lw	a5,-40(s0)
     f68:	fe478793          	addi	a5,a5,-28
     f6c:	fef42423          	sw	a5,-24(s0)
     f70:	fdc42783          	lw	a5,-36(s0)
     f74:	fef42623          	sw	a5,-20(s0)
     f78:	10c0006f          	j	1084 <printf+0x158>
     f7c:	fec42783          	lw	a5,-20(s0)
     f80:	0007c703          	lbu	a4,0(a5)
     f84:	02500793          	li	a5,37
     f88:	00f70c63          	beq	a4,a5,fa0 <printf+0x74>
     f8c:	fec42783          	lw	a5,-20(s0)
     f90:	0007c783          	lbu	a5,0(a5)
     f94:	00078513          	mv	a0,a5
     f98:	4e4000ef          	jal	ra,147c <putch>
     f9c:	0dc0006f          	j	1078 <printf+0x14c>
     fa0:	fec42783          	lw	a5,-20(s0)
     fa4:	00178793          	addi	a5,a5,1
     fa8:	fef42623          	sw	a5,-20(s0)
     fac:	fec42783          	lw	a5,-20(s0)
     fb0:	0007c783          	lbu	a5,0(a5)
     fb4:	07500713          	li	a4,117
     fb8:	06e78663          	beq	a5,a4,1024 <printf+0xf8>
     fbc:	07500713          	li	a4,117
     fc0:	0af74c63          	blt	a4,a5,1078 <printf+0x14c>
     fc4:	07300713          	li	a4,115
     fc8:	08e78a63          	beq	a5,a4,105c <printf+0x130>
     fcc:	07300713          	li	a4,115
     fd0:	0af74463          	blt	a4,a5,1078 <printf+0x14c>
     fd4:	06400713          	li	a4,100
     fd8:	06e78463          	beq	a5,a4,1040 <printf+0x114>
     fdc:	06400713          	li	a4,100
     fe0:	08f74c63          	blt	a4,a5,1078 <printf+0x14c>
     fe4:	02500713          	li	a4,37
     fe8:	00e78863          	beq	a5,a4,ff8 <printf+0xcc>
     fec:	06300713          	li	a4,99
     ff0:	00e78a63          	beq	a5,a4,1004 <printf+0xd8>
     ff4:	0840006f          	j	1078 <printf+0x14c>
     ff8:	02500513          	li	a0,37
     ffc:	480000ef          	jal	ra,147c <putch>
    1000:	0780006f          	j	1078 <printf+0x14c>
    1004:	fe842783          	lw	a5,-24(s0)
    1008:	00478713          	addi	a4,a5,4
    100c:	fee42423          	sw	a4,-24(s0)
    1010:	0007a783          	lw	a5,0(a5)
    1014:	0ff7f793          	andi	a5,a5,255
    1018:	00078513          	mv	a0,a5
    101c:	460000ef          	jal	ra,147c <putch>
    1020:	0580006f          	j	1078 <printf+0x14c>
    1024:	fe842783          	lw	a5,-24(s0)
    1028:	00478713          	addi	a4,a5,4
    102c:	fee42423          	sw	a4,-24(s0)
    1030:	0007a783          	lw	a5,0(a5)
    1034:	00078513          	mv	a0,a5
    1038:	e61ff0ef          	jal	ra,e98 <putu>
    103c:	03c0006f          	j	1078 <printf+0x14c>
    1040:	fe842783          	lw	a5,-24(s0)
    1044:	00478713          	addi	a4,a5,4
    1048:	fee42423          	sw	a4,-24(s0)
    104c:	0007a783          	lw	a5,0(a5)
    1050:	00078513          	mv	a0,a5
    1054:	e89ff0ef          	jal	ra,edc <puti>
    1058:	0200006f          	j	1078 <printf+0x14c>
    105c:	fe842783          	lw	a5,-24(s0)
    1060:	00478713          	addi	a4,a5,4
    1064:	fee42423          	sw	a4,-24(s0)
    1068:	0007a783          	lw	a5,0(a5)
    106c:	00078513          	mv	a0,a5
    1070:	648000ef          	jal	ra,16b8 <putstr>
    1074:	00000013          	nop
    1078:	fec42783          	lw	a5,-20(s0)
    107c:	00178793          	addi	a5,a5,1
    1080:	fef42623          	sw	a5,-20(s0)
    1084:	fec42783          	lw	a5,-20(s0)
    1088:	0007c783          	lbu	a5,0(a5)
    108c:	ee0798e3          	bnez	a5,f7c <printf+0x50>
    1090:	00000013          	nop
    1094:	00000013          	nop
    1098:	02c12083          	lw	ra,44(sp)
    109c:	02812403          	lw	s0,40(sp)
    10a0:	05010113          	addi	sp,sp,80
    10a4:	00008067          	ret

000010a8 <puts>:
    10a8:	fe010113          	addi	sp,sp,-32
    10ac:	00112e23          	sw	ra,28(sp)
    10b0:	00812c23          	sw	s0,24(sp)
    10b4:	02010413          	addi	s0,sp,32
    10b8:	fea42623          	sw	a0,-20(s0)
    10bc:	fec42503          	lw	a0,-20(s0)
    10c0:	5f8000ef          	jal	ra,16b8 <putstr>
    10c4:	00000013          	nop
    10c8:	01c12083          	lw	ra,28(sp)
    10cc:	01812403          	lw	s0,24(sp)
    10d0:	02010113          	addi	sp,sp,32
    10d4:	00008067          	ret

000010d8 <strlen>:
    10d8:	fd010113          	addi	sp,sp,-48
    10dc:	02812623          	sw	s0,44(sp)
    10e0:	03010413          	addi	s0,sp,48
    10e4:	fca42e23          	sw	a0,-36(s0)
    10e8:	fe042623          	sw	zero,-20(s0)
    10ec:	0100006f          	j	10fc <strlen+0x24>
    10f0:	fec42783          	lw	a5,-20(s0)
    10f4:	00178793          	addi	a5,a5,1
    10f8:	fef42623          	sw	a5,-20(s0)
    10fc:	fec42783          	lw	a5,-20(s0)
    1100:	fdc42703          	lw	a4,-36(s0)
    1104:	00f707b3          	add	a5,a4,a5
    1108:	0007c783          	lbu	a5,0(a5)
    110c:	fe0792e3          	bnez	a5,10f0 <strlen+0x18>
    1110:	fec42783          	lw	a5,-20(s0)
    1114:	00078513          	mv	a0,a5
    1118:	02c12403          	lw	s0,44(sp)
    111c:	03010113          	addi	sp,sp,48
    1120:	00008067          	ret

00001124 <strcmp>:
    1124:	fd010113          	addi	sp,sp,-48
    1128:	02812623          	sw	s0,44(sp)
    112c:	03010413          	addi	s0,sp,48
    1130:	fca42e23          	sw	a0,-36(s0)
    1134:	fcb42c23          	sw	a1,-40(s0)
    1138:	fdc42783          	lw	a5,-36(s0)
    113c:	fef42623          	sw	a5,-20(s0)
    1140:	fd842783          	lw	a5,-40(s0)
    1144:	fef42423          	sw	a5,-24(s0)
    1148:	01c0006f          	j	1164 <strcmp+0x40>
    114c:	fec42783          	lw	a5,-20(s0)
    1150:	00178793          	addi	a5,a5,1
    1154:	fef42623          	sw	a5,-20(s0)
    1158:	fe842783          	lw	a5,-24(s0)
    115c:	00178793          	addi	a5,a5,1
    1160:	fef42423          	sw	a5,-24(s0)
    1164:	fec42783          	lw	a5,-20(s0)
    1168:	0007c703          	lbu	a4,0(a5)
    116c:	fe842783          	lw	a5,-24(s0)
    1170:	0007c783          	lbu	a5,0(a5)
    1174:	00f71863          	bne	a4,a5,1184 <strcmp+0x60>
    1178:	fec42783          	lw	a5,-20(s0)
    117c:	0007c783          	lbu	a5,0(a5)
    1180:	fc0796e3          	bnez	a5,114c <strcmp+0x28>
    1184:	fec42783          	lw	a5,-20(s0)
    1188:	0007c703          	lbu	a4,0(a5)
    118c:	fe842783          	lw	a5,-24(s0)
    1190:	0007c783          	lbu	a5,0(a5)
    1194:	00f71663          	bne	a4,a5,11a0 <strcmp+0x7c>
    1198:	00000793          	li	a5,0
    119c:	0240006f          	j	11c0 <strcmp+0x9c>
    11a0:	fec42783          	lw	a5,-20(s0)
    11a4:	0007c703          	lbu	a4,0(a5)
    11a8:	fe842783          	lw	a5,-24(s0)
    11ac:	0007c783          	lbu	a5,0(a5)
    11b0:	00e7f663          	bgeu	a5,a4,11bc <strcmp+0x98>
    11b4:	00100793          	li	a5,1
    11b8:	0080006f          	j	11c0 <strcmp+0x9c>
    11bc:	fff00793          	li	a5,-1
    11c0:	00078513          	mv	a0,a5
    11c4:	02c12403          	lw	s0,44(sp)
    11c8:	03010113          	addi	sp,sp,48
    11cc:	00008067          	ret

000011d0 <strncmp>:
    11d0:	fd010113          	addi	sp,sp,-48
    11d4:	02812623          	sw	s0,44(sp)
    11d8:	03010413          	addi	s0,sp,48
    11dc:	fca42e23          	sw	a0,-36(s0)
    11e0:	fcb42c23          	sw	a1,-40(s0)
    11e4:	fcc42a23          	sw	a2,-44(s0)
    11e8:	fe042623          	sw	zero,-20(s0)
    11ec:	fdc42783          	lw	a5,-36(s0)
    11f0:	fef42423          	sw	a5,-24(s0)
    11f4:	fd842783          	lw	a5,-40(s0)
    11f8:	fef42223          	sw	a5,-28(s0)
    11fc:	0280006f          	j	1224 <strncmp+0x54>
    1200:	fe842783          	lw	a5,-24(s0)
    1204:	00178793          	addi	a5,a5,1
    1208:	fef42423          	sw	a5,-24(s0)
    120c:	fe442783          	lw	a5,-28(s0)
    1210:	00178793          	addi	a5,a5,1
    1214:	fef42223          	sw	a5,-28(s0)
    1218:	fec42783          	lw	a5,-20(s0)
    121c:	00178793          	addi	a5,a5,1
    1220:	fef42623          	sw	a5,-20(s0)
    1224:	fe842783          	lw	a5,-24(s0)
    1228:	0007c703          	lbu	a4,0(a5)
    122c:	fe442783          	lw	a5,-28(s0)
    1230:	0007c783          	lbu	a5,0(a5)
    1234:	02f71463          	bne	a4,a5,125c <strncmp+0x8c>
    1238:	fe842783          	lw	a5,-24(s0)
    123c:	0007c783          	lbu	a5,0(a5)
    1240:	00078e63          	beqz	a5,125c <strncmp+0x8c>
    1244:	fe442783          	lw	a5,-28(s0)
    1248:	0007c783          	lbu	a5,0(a5)
    124c:	00078863          	beqz	a5,125c <strncmp+0x8c>
    1250:	fec42703          	lw	a4,-20(s0)
    1254:	fd442783          	lw	a5,-44(s0)
    1258:	faf744e3          	blt	a4,a5,1200 <strncmp+0x30>
    125c:	fe842783          	lw	a5,-24(s0)
    1260:	0007c703          	lbu	a4,0(a5)
    1264:	fe442783          	lw	a5,-28(s0)
    1268:	0007c783          	lbu	a5,0(a5)
    126c:	00f71663          	bne	a4,a5,1278 <strncmp+0xa8>
    1270:	00000793          	li	a5,0
    1274:	0240006f          	j	1298 <strncmp+0xc8>
    1278:	fe842783          	lw	a5,-24(s0)
    127c:	0007c703          	lbu	a4,0(a5)
    1280:	fe442783          	lw	a5,-28(s0)
    1284:	0007c783          	lbu	a5,0(a5)
    1288:	00e7f663          	bgeu	a5,a4,1294 <strncmp+0xc4>
    128c:	00100793          	li	a5,1
    1290:	0080006f          	j	1298 <strncmp+0xc8>
    1294:	fff00793          	li	a5,-1
    1298:	00078513          	mv	a0,a5
    129c:	02c12403          	lw	s0,44(sp)
    12a0:	03010113          	addi	sp,sp,48
    12a4:	00008067          	ret

000012a8 <gettimeofday>:
    12a8:	ff010113          	addi	sp,sp,-16
    12ac:	00812623          	sw	s0,12(sp)
    12b0:	01010413          	addi	s0,sp,16
    12b4:	000ff797          	auipc	a5,0xff
    12b8:	1a878793          	addi	a5,a5,424 # 10045c <time>
    12bc:	0007a783          	lw	a5,0(a5)
    12c0:	0007a783          	lw	a5,0(a5)
    12c4:	00078513          	mv	a0,a5
    12c8:	00c12403          	lw	s0,12(sp)
    12cc:	01010113          	addi	sp,sp,16
    12d0:	00008067          	ret

000012d4 <sleep>:
    12d4:	fd010113          	addi	sp,sp,-48
    12d8:	02812623          	sw	s0,44(sp)
    12dc:	03010413          	addi	s0,sp,48
    12e0:	fca42e23          	sw	a0,-36(s0)
    12e4:	fe042623          	sw	zero,-20(s0)
    12e8:	fdc42703          	lw	a4,-36(s0)
    12ec:	00070793          	mv	a5,a4
    12f0:	00279793          	slli	a5,a5,0x2
    12f4:	00e787b3          	add	a5,a5,a4
    12f8:	00379793          	slli	a5,a5,0x3
    12fc:	40e787b3          	sub	a5,a5,a4
    1300:	00479793          	slli	a5,a5,0x4
    1304:	00e787b3          	add	a5,a5,a4
    1308:	00479793          	slli	a5,a5,0x4
    130c:	fcf42e23          	sw	a5,-36(s0)
    1310:	0100006f          	j	1320 <sleep+0x4c>
    1314:	fec42783          	lw	a5,-20(s0)
    1318:	00178793          	addi	a5,a5,1
    131c:	fef42623          	sw	a5,-20(s0)
    1320:	fec42703          	lw	a4,-20(s0)
    1324:	fdc42783          	lw	a5,-36(s0)
    1328:	fef746e3          	blt	a4,a5,1314 <sleep+0x40>
    132c:	00000013          	nop
    1330:	00000013          	nop
    1334:	02c12403          	lw	s0,44(sp)
    1338:	03010113          	addi	sp,sp,48
    133c:	00008067          	ret

00001340 <vga_init>:
    1340:	fe010113          	addi	sp,sp,-32
    1344:	00812e23          	sw	s0,28(sp)
    1348:	02010413          	addi	s0,sp,32
    134c:	00100797          	auipc	a5,0x100
    1350:	e1478793          	addi	a5,a5,-492 # 101160 <vga_line>
    1354:	0007a023          	sw	zero,0(a5)
    1358:	00100797          	auipc	a5,0x100
    135c:	e0c78793          	addi	a5,a5,-500 # 101164 <vga_ch>
    1360:	0007a023          	sw	zero,0(a5)
    1364:	fe042623          	sw	zero,-20(s0)
    1368:	0680006f          	j	13d0 <vga_init+0x90>
    136c:	fe042423          	sw	zero,-24(s0)
    1370:	0480006f          	j	13b8 <vga_init+0x78>
    1374:	000ff797          	auipc	a5,0xff
    1378:	0e478793          	addi	a5,a5,228 # 100458 <vga_start>
    137c:	0007a783          	lw	a5,0(a5)
    1380:	000ff717          	auipc	a4,0xff
    1384:	0e070713          	addi	a4,a4,224 # 100460 <start_line>
    1388:	00072703          	lw	a4,0(a4)
    138c:	00072683          	lw	a3,0(a4)
    1390:	fec42703          	lw	a4,-20(s0)
    1394:	00e68733          	add	a4,a3,a4
    1398:	00771693          	slli	a3,a4,0x7
    139c:	fe842703          	lw	a4,-24(s0)
    13a0:	00e68733          	add	a4,a3,a4
    13a4:	00e787b3          	add	a5,a5,a4
    13a8:	00078023          	sb	zero,0(a5)
    13ac:	fe842783          	lw	a5,-24(s0)
    13b0:	00178793          	addi	a5,a5,1
    13b4:	fef42423          	sw	a5,-24(s0)
    13b8:	fe842703          	lw	a4,-24(s0)
    13bc:	04500793          	li	a5,69
    13c0:	fae7dae3          	bge	a5,a4,1374 <vga_init+0x34>
    13c4:	fec42783          	lw	a5,-20(s0)
    13c8:	00178793          	addi	a5,a5,1
    13cc:	fef42623          	sw	a5,-20(s0)
    13d0:	fec42703          	lw	a4,-20(s0)
    13d4:	01d00793          	li	a5,29
    13d8:	f8e7dae3          	bge	a5,a4,136c <vga_init+0x2c>
    13dc:	00000013          	nop
    13e0:	00000013          	nop
    13e4:	01c12403          	lw	s0,28(sp)
    13e8:	02010113          	addi	sp,sp,32
    13ec:	00008067          	ret

000013f0 <vga_roll>:
    13f0:	fe010113          	addi	sp,sp,-32
    13f4:	00812e23          	sw	s0,28(sp)
    13f8:	02010413          	addi	s0,sp,32
    13fc:	000ff797          	auipc	a5,0xff
    1400:	06478793          	addi	a5,a5,100 # 100460 <start_line>
    1404:	0007a783          	lw	a5,0(a5)
    1408:	0007a703          	lw	a4,0(a5)
    140c:	00170713          	addi	a4,a4,1
    1410:	00e7a023          	sw	a4,0(a5)
    1414:	fe042623          	sw	zero,-20(s0)
    1418:	0440006f          	j	145c <vga_roll+0x6c>
    141c:	000ff797          	auipc	a5,0xff
    1420:	03c78793          	addi	a5,a5,60 # 100458 <vga_start>
    1424:	0007a783          	lw	a5,0(a5)
    1428:	000ff717          	auipc	a4,0xff
    142c:	03870713          	addi	a4,a4,56 # 100460 <start_line>
    1430:	00072703          	lw	a4,0(a4)
    1434:	00072703          	lw	a4,0(a4)
    1438:	01d70713          	addi	a4,a4,29
    143c:	00771693          	slli	a3,a4,0x7
    1440:	fec42703          	lw	a4,-20(s0)
    1444:	00e68733          	add	a4,a3,a4
    1448:	00e787b3          	add	a5,a5,a4
    144c:	00078023          	sb	zero,0(a5)
    1450:	fec42783          	lw	a5,-20(s0)
    1454:	00178793          	addi	a5,a5,1
    1458:	fef42623          	sw	a5,-20(s0)
    145c:	fec42703          	lw	a4,-20(s0)
    1460:	04500793          	li	a5,69
    1464:	fae7dce3          	bge	a5,a4,141c <vga_roll+0x2c>
    1468:	00000013          	nop
    146c:	00000013          	nop
    1470:	01c12403          	lw	s0,28(sp)
    1474:	02010113          	addi	sp,sp,32
    1478:	00008067          	ret

0000147c <putch>:
    147c:	fe010113          	addi	sp,sp,-32
    1480:	00112e23          	sw	ra,28(sp)
    1484:	00812c23          	sw	s0,24(sp)
    1488:	02010413          	addi	s0,sp,32
    148c:	00050793          	mv	a5,a0
    1490:	fef407a3          	sb	a5,-17(s0)
    1494:	fef44783          	lbu	a5,-17(s0)
    1498:	00800713          	li	a4,8
    149c:	00e78863          	beq	a5,a4,14ac <putch+0x30>
    14a0:	00a00713          	li	a4,10
    14a4:	0ce78863          	beq	a5,a4,1574 <putch+0xf8>
    14a8:	1200006f          	j	15c8 <putch+0x14c>
    14ac:	00100797          	auipc	a5,0x100
    14b0:	cb478793          	addi	a5,a5,-844 # 101160 <vga_line>
    14b4:	0007a783          	lw	a5,0(a5)
    14b8:	00079a63          	bnez	a5,14cc <putch+0x50>
    14bc:	00100797          	auipc	a5,0x100
    14c0:	ca878793          	addi	a5,a5,-856 # 101164 <vga_ch>
    14c4:	0007a783          	lw	a5,0(a5)
    14c8:	1c078863          	beqz	a5,1698 <putch+0x21c>
    14cc:	000ff797          	auipc	a5,0xff
    14d0:	f8c78793          	addi	a5,a5,-116 # 100458 <vga_start>
    14d4:	0007a783          	lw	a5,0(a5)
    14d8:	000ff717          	auipc	a4,0xff
    14dc:	f8870713          	addi	a4,a4,-120 # 100460 <start_line>
    14e0:	00072703          	lw	a4,0(a4)
    14e4:	00072683          	lw	a3,0(a4)
    14e8:	00100717          	auipc	a4,0x100
    14ec:	c7870713          	addi	a4,a4,-904 # 101160 <vga_line>
    14f0:	00072703          	lw	a4,0(a4)
    14f4:	00e68733          	add	a4,a3,a4
    14f8:	00771693          	slli	a3,a4,0x7
    14fc:	00100717          	auipc	a4,0x100
    1500:	c6870713          	addi	a4,a4,-920 # 101164 <vga_ch>
    1504:	00072703          	lw	a4,0(a4)
    1508:	00e68733          	add	a4,a3,a4
    150c:	00e787b3          	add	a5,a5,a4
    1510:	00078023          	sb	zero,0(a5)
    1514:	00100797          	auipc	a5,0x100
    1518:	c5078793          	addi	a5,a5,-944 # 101164 <vga_ch>
    151c:	0007a783          	lw	a5,0(a5)
    1520:	02079a63          	bnez	a5,1554 <putch+0xd8>
    1524:	00100797          	auipc	a5,0x100
    1528:	c3c78793          	addi	a5,a5,-964 # 101160 <vga_line>
    152c:	0007a783          	lw	a5,0(a5)
    1530:	fff78713          	addi	a4,a5,-1
    1534:	00100797          	auipc	a5,0x100
    1538:	c2c78793          	addi	a5,a5,-980 # 101160 <vga_line>
    153c:	00e7a023          	sw	a4,0(a5)
    1540:	00100797          	auipc	a5,0x100
    1544:	c2478793          	addi	a5,a5,-988 # 101164 <vga_ch>
    1548:	04500713          	li	a4,69
    154c:	00e7a023          	sw	a4,0(a5)
    1550:	1480006f          	j	1698 <putch+0x21c>
    1554:	00100797          	auipc	a5,0x100
    1558:	c1078793          	addi	a5,a5,-1008 # 101164 <vga_ch>
    155c:	0007a783          	lw	a5,0(a5)
    1560:	fff78713          	addi	a4,a5,-1
    1564:	00100797          	auipc	a5,0x100
    1568:	c0078793          	addi	a5,a5,-1024 # 101164 <vga_ch>
    156c:	00e7a023          	sw	a4,0(a5)
    1570:	1280006f          	j	1698 <putch+0x21c>
    1574:	00100797          	auipc	a5,0x100
    1578:	bec78793          	addi	a5,a5,-1044 # 101160 <vga_line>
    157c:	0007a783          	lw	a5,0(a5)
    1580:	00178713          	addi	a4,a5,1
    1584:	00100797          	auipc	a5,0x100
    1588:	bdc78793          	addi	a5,a5,-1060 # 101160 <vga_line>
    158c:	00e7a023          	sw	a4,0(a5)
    1590:	00100797          	auipc	a5,0x100
    1594:	bd078793          	addi	a5,a5,-1072 # 101160 <vga_line>
    1598:	0007a703          	lw	a4,0(a5)
    159c:	01d00793          	li	a5,29
    15a0:	00e7dc63          	bge	a5,a4,15b8 <putch+0x13c>
    15a4:	e4dff0ef          	jal	ra,13f0 <vga_roll>
    15a8:	00100797          	auipc	a5,0x100
    15ac:	bb878793          	addi	a5,a5,-1096 # 101160 <vga_line>
    15b0:	01d00713          	li	a4,29
    15b4:	00e7a023          	sw	a4,0(a5)
    15b8:	00100797          	auipc	a5,0x100
    15bc:	bac78793          	addi	a5,a5,-1108 # 101164 <vga_ch>
    15c0:	0007a023          	sw	zero,0(a5)
    15c4:	0e00006f          	j	16a4 <putch+0x228>
    15c8:	000ff797          	auipc	a5,0xff
    15cc:	e9078793          	addi	a5,a5,-368 # 100458 <vga_start>
    15d0:	0007a783          	lw	a5,0(a5)
    15d4:	000ff717          	auipc	a4,0xff
    15d8:	e8c70713          	addi	a4,a4,-372 # 100460 <start_line>
    15dc:	00072703          	lw	a4,0(a4)
    15e0:	00072683          	lw	a3,0(a4)
    15e4:	00100717          	auipc	a4,0x100
    15e8:	b7c70713          	addi	a4,a4,-1156 # 101160 <vga_line>
    15ec:	00072703          	lw	a4,0(a4)
    15f0:	00e68733          	add	a4,a3,a4
    15f4:	00771693          	slli	a3,a4,0x7
    15f8:	00100717          	auipc	a4,0x100
    15fc:	b6c70713          	addi	a4,a4,-1172 # 101164 <vga_ch>
    1600:	00072703          	lw	a4,0(a4)
    1604:	00e68733          	add	a4,a3,a4
    1608:	00e787b3          	add	a5,a5,a4
    160c:	fef44703          	lbu	a4,-17(s0)
    1610:	00e78023          	sb	a4,0(a5)
    1614:	00100797          	auipc	a5,0x100
    1618:	b5078793          	addi	a5,a5,-1200 # 101164 <vga_ch>
    161c:	0007a783          	lw	a5,0(a5)
    1620:	00178713          	addi	a4,a5,1
    1624:	00100797          	auipc	a5,0x100
    1628:	b4078793          	addi	a5,a5,-1216 # 101164 <vga_ch>
    162c:	00e7a023          	sw	a4,0(a5)
    1630:	00100797          	auipc	a5,0x100
    1634:	b3478793          	addi	a5,a5,-1228 # 101164 <vga_ch>
    1638:	0007a703          	lw	a4,0(a5)
    163c:	04500793          	li	a5,69
    1640:	06e7d063          	bge	a5,a4,16a0 <putch+0x224>
    1644:	00100797          	auipc	a5,0x100
    1648:	b1c78793          	addi	a5,a5,-1252 # 101160 <vga_line>
    164c:	0007a783          	lw	a5,0(a5)
    1650:	00178713          	addi	a4,a5,1
    1654:	00100797          	auipc	a5,0x100
    1658:	b0c78793          	addi	a5,a5,-1268 # 101160 <vga_line>
    165c:	00e7a023          	sw	a4,0(a5)
    1660:	00100797          	auipc	a5,0x100
    1664:	b0078793          	addi	a5,a5,-1280 # 101160 <vga_line>
    1668:	0007a703          	lw	a4,0(a5)
    166c:	01d00793          	li	a5,29
    1670:	00e7dc63          	bge	a5,a4,1688 <putch+0x20c>
    1674:	d7dff0ef          	jal	ra,13f0 <vga_roll>
    1678:	00100797          	auipc	a5,0x100
    167c:	ae878793          	addi	a5,a5,-1304 # 101160 <vga_line>
    1680:	01d00713          	li	a4,29
    1684:	00e7a023          	sw	a4,0(a5)
    1688:	00100797          	auipc	a5,0x100
    168c:	adc78793          	addi	a5,a5,-1316 # 101164 <vga_ch>
    1690:	0007a023          	sw	zero,0(a5)
    1694:	00c0006f          	j	16a0 <putch+0x224>
    1698:	00000013          	nop
    169c:	0080006f          	j	16a4 <putch+0x228>
    16a0:	00000013          	nop
    16a4:	00000013          	nop
    16a8:	01c12083          	lw	ra,28(sp)
    16ac:	01812403          	lw	s0,24(sp)
    16b0:	02010113          	addi	sp,sp,32
    16b4:	00008067          	ret

000016b8 <putstr>:
    16b8:	fd010113          	addi	sp,sp,-48
    16bc:	02112623          	sw	ra,44(sp)
    16c0:	02812423          	sw	s0,40(sp)
    16c4:	03010413          	addi	s0,sp,48
    16c8:	fca42e23          	sw	a0,-36(s0)
    16cc:	fdc42783          	lw	a5,-36(s0)
    16d0:	fef42623          	sw	a5,-20(s0)
    16d4:	0200006f          	j	16f4 <putstr+0x3c>
    16d8:	fec42783          	lw	a5,-20(s0)
    16dc:	0007c783          	lbu	a5,0(a5)
    16e0:	00078513          	mv	a0,a5
    16e4:	d99ff0ef          	jal	ra,147c <putch>
    16e8:	fec42783          	lw	a5,-20(s0)
    16ec:	00178793          	addi	a5,a5,1
    16f0:	fef42623          	sw	a5,-20(s0)
    16f4:	fec42783          	lw	a5,-20(s0)
    16f8:	0007c783          	lbu	a5,0(a5)
    16fc:	fc079ee3          	bnez	a5,16d8 <putstr+0x20>
    1700:	00000013          	nop
    1704:	00000013          	nop
    1708:	02c12083          	lw	ra,44(sp)
    170c:	02812403          	lw	s0,40(sp)
    1710:	03010113          	addi	sp,sp,48
    1714:	00008067          	ret

00001718 <readkey>:
    1718:	ff010113          	addi	sp,sp,-16
    171c:	00812623          	sw	s0,12(sp)
    1720:	01010413          	addi	s0,sp,16
    1724:	000ff797          	auipc	a5,0xff
    1728:	d4078793          	addi	a5,a5,-704 # 100464 <key>
    172c:	0007a783          	lw	a5,0(a5)
    1730:	0007a783          	lw	a5,0(a5)
    1734:	00078513          	mv	a0,a5
    1738:	00c12403          	lw	s0,12(sp)
    173c:	01010113          	addi	sp,sp,16
    1740:	00008067          	ret

Disassembly of section .rodata:

00100000 <.rodata>:
  100000:	6425                	lui	s0,0x9
  100002:	000a                	c.slli	zero,0x2
  100004:	6425                	lui	s0,0x9
  100006:	000a                	c.slli	zero,0x2
  100008:	6365                	lui	t1,0x19
  10000a:	6f68                	flw	fa0,92(a4)
  10000c:	0000                	unimp
  10000e:	0000                	unimp
  100010:	6966                	flw	fs2,88(sp)
  100012:	0062                	c.slli	zero,0x18
  100014:	7665                	lui	a2,0xffff9
  100016:	6c61                	lui	s8,0x18
  100018:	00              	Address 0x0000000000100018 is out of bounds.


Disassembly of section .data:

0010001c <prior>:
  10001c:	0000                	unimp
  10001e:	0000                	unimp
  100020:	0000                	unimp
  100022:	0000                	unimp
  100024:	0000                	unimp
  100026:	0000                	unimp
  100028:	0000                	unimp
  10002a:	0000                	unimp
  10002c:	0000                	unimp
  10002e:	0000                	unimp
  100030:	0000                	unimp
  100032:	0000                	unimp
  100034:	0000                	unimp
  100036:	0000                	unimp
  100038:	0000                	unimp
  10003a:	0000                	unimp
  10003c:	0000                	unimp
  10003e:	0000                	unimp
  100040:	0000                	unimp
  100042:	0000                	unimp
  100044:	0000                	unimp
  100046:	0000                	unimp
  100048:	0000                	unimp
  10004a:	0000                	unimp
  10004c:	0000                	unimp
  10004e:	0000                	unimp
  100050:	0000                	unimp
  100052:	0000                	unimp
  100054:	0000                	unimp
  100056:	0000                	unimp
  100058:	0000                	unimp
  10005a:	0000                	unimp
  10005c:	0000                	unimp
  10005e:	0000                	unimp
  100060:	0000                	unimp
  100062:	0000                	unimp
  100064:	0000                	unimp
  100066:	0000                	unimp
  100068:	0000                	unimp
  10006a:	0000                	unimp
  10006c:	0000                	unimp
  10006e:	0000                	unimp
  100070:	0000                	unimp
  100072:	0000                	unimp
  100074:	0000                	unimp
  100076:	0000                	unimp
  100078:	0000                	unimp
  10007a:	0000                	unimp
  10007c:	0000                	unimp
  10007e:	0000                	unimp
  100080:	0000                	unimp
  100082:	0000                	unimp
  100084:	0000                	unimp
  100086:	0000                	unimp
  100088:	0000                	unimp
  10008a:	0000                	unimp
  10008c:	0000                	unimp
  10008e:	0000                	unimp
  100090:	0000                	unimp
  100092:	0000                	unimp
  100094:	0000                	unimp
  100096:	0000                	unimp
  100098:	0000                	unimp
  10009a:	0000                	unimp
  10009c:	0000                	unimp
  10009e:	0000                	unimp
  1000a0:	0000                	unimp
  1000a2:	0000                	unimp
  1000a4:	0000                	unimp
  1000a6:	0000                	unimp
  1000a8:	0000                	unimp
  1000aa:	0000                	unimp
  1000ac:	0000                	unimp
  1000ae:	0000                	unimp
  1000b0:	0000                	unimp
  1000b2:	0000                	unimp
  1000b4:	0000                	unimp
  1000b6:	0000                	unimp
  1000b8:	0000                	unimp
  1000ba:	0000                	unimp
  1000bc:	0000                	unimp
  1000be:	0000                	unimp
  1000c0:	0000                	unimp
  1000c2:	0000                	unimp
  1000c4:	0004                	0x4
  1000c6:	0000                	unimp
  1000c8:	00000003          	lb	zero,0(zero) # 0 <entry>
  1000cc:	0000                	unimp
  1000ce:	0000                	unimp
  1000d0:	00000003          	lb	zero,0(zero) # 0 <entry>
  1000d4:	0000                	unimp
  1000d6:	0000                	unimp
  1000d8:	0004                	0x4
  1000da:	0000                	unimp
  1000dc:	0000                	unimp
  1000de:	0000                	unimp
  1000e0:	0000                	unimp
  1000e2:	0000                	unimp
  1000e4:	0000                	unimp
  1000e6:	0000                	unimp
  1000e8:	0000                	unimp
  1000ea:	0000                	unimp
  1000ec:	0000                	unimp
  1000ee:	0000                	unimp
  1000f0:	0000                	unimp
  1000f2:	0000                	unimp
  1000f4:	0000                	unimp
  1000f6:	0000                	unimp
  1000f8:	0000                	unimp
  1000fa:	0000                	unimp
  1000fc:	0000                	unimp
  1000fe:	0000                	unimp
  100100:	0000                	unimp
  100102:	0000                	unimp
  100104:	0000                	unimp
  100106:	0000                	unimp
  100108:	0000                	unimp
  10010a:	0000                	unimp
  10010c:	0000                	unimp
  10010e:	0000                	unimp
  100110:	0000                	unimp
  100112:	0000                	unimp
  100114:	0000                	unimp
  100116:	0000                	unimp
  100118:	0000                	unimp
  10011a:	0000                	unimp
  10011c:	0000                	unimp
  10011e:	0000                	unimp
  100120:	0000                	unimp
  100122:	0000                	unimp
  100124:	0000                	unimp
  100126:	0000                	unimp
  100128:	0000                	unimp
  10012a:	0000                	unimp
  10012c:	0000                	unimp
  10012e:	0000                	unimp
  100130:	0000                	unimp
  100132:	0000                	unimp
  100134:	0000                	unimp
  100136:	0000                	unimp
  100138:	0000                	unimp
  10013a:	0000                	unimp
  10013c:	0000                	unimp
  10013e:	0000                	unimp
  100140:	0000                	unimp
  100142:	0000                	unimp
  100144:	0000                	unimp
  100146:	0000                	unimp
  100148:	0000                	unimp
  10014a:	0000                	unimp
  10014c:	0000                	unimp
  10014e:	0000                	unimp
  100150:	0000                	unimp
  100152:	0000                	unimp
  100154:	0000                	unimp
  100156:	0000                	unimp
  100158:	0000                	unimp
  10015a:	0000                	unimp
  10015c:	0000                	unimp
  10015e:	0000                	unimp
  100160:	0000                	unimp
  100162:	0000                	unimp
  100164:	0000                	unimp
  100166:	0000                	unimp
  100168:	0000                	unimp
  10016a:	0000                	unimp
  10016c:	0000                	unimp
  10016e:	0000                	unimp
  100170:	0000                	unimp
  100172:	0000                	unimp
  100174:	0000                	unimp
  100176:	0000                	unimp
  100178:	0000                	unimp
  10017a:	0000                	unimp
  10017c:	0000                	unimp
  10017e:	0000                	unimp
  100180:	0000                	unimp
  100182:	0000                	unimp
  100184:	0000                	unimp
  100186:	0000                	unimp
  100188:	0000                	unimp
  10018a:	0000                	unimp
  10018c:	0000                	unimp
  10018e:	0000                	unimp
  100190:	0000                	unimp
  100192:	0000                	unimp
  100194:	0005                	c.nop	1
  100196:	0000                	unimp
  100198:	0000                	unimp
  10019a:	0000                	unimp
  10019c:	0000                	unimp
  10019e:	0000                	unimp
  1001a0:	0000                	unimp
  1001a2:	0000                	unimp
  1001a4:	0000                	unimp
  1001a6:	0000                	unimp
  1001a8:	0000                	unimp
  1001aa:	0000                	unimp
  1001ac:	0000                	unimp
  1001ae:	0000                	unimp
  1001b0:	0000                	unimp
  1001b2:	0000                	unimp
  1001b4:	0000                	unimp
  1001b6:	0000                	unimp
  1001b8:	0000                	unimp
  1001ba:	0000                	unimp
  1001bc:	0000                	unimp
  1001be:	0000                	unimp
  1001c0:	0000                	unimp
  1001c2:	0000                	unimp
  1001c4:	0000                	unimp
  1001c6:	0000                	unimp
  1001c8:	0000                	unimp
  1001ca:	0000                	unimp
  1001cc:	0000                	unimp
  1001ce:	0000                	unimp
  1001d0:	0000                	unimp
  1001d2:	0000                	unimp
  1001d4:	0000                	unimp
  1001d6:	0000                	unimp
  1001d8:	0000                	unimp
  1001da:	0000                	unimp
  1001dc:	0000                	unimp
  1001de:	0000                	unimp
  1001e0:	0000                	unimp
  1001e2:	0000                	unimp
  1001e4:	0000                	unimp
  1001e6:	0000                	unimp
  1001e8:	0000                	unimp
  1001ea:	0000                	unimp
  1001ec:	0000                	unimp
  1001ee:	0000                	unimp
  1001f0:	0000                	unimp
  1001f2:	0000                	unimp
  1001f4:	0000                	unimp
  1001f6:	0000                	unimp
  1001f8:	0000                	unimp
  1001fa:	0000                	unimp
  1001fc:	0000                	unimp
  1001fe:	0000                	unimp
  100200:	0000                	unimp
  100202:	0000                	unimp
  100204:	0000                	unimp
  100206:	0000                	unimp
  100208:	0000                	unimp
  10020a:	0000                	unimp
  10020c:	0000                	unimp
  10020e:	0000                	unimp
  100210:	0000                	unimp
  100212:	0000                	unimp
  100214:	0000                	unimp
  100216:	0000                	unimp
  100218:	0000                	unimp
  10021a:	0000                	unimp
  10021c:	0000                	unimp
  10021e:	0000                	unimp
  100220:	0000                	unimp
  100222:	0000                	unimp
  100224:	0000                	unimp
  100226:	0000                	unimp
  100228:	0000                	unimp
  10022a:	0000                	unimp
  10022c:	0000                	unimp
  10022e:	0000                	unimp
  100230:	0000                	unimp
  100232:	0000                	unimp
  100234:	0000                	unimp
  100236:	0000                	unimp
  100238:	0000                	unimp
  10023a:	0000                	unimp
  10023c:	0000                	unimp
  10023e:	0000                	unimp
  100240:	0000                	unimp
  100242:	0000                	unimp
  100244:	0000                	unimp
  100246:	0000                	unimp
  100248:	0000                	unimp
  10024a:	0000                	unimp
  10024c:	0000                	unimp
  10024e:	0000                	unimp
  100250:	0000                	unimp
  100252:	0000                	unimp
  100254:	0000                	unimp
  100256:	0000                	unimp
  100258:	0000                	unimp
  10025a:	0000                	unimp
  10025c:	0000                	unimp
  10025e:	0000                	unimp
  100260:	0000                	unimp
  100262:	0000                	unimp
  100264:	0000                	unimp
  100266:	0000                	unimp
  100268:	0000                	unimp
  10026a:	0000                	unimp
  10026c:	0000                	unimp
  10026e:	0000                	unimp
  100270:	0000                	unimp
  100272:	0000                	unimp
  100274:	0000                	unimp
  100276:	0000                	unimp
  100278:	0000                	unimp
  10027a:	0000                	unimp
  10027c:	0000                	unimp
  10027e:	0000                	unimp
  100280:	0000                	unimp
  100282:	0000                	unimp
  100284:	0000                	unimp
  100286:	0000                	unimp
  100288:	0000                	unimp
  10028a:	0000                	unimp
  10028c:	0000                	unimp
  10028e:	0000                	unimp
  100290:	0000                	unimp
  100292:	0000                	unimp
  100294:	0000                	unimp
  100296:	0000                	unimp
  100298:	0000                	unimp
  10029a:	0000                	unimp
  10029c:	0000                	unimp
  10029e:	0000                	unimp
  1002a0:	0000                	unimp
  1002a2:	0000                	unimp
  1002a4:	0000                	unimp
  1002a6:	0000                	unimp
  1002a8:	0000                	unimp
  1002aa:	0000                	unimp
  1002ac:	0000                	unimp
  1002ae:	0000                	unimp
  1002b0:	0000                	unimp
  1002b2:	0000                	unimp
  1002b4:	0000                	unimp
  1002b6:	0000                	unimp
  1002b8:	0000                	unimp
  1002ba:	0000                	unimp
  1002bc:	0000                	unimp
  1002be:	0000                	unimp
  1002c0:	0000                	unimp
  1002c2:	0000                	unimp
  1002c4:	0000                	unimp
  1002c6:	0000                	unimp
  1002c8:	0000                	unimp
  1002ca:	0000                	unimp
  1002cc:	0000                	unimp
  1002ce:	0000                	unimp
  1002d0:	0000                	unimp
  1002d2:	0000                	unimp
  1002d4:	0000                	unimp
  1002d6:	0000                	unimp
  1002d8:	0000                	unimp
  1002da:	0000                	unimp
  1002dc:	0000                	unimp
  1002de:	0000                	unimp
  1002e0:	0000                	unimp
  1002e2:	0000                	unimp
  1002e4:	0000                	unimp
  1002e6:	0000                	unimp
  1002e8:	0000                	unimp
  1002ea:	0000                	unimp
  1002ec:	0000                	unimp
  1002ee:	0000                	unimp
  1002f0:	0000                	unimp
  1002f2:	0000                	unimp
  1002f4:	0000                	unimp
  1002f6:	0000                	unimp
  1002f8:	0000                	unimp
  1002fa:	0000                	unimp
  1002fc:	0000                	unimp
  1002fe:	0000                	unimp
  100300:	0000                	unimp
  100302:	0000                	unimp
  100304:	0000                	unimp
  100306:	0000                	unimp
  100308:	0000                	unimp
  10030a:	0000                	unimp
  10030c:	0000                	unimp
  10030e:	0000                	unimp
  100310:	0000                	unimp
  100312:	0000                	unimp
  100314:	0000                	unimp
  100316:	0000                	unimp
  100318:	0000                	unimp
  10031a:	0000                	unimp
  10031c:	0000                	unimp
  10031e:	0000                	unimp
  100320:	0000                	unimp
  100322:	0000                	unimp
  100324:	0000                	unimp
  100326:	0000                	unimp
  100328:	0000                	unimp
  10032a:	0000                	unimp
  10032c:	0000                	unimp
  10032e:	0000                	unimp
  100330:	0000                	unimp
  100332:	0000                	unimp
  100334:	0000                	unimp
  100336:	0000                	unimp
  100338:	0000                	unimp
  10033a:	0000                	unimp
  10033c:	0000                	unimp
  10033e:	0000                	unimp
  100340:	0000                	unimp
  100342:	0000                	unimp
  100344:	0000                	unimp
  100346:	0000                	unimp
  100348:	0000                	unimp
  10034a:	0000                	unimp
  10034c:	0000                	unimp
  10034e:	0000                	unimp
  100350:	0000                	unimp
  100352:	0000                	unimp
  100354:	0000                	unimp
  100356:	0000                	unimp
  100358:	0000                	unimp
  10035a:	0000                	unimp
  10035c:	0000                	unimp
  10035e:	0000                	unimp
  100360:	0000                	unimp
  100362:	0000                	unimp
  100364:	0000                	unimp
  100366:	0000                	unimp
  100368:	0000                	unimp
  10036a:	0000                	unimp
  10036c:	0000                	unimp
  10036e:	0000                	unimp
  100370:	0000                	unimp
  100372:	0000                	unimp
  100374:	0000                	unimp
  100376:	0000                	unimp
  100378:	0000                	unimp
  10037a:	0000                	unimp
  10037c:	0000                	unimp
  10037e:	0000                	unimp
  100380:	0000                	unimp
  100382:	0000                	unimp
  100384:	0000                	unimp
  100386:	0000                	unimp
  100388:	0000                	unimp
  10038a:	0000                	unimp
  10038c:	0000                	unimp
  10038e:	0000                	unimp
  100390:	0000                	unimp
  100392:	0000                	unimp
  100394:	0000                	unimp
  100396:	0000                	unimp
  100398:	0000                	unimp
  10039a:	0000                	unimp
  10039c:	0000                	unimp
  10039e:	0000                	unimp
  1003a0:	0000                	unimp
  1003a2:	0000                	unimp
  1003a4:	0000                	unimp
  1003a6:	0000                	unimp
  1003a8:	0000                	unimp
  1003aa:	0000                	unimp
  1003ac:	0000                	unimp
  1003ae:	0000                	unimp
  1003b0:	0000                	unimp
  1003b2:	0000                	unimp
  1003b4:	0000                	unimp
  1003b6:	0000                	unimp
  1003b8:	0000                	unimp
  1003ba:	0000                	unimp
  1003bc:	0000                	unimp
  1003be:	0000                	unimp
  1003c0:	0000                	unimp
  1003c2:	0000                	unimp
  1003c4:	0000                	unimp
  1003c6:	0000                	unimp
  1003c8:	0000                	unimp
  1003ca:	0000                	unimp
  1003cc:	0000                	unimp
  1003ce:	0000                	unimp
  1003d0:	0000                	unimp
  1003d2:	0000                	unimp
  1003d4:	0000                	unimp
  1003d6:	0000                	unimp
  1003d8:	0000                	unimp
  1003da:	0000                	unimp
  1003dc:	0000                	unimp
  1003de:	0000                	unimp
  1003e0:	0000                	unimp
  1003e2:	0000                	unimp
  1003e4:	0000                	unimp
  1003e6:	0000                	unimp
  1003e8:	0000                	unimp
  1003ea:	0000                	unimp
  1003ec:	0000                	unimp
  1003ee:	0000                	unimp
  1003f0:	0000                	unimp
  1003f2:	0000                	unimp
  1003f4:	0000                	unimp
  1003f6:	0000                	unimp
  1003f8:	0000                	unimp
  1003fa:	0000                	unimp
  1003fc:	0000                	unimp
  1003fe:	0000                	unimp
  100400:	0000                	unimp
  100402:	0000                	unimp
  100404:	0000                	unimp
  100406:	0000                	unimp
  100408:	0000                	unimp
  10040a:	0000                	unimp
  10040c:	0000                	unimp
  10040e:	0000                	unimp
  100410:	0000                	unimp
  100412:	0000                	unimp
  100414:	0000                	unimp
  100416:	0000                	unimp
  100418:	0000                	unimp
  10041a:	0000                	unimp

0010041c <hello>:
  10041c:	6548                	flw	fa0,12(a0)
  10041e:	6c6c                	flw	fa1,92(s0)
  100420:	6f57206f          	j	173314 <_end+0x71b14>
  100424:	6c72                	flw	fs8,28(sp)
  100426:	2164                	fld	fs1,192(a0)
  100428:	000a                	c.slli	zero,0x2
  10042a:	0000                	unimp

0010042c <nunhehheh>:
  10042c:	754e                	flw	fa0,240(sp)
  10042e:	686e                	flw	fa6,216(sp)
  100430:	6865                	lui	a6,0x19
  100432:	6568                	flw	fa0,76(a0)
  100434:	6168                	flw	fa0,68(a0)
  100436:	6161                	addi	sp,sp,80
  100438:	6161                	addi	sp,sp,80
  10043a:	6161                	addi	sp,sp,80
  10043c:	6161                	addi	sp,sp,80
  10043e:	6861                	lui	a6,0x18
  100440:	6868                	flw	fa0,84(s0)
  100442:	0a21                	addi	s4,s4,8
  100444:	0000                	unimp

Disassembly of section .sdata:

00100448 <ops>:
  100448:	2a5e                	fld	fs4,464(sp)
  10044a:	002d2b2f          	amoadd.w	s6,sp,(s10)
  10044e:	0000                	unimp

00100450 <nyan>:
  100450:	794e                	flw	fs2,240(sp)
  100452:	6e61                	lui	t3,0x18
  100454:	0a21                	addi	s4,s4,8
  100456:	0000                	unimp

00100458 <vga_start>:
  100458:	0000                	unimp
  10045a:	0020                	addi	s0,sp,8

0010045c <time>:
  10045c:	0000                	unimp
  10045e:	0040                	addi	s0,sp,4

00100460 <start_line>:
  100460:	0000                	unimp
  100462:	0050                	addi	a2,sp,4

00100464 <key>:
  100464:	0000                	unimp
  100466:	0030                	addi	a2,sp,8

Disassembly of section .bss:

00100468 <tokens>:
  100468:	0000                	unimp
  10046a:	0000                	unimp
  10046c:	0000                	unimp
  10046e:	0000                	unimp
  100470:	0000                	unimp
  100472:	0000                	unimp
  100474:	0000                	unimp
  100476:	0000                	unimp
  100478:	0000                	unimp
  10047a:	0000                	unimp
  10047c:	0000                	unimp
  10047e:	0000                	unimp
  100480:	0000                	unimp
  100482:	0000                	unimp
  100484:	0000                	unimp
  100486:	0000                	unimp
  100488:	0000                	unimp
  10048a:	0000                	unimp
  10048c:	0000                	unimp
  10048e:	0000                	unimp
  100490:	0000                	unimp
  100492:	0000                	unimp
  100494:	0000                	unimp
  100496:	0000                	unimp
  100498:	0000                	unimp
  10049a:	0000                	unimp
  10049c:	0000                	unimp
  10049e:	0000                	unimp
  1004a0:	0000                	unimp
  1004a2:	0000                	unimp
  1004a4:	0000                	unimp
  1004a6:	0000                	unimp
  1004a8:	0000                	unimp
  1004aa:	0000                	unimp
  1004ac:	0000                	unimp
  1004ae:	0000                	unimp
  1004b0:	0000                	unimp
  1004b2:	0000                	unimp
  1004b4:	0000                	unimp
  1004b6:	0000                	unimp
  1004b8:	0000                	unimp
  1004ba:	0000                	unimp
  1004bc:	0000                	unimp
  1004be:	0000                	unimp
  1004c0:	0000                	unimp
  1004c2:	0000                	unimp
  1004c4:	0000                	unimp
  1004c6:	0000                	unimp
  1004c8:	0000                	unimp
  1004ca:	0000                	unimp
  1004cc:	0000                	unimp
  1004ce:	0000                	unimp
  1004d0:	0000                	unimp
  1004d2:	0000                	unimp
  1004d4:	0000                	unimp
  1004d6:	0000                	unimp
  1004d8:	0000                	unimp
  1004da:	0000                	unimp
  1004dc:	0000                	unimp
  1004de:	0000                	unimp
  1004e0:	0000                	unimp
  1004e2:	0000                	unimp
  1004e4:	0000                	unimp
  1004e6:	0000                	unimp
  1004e8:	0000                	unimp
  1004ea:	0000                	unimp
  1004ec:	0000                	unimp
  1004ee:	0000                	unimp
  1004f0:	0000                	unimp
  1004f2:	0000                	unimp
  1004f4:	0000                	unimp
  1004f6:	0000                	unimp
  1004f8:	0000                	unimp
  1004fa:	0000                	unimp
  1004fc:	0000                	unimp
  1004fe:	0000                	unimp
  100500:	0000                	unimp
  100502:	0000                	unimp
  100504:	0000                	unimp
  100506:	0000                	unimp
  100508:	0000                	unimp
  10050a:	0000                	unimp
  10050c:	0000                	unimp
  10050e:	0000                	unimp
  100510:	0000                	unimp
  100512:	0000                	unimp
  100514:	0000                	unimp
  100516:	0000                	unimp
  100518:	0000                	unimp
  10051a:	0000                	unimp
  10051c:	0000                	unimp
  10051e:	0000                	unimp
  100520:	0000                	unimp
  100522:	0000                	unimp
  100524:	0000                	unimp
  100526:	0000                	unimp
  100528:	0000                	unimp
  10052a:	0000                	unimp
  10052c:	0000                	unimp
  10052e:	0000                	unimp
  100530:	0000                	unimp
  100532:	0000                	unimp
  100534:	0000                	unimp
  100536:	0000                	unimp
  100538:	0000                	unimp
  10053a:	0000                	unimp
  10053c:	0000                	unimp
  10053e:	0000                	unimp
  100540:	0000                	unimp
  100542:	0000                	unimp
  100544:	0000                	unimp
  100546:	0000                	unimp
  100548:	0000                	unimp
  10054a:	0000                	unimp
  10054c:	0000                	unimp
  10054e:	0000                	unimp
  100550:	0000                	unimp
  100552:	0000                	unimp
  100554:	0000                	unimp
  100556:	0000                	unimp
  100558:	0000                	unimp
  10055a:	0000                	unimp
  10055c:	0000                	unimp
  10055e:	0000                	unimp
  100560:	0000                	unimp
  100562:	0000                	unimp
  100564:	0000                	unimp
  100566:	0000                	unimp
  100568:	0000                	unimp
  10056a:	0000                	unimp
  10056c:	0000                	unimp
  10056e:	0000                	unimp
  100570:	0000                	unimp
  100572:	0000                	unimp
  100574:	0000                	unimp
  100576:	0000                	unimp
  100578:	0000                	unimp
  10057a:	0000                	unimp
  10057c:	0000                	unimp
  10057e:	0000                	unimp
  100580:	0000                	unimp
  100582:	0000                	unimp
  100584:	0000                	unimp
  100586:	0000                	unimp
  100588:	0000                	unimp
  10058a:	0000                	unimp
  10058c:	0000                	unimp
  10058e:	0000                	unimp
  100590:	0000                	unimp
  100592:	0000                	unimp
  100594:	0000                	unimp
  100596:	0000                	unimp
  100598:	0000                	unimp
  10059a:	0000                	unimp
  10059c:	0000                	unimp
  10059e:	0000                	unimp
  1005a0:	0000                	unimp
  1005a2:	0000                	unimp
  1005a4:	0000                	unimp
  1005a6:	0000                	unimp
  1005a8:	0000                	unimp
  1005aa:	0000                	unimp
  1005ac:	0000                	unimp
  1005ae:	0000                	unimp
  1005b0:	0000                	unimp
  1005b2:	0000                	unimp
  1005b4:	0000                	unimp
  1005b6:	0000                	unimp
  1005b8:	0000                	unimp
  1005ba:	0000                	unimp
  1005bc:	0000                	unimp
  1005be:	0000                	unimp
  1005c0:	0000                	unimp
  1005c2:	0000                	unimp
  1005c4:	0000                	unimp
  1005c6:	0000                	unimp
  1005c8:	0000                	unimp
  1005ca:	0000                	unimp
  1005cc:	0000                	unimp
  1005ce:	0000                	unimp
  1005d0:	0000                	unimp
  1005d2:	0000                	unimp
  1005d4:	0000                	unimp
  1005d6:	0000                	unimp
  1005d8:	0000                	unimp
  1005da:	0000                	unimp
  1005dc:	0000                	unimp
  1005de:	0000                	unimp
  1005e0:	0000                	unimp
  1005e2:	0000                	unimp
  1005e4:	0000                	unimp
  1005e6:	0000                	unimp
  1005e8:	0000                	unimp
  1005ea:	0000                	unimp
  1005ec:	0000                	unimp
  1005ee:	0000                	unimp
  1005f0:	0000                	unimp
  1005f2:	0000                	unimp
  1005f4:	0000                	unimp
  1005f6:	0000                	unimp
  1005f8:	0000                	unimp
  1005fa:	0000                	unimp
  1005fc:	0000                	unimp
  1005fe:	0000                	unimp
  100600:	0000                	unimp
  100602:	0000                	unimp
  100604:	0000                	unimp
  100606:	0000                	unimp
  100608:	0000                	unimp
  10060a:	0000                	unimp
  10060c:	0000                	unimp
  10060e:	0000                	unimp
  100610:	0000                	unimp
  100612:	0000                	unimp
  100614:	0000                	unimp
  100616:	0000                	unimp
  100618:	0000                	unimp
  10061a:	0000                	unimp
  10061c:	0000                	unimp
  10061e:	0000                	unimp
  100620:	0000                	unimp
  100622:	0000                	unimp
  100624:	0000                	unimp
  100626:	0000                	unimp
  100628:	0000                	unimp
  10062a:	0000                	unimp
  10062c:	0000                	unimp
  10062e:	0000                	unimp
  100630:	0000                	unimp
  100632:	0000                	unimp
  100634:	0000                	unimp
  100636:	0000                	unimp
  100638:	0000                	unimp
  10063a:	0000                	unimp
  10063c:	0000                	unimp
  10063e:	0000                	unimp
  100640:	0000                	unimp
  100642:	0000                	unimp
  100644:	0000                	unimp
  100646:	0000                	unimp
  100648:	0000                	unimp
  10064a:	0000                	unimp
  10064c:	0000                	unimp
  10064e:	0000                	unimp
  100650:	0000                	unimp
  100652:	0000                	unimp
  100654:	0000                	unimp
  100656:	0000                	unimp
  100658:	0000                	unimp
  10065a:	0000                	unimp
  10065c:	0000                	unimp
  10065e:	0000                	unimp
  100660:	0000                	unimp
  100662:	0000                	unimp
  100664:	0000                	unimp
  100666:	0000                	unimp
  100668:	0000                	unimp
  10066a:	0000                	unimp
  10066c:	0000                	unimp
  10066e:	0000                	unimp
  100670:	0000                	unimp
  100672:	0000                	unimp
  100674:	0000                	unimp
  100676:	0000                	unimp
  100678:	0000                	unimp
  10067a:	0000                	unimp
  10067c:	0000                	unimp
  10067e:	0000                	unimp
  100680:	0000                	unimp
  100682:	0000                	unimp
  100684:	0000                	unimp
  100686:	0000                	unimp
  100688:	0000                	unimp
  10068a:	0000                	unimp
  10068c:	0000                	unimp
  10068e:	0000                	unimp
  100690:	0000                	unimp
  100692:	0000                	unimp
  100694:	0000                	unimp
  100696:	0000                	unimp
  100698:	0000                	unimp
  10069a:	0000                	unimp
  10069c:	0000                	unimp
  10069e:	0000                	unimp
  1006a0:	0000                	unimp
  1006a2:	0000                	unimp
  1006a4:	0000                	unimp
  1006a6:	0000                	unimp
  1006a8:	0000                	unimp
  1006aa:	0000                	unimp
  1006ac:	0000                	unimp
  1006ae:	0000                	unimp
  1006b0:	0000                	unimp
  1006b2:	0000                	unimp
  1006b4:	0000                	unimp
  1006b6:	0000                	unimp
  1006b8:	0000                	unimp
  1006ba:	0000                	unimp
  1006bc:	0000                	unimp
  1006be:	0000                	unimp
  1006c0:	0000                	unimp
  1006c2:	0000                	unimp
  1006c4:	0000                	unimp
  1006c6:	0000                	unimp
  1006c8:	0000                	unimp
  1006ca:	0000                	unimp
  1006cc:	0000                	unimp
  1006ce:	0000                	unimp
  1006d0:	0000                	unimp
  1006d2:	0000                	unimp
  1006d4:	0000                	unimp
  1006d6:	0000                	unimp
  1006d8:	0000                	unimp
  1006da:	0000                	unimp
  1006dc:	0000                	unimp
  1006de:	0000                	unimp
  1006e0:	0000                	unimp
  1006e2:	0000                	unimp
  1006e4:	0000                	unimp
  1006e6:	0000                	unimp
  1006e8:	0000                	unimp
  1006ea:	0000                	unimp
  1006ec:	0000                	unimp
  1006ee:	0000                	unimp
  1006f0:	0000                	unimp
  1006f2:	0000                	unimp
  1006f4:	0000                	unimp
  1006f6:	0000                	unimp
  1006f8:	0000                	unimp
  1006fa:	0000                	unimp
  1006fc:	0000                	unimp
  1006fe:	0000                	unimp
  100700:	0000                	unimp
  100702:	0000                	unimp
  100704:	0000                	unimp
  100706:	0000                	unimp
  100708:	0000                	unimp
  10070a:	0000                	unimp
  10070c:	0000                	unimp
  10070e:	0000                	unimp
  100710:	0000                	unimp
  100712:	0000                	unimp
  100714:	0000                	unimp
  100716:	0000                	unimp
  100718:	0000                	unimp
  10071a:	0000                	unimp
  10071c:	0000                	unimp
  10071e:	0000                	unimp
  100720:	0000                	unimp
  100722:	0000                	unimp
  100724:	0000                	unimp
  100726:	0000                	unimp
  100728:	0000                	unimp
  10072a:	0000                	unimp
  10072c:	0000                	unimp
  10072e:	0000                	unimp
  100730:	0000                	unimp
  100732:	0000                	unimp
  100734:	0000                	unimp
  100736:	0000                	unimp
  100738:	0000                	unimp
  10073a:	0000                	unimp
  10073c:	0000                	unimp
  10073e:	0000                	unimp
  100740:	0000                	unimp
  100742:	0000                	unimp
  100744:	0000                	unimp
  100746:	0000                	unimp
  100748:	0000                	unimp
  10074a:	0000                	unimp
  10074c:	0000                	unimp
  10074e:	0000                	unimp
  100750:	0000                	unimp
  100752:	0000                	unimp
  100754:	0000                	unimp
  100756:	0000                	unimp
  100758:	0000                	unimp
  10075a:	0000                	unimp
  10075c:	0000                	unimp
  10075e:	0000                	unimp
  100760:	0000                	unimp
  100762:	0000                	unimp
  100764:	0000                	unimp
  100766:	0000                	unimp
  100768:	0000                	unimp
  10076a:	0000                	unimp
  10076c:	0000                	unimp
  10076e:	0000                	unimp
  100770:	0000                	unimp
  100772:	0000                	unimp
  100774:	0000                	unimp
  100776:	0000                	unimp
  100778:	0000                	unimp
  10077a:	0000                	unimp
  10077c:	0000                	unimp
  10077e:	0000                	unimp
  100780:	0000                	unimp
  100782:	0000                	unimp
  100784:	0000                	unimp
  100786:	0000                	unimp
  100788:	0000                	unimp
  10078a:	0000                	unimp
  10078c:	0000                	unimp
  10078e:	0000                	unimp
  100790:	0000                	unimp
  100792:	0000                	unimp
  100794:	0000                	unimp
  100796:	0000                	unimp
  100798:	0000                	unimp
  10079a:	0000                	unimp
  10079c:	0000                	unimp
  10079e:	0000                	unimp
  1007a0:	0000                	unimp
  1007a2:	0000                	unimp
  1007a4:	0000                	unimp
  1007a6:	0000                	unimp
  1007a8:	0000                	unimp
  1007aa:	0000                	unimp
  1007ac:	0000                	unimp
  1007ae:	0000                	unimp
  1007b0:	0000                	unimp
  1007b2:	0000                	unimp
  1007b4:	0000                	unimp
  1007b6:	0000                	unimp
  1007b8:	0000                	unimp
  1007ba:	0000                	unimp
  1007bc:	0000                	unimp
  1007be:	0000                	unimp
  1007c0:	0000                	unimp
  1007c2:	0000                	unimp
  1007c4:	0000                	unimp
  1007c6:	0000                	unimp
  1007c8:	0000                	unimp
  1007ca:	0000                	unimp
  1007cc:	0000                	unimp
  1007ce:	0000                	unimp
  1007d0:	0000                	unimp
  1007d2:	0000                	unimp
  1007d4:	0000                	unimp
  1007d6:	0000                	unimp
  1007d8:	0000                	unimp
  1007da:	0000                	unimp
  1007dc:	0000                	unimp
  1007de:	0000                	unimp
  1007e0:	0000                	unimp
  1007e2:	0000                	unimp
  1007e4:	0000                	unimp
  1007e6:	0000                	unimp
  1007e8:	0000                	unimp
  1007ea:	0000                	unimp
  1007ec:	0000                	unimp
  1007ee:	0000                	unimp
  1007f0:	0000                	unimp
  1007f2:	0000                	unimp
  1007f4:	0000                	unimp
  1007f6:	0000                	unimp
  1007f8:	0000                	unimp
  1007fa:	0000                	unimp
  1007fc:	0000                	unimp
  1007fe:	0000                	unimp
  100800:	0000                	unimp
  100802:	0000                	unimp
  100804:	0000                	unimp
  100806:	0000                	unimp
  100808:	0000                	unimp
  10080a:	0000                	unimp
  10080c:	0000                	unimp
  10080e:	0000                	unimp
  100810:	0000                	unimp
  100812:	0000                	unimp
  100814:	0000                	unimp
  100816:	0000                	unimp
  100818:	0000                	unimp
  10081a:	0000                	unimp
  10081c:	0000                	unimp
  10081e:	0000                	unimp
  100820:	0000                	unimp
  100822:	0000                	unimp
  100824:	0000                	unimp
  100826:	0000                	unimp
  100828:	0000                	unimp
  10082a:	0000                	unimp
  10082c:	0000                	unimp
  10082e:	0000                	unimp
  100830:	0000                	unimp
  100832:	0000                	unimp
  100834:	0000                	unimp
  100836:	0000                	unimp
  100838:	0000                	unimp
  10083a:	0000                	unimp
  10083c:	0000                	unimp
  10083e:	0000                	unimp
  100840:	0000                	unimp
  100842:	0000                	unimp
  100844:	0000                	unimp
  100846:	0000                	unimp
  100848:	0000                	unimp
  10084a:	0000                	unimp
  10084c:	0000                	unimp
  10084e:	0000                	unimp
  100850:	0000                	unimp
  100852:	0000                	unimp
  100854:	0000                	unimp
  100856:	0000                	unimp
  100858:	0000                	unimp
  10085a:	0000                	unimp
  10085c:	0000                	unimp
  10085e:	0000                	unimp
  100860:	0000                	unimp
  100862:	0000                	unimp
  100864:	0000                	unimp
  100866:	0000                	unimp
  100868:	0000                	unimp
  10086a:	0000                	unimp
  10086c:	0000                	unimp
  10086e:	0000                	unimp
  100870:	0000                	unimp
  100872:	0000                	unimp
  100874:	0000                	unimp
  100876:	0000                	unimp
  100878:	0000                	unimp
  10087a:	0000                	unimp
  10087c:	0000                	unimp
  10087e:	0000                	unimp
  100880:	0000                	unimp
  100882:	0000                	unimp
  100884:	0000                	unimp
  100886:	0000                	unimp
  100888:	0000                	unimp
  10088a:	0000                	unimp
  10088c:	0000                	unimp
  10088e:	0000                	unimp
  100890:	0000                	unimp
  100892:	0000                	unimp
  100894:	0000                	unimp
  100896:	0000                	unimp
  100898:	0000                	unimp
  10089a:	0000                	unimp
  10089c:	0000                	unimp
  10089e:	0000                	unimp
  1008a0:	0000                	unimp
  1008a2:	0000                	unimp
  1008a4:	0000                	unimp
  1008a6:	0000                	unimp
  1008a8:	0000                	unimp
  1008aa:	0000                	unimp
  1008ac:	0000                	unimp
  1008ae:	0000                	unimp
  1008b0:	0000                	unimp
  1008b2:	0000                	unimp
  1008b4:	0000                	unimp
  1008b6:	0000                	unimp
  1008b8:	0000                	unimp
  1008ba:	0000                	unimp
  1008bc:	0000                	unimp
  1008be:	0000                	unimp
  1008c0:	0000                	unimp
  1008c2:	0000                	unimp
  1008c4:	0000                	unimp
  1008c6:	0000                	unimp
  1008c8:	0000                	unimp
  1008ca:	0000                	unimp
  1008cc:	0000                	unimp
  1008ce:	0000                	unimp
  1008d0:	0000                	unimp
  1008d2:	0000                	unimp
  1008d4:	0000                	unimp
  1008d6:	0000                	unimp
  1008d8:	0000                	unimp
  1008da:	0000                	unimp
  1008dc:	0000                	unimp
  1008de:	0000                	unimp
  1008e0:	0000                	unimp
  1008e2:	0000                	unimp
  1008e4:	0000                	unimp
  1008e6:	0000                	unimp
  1008e8:	0000                	unimp
  1008ea:	0000                	unimp
  1008ec:	0000                	unimp
  1008ee:	0000                	unimp
  1008f0:	0000                	unimp
  1008f2:	0000                	unimp
  1008f4:	0000                	unimp
  1008f6:	0000                	unimp
  1008f8:	0000                	unimp
  1008fa:	0000                	unimp
  1008fc:	0000                	unimp
  1008fe:	0000                	unimp
  100900:	0000                	unimp
  100902:	0000                	unimp
  100904:	0000                	unimp
  100906:	0000                	unimp
  100908:	0000                	unimp
  10090a:	0000                	unimp
  10090c:	0000                	unimp
  10090e:	0000                	unimp
  100910:	0000                	unimp
  100912:	0000                	unimp
  100914:	0000                	unimp
  100916:	0000                	unimp
  100918:	0000                	unimp
  10091a:	0000                	unimp
  10091c:	0000                	unimp
  10091e:	0000                	unimp
  100920:	0000                	unimp
  100922:	0000                	unimp
  100924:	0000                	unimp
  100926:	0000                	unimp
  100928:	0000                	unimp
  10092a:	0000                	unimp
  10092c:	0000                	unimp
  10092e:	0000                	unimp
  100930:	0000                	unimp
  100932:	0000                	unimp
  100934:	0000                	unimp
  100936:	0000                	unimp
  100938:	0000                	unimp
  10093a:	0000                	unimp
  10093c:	0000                	unimp
  10093e:	0000                	unimp
  100940:	0000                	unimp
  100942:	0000                	unimp
  100944:	0000                	unimp
  100946:	0000                	unimp
  100948:	0000                	unimp
  10094a:	0000                	unimp
  10094c:	0000                	unimp
  10094e:	0000                	unimp
  100950:	0000                	unimp
  100952:	0000                	unimp
  100954:	0000                	unimp
  100956:	0000                	unimp
  100958:	0000                	unimp
  10095a:	0000                	unimp
  10095c:	0000                	unimp
  10095e:	0000                	unimp
  100960:	0000                	unimp
  100962:	0000                	unimp
  100964:	0000                	unimp
  100966:	0000                	unimp
  100968:	0000                	unimp
  10096a:	0000                	unimp
  10096c:	0000                	unimp
  10096e:	0000                	unimp
  100970:	0000                	unimp
  100972:	0000                	unimp
  100974:	0000                	unimp
  100976:	0000                	unimp
  100978:	0000                	unimp
  10097a:	0000                	unimp
  10097c:	0000                	unimp
  10097e:	0000                	unimp
  100980:	0000                	unimp
  100982:	0000                	unimp
  100984:	0000                	unimp
  100986:	0000                	unimp
  100988:	0000                	unimp
  10098a:	0000                	unimp
  10098c:	0000                	unimp
  10098e:	0000                	unimp
  100990:	0000                	unimp
  100992:	0000                	unimp
  100994:	0000                	unimp
  100996:	0000                	unimp
  100998:	0000                	unimp
  10099a:	0000                	unimp
  10099c:	0000                	unimp
  10099e:	0000                	unimp
  1009a0:	0000                	unimp
  1009a2:	0000                	unimp
  1009a4:	0000                	unimp
  1009a6:	0000                	unimp
  1009a8:	0000                	unimp
  1009aa:	0000                	unimp
  1009ac:	0000                	unimp
  1009ae:	0000                	unimp
  1009b0:	0000                	unimp
  1009b2:	0000                	unimp
  1009b4:	0000                	unimp
  1009b6:	0000                	unimp
  1009b8:	0000                	unimp
  1009ba:	0000                	unimp
  1009bc:	0000                	unimp
  1009be:	0000                	unimp
  1009c0:	0000                	unimp
  1009c2:	0000                	unimp
  1009c4:	0000                	unimp
  1009c6:	0000                	unimp
  1009c8:	0000                	unimp
  1009ca:	0000                	unimp
  1009cc:	0000                	unimp
  1009ce:	0000                	unimp
  1009d0:	0000                	unimp
  1009d2:	0000                	unimp
  1009d4:	0000                	unimp
  1009d6:	0000                	unimp
  1009d8:	0000                	unimp
  1009da:	0000                	unimp
  1009dc:	0000                	unimp
  1009de:	0000                	unimp
  1009e0:	0000                	unimp
  1009e2:	0000                	unimp
  1009e4:	0000                	unimp
  1009e6:	0000                	unimp
  1009e8:	0000                	unimp
  1009ea:	0000                	unimp
  1009ec:	0000                	unimp
  1009ee:	0000                	unimp
  1009f0:	0000                	unimp
  1009f2:	0000                	unimp
  1009f4:	0000                	unimp
  1009f6:	0000                	unimp
  1009f8:	0000                	unimp
  1009fa:	0000                	unimp
  1009fc:	0000                	unimp
  1009fe:	0000                	unimp
  100a00:	0000                	unimp
  100a02:	0000                	unimp
  100a04:	0000                	unimp
  100a06:	0000                	unimp
  100a08:	0000                	unimp
  100a0a:	0000                	unimp
  100a0c:	0000                	unimp
  100a0e:	0000                	unimp
  100a10:	0000                	unimp
  100a12:	0000                	unimp
  100a14:	0000                	unimp
  100a16:	0000                	unimp
  100a18:	0000                	unimp
  100a1a:	0000                	unimp
  100a1c:	0000                	unimp
  100a1e:	0000                	unimp
  100a20:	0000                	unimp
  100a22:	0000                	unimp
  100a24:	0000                	unimp
  100a26:	0000                	unimp
  100a28:	0000                	unimp
  100a2a:	0000                	unimp
  100a2c:	0000                	unimp
  100a2e:	0000                	unimp
  100a30:	0000                	unimp
  100a32:	0000                	unimp
  100a34:	0000                	unimp
  100a36:	0000                	unimp
  100a38:	0000                	unimp
  100a3a:	0000                	unimp
  100a3c:	0000                	unimp
  100a3e:	0000                	unimp
  100a40:	0000                	unimp
  100a42:	0000                	unimp
  100a44:	0000                	unimp
  100a46:	0000                	unimp
  100a48:	0000                	unimp
  100a4a:	0000                	unimp
  100a4c:	0000                	unimp
  100a4e:	0000                	unimp
  100a50:	0000                	unimp
  100a52:	0000                	unimp
  100a54:	0000                	unimp
  100a56:	0000                	unimp
  100a58:	0000                	unimp
  100a5a:	0000                	unimp
  100a5c:	0000                	unimp
  100a5e:	0000                	unimp
  100a60:	0000                	unimp
  100a62:	0000                	unimp
  100a64:	0000                	unimp
  100a66:	0000                	unimp
  100a68:	0000                	unimp
  100a6a:	0000                	unimp
  100a6c:	0000                	unimp
  100a6e:	0000                	unimp
  100a70:	0000                	unimp
  100a72:	0000                	unimp
  100a74:	0000                	unimp
  100a76:	0000                	unimp
  100a78:	0000                	unimp
  100a7a:	0000                	unimp
  100a7c:	0000                	unimp
  100a7e:	0000                	unimp
  100a80:	0000                	unimp
  100a82:	0000                	unimp
  100a84:	0000                	unimp
  100a86:	0000                	unimp
  100a88:	0000                	unimp
  100a8a:	0000                	unimp
  100a8c:	0000                	unimp
  100a8e:	0000                	unimp
  100a90:	0000                	unimp
  100a92:	0000                	unimp
  100a94:	0000                	unimp
  100a96:	0000                	unimp
  100a98:	0000                	unimp
  100a9a:	0000                	unimp
  100a9c:	0000                	unimp
  100a9e:	0000                	unimp
  100aa0:	0000                	unimp
  100aa2:	0000                	unimp
  100aa4:	0000                	unimp
  100aa6:	0000                	unimp
  100aa8:	0000                	unimp
  100aaa:	0000                	unimp
  100aac:	0000                	unimp
  100aae:	0000                	unimp
  100ab0:	0000                	unimp
  100ab2:	0000                	unimp
  100ab4:	0000                	unimp
  100ab6:	0000                	unimp
  100ab8:	0000                	unimp
  100aba:	0000                	unimp
  100abc:	0000                	unimp
  100abe:	0000                	unimp
  100ac0:	0000                	unimp
  100ac2:	0000                	unimp
  100ac4:	0000                	unimp
  100ac6:	0000                	unimp
  100ac8:	0000                	unimp
  100aca:	0000                	unimp
  100acc:	0000                	unimp
  100ace:	0000                	unimp
  100ad0:	0000                	unimp
  100ad2:	0000                	unimp
  100ad4:	0000                	unimp
  100ad6:	0000                	unimp
  100ad8:	0000                	unimp
  100ada:	0000                	unimp
  100adc:	0000                	unimp
  100ade:	0000                	unimp
  100ae0:	0000                	unimp
  100ae2:	0000                	unimp
  100ae4:	0000                	unimp
  100ae6:	0000                	unimp
  100ae8:	0000                	unimp
  100aea:	0000                	unimp
  100aec:	0000                	unimp
  100aee:	0000                	unimp
  100af0:	0000                	unimp
  100af2:	0000                	unimp
  100af4:	0000                	unimp
  100af6:	0000                	unimp
  100af8:	0000                	unimp
  100afa:	0000                	unimp
  100afc:	0000                	unimp
  100afe:	0000                	unimp
  100b00:	0000                	unimp
  100b02:	0000                	unimp
  100b04:	0000                	unimp
  100b06:	0000                	unimp
  100b08:	0000                	unimp
  100b0a:	0000                	unimp
  100b0c:	0000                	unimp
  100b0e:	0000                	unimp
  100b10:	0000                	unimp
  100b12:	0000                	unimp
  100b14:	0000                	unimp
  100b16:	0000                	unimp
  100b18:	0000                	unimp
  100b1a:	0000                	unimp
  100b1c:	0000                	unimp
  100b1e:	0000                	unimp
  100b20:	0000                	unimp
  100b22:	0000                	unimp
  100b24:	0000                	unimp
  100b26:	0000                	unimp
  100b28:	0000                	unimp
  100b2a:	0000                	unimp
  100b2c:	0000                	unimp
  100b2e:	0000                	unimp
  100b30:	0000                	unimp
  100b32:	0000                	unimp
  100b34:	0000                	unimp
  100b36:	0000                	unimp
  100b38:	0000                	unimp
  100b3a:	0000                	unimp
  100b3c:	0000                	unimp
  100b3e:	0000                	unimp
  100b40:	0000                	unimp
  100b42:	0000                	unimp
  100b44:	0000                	unimp
  100b46:	0000                	unimp
  100b48:	0000                	unimp
  100b4a:	0000                	unimp
  100b4c:	0000                	unimp
  100b4e:	0000                	unimp
  100b50:	0000                	unimp
  100b52:	0000                	unimp
  100b54:	0000                	unimp
  100b56:	0000                	unimp
  100b58:	0000                	unimp
  100b5a:	0000                	unimp
  100b5c:	0000                	unimp
  100b5e:	0000                	unimp
  100b60:	0000                	unimp
  100b62:	0000                	unimp
  100b64:	0000                	unimp
  100b66:	0000                	unimp
  100b68:	0000                	unimp
  100b6a:	0000                	unimp
  100b6c:	0000                	unimp
  100b6e:	0000                	unimp
  100b70:	0000                	unimp
  100b72:	0000                	unimp
  100b74:	0000                	unimp
  100b76:	0000                	unimp
  100b78:	0000                	unimp
  100b7a:	0000                	unimp
  100b7c:	0000                	unimp
  100b7e:	0000                	unimp
  100b80:	0000                	unimp
  100b82:	0000                	unimp
  100b84:	0000                	unimp
  100b86:	0000                	unimp
  100b88:	0000                	unimp
  100b8a:	0000                	unimp
  100b8c:	0000                	unimp
  100b8e:	0000                	unimp
  100b90:	0000                	unimp
  100b92:	0000                	unimp
  100b94:	0000                	unimp
  100b96:	0000                	unimp
  100b98:	0000                	unimp
  100b9a:	0000                	unimp
  100b9c:	0000                	unimp
  100b9e:	0000                	unimp
  100ba0:	0000                	unimp
  100ba2:	0000                	unimp
  100ba4:	0000                	unimp
  100ba6:	0000                	unimp
  100ba8:	0000                	unimp
  100baa:	0000                	unimp
  100bac:	0000                	unimp
  100bae:	0000                	unimp
  100bb0:	0000                	unimp
  100bb2:	0000                	unimp
  100bb4:	0000                	unimp
  100bb6:	0000                	unimp
  100bb8:	0000                	unimp
  100bba:	0000                	unimp
  100bbc:	0000                	unimp
  100bbe:	0000                	unimp
  100bc0:	0000                	unimp
  100bc2:	0000                	unimp
  100bc4:	0000                	unimp
  100bc6:	0000                	unimp
  100bc8:	0000                	unimp
  100bca:	0000                	unimp
  100bcc:	0000                	unimp
  100bce:	0000                	unimp
  100bd0:	0000                	unimp
  100bd2:	0000                	unimp
  100bd4:	0000                	unimp
  100bd6:	0000                	unimp
  100bd8:	0000                	unimp
  100bda:	0000                	unimp
  100bdc:	0000                	unimp
  100bde:	0000                	unimp
  100be0:	0000                	unimp
  100be2:	0000                	unimp
  100be4:	0000                	unimp
  100be6:	0000                	unimp
  100be8:	0000                	unimp
  100bea:	0000                	unimp
  100bec:	0000                	unimp
  100bee:	0000                	unimp
  100bf0:	0000                	unimp
  100bf2:	0000                	unimp
  100bf4:	0000                	unimp
  100bf6:	0000                	unimp
  100bf8:	0000                	unimp
  100bfa:	0000                	unimp
  100bfc:	0000                	unimp
  100bfe:	0000                	unimp
  100c00:	0000                	unimp
  100c02:	0000                	unimp
  100c04:	0000                	unimp
  100c06:	0000                	unimp
  100c08:	0000                	unimp
  100c0a:	0000                	unimp
  100c0c:	0000                	unimp
  100c0e:	0000                	unimp
  100c10:	0000                	unimp
  100c12:	0000                	unimp
  100c14:	0000                	unimp
  100c16:	0000                	unimp
  100c18:	0000                	unimp
  100c1a:	0000                	unimp
  100c1c:	0000                	unimp
  100c1e:	0000                	unimp
  100c20:	0000                	unimp
  100c22:	0000                	unimp
  100c24:	0000                	unimp
  100c26:	0000                	unimp
  100c28:	0000                	unimp
  100c2a:	0000                	unimp
  100c2c:	0000                	unimp
  100c2e:	0000                	unimp
  100c30:	0000                	unimp
  100c32:	0000                	unimp
  100c34:	0000                	unimp
  100c36:	0000                	unimp
  100c38:	0000                	unimp
  100c3a:	0000                	unimp
  100c3c:	0000                	unimp
  100c3e:	0000                	unimp
  100c40:	0000                	unimp
  100c42:	0000                	unimp
  100c44:	0000                	unimp
  100c46:	0000                	unimp
  100c48:	0000                	unimp
  100c4a:	0000                	unimp
  100c4c:	0000                	unimp
  100c4e:	0000                	unimp
  100c50:	0000                	unimp
  100c52:	0000                	unimp
  100c54:	0000                	unimp
  100c56:	0000                	unimp
  100c58:	0000                	unimp
  100c5a:	0000                	unimp
  100c5c:	0000                	unimp
  100c5e:	0000                	unimp
  100c60:	0000                	unimp
  100c62:	0000                	unimp
  100c64:	0000                	unimp
  100c66:	0000                	unimp
  100c68:	0000                	unimp
  100c6a:	0000                	unimp
  100c6c:	0000                	unimp
  100c6e:	0000                	unimp
  100c70:	0000                	unimp
  100c72:	0000                	unimp
  100c74:	0000                	unimp
  100c76:	0000                	unimp
  100c78:	0000                	unimp
  100c7a:	0000                	unimp
  100c7c:	0000                	unimp
  100c7e:	0000                	unimp
  100c80:	0000                	unimp
  100c82:	0000                	unimp
  100c84:	0000                	unimp
  100c86:	0000                	unimp
  100c88:	0000                	unimp
  100c8a:	0000                	unimp
  100c8c:	0000                	unimp
  100c8e:	0000                	unimp
  100c90:	0000                	unimp
  100c92:	0000                	unimp
  100c94:	0000                	unimp
  100c96:	0000                	unimp
  100c98:	0000                	unimp
  100c9a:	0000                	unimp
  100c9c:	0000                	unimp
  100c9e:	0000                	unimp
  100ca0:	0000                	unimp
  100ca2:	0000                	unimp
  100ca4:	0000                	unimp
  100ca6:	0000                	unimp
  100ca8:	0000                	unimp
  100caa:	0000                	unimp
  100cac:	0000                	unimp
  100cae:	0000                	unimp
  100cb0:	0000                	unimp
  100cb2:	0000                	unimp
  100cb4:	0000                	unimp
  100cb6:	0000                	unimp
  100cb8:	0000                	unimp
  100cba:	0000                	unimp
  100cbc:	0000                	unimp
  100cbe:	0000                	unimp
  100cc0:	0000                	unimp
  100cc2:	0000                	unimp
  100cc4:	0000                	unimp
  100cc6:	0000                	unimp
  100cc8:	0000                	unimp
  100cca:	0000                	unimp
  100ccc:	0000                	unimp
  100cce:	0000                	unimp
  100cd0:	0000                	unimp
  100cd2:	0000                	unimp
  100cd4:	0000                	unimp
  100cd6:	0000                	unimp
  100cd8:	0000                	unimp
  100cda:	0000                	unimp
  100cdc:	0000                	unimp
  100cde:	0000                	unimp
  100ce0:	0000                	unimp
  100ce2:	0000                	unimp
  100ce4:	0000                	unimp
  100ce6:	0000                	unimp
  100ce8:	0000                	unimp
  100cea:	0000                	unimp
  100cec:	0000                	unimp
  100cee:	0000                	unimp
  100cf0:	0000                	unimp
  100cf2:	0000                	unimp
  100cf4:	0000                	unimp
  100cf6:	0000                	unimp
  100cf8:	0000                	unimp
  100cfa:	0000                	unimp
  100cfc:	0000                	unimp
  100cfe:	0000                	unimp
  100d00:	0000                	unimp
  100d02:	0000                	unimp
  100d04:	0000                	unimp
  100d06:	0000                	unimp
  100d08:	0000                	unimp
  100d0a:	0000                	unimp
  100d0c:	0000                	unimp
  100d0e:	0000                	unimp
  100d10:	0000                	unimp
  100d12:	0000                	unimp
  100d14:	0000                	unimp
  100d16:	0000                	unimp
  100d18:	0000                	unimp
  100d1a:	0000                	unimp
  100d1c:	0000                	unimp
  100d1e:	0000                	unimp
  100d20:	0000                	unimp
  100d22:	0000                	unimp
  100d24:	0000                	unimp
  100d26:	0000                	unimp
  100d28:	0000                	unimp
  100d2a:	0000                	unimp
  100d2c:	0000                	unimp
  100d2e:	0000                	unimp
  100d30:	0000                	unimp
  100d32:	0000                	unimp
  100d34:	0000                	unimp
  100d36:	0000                	unimp
  100d38:	0000                	unimp
  100d3a:	0000                	unimp
  100d3c:	0000                	unimp
  100d3e:	0000                	unimp
  100d40:	0000                	unimp
  100d42:	0000                	unimp
  100d44:	0000                	unimp
  100d46:	0000                	unimp
  100d48:	0000                	unimp
  100d4a:	0000                	unimp
  100d4c:	0000                	unimp
  100d4e:	0000                	unimp
  100d50:	0000                	unimp
  100d52:	0000                	unimp
  100d54:	0000                	unimp
  100d56:	0000                	unimp
  100d58:	0000                	unimp
  100d5a:	0000                	unimp
  100d5c:	0000                	unimp
  100d5e:	0000                	unimp
  100d60:	0000                	unimp
  100d62:	0000                	unimp
  100d64:	0000                	unimp
  100d66:	0000                	unimp
  100d68:	0000                	unimp
  100d6a:	0000                	unimp
  100d6c:	0000                	unimp
  100d6e:	0000                	unimp
  100d70:	0000                	unimp
  100d72:	0000                	unimp
  100d74:	0000                	unimp
  100d76:	0000                	unimp
  100d78:	0000                	unimp
  100d7a:	0000                	unimp
  100d7c:	0000                	unimp
  100d7e:	0000                	unimp
  100d80:	0000                	unimp
  100d82:	0000                	unimp
  100d84:	0000                	unimp
  100d86:	0000                	unimp
  100d88:	0000                	unimp
  100d8a:	0000                	unimp
  100d8c:	0000                	unimp
  100d8e:	0000                	unimp
  100d90:	0000                	unimp
  100d92:	0000                	unimp
  100d94:	0000                	unimp
  100d96:	0000                	unimp
  100d98:	0000                	unimp
  100d9a:	0000                	unimp
  100d9c:	0000                	unimp
  100d9e:	0000                	unimp
  100da0:	0000                	unimp
  100da2:	0000                	unimp
  100da4:	0000                	unimp
  100da6:	0000                	unimp
  100da8:	0000                	unimp
  100daa:	0000                	unimp
  100dac:	0000                	unimp
  100dae:	0000                	unimp
  100db0:	0000                	unimp
  100db2:	0000                	unimp
  100db4:	0000                	unimp
  100db6:	0000                	unimp
  100db8:	0000                	unimp
  100dba:	0000                	unimp
  100dbc:	0000                	unimp
  100dbe:	0000                	unimp
  100dc0:	0000                	unimp
  100dc2:	0000                	unimp
  100dc4:	0000                	unimp
  100dc6:	0000                	unimp
  100dc8:	0000                	unimp
  100dca:	0000                	unimp
  100dcc:	0000                	unimp
  100dce:	0000                	unimp
  100dd0:	0000                	unimp
  100dd2:	0000                	unimp
  100dd4:	0000                	unimp
  100dd6:	0000                	unimp
  100dd8:	0000                	unimp
  100dda:	0000                	unimp
  100ddc:	0000                	unimp
  100dde:	0000                	unimp
  100de0:	0000                	unimp
  100de2:	0000                	unimp
  100de4:	0000                	unimp
  100de6:	0000                	unimp
  100de8:	0000                	unimp
  100dea:	0000                	unimp
  100dec:	0000                	unimp
  100dee:	0000                	unimp
  100df0:	0000                	unimp
  100df2:	0000                	unimp
  100df4:	0000                	unimp
  100df6:	0000                	unimp
  100df8:	0000                	unimp
  100dfa:	0000                	unimp
  100dfc:	0000                	unimp
  100dfe:	0000                	unimp
  100e00:	0000                	unimp
  100e02:	0000                	unimp
  100e04:	0000                	unimp
  100e06:	0000                	unimp
  100e08:	0000                	unimp
  100e0a:	0000                	unimp
  100e0c:	0000                	unimp
  100e0e:	0000                	unimp
  100e10:	0000                	unimp
  100e12:	0000                	unimp
  100e14:	0000                	unimp
  100e16:	0000                	unimp
  100e18:	0000                	unimp
  100e1a:	0000                	unimp
  100e1c:	0000                	unimp
  100e1e:	0000                	unimp
  100e20:	0000                	unimp
  100e22:	0000                	unimp
  100e24:	0000                	unimp
  100e26:	0000                	unimp
  100e28:	0000                	unimp
  100e2a:	0000                	unimp
  100e2c:	0000                	unimp
  100e2e:	0000                	unimp
  100e30:	0000                	unimp
  100e32:	0000                	unimp
  100e34:	0000                	unimp
  100e36:	0000                	unimp
  100e38:	0000                	unimp
  100e3a:	0000                	unimp
  100e3c:	0000                	unimp
  100e3e:	0000                	unimp
  100e40:	0000                	unimp
  100e42:	0000                	unimp
  100e44:	0000                	unimp
  100e46:	0000                	unimp
  100e48:	0000                	unimp
  100e4a:	0000                	unimp
  100e4c:	0000                	unimp
  100e4e:	0000                	unimp
  100e50:	0000                	unimp
  100e52:	0000                	unimp
  100e54:	0000                	unimp
  100e56:	0000                	unimp
  100e58:	0000                	unimp
  100e5a:	0000                	unimp
  100e5c:	0000                	unimp
  100e5e:	0000                	unimp
  100e60:	0000                	unimp
  100e62:	0000                	unimp
  100e64:	0000                	unimp
  100e66:	0000                	unimp
  100e68:	0000                	unimp
  100e6a:	0000                	unimp
  100e6c:	0000                	unimp
  100e6e:	0000                	unimp
  100e70:	0000                	unimp
  100e72:	0000                	unimp
  100e74:	0000                	unimp
  100e76:	0000                	unimp
  100e78:	0000                	unimp
  100e7a:	0000                	unimp
  100e7c:	0000                	unimp
  100e7e:	0000                	unimp
  100e80:	0000                	unimp
  100e82:	0000                	unimp
  100e84:	0000                	unimp
  100e86:	0000                	unimp
  100e88:	0000                	unimp
  100e8a:	0000                	unimp
  100e8c:	0000                	unimp
  100e8e:	0000                	unimp
  100e90:	0000                	unimp
  100e92:	0000                	unimp
  100e94:	0000                	unimp
  100e96:	0000                	unimp
  100e98:	0000                	unimp
  100e9a:	0000                	unimp
  100e9c:	0000                	unimp
  100e9e:	0000                	unimp
  100ea0:	0000                	unimp
  100ea2:	0000                	unimp
  100ea4:	0000                	unimp
  100ea6:	0000                	unimp
  100ea8:	0000                	unimp
  100eaa:	0000                	unimp
  100eac:	0000                	unimp
  100eae:	0000                	unimp
  100eb0:	0000                	unimp
  100eb2:	0000                	unimp
  100eb4:	0000                	unimp
  100eb6:	0000                	unimp
  100eb8:	0000                	unimp
  100eba:	0000                	unimp
  100ebc:	0000                	unimp
  100ebe:	0000                	unimp
  100ec0:	0000                	unimp
  100ec2:	0000                	unimp
  100ec4:	0000                	unimp
  100ec6:	0000                	unimp
  100ec8:	0000                	unimp
  100eca:	0000                	unimp
  100ecc:	0000                	unimp
  100ece:	0000                	unimp
  100ed0:	0000                	unimp
  100ed2:	0000                	unimp
  100ed4:	0000                	unimp
  100ed6:	0000                	unimp
  100ed8:	0000                	unimp
  100eda:	0000                	unimp
  100edc:	0000                	unimp
  100ede:	0000                	unimp
  100ee0:	0000                	unimp
  100ee2:	0000                	unimp
  100ee4:	0000                	unimp
  100ee6:	0000                	unimp
  100ee8:	0000                	unimp
  100eea:	0000                	unimp
  100eec:	0000                	unimp
  100eee:	0000                	unimp
  100ef0:	0000                	unimp
  100ef2:	0000                	unimp
  100ef4:	0000                	unimp
  100ef6:	0000                	unimp
  100ef8:	0000                	unimp
  100efa:	0000                	unimp
  100efc:	0000                	unimp
  100efe:	0000                	unimp
  100f00:	0000                	unimp
  100f02:	0000                	unimp
  100f04:	0000                	unimp
  100f06:	0000                	unimp
  100f08:	0000                	unimp
  100f0a:	0000                	unimp
  100f0c:	0000                	unimp
  100f0e:	0000                	unimp
  100f10:	0000                	unimp
  100f12:	0000                	unimp
  100f14:	0000                	unimp
  100f16:	0000                	unimp
  100f18:	0000                	unimp
  100f1a:	0000                	unimp
  100f1c:	0000                	unimp
  100f1e:	0000                	unimp
  100f20:	0000                	unimp
  100f22:	0000                	unimp
  100f24:	0000                	unimp
  100f26:	0000                	unimp
  100f28:	0000                	unimp
  100f2a:	0000                	unimp
  100f2c:	0000                	unimp
  100f2e:	0000                	unimp
  100f30:	0000                	unimp
  100f32:	0000                	unimp
  100f34:	0000                	unimp
  100f36:	0000                	unimp
  100f38:	0000                	unimp
  100f3a:	0000                	unimp
  100f3c:	0000                	unimp
  100f3e:	0000                	unimp
  100f40:	0000                	unimp
  100f42:	0000                	unimp
  100f44:	0000                	unimp
  100f46:	0000                	unimp
  100f48:	0000                	unimp
  100f4a:	0000                	unimp
  100f4c:	0000                	unimp
  100f4e:	0000                	unimp
  100f50:	0000                	unimp
  100f52:	0000                	unimp
  100f54:	0000                	unimp
  100f56:	0000                	unimp
  100f58:	0000                	unimp
  100f5a:	0000                	unimp
  100f5c:	0000                	unimp
  100f5e:	0000                	unimp
  100f60:	0000                	unimp
  100f62:	0000                	unimp
  100f64:	0000                	unimp
  100f66:	0000                	unimp
  100f68:	0000                	unimp
  100f6a:	0000                	unimp
  100f6c:	0000                	unimp
  100f6e:	0000                	unimp
  100f70:	0000                	unimp
  100f72:	0000                	unimp
  100f74:	0000                	unimp
  100f76:	0000                	unimp
  100f78:	0000                	unimp
  100f7a:	0000                	unimp
  100f7c:	0000                	unimp
  100f7e:	0000                	unimp
  100f80:	0000                	unimp
  100f82:	0000                	unimp
  100f84:	0000                	unimp
  100f86:	0000                	unimp
  100f88:	0000                	unimp
  100f8a:	0000                	unimp
  100f8c:	0000                	unimp
  100f8e:	0000                	unimp
  100f90:	0000                	unimp
  100f92:	0000                	unimp
  100f94:	0000                	unimp
  100f96:	0000                	unimp
  100f98:	0000                	unimp
  100f9a:	0000                	unimp
  100f9c:	0000                	unimp
  100f9e:	0000                	unimp
  100fa0:	0000                	unimp
  100fa2:	0000                	unimp
  100fa4:	0000                	unimp
  100fa6:	0000                	unimp
  100fa8:	0000                	unimp
  100faa:	0000                	unimp
  100fac:	0000                	unimp
  100fae:	0000                	unimp
  100fb0:	0000                	unimp
  100fb2:	0000                	unimp
  100fb4:	0000                	unimp
  100fb6:	0000                	unimp
  100fb8:	0000                	unimp
  100fba:	0000                	unimp
  100fbc:	0000                	unimp
  100fbe:	0000                	unimp
  100fc0:	0000                	unimp
  100fc2:	0000                	unimp
  100fc4:	0000                	unimp
  100fc6:	0000                	unimp
  100fc8:	0000                	unimp
  100fca:	0000                	unimp
  100fcc:	0000                	unimp
  100fce:	0000                	unimp
  100fd0:	0000                	unimp
  100fd2:	0000                	unimp
  100fd4:	0000                	unimp
  100fd6:	0000                	unimp
  100fd8:	0000                	unimp
  100fda:	0000                	unimp
  100fdc:	0000                	unimp
  100fde:	0000                	unimp
  100fe0:	0000                	unimp
  100fe2:	0000                	unimp
  100fe4:	0000                	unimp
  100fe6:	0000                	unimp
  100fe8:	0000                	unimp
  100fea:	0000                	unimp
  100fec:	0000                	unimp
  100fee:	0000                	unimp
  100ff0:	0000                	unimp
  100ff2:	0000                	unimp
  100ff4:	0000                	unimp
  100ff6:	0000                	unimp
  100ff8:	0000                	unimp
  100ffa:	0000                	unimp
  100ffc:	0000                	unimp
  100ffe:	0000                	unimp
  101000:	0000                	unimp
  101002:	0000                	unimp
  101004:	0000                	unimp
  101006:	0000                	unimp
  101008:	0000                	unimp
  10100a:	0000                	unimp
  10100c:	0000                	unimp
  10100e:	0000                	unimp
  101010:	0000                	unimp
  101012:	0000                	unimp
  101014:	0000                	unimp
  101016:	0000                	unimp
  101018:	0000                	unimp
  10101a:	0000                	unimp
  10101c:	0000                	unimp
  10101e:	0000                	unimp
  101020:	0000                	unimp
  101022:	0000                	unimp
  101024:	0000                	unimp
  101026:	0000                	unimp
  101028:	0000                	unimp
  10102a:	0000                	unimp
  10102c:	0000                	unimp
  10102e:	0000                	unimp
  101030:	0000                	unimp
  101032:	0000                	unimp
  101034:	0000                	unimp
  101036:	0000                	unimp
  101038:	0000                	unimp
  10103a:	0000                	unimp
  10103c:	0000                	unimp
  10103e:	0000                	unimp
  101040:	0000                	unimp
  101042:	0000                	unimp
  101044:	0000                	unimp
  101046:	0000                	unimp
  101048:	0000                	unimp
  10104a:	0000                	unimp
  10104c:	0000                	unimp
  10104e:	0000                	unimp
  101050:	0000                	unimp
  101052:	0000                	unimp
  101054:	0000                	unimp
  101056:	0000                	unimp
  101058:	0000                	unimp
  10105a:	0000                	unimp

0010105c <cmd.0>:
  10105c:	0000                	unimp
  10105e:	0000                	unimp
  101060:	0000                	unimp
  101062:	0000                	unimp
  101064:	0000                	unimp
  101066:	0000                	unimp
  101068:	0000                	unimp
  10106a:	0000                	unimp
  10106c:	0000                	unimp
  10106e:	0000                	unimp
  101070:	0000                	unimp
  101072:	0000                	unimp
  101074:	0000                	unimp
  101076:	0000                	unimp
  101078:	0000                	unimp
  10107a:	0000                	unimp
  10107c:	0000                	unimp
  10107e:	0000                	unimp
  101080:	0000                	unimp
  101082:	0000                	unimp
  101084:	0000                	unimp
  101086:	0000                	unimp
  101088:	0000                	unimp
  10108a:	0000                	unimp
  10108c:	0000                	unimp
  10108e:	0000                	unimp
  101090:	0000                	unimp
  101092:	0000                	unimp
  101094:	0000                	unimp
  101096:	0000                	unimp
  101098:	0000                	unimp
  10109a:	0000                	unimp
  10109c:	0000                	unimp
  10109e:	0000                	unimp
  1010a0:	0000                	unimp
  1010a2:	0000                	unimp
  1010a4:	0000                	unimp
  1010a6:	0000                	unimp
  1010a8:	0000                	unimp
  1010aa:	0000                	unimp
  1010ac:	0000                	unimp
  1010ae:	0000                	unimp
  1010b0:	0000                	unimp
  1010b2:	0000                	unimp
  1010b4:	0000                	unimp
  1010b6:	0000                	unimp
  1010b8:	0000                	unimp
  1010ba:	0000                	unimp
  1010bc:	0000                	unimp
  1010be:	0000                	unimp
  1010c0:	0000                	unimp
  1010c2:	0000                	unimp
  1010c4:	0000                	unimp
  1010c6:	0000                	unimp
  1010c8:	0000                	unimp
  1010ca:	0000                	unimp
  1010cc:	0000                	unimp
  1010ce:	0000                	unimp
  1010d0:	0000                	unimp
  1010d2:	0000                	unimp
  1010d4:	0000                	unimp
  1010d6:	0000                	unimp
  1010d8:	0000                	unimp
  1010da:	0000                	unimp
  1010dc:	0000                	unimp
  1010de:	0000                	unimp
  1010e0:	0000                	unimp
  1010e2:	0000                	unimp
  1010e4:	0000                	unimp
  1010e6:	0000                	unimp
  1010e8:	0000                	unimp
  1010ea:	0000                	unimp
  1010ec:	0000                	unimp
  1010ee:	0000                	unimp
  1010f0:	0000                	unimp
  1010f2:	0000                	unimp
  1010f4:	0000                	unimp
  1010f6:	0000                	unimp
  1010f8:	0000                	unimp
  1010fa:	0000                	unimp
  1010fc:	0000                	unimp
  1010fe:	0000                	unimp
  101100:	0000                	unimp
  101102:	0000                	unimp
  101104:	0000                	unimp
  101106:	0000                	unimp
  101108:	0000                	unimp
  10110a:	0000                	unimp
  10110c:	0000                	unimp
  10110e:	0000                	unimp
  101110:	0000                	unimp
  101112:	0000                	unimp
  101114:	0000                	unimp
  101116:	0000                	unimp
  101118:	0000                	unimp
  10111a:	0000                	unimp
  10111c:	0000                	unimp
  10111e:	0000                	unimp
  101120:	0000                	unimp
  101122:	0000                	unimp
  101124:	0000                	unimp
  101126:	0000                	unimp
  101128:	0000                	unimp
  10112a:	0000                	unimp
  10112c:	0000                	unimp
  10112e:	0000                	unimp
  101130:	0000                	unimp
  101132:	0000                	unimp
  101134:	0000                	unimp
  101136:	0000                	unimp
  101138:	0000                	unimp
  10113a:	0000                	unimp
  10113c:	0000                	unimp
  10113e:	0000                	unimp
  101140:	0000                	unimp
  101142:	0000                	unimp
  101144:	0000                	unimp
  101146:	0000                	unimp
  101148:	0000                	unimp
  10114a:	0000                	unimp
  10114c:	0000                	unimp
  10114e:	0000                	unimp
  101150:	0000                	unimp
  101152:	0000                	unimp
  101154:	0000                	unimp
  101156:	0000                	unimp
  101158:	0000                	unimp
  10115a:	0000                	unimp

0010115c <ntok>:
  10115c:	0000                	unimp
  10115e:	0000                	unimp

00101160 <vga_line>:
  101160:	0000                	unimp
  101162:	0000                	unimp

00101164 <vga_ch>:
  101164:	0000                	unimp
  101166:	0000                	unimp

Disassembly of section .comment:

00000000 <.comment>:
   0:	3a434347          	fmsub.d	ft6,ft6,ft4,ft7,rmm
   4:	2820                	fld	fs0,80(s0)
   6:	2029                	jal	10 <entry+0x10>
   8:	3031                	jal	fffff814 <_end+0xffefe014>
   a:	322e                	fld	ft4,232(sp)
   c:	302e                	fld	ft0,232(sp)
   e:	00              	Address 0x000000000000000e is out of bounds.


Disassembly of section .riscv.attributes:

00000000 <.riscv.attributes>:
   0:	1b41                	addi	s6,s6,-16
   2:	0000                	unimp
   4:	7200                	flw	fs0,32(a2)
   6:	7369                	lui	t1,0xffffa
   8:	01007663          	bgeu	zero,a6,14 <entry+0x14>
   c:	0011                	c.nop	4
   e:	0000                	unimp
  10:	1004                	addi	s1,sp,32
  12:	7205                	lui	tp,0xfffe1
  14:	3376                	fld	ft6,376(sp)
  16:	6932                	flw	fs2,12(sp)
  18:	7032                	flw	ft0,44(sp)
  1a:	0030                	addi	a2,sp,8
