
main.elf:     file format elf32-littleriscv


Disassembly of section .text:

00000000 <entry>:
       0:	ff010113          	addi	sp,sp,-16
       4:	00112623          	sw	ra,12(sp)
       8:	00812423          	sw	s0,8(sp)
       c:	01010413          	addi	s0,sp,16
      10:	00120137          	lui	sp,0x120
      14:	ffc10113          	addi	sp,sp,-4 # 11fffc <_end+0x1a3fc>
      18:	330000ef          	jal	ra,348 <main>
      1c:	00000013          	nop
      20:	00c12083          	lw	ra,12(sp)
      24:	00812403          	lw	s0,8(sp)
      28:	01010113          	addi	sp,sp,16
      2c:	00008067          	ret

00000030 <next>:
      30:	fe010113          	addi	sp,sp,-32
      34:	00112e23          	sw	ra,28(sp)
      38:	00812c23          	sw	s0,24(sp)
      3c:	02010413          	addi	s0,sp,32
      40:	fea42623          	sw	a0,-20(s0)
      44:	fec42783          	lw	a5,-20(s0)
      48:	00178793          	addi	a5,a5,1
      4c:	02300593          	li	a1,35
      50:	00078513          	mv	a0,a5
      54:	748050ef          	jal	ra,579c <__modsi3>
      58:	00050793          	mv	a5,a0
      5c:	00078513          	mv	a0,a5
      60:	01c12083          	lw	ra,28(sp)
      64:	01812403          	lw	s0,24(sp)
      68:	02010113          	addi	sp,sp,32
      6c:	00008067          	ret

00000070 <prev>:
      70:	fe010113          	addi	sp,sp,-32
      74:	00112e23          	sw	ra,28(sp)
      78:	00812c23          	sw	s0,24(sp)
      7c:	02010413          	addi	s0,sp,32
      80:	fea42623          	sw	a0,-20(s0)
      84:	fec42783          	lw	a5,-20(s0)
      88:	02278793          	addi	a5,a5,34
      8c:	02300593          	li	a1,35
      90:	00078513          	mv	a0,a5
      94:	708050ef          	jal	ra,579c <__modsi3>
      98:	00050793          	mv	a5,a0
      9c:	00078513          	mv	a0,a5
      a0:	01c12083          	lw	ra,28(sp)
      a4:	01812403          	lw	s0,24(sp)
      a8:	02010113          	addi	sp,sp,32
      ac:	00008067          	ret

000000b0 <exec>:
      b0:	fe010113          	addi	sp,sp,-32
      b4:	00112e23          	sw	ra,28(sp)
      b8:	00812c23          	sw	s0,24(sp)
      bc:	02010413          	addi	s0,sp,32
      c0:	fea42623          	sw	a0,-20(s0)
      c4:	00400613          	li	a2,4
      c8:	00100597          	auipc	a1,0x100
      cc:	42858593          	addi	a1,a1,1064 # 1004f0 <_etext+0xfa5b8>
      d0:	fec42503          	lw	a0,-20(s0)
      d4:	33c050ef          	jal	ra,5410 <kstrncmp>
      d8:	00050793          	mv	a5,a0
      dc:	00079e63          	bnez	a5,f8 <exec+0x48>
      e0:	fec42783          	lw	a5,-20(s0)
      e4:	00578793          	addi	a5,a5,5
      e8:	00078513          	mv	a0,a5
      ec:	634000ef          	jal	ra,720 <exec_echo>
      f0:	00000793          	li	a5,0
      f4:	1500006f          	j	244 <exec+0x194>
      f8:	00300613          	li	a2,3
      fc:	00100597          	auipc	a1,0x100
     100:	3fc58593          	addi	a1,a1,1020 # 1004f8 <_etext+0xfa5c0>
     104:	fec42503          	lw	a0,-20(s0)
     108:	308050ef          	jal	ra,5410 <kstrncmp>
     10c:	00050793          	mv	a5,a0
     110:	00079e63          	bnez	a5,12c <exec+0x7c>
     114:	fec42783          	lw	a5,-20(s0)
     118:	00478793          	addi	a5,a5,4
     11c:	00078513          	mv	a0,a5
     120:	4f4000ef          	jal	ra,614 <exec_fib>
     124:	00000793          	li	a5,0
     128:	11c0006f          	j	244 <exec+0x194>
     12c:	00400613          	li	a2,4
     130:	00100597          	auipc	a1,0x100
     134:	3cc58593          	addi	a1,a1,972 # 1004fc <_etext+0xfa5c4>
     138:	fec42503          	lw	a0,-20(s0)
     13c:	2d4050ef          	jal	ra,5410 <kstrncmp>
     140:	00050793          	mv	a5,a0
     144:	00079e63          	bnez	a5,160 <exec+0xb0>
     148:	fec42783          	lw	a5,-20(s0)
     14c:	00578793          	addi	a5,a5,5
     150:	00078513          	mv	a0,a5
     154:	681000ef          	jal	ra,fd4 <exec_eval>
     158:	00000793          	li	a5,0
     15c:	0e80006f          	j	244 <exec+0x194>
     160:	00500613          	li	a2,5
     164:	00100597          	auipc	a1,0x100
     168:	3a058593          	addi	a1,a1,928 # 100504 <_etext+0xfa5cc>
     16c:	fec42503          	lw	a0,-20(s0)
     170:	2a0050ef          	jal	ra,5410 <kstrncmp>
     174:	00050793          	mv	a5,a0
     178:	00079e63          	bnez	a5,194 <exec+0xe4>
     17c:	fec42783          	lw	a5,-20(s0)
     180:	00678793          	addi	a5,a5,6
     184:	00078513          	mv	a0,a5
     188:	5f0000ef          	jal	ra,778 <exec_clear>
     18c:	00000793          	li	a5,0
     190:	0b40006f          	j	244 <exec+0x194>
     194:	00500613          	li	a2,5
     198:	00100597          	auipc	a1,0x100
     19c:	37458593          	addi	a1,a1,884 # 10050c <_etext+0xfa5d4>
     1a0:	fec42503          	lw	a0,-20(s0)
     1a4:	26c050ef          	jal	ra,5410 <kstrncmp>
     1a8:	00050793          	mv	a5,a0
     1ac:	00079e63          	bnez	a5,1c8 <exec+0x118>
     1b0:	fec42783          	lw	a5,-20(s0)
     1b4:	00678793          	addi	a5,a5,6
     1b8:	00078513          	mv	a0,a5
     1bc:	6b1000ef          	jal	ra,106c <exec_gtest>
     1c0:	00000793          	li	a5,0
     1c4:	0800006f          	j	244 <exec+0x194>
     1c8:	00500613          	li	a2,5
     1cc:	00100597          	auipc	a1,0x100
     1d0:	34858593          	addi	a1,a1,840 # 100514 <_etext+0xfa5dc>
     1d4:	fec42503          	lw	a0,-20(s0)
     1d8:	238050ef          	jal	ra,5410 <kstrncmp>
     1dc:	00050793          	mv	a5,a0
     1e0:	00079e63          	bnez	a5,1fc <exec+0x14c>
     1e4:	fec42783          	lw	a5,-20(s0)
     1e8:	00678793          	addi	a5,a5,6
     1ec:	00078513          	mv	a0,a5
     1f0:	634010ef          	jal	ra,1824 <exec_vtest>
     1f4:	00000793          	li	a5,0
     1f8:	04c0006f          	j	244 <exec+0x194>
     1fc:	00900613          	li	a2,9
     200:	00100597          	auipc	a1,0x100
     204:	31c58593          	addi	a1,a1,796 # 10051c <_etext+0xfa5e4>
     208:	fec42503          	lw	a0,-20(s0)
     20c:	204050ef          	jal	ra,5410 <kstrncmp>
     210:	00050793          	mv	a5,a0
     214:	00079e63          	bnez	a5,230 <exec+0x180>
     218:	fec42783          	lw	a5,-20(s0)
     21c:	00a78793          	addi	a5,a5,10
     220:	00078513          	mv	a0,a5
     224:	614020ef          	jal	ra,2838 <exec_benchmark>
     228:	00000793          	li	a5,0
     22c:	0180006f          	j	244 <exec+0x194>
     230:	fec42583          	lw	a1,-20(s0)
     234:	00100517          	auipc	a0,0x100
     238:	2f450513          	addi	a0,a0,756 # 100528 <_etext+0xfa5f0>
     23c:	725040ef          	jal	ra,5160 <kprintf>
     240:	00100793          	li	a5,1
     244:	00078513          	mv	a0,a5
     248:	01c12083          	lw	ra,28(sp)
     24c:	01812403          	lw	s0,24(sp)
     250:	02010113          	addi	sp,sp,32
     254:	00008067          	ret

00000258 <clear_line>:
     258:	fe010113          	addi	sp,sp,-32
     25c:	00112e23          	sw	ra,28(sp)
     260:	00812c23          	sw	s0,24(sp)
     264:	02010413          	addi	s0,sp,32
     268:	fea42623          	sw	a0,-20(s0)
     26c:	0180006f          	j	284 <clear_line+0x2c>
     270:	00800513          	li	a0,8
     274:	155050ef          	jal	ra,5bc8 <putch>
     278:	fec42783          	lw	a5,-20(s0)
     27c:	fff78793          	addi	a5,a5,-1
     280:	fef42623          	sw	a5,-20(s0)
     284:	fec42783          	lw	a5,-20(s0)
     288:	fe0794e3          	bnez	a5,270 <clear_line+0x18>
     28c:	00000793          	li	a5,0
     290:	00078513          	mv	a0,a5
     294:	01c12083          	lw	ra,28(sp)
     298:	01812403          	lw	s0,24(sp)
     29c:	02010113          	addi	sp,sp,32
     2a0:	00008067          	ret

000002a4 <print_line>:
     2a4:	fd010113          	addi	sp,sp,-48
     2a8:	02112623          	sw	ra,44(sp)
     2ac:	02812423          	sw	s0,40(sp)
     2b0:	03010413          	addi	s0,sp,48
     2b4:	fca42e23          	sw	a0,-36(s0)
     2b8:	fe042623          	sw	zero,-20(s0)
     2bc:	0440006f          	j	300 <print_line+0x5c>
     2c0:	00105697          	auipc	a3,0x105
     2c4:	b0068693          	addi	a3,a3,-1280 # 104dc0 <cmd>
     2c8:	fdc42703          	lw	a4,-36(s0)
     2cc:	00070793          	mv	a5,a4
     2d0:	00479793          	slli	a5,a5,0x4
     2d4:	40e787b3          	sub	a5,a5,a4
     2d8:	00279793          	slli	a5,a5,0x2
     2dc:	00f68733          	add	a4,a3,a5
     2e0:	fec42783          	lw	a5,-20(s0)
     2e4:	00f707b3          	add	a5,a4,a5
     2e8:	0007c783          	lbu	a5,0(a5)
     2ec:	00078513          	mv	a0,a5
     2f0:	0d9050ef          	jal	ra,5bc8 <putch>
     2f4:	fec42783          	lw	a5,-20(s0)
     2f8:	00178793          	addi	a5,a5,1
     2fc:	fef42623          	sw	a5,-20(s0)
     300:	00105697          	auipc	a3,0x105
     304:	ac068693          	addi	a3,a3,-1344 # 104dc0 <cmd>
     308:	fdc42703          	lw	a4,-36(s0)
     30c:	00070793          	mv	a5,a4
     310:	00479793          	slli	a5,a5,0x4
     314:	40e787b3          	sub	a5,a5,a4
     318:	00279793          	slli	a5,a5,0x2
     31c:	00f68733          	add	a4,a3,a5
     320:	fec42783          	lw	a5,-20(s0)
     324:	00f707b3          	add	a5,a4,a5
     328:	0007c783          	lbu	a5,0(a5)
     32c:	f8079ae3          	bnez	a5,2c0 <print_line+0x1c>
     330:	fec42783          	lw	a5,-20(s0)
     334:	00078513          	mv	a0,a5
     338:	02c12083          	lw	ra,44(sp)
     33c:	02812403          	lw	s0,40(sp)
     340:	03010113          	addi	sp,sp,48
     344:	00008067          	ret

00000348 <main>:
     348:	fd010113          	addi	sp,sp,-48
     34c:	02112623          	sw	ra,44(sp)
     350:	02812423          	sw	s0,40(sp)
     354:	03010413          	addi	s0,sp,48
     358:	fe042623          	sw	zero,-20(s0)
     35c:	fe042423          	sw	zero,-24(s0)
     360:	fe042223          	sw	zero,-28(s0)
     364:	fe042023          	sw	zero,-32(s0)
     368:	494050ef          	jal	ra,57fc <gettimeofday>
     36c:	fca42e23          	sw	a0,-36(s0)
     370:	684050ef          	jal	ra,59f4 <vga_init>
     374:	00100517          	auipc	a0,0x100
     378:	1cc50513          	addi	a0,a0,460 # 100540 <_etext+0xfa608>
     37c:	32d050ef          	jal	ra,5ea8 <putstr>
     380:	47c050ef          	jal	ra,57fc <gettimeofday>
     384:	00050713          	mv	a4,a0
     388:	fdc42783          	lw	a5,-36(s0)
     38c:	40f70733          	sub	a4,a4,a5
     390:	000f47b7          	lui	a5,0xf4
     394:	24078793          	addi	a5,a5,576 # f4240 <_etext+0xee308>
     398:	00e7f863          	bgeu	a5,a4,3a8 <main+0x60>
     39c:	460050ef          	jal	ra,57fc <gettimeofday>
     3a0:	fca42e23          	sw	a0,-36(s0)
     3a4:	78c050ef          	jal	ra,5b30 <blink>
     3a8:	361050ef          	jal	ra,5f08 <readkey>
     3ac:	00050793          	mv	a5,a0
     3b0:	fcf40ba3          	sb	a5,-41(s0)
     3b4:	fd744783          	lbu	a5,-41(s0)
     3b8:	0b800713          	li	a4,184
     3bc:	02e78e63          	beq	a5,a4,3f8 <main+0xb0>
     3c0:	0b800713          	li	a4,184
     3c4:	1cf74a63          	blt	a4,a5,598 <main+0x250>
     3c8:	0b200713          	li	a4,178
     3cc:	06e78063          	beq	a5,a4,42c <main+0xe4>
     3d0:	0b200713          	li	a4,178
     3d4:	1cf74263          	blt	a4,a5,598 <main+0x250>
     3d8:	00d00713          	li	a4,13
     3dc:	0ce78a63          	beq	a5,a4,4b0 <main+0x168>
     3e0:	00d00713          	li	a4,13
     3e4:	1af74a63          	blt	a4,a5,598 <main+0x250>
     3e8:	20078263          	beqz	a5,5ec <main+0x2a4>
     3ec:	00800713          	li	a4,8
     3f0:	06e78863          	beq	a5,a4,460 <main+0x118>
     3f4:	1a40006f          	j	598 <main+0x250>
     3f8:	fe042703          	lw	a4,-32(s0)
     3fc:	fe842783          	lw	a5,-24(s0)
     400:	1ef70a63          	beq	a4,a5,5f4 <main+0x2ac>
     404:	fec42503          	lw	a0,-20(s0)
     408:	e51ff0ef          	jal	ra,258 <clear_line>
     40c:	fea42623          	sw	a0,-20(s0)
     410:	fe042503          	lw	a0,-32(s0)
     414:	c5dff0ef          	jal	ra,70 <prev>
     418:	fea42023          	sw	a0,-32(s0)
     41c:	fe042503          	lw	a0,-32(s0)
     420:	e85ff0ef          	jal	ra,2a4 <print_line>
     424:	fea42623          	sw	a0,-20(s0)
     428:	1cc0006f          	j	5f4 <main+0x2ac>
     42c:	fe042703          	lw	a4,-32(s0)
     430:	fe442783          	lw	a5,-28(s0)
     434:	1cf70463          	beq	a4,a5,5fc <main+0x2b4>
     438:	fec42503          	lw	a0,-20(s0)
     43c:	e1dff0ef          	jal	ra,258 <clear_line>
     440:	fea42623          	sw	a0,-20(s0)
     444:	fe042503          	lw	a0,-32(s0)
     448:	be9ff0ef          	jal	ra,30 <next>
     44c:	fea42023          	sw	a0,-32(s0)
     450:	fe042503          	lw	a0,-32(s0)
     454:	e51ff0ef          	jal	ra,2a4 <print_line>
     458:	fea42623          	sw	a0,-20(s0)
     45c:	1a00006f          	j	5fc <main+0x2b4>
     460:	fec42783          	lw	a5,-20(s0)
     464:	1a078063          	beqz	a5,604 <main+0x2bc>
     468:	fd744783          	lbu	a5,-41(s0)
     46c:	00078513          	mv	a0,a5
     470:	758050ef          	jal	ra,5bc8 <putch>
     474:	fec42783          	lw	a5,-20(s0)
     478:	fff78793          	addi	a5,a5,-1
     47c:	fef42623          	sw	a5,-20(s0)
     480:	00105697          	auipc	a3,0x105
     484:	94068693          	addi	a3,a3,-1728 # 104dc0 <cmd>
     488:	fe042703          	lw	a4,-32(s0)
     48c:	00070793          	mv	a5,a4
     490:	00479793          	slli	a5,a5,0x4
     494:	40e787b3          	sub	a5,a5,a4
     498:	00279793          	slli	a5,a5,0x2
     49c:	00f68733          	add	a4,a3,a5
     4a0:	fec42783          	lw	a5,-20(s0)
     4a4:	00f707b3          	add	a5,a4,a5
     4a8:	00078023          	sb	zero,0(a5)
     4ac:	1580006f          	j	604 <main+0x2bc>
     4b0:	00d00513          	li	a0,13
     4b4:	714050ef          	jal	ra,5bc8 <putch>
     4b8:	00105697          	auipc	a3,0x105
     4bc:	90868693          	addi	a3,a3,-1784 # 104dc0 <cmd>
     4c0:	fe042703          	lw	a4,-32(s0)
     4c4:	00070793          	mv	a5,a4
     4c8:	00479793          	slli	a5,a5,0x4
     4cc:	40e787b3          	sub	a5,a5,a4
     4d0:	00279793          	slli	a5,a5,0x2
     4d4:	00f68733          	add	a4,a3,a5
     4d8:	fec42783          	lw	a5,-20(s0)
     4dc:	00f707b3          	add	a5,a4,a5
     4e0:	00078023          	sb	zero,0(a5)
     4e4:	fe042703          	lw	a4,-32(s0)
     4e8:	00070793          	mv	a5,a4
     4ec:	00479793          	slli	a5,a5,0x4
     4f0:	40e787b3          	sub	a5,a5,a4
     4f4:	00279793          	slli	a5,a5,0x2
     4f8:	00105717          	auipc	a4,0x105
     4fc:	8c870713          	addi	a4,a4,-1848 # 104dc0 <cmd>
     500:	00e787b3          	add	a5,a5,a4
     504:	00078513          	mv	a0,a5
     508:	ba9ff0ef          	jal	ra,b0 <exec>
     50c:	fe042503          	lw	a0,-32(s0)
     510:	b21ff0ef          	jal	ra,30 <next>
     514:	fea42023          	sw	a0,-32(s0)
     518:	fe042783          	lw	a5,-32(s0)
     51c:	fef42223          	sw	a5,-28(s0)
     520:	fe442703          	lw	a4,-28(s0)
     524:	fe842783          	lw	a5,-24(s0)
     528:	00f71863          	bne	a4,a5,538 <main+0x1f0>
     52c:	fe842503          	lw	a0,-24(s0)
     530:	b01ff0ef          	jal	ra,30 <next>
     534:	fea42423          	sw	a0,-24(s0)
     538:	fe042623          	sw	zero,-20(s0)
     53c:	fc042c23          	sw	zero,-40(s0)
     540:	03c0006f          	j	57c <main+0x234>
     544:	00105697          	auipc	a3,0x105
     548:	87c68693          	addi	a3,a3,-1924 # 104dc0 <cmd>
     54c:	fe042703          	lw	a4,-32(s0)
     550:	00070793          	mv	a5,a4
     554:	00479793          	slli	a5,a5,0x4
     558:	40e787b3          	sub	a5,a5,a4
     55c:	00279793          	slli	a5,a5,0x2
     560:	00f68733          	add	a4,a3,a5
     564:	fd842783          	lw	a5,-40(s0)
     568:	00f707b3          	add	a5,a4,a5
     56c:	00078023          	sb	zero,0(a5)
     570:	fd842783          	lw	a5,-40(s0)
     574:	00178793          	addi	a5,a5,1
     578:	fcf42c23          	sw	a5,-40(s0)
     57c:	fd842703          	lw	a4,-40(s0)
     580:	03600793          	li	a5,54
     584:	fce7d0e3          	bge	a5,a4,544 <main+0x1fc>
     588:	00100517          	auipc	a0,0x100
     58c:	fb850513          	addi	a0,a0,-72 # 100540 <_etext+0xfa608>
     590:	119050ef          	jal	ra,5ea8 <putstr>
     594:	07c0006f          	j	610 <main+0x2c8>
     598:	fec42703          	lw	a4,-20(s0)
     59c:	03600793          	li	a5,54
     5a0:	06e7c663          	blt	a5,a4,60c <main+0x2c4>
     5a4:	fd744783          	lbu	a5,-41(s0)
     5a8:	00078513          	mv	a0,a5
     5ac:	61c050ef          	jal	ra,5bc8 <putch>
     5b0:	fec42703          	lw	a4,-20(s0)
     5b4:	00170793          	addi	a5,a4,1
     5b8:	fef42623          	sw	a5,-20(s0)
     5bc:	00105617          	auipc	a2,0x105
     5c0:	80460613          	addi	a2,a2,-2044 # 104dc0 <cmd>
     5c4:	fe042683          	lw	a3,-32(s0)
     5c8:	00068793          	mv	a5,a3
     5cc:	00479793          	slli	a5,a5,0x4
     5d0:	40d787b3          	sub	a5,a5,a3
     5d4:	00279793          	slli	a5,a5,0x2
     5d8:	00f607b3          	add	a5,a2,a5
     5dc:	00e787b3          	add	a5,a5,a4
     5e0:	fd744703          	lbu	a4,-41(s0)
     5e4:	00e78023          	sb	a4,0(a5)
     5e8:	0240006f          	j	60c <main+0x2c4>
     5ec:	00000013          	nop
     5f0:	d91ff06f          	j	380 <main+0x38>
     5f4:	00000013          	nop
     5f8:	d89ff06f          	j	380 <main+0x38>
     5fc:	00000013          	nop
     600:	d81ff06f          	j	380 <main+0x38>
     604:	00000013          	nop
     608:	d79ff06f          	j	380 <main+0x38>
     60c:	00000013          	nop
     610:	d71ff06f          	j	380 <main+0x38>

00000614 <exec_fib>:
     614:	fd010113          	addi	sp,sp,-48
     618:	02112623          	sw	ra,44(sp)
     61c:	02812423          	sw	s0,40(sp)
     620:	03010413          	addi	s0,sp,48
     624:	fca42e23          	sw	a0,-36(s0)
     628:	0100006f          	j	638 <exec_fib+0x24>
     62c:	fdc42783          	lw	a5,-36(s0)
     630:	00178793          	addi	a5,a5,1
     634:	fcf42e23          	sw	a5,-36(s0)
     638:	fdc42783          	lw	a5,-36(s0)
     63c:	0007c703          	lbu	a4,0(a5)
     640:	02000793          	li	a5,32
     644:	fef704e3          	beq	a4,a5,62c <exec_fib+0x18>
     648:	fe042623          	sw	zero,-20(s0)
     64c:	03c0006f          	j	688 <exec_fib+0x74>
     650:	fec42703          	lw	a4,-20(s0)
     654:	00070793          	mv	a5,a4
     658:	00279793          	slli	a5,a5,0x2
     65c:	00e787b3          	add	a5,a5,a4
     660:	00179793          	slli	a5,a5,0x1
     664:	00078713          	mv	a4,a5
     668:	fdc42783          	lw	a5,-36(s0)
     66c:	0007c783          	lbu	a5,0(a5)
     670:	00f707b3          	add	a5,a4,a5
     674:	fd078793          	addi	a5,a5,-48
     678:	fef42623          	sw	a5,-20(s0)
     67c:	fdc42783          	lw	a5,-36(s0)
     680:	00178793          	addi	a5,a5,1
     684:	fcf42e23          	sw	a5,-36(s0)
     688:	fdc42783          	lw	a5,-36(s0)
     68c:	0007c703          	lbu	a4,0(a5)
     690:	02f00793          	li	a5,47
     694:	00e7fa63          	bgeu	a5,a4,6a8 <exec_fib+0x94>
     698:	fdc42783          	lw	a5,-36(s0)
     69c:	0007c703          	lbu	a4,0(a5)
     6a0:	03900793          	li	a5,57
     6a4:	fae7f6e3          	bgeu	a5,a4,650 <exec_fib+0x3c>
     6a8:	00100793          	li	a5,1
     6ac:	fef42423          	sw	a5,-24(s0)
     6b0:	00100793          	li	a5,1
     6b4:	fef42223          	sw	a5,-28(s0)
     6b8:	00200793          	li	a5,2
     6bc:	fef42023          	sw	a5,-32(s0)
     6c0:	0300006f          	j	6f0 <exec_fib+0xdc>
     6c4:	fe442703          	lw	a4,-28(s0)
     6c8:	fe842783          	lw	a5,-24(s0)
     6cc:	00f707b3          	add	a5,a4,a5
     6d0:	fef42223          	sw	a5,-28(s0)
     6d4:	fe442703          	lw	a4,-28(s0)
     6d8:	fe842783          	lw	a5,-24(s0)
     6dc:	40f707b3          	sub	a5,a4,a5
     6e0:	fef42423          	sw	a5,-24(s0)
     6e4:	fe042783          	lw	a5,-32(s0)
     6e8:	00178793          	addi	a5,a5,1
     6ec:	fef42023          	sw	a5,-32(s0)
     6f0:	fe042703          	lw	a4,-32(s0)
     6f4:	fec42783          	lw	a5,-20(s0)
     6f8:	fce7d6e3          	bge	a5,a4,6c4 <exec_fib+0xb0>
     6fc:	fe442583          	lw	a1,-28(s0)
     700:	00100517          	auipc	a0,0x100
     704:	90050513          	addi	a0,a0,-1792 # 100000 <_etext+0xfa0c8>
     708:	259040ef          	jal	ra,5160 <kprintf>
     70c:	00000013          	nop
     710:	02c12083          	lw	ra,44(sp)
     714:	02812403          	lw	s0,40(sp)
     718:	03010113          	addi	sp,sp,48
     71c:	00008067          	ret

00000720 <exec_echo>:
     720:	fe010113          	addi	sp,sp,-32
     724:	00112e23          	sw	ra,28(sp)
     728:	00812c23          	sw	s0,24(sp)
     72c:	02010413          	addi	s0,sp,32
     730:	fea42623          	sw	a0,-20(s0)
     734:	0100006f          	j	744 <exec_echo+0x24>
     738:	fec42783          	lw	a5,-20(s0)
     73c:	00178793          	addi	a5,a5,1
     740:	fef42623          	sw	a5,-20(s0)
     744:	fec42783          	lw	a5,-20(s0)
     748:	0007c703          	lbu	a4,0(a5)
     74c:	02000793          	li	a5,32
     750:	fef704e3          	beq	a4,a5,738 <exec_echo+0x18>
     754:	fec42503          	lw	a0,-20(s0)
     758:	750050ef          	jal	ra,5ea8 <putstr>
     75c:	00a00513          	li	a0,10
     760:	468050ef          	jal	ra,5bc8 <putch>
     764:	00000013          	nop
     768:	01c12083          	lw	ra,28(sp)
     76c:	01812403          	lw	s0,24(sp)
     770:	02010113          	addi	sp,sp,32
     774:	00008067          	ret

00000778 <exec_clear>:
     778:	fe010113          	addi	sp,sp,-32
     77c:	00112e23          	sw	ra,28(sp)
     780:	00812c23          	sw	s0,24(sp)
     784:	02010413          	addi	s0,sp,32
     788:	fea42623          	sw	a0,-20(s0)
     78c:	268050ef          	jal	ra,59f4 <vga_init>
     790:	00000013          	nop
     794:	01c12083          	lw	ra,28(sp)
     798:	01812403          	lw	s0,24(sp)
     79c:	02010113          	addi	sp,sp,32
     7a0:	00008067          	ret

000007a4 <next_bracket>:
     7a4:	fd010113          	addi	sp,sp,-48
     7a8:	02812623          	sw	s0,44(sp)
     7ac:	03010413          	addi	s0,sp,48
     7b0:	fca42e23          	sw	a0,-36(s0)
     7b4:	00100793          	li	a5,1
     7b8:	fef42623          	sw	a5,-20(s0)
     7bc:	fdc42783          	lw	a5,-36(s0)
     7c0:	00178793          	addi	a5,a5,1
     7c4:	fcf42e23          	sw	a5,-36(s0)
     7c8:	0980006f          	j	860 <next_bracket+0xbc>
     7cc:	00100697          	auipc	a3,0x100
     7d0:	22c68693          	addi	a3,a3,556 # 1009f8 <tokens>
     7d4:	fdc42703          	lw	a4,-36(s0)
     7d8:	00070793          	mv	a5,a4
     7dc:	00179793          	slli	a5,a5,0x1
     7e0:	00e787b3          	add	a5,a5,a4
     7e4:	00279793          	slli	a5,a5,0x2
     7e8:	00f687b3          	add	a5,a3,a5
     7ec:	0007a703          	lw	a4,0(a5)
     7f0:	00100793          	li	a5,1
     7f4:	04f71e63          	bne	a4,a5,850 <next_bracket+0xac>
     7f8:	00100697          	auipc	a3,0x100
     7fc:	20068693          	addi	a3,a3,512 # 1009f8 <tokens>
     800:	fdc42703          	lw	a4,-36(s0)
     804:	00070793          	mv	a5,a4
     808:	00179793          	slli	a5,a5,0x1
     80c:	00e787b3          	add	a5,a5,a4
     810:	00279793          	slli	a5,a5,0x2
     814:	00f687b3          	add	a5,a3,a5
     818:	0047a783          	lw	a5,4(a5)
     81c:	02800713          	li	a4,40
     820:	00e78863          	beq	a5,a4,830 <next_bracket+0x8c>
     824:	02900713          	li	a4,41
     828:	00e78c63          	beq	a5,a4,840 <next_bracket+0x9c>
     82c:	0280006f          	j	854 <next_bracket+0xb0>
     830:	fec42783          	lw	a5,-20(s0)
     834:	00178793          	addi	a5,a5,1
     838:	fef42623          	sw	a5,-20(s0)
     83c:	0180006f          	j	854 <next_bracket+0xb0>
     840:	fec42783          	lw	a5,-20(s0)
     844:	fff78793          	addi	a5,a5,-1
     848:	fef42623          	sw	a5,-20(s0)
     84c:	0080006f          	j	854 <next_bracket+0xb0>
     850:	00000013          	nop
     854:	fdc42783          	lw	a5,-36(s0)
     858:	00178793          	addi	a5,a5,1
     85c:	fcf42e23          	sw	a5,-36(s0)
     860:	fec42783          	lw	a5,-20(s0)
     864:	f60794e3          	bnez	a5,7cc <next_bracket+0x28>
     868:	fdc42783          	lw	a5,-36(s0)
     86c:	00078513          	mv	a0,a5
     870:	02c12403          	lw	s0,44(sp)
     874:	03010113          	addi	sp,sp,48
     878:	00008067          	ret

0000087c <LB>:
     87c:	ff010113          	addi	sp,sp,-16
     880:	00812623          	sw	s0,12(sp)
     884:	00912423          	sw	s1,8(sp)
     888:	01010413          	addi	s0,sp,16
     88c:	00050493          	mv	s1,a0
     890:	0004a703          	lw	a4,0(s1)
     894:	00100793          	li	a5,1
     898:	00f71c63          	bne	a4,a5,8b0 <LB+0x34>
     89c:	0044a703          	lw	a4,4(s1)
     8a0:	02800793          	li	a5,40
     8a4:	00f71663          	bne	a4,a5,8b0 <LB+0x34>
     8a8:	00100793          	li	a5,1
     8ac:	0080006f          	j	8b4 <LB+0x38>
     8b0:	00000793          	li	a5,0
     8b4:	00078513          	mv	a0,a5
     8b8:	00c12403          	lw	s0,12(sp)
     8bc:	00812483          	lw	s1,8(sp)
     8c0:	01010113          	addi	sp,sp,16
     8c4:	00008067          	ret

000008c8 <RB>:
     8c8:	ff010113          	addi	sp,sp,-16
     8cc:	00812623          	sw	s0,12(sp)
     8d0:	00912423          	sw	s1,8(sp)
     8d4:	01010413          	addi	s0,sp,16
     8d8:	00050493          	mv	s1,a0
     8dc:	0004a703          	lw	a4,0(s1)
     8e0:	00100793          	li	a5,1
     8e4:	00f71c63          	bne	a4,a5,8fc <RB+0x34>
     8e8:	0044a703          	lw	a4,4(s1)
     8ec:	02900793          	li	a5,41
     8f0:	00f71663          	bne	a4,a5,8fc <RB+0x34>
     8f4:	00100793          	li	a5,1
     8f8:	0080006f          	j	900 <RB+0x38>
     8fc:	00000793          	li	a5,0
     900:	00078513          	mv	a0,a5
     904:	00c12403          	lw	s0,12(sp)
     908:	00812483          	lw	s1,8(sp)
     90c:	01010113          	addi	sp,sp,16
     910:	00008067          	ret

00000914 <ksm>:
     914:	fd010113          	addi	sp,sp,-48
     918:	02112623          	sw	ra,44(sp)
     91c:	02812423          	sw	s0,40(sp)
     920:	03010413          	addi	s0,sp,48
     924:	fca42e23          	sw	a0,-36(s0)
     928:	fcb42c23          	sw	a1,-40(s0)
     92c:	00100793          	li	a5,1
     930:	fef42623          	sw	a5,-20(s0)
     934:	0180006f          	j	94c <ksm+0x38>
     938:	fdc42583          	lw	a1,-36(s0)
     93c:	fec42503          	lw	a0,-20(s0)
     940:	3b5040ef          	jal	ra,54f4 <__mulsi3>
     944:	00050793          	mv	a5,a0
     948:	fef42623          	sw	a5,-20(s0)
     94c:	fd842783          	lw	a5,-40(s0)
     950:	fff78713          	addi	a4,a5,-1
     954:	fce42c23          	sw	a4,-40(s0)
     958:	fe0790e3          	bnez	a5,938 <ksm+0x24>
     95c:	fec42783          	lw	a5,-20(s0)
     960:	00078513          	mv	a0,a5
     964:	02c12083          	lw	ra,44(sp)
     968:	02812403          	lw	s0,40(sp)
     96c:	03010113          	addi	sp,sp,48
     970:	00008067          	ret

00000974 <eval>:
     974:	fc010113          	addi	sp,sp,-64
     978:	02112e23          	sw	ra,60(sp)
     97c:	02812c23          	sw	s0,56(sp)
     980:	04010413          	addi	s0,sp,64
     984:	fca42e23          	sw	a0,-36(s0)
     988:	fcb42c23          	sw	a1,-40(s0)
     98c:	fd842703          	lw	a4,-40(s0)
     990:	fdc42783          	lw	a5,-36(s0)
     994:	00e7c663          	blt	a5,a4,9a0 <eval+0x2c>
     998:	00000793          	li	a5,0
     99c:	3a80006f          	j	d44 <eval+0x3d0>
     9a0:	fdc42783          	lw	a5,-36(s0)
     9a4:	00178793          	addi	a5,a5,1
     9a8:	fd842703          	lw	a4,-40(s0)
     9ac:	02f71663          	bne	a4,a5,9d8 <eval+0x64>
     9b0:	00100697          	auipc	a3,0x100
     9b4:	04868693          	addi	a3,a3,72 # 1009f8 <tokens>
     9b8:	fdc42703          	lw	a4,-36(s0)
     9bc:	00070793          	mv	a5,a4
     9c0:	00179793          	slli	a5,a5,0x1
     9c4:	00e787b3          	add	a5,a5,a4
     9c8:	00279793          	slli	a5,a5,0x2
     9cc:	00f687b3          	add	a5,a3,a5
     9d0:	0087a783          	lw	a5,8(a5)
     9d4:	3700006f          	j	d44 <eval+0x3d0>
     9d8:	00100697          	auipc	a3,0x100
     9dc:	02068693          	addi	a3,a3,32 # 1009f8 <tokens>
     9e0:	fdc42703          	lw	a4,-36(s0)
     9e4:	00070793          	mv	a5,a4
     9e8:	00179793          	slli	a5,a5,0x1
     9ec:	00e787b3          	add	a5,a5,a4
     9f0:	00279793          	slli	a5,a5,0x2
     9f4:	00f687b3          	add	a5,a3,a5
     9f8:	0007a703          	lw	a4,0(a5)
     9fc:	fce42023          	sw	a4,-64(s0)
     a00:	0047a703          	lw	a4,4(a5)
     a04:	fce42223          	sw	a4,-60(s0)
     a08:	0087a783          	lw	a5,8(a5)
     a0c:	fcf42423          	sw	a5,-56(s0)
     a10:	fc040793          	addi	a5,s0,-64
     a14:	00078513          	mv	a0,a5
     a18:	e65ff0ef          	jal	ra,87c <LB>
     a1c:	00050793          	mv	a5,a0
     a20:	06078c63          	beqz	a5,a98 <eval+0x124>
     a24:	fd842783          	lw	a5,-40(s0)
     a28:	fff78713          	addi	a4,a5,-1
     a2c:	00100697          	auipc	a3,0x100
     a30:	fcc68693          	addi	a3,a3,-52 # 1009f8 <tokens>
     a34:	00070793          	mv	a5,a4
     a38:	00179793          	slli	a5,a5,0x1
     a3c:	00e787b3          	add	a5,a5,a4
     a40:	00279793          	slli	a5,a5,0x2
     a44:	00f687b3          	add	a5,a3,a5
     a48:	0007a703          	lw	a4,0(a5)
     a4c:	fce42023          	sw	a4,-64(s0)
     a50:	0047a703          	lw	a4,4(a5)
     a54:	fce42223          	sw	a4,-60(s0)
     a58:	0087a783          	lw	a5,8(a5)
     a5c:	fcf42423          	sw	a5,-56(s0)
     a60:	fc040793          	addi	a5,s0,-64
     a64:	00078513          	mv	a0,a5
     a68:	e61ff0ef          	jal	ra,8c8 <RB>
     a6c:	00050793          	mv	a5,a0
     a70:	02078463          	beqz	a5,a98 <eval+0x124>
     a74:	fdc42783          	lw	a5,-36(s0)
     a78:	00178713          	addi	a4,a5,1
     a7c:	fd842783          	lw	a5,-40(s0)
     a80:	fff78793          	addi	a5,a5,-1
     a84:	00078593          	mv	a1,a5
     a88:	00070513          	mv	a0,a4
     a8c:	ee9ff0ef          	jal	ra,974 <eval>
     a90:	00050793          	mv	a5,a0
     a94:	2b00006f          	j	d44 <eval+0x3d0>
     a98:	fdc42783          	lw	a5,-36(s0)
     a9c:	fef42623          	sw	a5,-20(s0)
     aa0:	fff00793          	li	a5,-1
     aa4:	fef42423          	sw	a5,-24(s0)
     aa8:	1980006f          	j	c40 <eval+0x2cc>
     aac:	00100697          	auipc	a3,0x100
     ab0:	f4c68693          	addi	a3,a3,-180 # 1009f8 <tokens>
     ab4:	fec42703          	lw	a4,-20(s0)
     ab8:	00070793          	mv	a5,a4
     abc:	00179793          	slli	a5,a5,0x1
     ac0:	00e787b3          	add	a5,a5,a4
     ac4:	00279793          	slli	a5,a5,0x2
     ac8:	00f687b3          	add	a5,a3,a5
     acc:	0007a703          	lw	a4,0(a5)
     ad0:	fce42023          	sw	a4,-64(s0)
     ad4:	0047a703          	lw	a4,4(a5)
     ad8:	fce42223          	sw	a4,-60(s0)
     adc:	0087a783          	lw	a5,8(a5)
     ae0:	fcf42423          	sw	a5,-56(s0)
     ae4:	fc040793          	addi	a5,s0,-64
     ae8:	00078513          	mv	a0,a5
     aec:	d91ff0ef          	jal	ra,87c <LB>
     af0:	00050793          	mv	a5,a0
     af4:	00078e63          	beqz	a5,b10 <eval+0x19c>
     af8:	fec42503          	lw	a0,-20(s0)
     afc:	ca9ff0ef          	jal	ra,7a4 <next_bracket>
     b00:	fea42623          	sw	a0,-20(s0)
     b04:	fec42703          	lw	a4,-20(s0)
     b08:	fd842783          	lw	a5,-40(s0)
     b0c:	14f70263          	beq	a4,a5,c50 <eval+0x2dc>
     b10:	00100697          	auipc	a3,0x100
     b14:	ee868693          	addi	a3,a3,-280 # 1009f8 <tokens>
     b18:	fec42703          	lw	a4,-20(s0)
     b1c:	00070793          	mv	a5,a4
     b20:	00179793          	slli	a5,a5,0x1
     b24:	00e787b3          	add	a5,a5,a4
     b28:	00279793          	slli	a5,a5,0x2
     b2c:	00f687b3          	add	a5,a3,a5
     b30:	0007a783          	lw	a5,0(a5)
     b34:	0e078e63          	beqz	a5,c30 <eval+0x2bc>
     b38:	fe842703          	lw	a4,-24(s0)
     b3c:	fff00793          	li	a5,-1
     b40:	06f70c63          	beq	a4,a5,bb8 <eval+0x244>
     b44:	00100697          	auipc	a3,0x100
     b48:	eb468693          	addi	a3,a3,-332 # 1009f8 <tokens>
     b4c:	fec42703          	lw	a4,-20(s0)
     b50:	00070793          	mv	a5,a4
     b54:	00179793          	slli	a5,a5,0x1
     b58:	00e787b3          	add	a5,a5,a4
     b5c:	00279793          	slli	a5,a5,0x2
     b60:	00f687b3          	add	a5,a3,a5
     b64:	0047a783          	lw	a5,4(a5)
     b68:	00100717          	auipc	a4,0x100
     b6c:	9e070713          	addi	a4,a4,-1568 # 100548 <prior>
     b70:	00279793          	slli	a5,a5,0x2
     b74:	00f707b3          	add	a5,a4,a5
     b78:	0007a683          	lw	a3,0(a5)
     b7c:	00100617          	auipc	a2,0x100
     b80:	e7c60613          	addi	a2,a2,-388 # 1009f8 <tokens>
     b84:	fe842703          	lw	a4,-24(s0)
     b88:	00070793          	mv	a5,a4
     b8c:	00179793          	slli	a5,a5,0x1
     b90:	00e787b3          	add	a5,a5,a4
     b94:	00279793          	slli	a5,a5,0x2
     b98:	00f607b3          	add	a5,a2,a5
     b9c:	0047a783          	lw	a5,4(a5)
     ba0:	00100717          	auipc	a4,0x100
     ba4:	9a870713          	addi	a4,a4,-1624 # 100548 <prior>
     ba8:	00279793          	slli	a5,a5,0x2
     bac:	00f707b3          	add	a5,a4,a5
     bb0:	0007a783          	lw	a5,0(a5)
     bb4:	00f6d663          	bge	a3,a5,bc0 <eval+0x24c>
     bb8:	fec42783          	lw	a5,-20(s0)
     bbc:	fef42423          	sw	a5,-24(s0)
     bc0:	fe842703          	lw	a4,-24(s0)
     bc4:	fff00793          	li	a5,-1
     bc8:	06f70663          	beq	a4,a5,c34 <eval+0x2c0>
     bcc:	00100697          	auipc	a3,0x100
     bd0:	e2c68693          	addi	a3,a3,-468 # 1009f8 <tokens>
     bd4:	fe842703          	lw	a4,-24(s0)
     bd8:	00070793          	mv	a5,a4
     bdc:	00179793          	slli	a5,a5,0x1
     be0:	00e787b3          	add	a5,a5,a4
     be4:	00279793          	slli	a5,a5,0x2
     be8:	00f687b3          	add	a5,a3,a5
     bec:	0047a703          	lw	a4,4(a5)
     bf0:	02d00793          	li	a5,45
     bf4:	04f71063          	bne	a4,a5,c34 <eval+0x2c0>
     bf8:	00100697          	auipc	a3,0x100
     bfc:	e0068693          	addi	a3,a3,-512 # 1009f8 <tokens>
     c00:	fec42703          	lw	a4,-20(s0)
     c04:	00070793          	mv	a5,a4
     c08:	00179793          	slli	a5,a5,0x1
     c0c:	00e787b3          	add	a5,a5,a4
     c10:	00279793          	slli	a5,a5,0x2
     c14:	00f687b3          	add	a5,a3,a5
     c18:	0047a703          	lw	a4,4(a5)
     c1c:	02b00793          	li	a5,43
     c20:	00f71a63          	bne	a4,a5,c34 <eval+0x2c0>
     c24:	fec42783          	lw	a5,-20(s0)
     c28:	fef42423          	sw	a5,-24(s0)
     c2c:	0080006f          	j	c34 <eval+0x2c0>
     c30:	00000013          	nop
     c34:	fec42783          	lw	a5,-20(s0)
     c38:	00178793          	addi	a5,a5,1
     c3c:	fef42623          	sw	a5,-20(s0)
     c40:	fec42703          	lw	a4,-20(s0)
     c44:	fd842783          	lw	a5,-40(s0)
     c48:	e6f712e3          	bne	a4,a5,aac <eval+0x138>
     c4c:	0080006f          	j	c54 <eval+0x2e0>
     c50:	00000013          	nop
     c54:	fe842583          	lw	a1,-24(s0)
     c58:	fdc42503          	lw	a0,-36(s0)
     c5c:	d19ff0ef          	jal	ra,974 <eval>
     c60:	fea42223          	sw	a0,-28(s0)
     c64:	fe842783          	lw	a5,-24(s0)
     c68:	00178793          	addi	a5,a5,1
     c6c:	fd842583          	lw	a1,-40(s0)
     c70:	00078513          	mv	a0,a5
     c74:	d01ff0ef          	jal	ra,974 <eval>
     c78:	fea42023          	sw	a0,-32(s0)
     c7c:	00100697          	auipc	a3,0x100
     c80:	d7c68693          	addi	a3,a3,-644 # 1009f8 <tokens>
     c84:	fe842703          	lw	a4,-24(s0)
     c88:	00070793          	mv	a5,a4
     c8c:	00179793          	slli	a5,a5,0x1
     c90:	00e787b3          	add	a5,a5,a4
     c94:	00279793          	slli	a5,a5,0x2
     c98:	00f687b3          	add	a5,a3,a5
     c9c:	0047a783          	lw	a5,4(a5)
     ca0:	05e00713          	li	a4,94
     ca4:	04e78063          	beq	a5,a4,ce4 <eval+0x370>
     ca8:	05e00713          	li	a4,94
     cac:	08f74a63          	blt	a4,a5,d40 <eval+0x3cc>
     cb0:	02f00713          	li	a4,47
     cb4:	04e78c63          	beq	a5,a4,d0c <eval+0x398>
     cb8:	02f00713          	li	a4,47
     cbc:	08f74263          	blt	a4,a5,d40 <eval+0x3cc>
     cc0:	02d00713          	li	a4,45
     cc4:	06e78663          	beq	a5,a4,d30 <eval+0x3bc>
     cc8:	02d00713          	li	a4,45
     ccc:	06f74a63          	blt	a4,a5,d40 <eval+0x3cc>
     cd0:	02a00713          	li	a4,42
     cd4:	02e78263          	beq	a5,a4,cf8 <eval+0x384>
     cd8:	02b00713          	li	a4,43
     cdc:	04e78263          	beq	a5,a4,d20 <eval+0x3ac>
     ce0:	0600006f          	j	d40 <eval+0x3cc>
     ce4:	fe042583          	lw	a1,-32(s0)
     ce8:	fe442503          	lw	a0,-28(s0)
     cec:	c29ff0ef          	jal	ra,914 <ksm>
     cf0:	00050793          	mv	a5,a0
     cf4:	0500006f          	j	d44 <eval+0x3d0>
     cf8:	fe042583          	lw	a1,-32(s0)
     cfc:	fe442503          	lw	a0,-28(s0)
     d00:	7f4040ef          	jal	ra,54f4 <__mulsi3>
     d04:	00050793          	mv	a5,a0
     d08:	03c0006f          	j	d44 <eval+0x3d0>
     d0c:	fe042583          	lw	a1,-32(s0)
     d10:	fe442503          	lw	a0,-28(s0)
     d14:	1c5040ef          	jal	ra,56d8 <__divsi3>
     d18:	00050793          	mv	a5,a0
     d1c:	0280006f          	j	d44 <eval+0x3d0>
     d20:	fe442703          	lw	a4,-28(s0)
     d24:	fe042783          	lw	a5,-32(s0)
     d28:	00f707b3          	add	a5,a4,a5
     d2c:	0180006f          	j	d44 <eval+0x3d0>
     d30:	fe442703          	lw	a4,-28(s0)
     d34:	fe042783          	lw	a5,-32(s0)
     d38:	40f707b3          	sub	a5,a4,a5
     d3c:	0080006f          	j	d44 <eval+0x3d0>
     d40:	00000793          	li	a5,0
     d44:	00078513          	mv	a0,a5
     d48:	03c12083          	lw	ra,60(sp)
     d4c:	03812403          	lw	s0,56(sp)
     d50:	04010113          	addi	sp,sp,64
     d54:	00008067          	ret

00000d58 <parse>:
     d58:	fa010113          	addi	sp,sp,-96
     d5c:	04812e23          	sw	s0,92(sp)
     d60:	06010413          	addi	s0,sp,96
     d64:	faa42623          	sw	a0,-84(s0)
     d68:	fab42423          	sw	a1,-88(s0)
     d6c:	fe042623          	sw	zero,-20(s0)
     d70:	fe042423          	sw	zero,-24(s0)
     d74:	fac42783          	lw	a5,-84(s0)
     d78:	fef42223          	sw	a5,-28(s0)
     d7c:	1a80006f          	j	f24 <parse+0x1cc>
     d80:	fe442783          	lw	a5,-28(s0)
     d84:	0007c783          	lbu	a5,0(a5)
     d88:	fef401a3          	sb	a5,-29(s0)
     d8c:	fe344703          	lbu	a4,-29(s0)
     d90:	02f00793          	li	a5,47
     d94:	04e7f263          	bgeu	a5,a4,dd8 <parse+0x80>
     d98:	fe344703          	lbu	a4,-29(s0)
     d9c:	03900793          	li	a5,57
     da0:	02e7ec63          	bltu	a5,a4,dd8 <parse+0x80>
     da4:	fec42703          	lw	a4,-20(s0)
     da8:	00070793          	mv	a5,a4
     dac:	00279793          	slli	a5,a5,0x2
     db0:	00e787b3          	add	a5,a5,a4
     db4:	00179793          	slli	a5,a5,0x1
     db8:	00078713          	mv	a4,a5
     dbc:	fe344783          	lbu	a5,-29(s0)
     dc0:	00f707b3          	add	a5,a4,a5
     dc4:	fd078793          	addi	a5,a5,-48
     dc8:	fef42623          	sw	a5,-20(s0)
     dcc:	00100793          	li	a5,1
     dd0:	fef42423          	sw	a5,-24(s0)
     dd4:	1440006f          	j	f18 <parse+0x1c0>
     dd8:	fe842783          	lw	a5,-24(s0)
     ddc:	08078863          	beqz	a5,e6c <parse+0x114>
     de0:	00105797          	auipc	a5,0x105
     de4:	81c78793          	addi	a5,a5,-2020 # 1055fc <ntok>
     de8:	0007a703          	lw	a4,0(a5)
     dec:	00170693          	addi	a3,a4,1
     df0:	00105797          	auipc	a5,0x105
     df4:	80c78793          	addi	a5,a5,-2036 # 1055fc <ntok>
     df8:	00d7a023          	sw	a3,0(a5)
     dfc:	00100697          	auipc	a3,0x100
     e00:	bfc68693          	addi	a3,a3,-1028 # 1009f8 <tokens>
     e04:	00070793          	mv	a5,a4
     e08:	00179793          	slli	a5,a5,0x1
     e0c:	00e787b3          	add	a5,a5,a4
     e10:	00279793          	slli	a5,a5,0x2
     e14:	00f687b3          	add	a5,a3,a5
     e18:	0007a023          	sw	zero,0(a5)
     e1c:	00100697          	auipc	a3,0x100
     e20:	bdc68693          	addi	a3,a3,-1060 # 1009f8 <tokens>
     e24:	00070793          	mv	a5,a4
     e28:	00179793          	slli	a5,a5,0x1
     e2c:	00e787b3          	add	a5,a5,a4
     e30:	00279793          	slli	a5,a5,0x2
     e34:	00f687b3          	add	a5,a3,a5
     e38:	fff00693          	li	a3,-1
     e3c:	00d7a223          	sw	a3,4(a5)
     e40:	00100697          	auipc	a3,0x100
     e44:	bb868693          	addi	a3,a3,-1096 # 1009f8 <tokens>
     e48:	00070793          	mv	a5,a4
     e4c:	00179793          	slli	a5,a5,0x1
     e50:	00e787b3          	add	a5,a5,a4
     e54:	00279793          	slli	a5,a5,0x2
     e58:	00f687b3          	add	a5,a3,a5
     e5c:	fec42703          	lw	a4,-20(s0)
     e60:	00e7a423          	sw	a4,8(a5)
     e64:	fe042623          	sw	zero,-20(s0)
     e68:	fe042423          	sw	zero,-24(s0)
     e6c:	fe344703          	lbu	a4,-29(s0)
     e70:	02000793          	li	a5,32
     e74:	0af70263          	beq	a4,a5,f18 <parse+0x1c0>
     e78:	fe344703          	lbu	a4,-29(s0)
     e7c:	00a00793          	li	a5,10
     e80:	08f70c63          	beq	a4,a5,f18 <parse+0x1c0>
     e84:	fe344703          	lbu	a4,-29(s0)
     e88:	00900793          	li	a5,9
     e8c:	08f70663          	beq	a4,a5,f18 <parse+0x1c0>
     e90:	00104797          	auipc	a5,0x104
     e94:	76c78793          	addi	a5,a5,1900 # 1055fc <ntok>
     e98:	0007a703          	lw	a4,0(a5)
     e9c:	00170693          	addi	a3,a4,1
     ea0:	00104797          	auipc	a5,0x104
     ea4:	75c78793          	addi	a5,a5,1884 # 1055fc <ntok>
     ea8:	00d7a023          	sw	a3,0(a5)
     eac:	fe344683          	lbu	a3,-29(s0)
     eb0:	00100617          	auipc	a2,0x100
     eb4:	b4860613          	addi	a2,a2,-1208 # 1009f8 <tokens>
     eb8:	00070793          	mv	a5,a4
     ebc:	00179793          	slli	a5,a5,0x1
     ec0:	00e787b3          	add	a5,a5,a4
     ec4:	00279793          	slli	a5,a5,0x2
     ec8:	00f607b3          	add	a5,a2,a5
     ecc:	00100613          	li	a2,1
     ed0:	00c7a023          	sw	a2,0(a5)
     ed4:	00100617          	auipc	a2,0x100
     ed8:	b2460613          	addi	a2,a2,-1244 # 1009f8 <tokens>
     edc:	00070793          	mv	a5,a4
     ee0:	00179793          	slli	a5,a5,0x1
     ee4:	00e787b3          	add	a5,a5,a4
     ee8:	00279793          	slli	a5,a5,0x2
     eec:	00f607b3          	add	a5,a2,a5
     ef0:	00d7a223          	sw	a3,4(a5)
     ef4:	00100697          	auipc	a3,0x100
     ef8:	b0468693          	addi	a3,a3,-1276 # 1009f8 <tokens>
     efc:	00070793          	mv	a5,a4
     f00:	00179793          	slli	a5,a5,0x1
     f04:	00e787b3          	add	a5,a5,a4
     f08:	00279793          	slli	a5,a5,0x2
     f0c:	00f687b3          	add	a5,a3,a5
     f10:	fff00713          	li	a4,-1
     f14:	00e7a423          	sw	a4,8(a5)
     f18:	fe442783          	lw	a5,-28(s0)
     f1c:	00178793          	addi	a5,a5,1
     f20:	fef42223          	sw	a5,-28(s0)
     f24:	fa842783          	lw	a5,-88(s0)
     f28:	fac42703          	lw	a4,-84(s0)
     f2c:	00f707b3          	add	a5,a4,a5
     f30:	fe442703          	lw	a4,-28(s0)
     f34:	e4f716e3          	bne	a4,a5,d80 <parse+0x28>
     f38:	fe842783          	lw	a5,-24(s0)
     f3c:	08078463          	beqz	a5,fc4 <parse+0x26c>
     f40:	00104797          	auipc	a5,0x104
     f44:	6bc78793          	addi	a5,a5,1724 # 1055fc <ntok>
     f48:	0007a703          	lw	a4,0(a5)
     f4c:	00170693          	addi	a3,a4,1
     f50:	00104797          	auipc	a5,0x104
     f54:	6ac78793          	addi	a5,a5,1708 # 1055fc <ntok>
     f58:	00d7a023          	sw	a3,0(a5)
     f5c:	00100697          	auipc	a3,0x100
     f60:	a9c68693          	addi	a3,a3,-1380 # 1009f8 <tokens>
     f64:	00070793          	mv	a5,a4
     f68:	00179793          	slli	a5,a5,0x1
     f6c:	00e787b3          	add	a5,a5,a4
     f70:	00279793          	slli	a5,a5,0x2
     f74:	00f687b3          	add	a5,a3,a5
     f78:	0007a023          	sw	zero,0(a5)
     f7c:	00100697          	auipc	a3,0x100
     f80:	a7c68693          	addi	a3,a3,-1412 # 1009f8 <tokens>
     f84:	00070793          	mv	a5,a4
     f88:	00179793          	slli	a5,a5,0x1
     f8c:	00e787b3          	add	a5,a5,a4
     f90:	00279793          	slli	a5,a5,0x2
     f94:	00f687b3          	add	a5,a3,a5
     f98:	fff00693          	li	a3,-1
     f9c:	00d7a223          	sw	a3,4(a5)
     fa0:	00100697          	auipc	a3,0x100
     fa4:	a5868693          	addi	a3,a3,-1448 # 1009f8 <tokens>
     fa8:	00070793          	mv	a5,a4
     fac:	00179793          	slli	a5,a5,0x1
     fb0:	00e787b3          	add	a5,a5,a4
     fb4:	00279793          	slli	a5,a5,0x2
     fb8:	00f687b3          	add	a5,a3,a5
     fbc:	fec42703          	lw	a4,-20(s0)
     fc0:	00e7a423          	sw	a4,8(a5)
     fc4:	00000013          	nop
     fc8:	05c12403          	lw	s0,92(sp)
     fcc:	06010113          	addi	sp,sp,96
     fd0:	00008067          	ret

00000fd4 <exec_eval>:
     fd4:	fe010113          	addi	sp,sp,-32
     fd8:	00112e23          	sw	ra,28(sp)
     fdc:	00812c23          	sw	s0,24(sp)
     fe0:	02010413          	addi	s0,sp,32
     fe4:	fea42623          	sw	a0,-20(s0)
     fe8:	0100006f          	j	ff8 <exec_eval+0x24>
     fec:	fec42783          	lw	a5,-20(s0)
     ff0:	00178793          	addi	a5,a5,1
     ff4:	fef42623          	sw	a5,-20(s0)
     ff8:	fec42783          	lw	a5,-20(s0)
     ffc:	0007c703          	lbu	a4,0(a5)
    1000:	02000793          	li	a5,32
    1004:	fef704e3          	beq	a4,a5,fec <exec_eval+0x18>
    1008:	00104797          	auipc	a5,0x104
    100c:	5f478793          	addi	a5,a5,1524 # 1055fc <ntok>
    1010:	0007a023          	sw	zero,0(a5)
    1014:	fec42503          	lw	a0,-20(s0)
    1018:	2f4040ef          	jal	ra,530c <kstrlen>
    101c:	00050793          	mv	a5,a0
    1020:	00078593          	mv	a1,a5
    1024:	fec42503          	lw	a0,-20(s0)
    1028:	d31ff0ef          	jal	ra,d58 <parse>
    102c:	00104797          	auipc	a5,0x104
    1030:	5d078793          	addi	a5,a5,1488 # 1055fc <ntok>
    1034:	0007a783          	lw	a5,0(a5)
    1038:	00078593          	mv	a1,a5
    103c:	00000513          	li	a0,0
    1040:	935ff0ef          	jal	ra,974 <eval>
    1044:	00050793          	mv	a5,a0
    1048:	00078593          	mv	a1,a5
    104c:	000ff517          	auipc	a0,0xff
    1050:	fb450513          	addi	a0,a0,-76 # 100000 <_etext+0xfa0c8>
    1054:	10c040ef          	jal	ra,5160 <kprintf>
    1058:	00000013          	nop
    105c:	01c12083          	lw	ra,28(sp)
    1060:	01812403          	lw	s0,24(sp)
    1064:	02010113          	addi	sp,sp,32
    1068:	00008067          	ret

0000106c <exec_gtest>:
    106c:	fd010113          	addi	sp,sp,-48
    1070:	02112623          	sw	ra,44(sp)
    1074:	02812423          	sw	s0,40(sp)
    1078:	03010413          	addi	s0,sp,48
    107c:	fca42e23          	sw	a0,-36(s0)
    1080:	0d5040ef          	jal	ra,5954 <swtch>
    1084:	00ff07b7          	lui	a5,0xff0
    1088:	fef42623          	sw	a5,-20(s0)
    108c:	770040ef          	jal	ra,57fc <gettimeofday>
    1090:	fea42423          	sw	a0,-24(s0)
    1094:	00f00613          	li	a2,15
    1098:	00000593          	li	a1,0
    109c:	00000513          	li	a0,0
    10a0:	788040ef          	jal	ra,5828 <draw>
    10a4:	00f00613          	li	a2,15
    10a8:	00100593          	li	a1,1
    10ac:	00000513          	li	a0,0
    10b0:	778040ef          	jal	ra,5828 <draw>
    10b4:	00f00613          	li	a2,15
    10b8:	00200593          	li	a1,2
    10bc:	00000513          	li	a0,0
    10c0:	768040ef          	jal	ra,5828 <draw>
    10c4:	00f00613          	li	a2,15
    10c8:	00300593          	li	a1,3
    10cc:	00000513          	li	a0,0
    10d0:	758040ef          	jal	ra,5828 <draw>
    10d4:	00f00613          	li	a2,15
    10d8:	00000593          	li	a1,0
    10dc:	00100513          	li	a0,1
    10e0:	748040ef          	jal	ra,5828 <draw>
    10e4:	00f00613          	li	a2,15
    10e8:	00100593          	li	a1,1
    10ec:	00100513          	li	a0,1
    10f0:	738040ef          	jal	ra,5828 <draw>
    10f4:	00f00613          	li	a2,15
    10f8:	00200593          	li	a1,2
    10fc:	00100513          	li	a0,1
    1100:	728040ef          	jal	ra,5828 <draw>
    1104:	00f00613          	li	a2,15
    1108:	00300593          	li	a1,3
    110c:	00100513          	li	a0,1
    1110:	718040ef          	jal	ra,5828 <draw>
    1114:	00f00613          	li	a2,15
    1118:	00000593          	li	a1,0
    111c:	00200513          	li	a0,2
    1120:	708040ef          	jal	ra,5828 <draw>
    1124:	00f00613          	li	a2,15
    1128:	00100593          	li	a1,1
    112c:	00200513          	li	a0,2
    1130:	6f8040ef          	jal	ra,5828 <draw>
    1134:	00f00613          	li	a2,15
    1138:	00200593          	li	a1,2
    113c:	00200513          	li	a0,2
    1140:	6e8040ef          	jal	ra,5828 <draw>
    1144:	00f00613          	li	a2,15
    1148:	00300593          	li	a1,3
    114c:	00200513          	li	a0,2
    1150:	6d8040ef          	jal	ra,5828 <draw>
    1154:	00f00613          	li	a2,15
    1158:	00000593          	li	a1,0
    115c:	00300513          	li	a0,3
    1160:	6c8040ef          	jal	ra,5828 <draw>
    1164:	00f00613          	li	a2,15
    1168:	00100593          	li	a1,1
    116c:	00300513          	li	a0,3
    1170:	6b8040ef          	jal	ra,5828 <draw>
    1174:	00f00613          	li	a2,15
    1178:	00200593          	li	a1,2
    117c:	00300513          	li	a0,3
    1180:	6a8040ef          	jal	ra,5828 <draw>
    1184:	00f00613          	li	a2,15
    1188:	00300593          	li	a1,3
    118c:	00300513          	li	a0,3
    1190:	698040ef          	jal	ra,5828 <draw>
    1194:	00f00613          	li	a2,15
    1198:	00000593          	li	a1,0
    119c:	00400513          	li	a0,4
    11a0:	688040ef          	jal	ra,5828 <draw>
    11a4:	00f00613          	li	a2,15
    11a8:	00100593          	li	a1,1
    11ac:	00400513          	li	a0,4
    11b0:	678040ef          	jal	ra,5828 <draw>
    11b4:	00f00613          	li	a2,15
    11b8:	00200593          	li	a1,2
    11bc:	00400513          	li	a0,4
    11c0:	668040ef          	jal	ra,5828 <draw>
    11c4:	00f00613          	li	a2,15
    11c8:	00300593          	li	a1,3
    11cc:	00400513          	li	a0,4
    11d0:	658040ef          	jal	ra,5828 <draw>
    11d4:	00f00613          	li	a2,15
    11d8:	00000593          	li	a1,0
    11dc:	00500513          	li	a0,5
    11e0:	648040ef          	jal	ra,5828 <draw>
    11e4:	00f00613          	li	a2,15
    11e8:	00100593          	li	a1,1
    11ec:	00500513          	li	a0,5
    11f0:	638040ef          	jal	ra,5828 <draw>
    11f4:	00f00613          	li	a2,15
    11f8:	00200593          	li	a1,2
    11fc:	00500513          	li	a0,5
    1200:	628040ef          	jal	ra,5828 <draw>
    1204:	00f00613          	li	a2,15
    1208:	00300593          	li	a1,3
    120c:	00500513          	li	a0,5
    1210:	618040ef          	jal	ra,5828 <draw>
    1214:	fe042223          	sw	zero,-28(s0)
    1218:	fe042023          	sw	zero,-32(s0)
    121c:	4ed040ef          	jal	ra,5f08 <readkey>
    1220:	00050793          	mv	a5,a0
    1224:	00078663          	beqz	a5,1230 <exec_gtest+0x1c4>
    1228:	72c040ef          	jal	ra,5954 <swtch>
    122c:	08c0006f          	j	12b8 <exec_gtest+0x24c>
    1230:	5cc040ef          	jal	ra,57fc <gettimeofday>
    1234:	00050713          	mv	a4,a0
    1238:	fe842783          	lw	a5,-24(s0)
    123c:	40f70733          	sub	a4,a4,a5
    1240:	000027b7          	lui	a5,0x2
    1244:	71078793          	addi	a5,a5,1808 # 2710 <core_list_mergesort+0x1f0>
    1248:	04e7fe63          	bgeu	a5,a4,12a4 <exec_gtest+0x238>
    124c:	5b0040ef          	jal	ra,57fc <gettimeofday>
    1250:	fea42423          	sw	a0,-24(s0)
    1254:	fec42703          	lw	a4,-20(s0)
    1258:	00f00793          	li	a5,15
    125c:	00f71a63          	bne	a4,a5,1270 <exec_gtest+0x204>
    1260:	000017b7          	lui	a5,0x1
    1264:	f0078793          	addi	a5,a5,-256 # f00 <parse+0x1a8>
    1268:	fef42623          	sw	a5,-20(s0)
    126c:	0100006f          	j	127c <exec_gtest+0x210>
    1270:	fec42783          	lw	a5,-20(s0)
    1274:	0047d793          	srli	a5,a5,0x4
    1278:	fef42623          	sw	a5,-20(s0)
    127c:	fe042783          	lw	a5,-32(s0)
    1280:	00178793          	addi	a5,a5,1
    1284:	07f7f793          	andi	a5,a5,127
    1288:	fef42023          	sw	a5,-32(s0)
    128c:	fe042783          	lw	a5,-32(s0)
    1290:	00079a63          	bnez	a5,12a4 <exec_gtest+0x238>
    1294:	fe442783          	lw	a5,-28(s0)
    1298:	00178793          	addi	a5,a5,1
    129c:	07f7f793          	andi	a5,a5,127
    12a0:	fef42223          	sw	a5,-28(s0)
    12a4:	fec42603          	lw	a2,-20(s0)
    12a8:	fe042583          	lw	a1,-32(s0)
    12ac:	fe442503          	lw	a0,-28(s0)
    12b0:	578040ef          	jal	ra,5828 <draw>
    12b4:	f69ff06f          	j	121c <exec_gtest+0x1b0>
    12b8:	02c12083          	lw	ra,44(sp)
    12bc:	02812403          	lw	s0,40(sp)
    12c0:	03010113          	addi	sp,sp,48
    12c4:	00008067          	ret

000012c8 <pixel>:
    12c8:	fe010113          	addi	sp,sp,-32
    12cc:	00812e23          	sw	s0,28(sp)
    12d0:	02010413          	addi	s0,sp,32
    12d4:	fea42623          	sw	a0,-20(s0)
    12d8:	feb42423          	sw	a1,-24(s0)
    12dc:	fec42223          	sw	a2,-28(s0)
    12e0:	fec42783          	lw	a5,-20(s0)
    12e4:	01079713          	slli	a4,a5,0x10
    12e8:	fe842783          	lw	a5,-24(s0)
    12ec:	00879793          	slli	a5,a5,0x8
    12f0:	00f76733          	or	a4,a4,a5
    12f4:	fe442783          	lw	a5,-28(s0)
    12f8:	00f767b3          	or	a5,a4,a5
    12fc:	00078513          	mv	a0,a5
    1300:	01c12403          	lw	s0,28(sp)
    1304:	02010113          	addi	sp,sp,32
    1308:	00008067          	ret

0000130c <R>:
    130c:	fe010113          	addi	sp,sp,-32
    1310:	00812e23          	sw	s0,28(sp)
    1314:	02010413          	addi	s0,sp,32
    1318:	fea42623          	sw	a0,-20(s0)
    131c:	fec42783          	lw	a5,-20(s0)
    1320:	0107d793          	srli	a5,a5,0x10
    1324:	00078513          	mv	a0,a5
    1328:	01c12403          	lw	s0,28(sp)
    132c:	02010113          	addi	sp,sp,32
    1330:	00008067          	ret

00001334 <G>:
    1334:	fe010113          	addi	sp,sp,-32
    1338:	00812e23          	sw	s0,28(sp)
    133c:	02010413          	addi	s0,sp,32
    1340:	fea42623          	sw	a0,-20(s0)
    1344:	fec42783          	lw	a5,-20(s0)
    1348:	0087d793          	srli	a5,a5,0x8
    134c:	0ff7f793          	andi	a5,a5,255
    1350:	00078513          	mv	a0,a5
    1354:	01c12403          	lw	s0,28(sp)
    1358:	02010113          	addi	sp,sp,32
    135c:	00008067          	ret

00001360 <B>:
    1360:	fe010113          	addi	sp,sp,-32
    1364:	00812e23          	sw	s0,28(sp)
    1368:	02010413          	addi	s0,sp,32
    136c:	fea42623          	sw	a0,-20(s0)
    1370:	fec42783          	lw	a5,-20(s0)
    1374:	0ff7f793          	andi	a5,a5,255
    1378:	00078513          	mv	a0,a5
    137c:	01c12403          	lw	s0,28(sp)
    1380:	02010113          	addi	sp,sp,32
    1384:	00008067          	ret

00001388 <convert>:
    1388:	fd010113          	addi	sp,sp,-48
    138c:	02112623          	sw	ra,44(sp)
    1390:	02812423          	sw	s0,40(sp)
    1394:	03010413          	addi	s0,sp,48
    1398:	fca42e23          	sw	a0,-36(s0)
    139c:	fdc42503          	lw	a0,-36(s0)
    13a0:	f6dff0ef          	jal	ra,130c <R>
    13a4:	00050793          	mv	a5,a0
    13a8:	0047d793          	srli	a5,a5,0x4
    13ac:	fef42623          	sw	a5,-20(s0)
    13b0:	fdc42503          	lw	a0,-36(s0)
    13b4:	f81ff0ef          	jal	ra,1334 <G>
    13b8:	00050793          	mv	a5,a0
    13bc:	0047d793          	srli	a5,a5,0x4
    13c0:	fef42423          	sw	a5,-24(s0)
    13c4:	fdc42503          	lw	a0,-36(s0)
    13c8:	f99ff0ef          	jal	ra,1360 <B>
    13cc:	00050793          	mv	a5,a0
    13d0:	0047d793          	srli	a5,a5,0x4
    13d4:	fef42223          	sw	a5,-28(s0)
    13d8:	fec42783          	lw	a5,-20(s0)
    13dc:	00879713          	slli	a4,a5,0x8
    13e0:	fe842783          	lw	a5,-24(s0)
    13e4:	00479793          	slli	a5,a5,0x4
    13e8:	00f76733          	or	a4,a4,a5
    13ec:	fe442783          	lw	a5,-28(s0)
    13f0:	00f767b3          	or	a5,a4,a5
    13f4:	00078513          	mv	a0,a5
    13f8:	02c12083          	lw	ra,44(sp)
    13fc:	02812403          	lw	s0,40(sp)
    1400:	03010113          	addi	sp,sp,48
    1404:	00008067          	ret

00001408 <redraw>:
    1408:	fd010113          	addi	sp,sp,-48
    140c:	02112623          	sw	ra,44(sp)
    1410:	02812423          	sw	s0,40(sp)
    1414:	02912223          	sw	s1,36(sp)
    1418:	03010413          	addi	s0,sp,48
    141c:	00500793          	li	a5,5
    1420:	fef42023          	sw	a5,-32(s0)
    1424:	00400793          	li	a5,4
    1428:	fcf42e23          	sw	a5,-36(s0)
    142c:	fdc42583          	lw	a1,-36(s0)
    1430:	fe042503          	lw	a0,-32(s0)
    1434:	0c0040ef          	jal	ra,54f4 <__mulsi3>
    1438:	00050793          	mv	a5,a0
    143c:	fcf42c23          	sw	a5,-40(s0)
    1440:	fe042423          	sw	zero,-24(s0)
    1444:	0d80006f          	j	151c <redraw+0x114>
    1448:	fe042623          	sw	zero,-20(s0)
    144c:	0b80006f          	j	1504 <redraw+0xfc>
    1450:	fe042223          	sw	zero,-28(s0)
    1454:	0580006f          	j	14ac <redraw+0xa4>
    1458:	00100717          	auipc	a4,0x100
    145c:	19470713          	addi	a4,a4,404 # 1015ec <canvas>
    1460:	fe842783          	lw	a5,-24(s0)
    1464:	00579693          	slli	a3,a5,0x5
    1468:	fec42783          	lw	a5,-20(s0)
    146c:	00f687b3          	add	a5,a3,a5
    1470:	00279793          	slli	a5,a5,0x2
    1474:	00f707b3          	add	a5,a4,a5
    1478:	0007a783          	lw	a5,0(a5)
    147c:	00078513          	mv	a0,a5
    1480:	f09ff0ef          	jal	ra,1388 <convert>
    1484:	00050693          	mv	a3,a0
    1488:	00102717          	auipc	a4,0x102
    148c:	16470713          	addi	a4,a4,356 # 1035ec <color_buf>
    1490:	fe442783          	lw	a5,-28(s0)
    1494:	00279793          	slli	a5,a5,0x2
    1498:	00f707b3          	add	a5,a4,a5
    149c:	00d7a023          	sw	a3,0(a5)
    14a0:	fe442783          	lw	a5,-28(s0)
    14a4:	00178793          	addi	a5,a5,1
    14a8:	fef42223          	sw	a5,-28(s0)
    14ac:	fe442703          	lw	a4,-28(s0)
    14b0:	fd842783          	lw	a5,-40(s0)
    14b4:	faf742e3          	blt	a4,a5,1458 <redraw+0x50>
    14b8:	fe042583          	lw	a1,-32(s0)
    14bc:	fec42503          	lw	a0,-20(s0)
    14c0:	034040ef          	jal	ra,54f4 <__mulsi3>
    14c4:	00050793          	mv	a5,a0
    14c8:	00078493          	mv	s1,a5
    14cc:	fdc42583          	lw	a1,-36(s0)
    14d0:	fe842503          	lw	a0,-24(s0)
    14d4:	020040ef          	jal	ra,54f4 <__mulsi3>
    14d8:	00050793          	mv	a5,a0
    14dc:	fdc42703          	lw	a4,-36(s0)
    14e0:	fe042683          	lw	a3,-32(s0)
    14e4:	00102617          	auipc	a2,0x102
    14e8:	10860613          	addi	a2,a2,264 # 1035ec <color_buf>
    14ec:	00078593          	mv	a1,a5
    14f0:	00048513          	mv	a0,s1
    14f4:	380040ef          	jal	ra,5874 <draw_rect>
    14f8:	fec42783          	lw	a5,-20(s0)
    14fc:	00178793          	addi	a5,a5,1
    1500:	fef42623          	sw	a5,-20(s0)
    1504:	fec42703          	lw	a4,-20(s0)
    1508:	01f00793          	li	a5,31
    150c:	f4e7d2e3          	bge	a5,a4,1450 <redraw+0x48>
    1510:	fe842783          	lw	a5,-24(s0)
    1514:	00178793          	addi	a5,a5,1
    1518:	fef42423          	sw	a5,-24(s0)
    151c:	fe842703          	lw	a4,-24(s0)
    1520:	01f00793          	li	a5,31
    1524:	f2e7d2e3          	bge	a5,a4,1448 <redraw+0x40>
    1528:	00000013          	nop
    152c:	00000013          	nop
    1530:	02c12083          	lw	ra,44(sp)
    1534:	02812403          	lw	s0,40(sp)
    1538:	02412483          	lw	s1,36(sp)
    153c:	03010113          	addi	sp,sp,48
    1540:	00008067          	ret

00001544 <p>:
    1544:	fd010113          	addi	sp,sp,-48
    1548:	02112623          	sw	ra,44(sp)
    154c:	02812423          	sw	s0,40(sp)
    1550:	03010413          	addi	s0,sp,48
    1554:	fca42e23          	sw	a0,-36(s0)
    1558:	fdc42783          	lw	a5,-36(s0)
    155c:	0ff7f793          	andi	a5,a5,255
    1560:	fef42623          	sw	a5,-20(s0)
    1564:	fec42703          	lw	a4,-20(s0)
    1568:	00070793          	mv	a5,a4
    156c:	00179793          	slli	a5,a5,0x1
    1570:	00e787b3          	add	a5,a5,a4
    1574:	00179793          	slli	a5,a5,0x1
    1578:	00078693          	mv	a3,a5
    157c:	fec42703          	lw	a4,-20(s0)
    1580:	00070793          	mv	a5,a4
    1584:	00379793          	slli	a5,a5,0x3
    1588:	40e787b3          	sub	a5,a5,a4
    158c:	fec42603          	lw	a2,-20(s0)
    1590:	00078593          	mv	a1,a5
    1594:	00068513          	mv	a0,a3
    1598:	d31ff0ef          	jal	ra,12c8 <pixel>
    159c:	00050793          	mv	a5,a0
    15a0:	00078513          	mv	a0,a5
    15a4:	02c12083          	lw	ra,44(sp)
    15a8:	02812403          	lw	s0,40(sp)
    15ac:	03010113          	addi	sp,sp,48
    15b0:	00008067          	ret

000015b4 <update>:
    15b4:	fc010113          	addi	sp,sp,-64
    15b8:	02112e23          	sw	ra,60(sp)
    15bc:	02812c23          	sw	s0,56(sp)
    15c0:	04010413          	addi	s0,sp,64
    15c4:	00103797          	auipc	a5,0x103
    15c8:	02878793          	addi	a5,a5,40 # 1045ec <tsc.2>
    15cc:	0007a783          	lw	a5,0(a5)
    15d0:	00178713          	addi	a4,a5,1
    15d4:	00103797          	auipc	a5,0x103
    15d8:	01878793          	addi	a5,a5,24 # 1045ec <tsc.2>
    15dc:	00e7a023          	sw	a4,0(a5)
    15e0:	fe042623          	sw	zero,-20(s0)
    15e4:	0540006f          	j	1638 <update+0x84>
    15e8:	fe042423          	sw	zero,-24(s0)
    15ec:	0340006f          	j	1620 <update+0x6c>
    15f0:	00101717          	auipc	a4,0x101
    15f4:	ffc70713          	addi	a4,a4,-4 # 1025ec <used>
    15f8:	fec42783          	lw	a5,-20(s0)
    15fc:	00579693          	slli	a3,a5,0x5
    1600:	fe842783          	lw	a5,-24(s0)
    1604:	00f687b3          	add	a5,a3,a5
    1608:	00279793          	slli	a5,a5,0x2
    160c:	00f707b3          	add	a5,a4,a5
    1610:	0007a023          	sw	zero,0(a5)
    1614:	fe842783          	lw	a5,-24(s0)
    1618:	00178793          	addi	a5,a5,1
    161c:	fef42423          	sw	a5,-24(s0)
    1620:	fe842703          	lw	a4,-24(s0)
    1624:	01f00793          	li	a5,31
    1628:	fce7d4e3          	bge	a5,a4,15f0 <update+0x3c>
    162c:	fec42783          	lw	a5,-20(s0)
    1630:	00178793          	addi	a5,a5,1
    1634:	fef42623          	sw	a5,-20(s0)
    1638:	fec42703          	lw	a4,-20(s0)
    163c:	01f00793          	li	a5,31
    1640:	fae7d4e3          	bge	a5,a4,15e8 <update+0x34>
    1644:	00103797          	auipc	a5,0x103
    1648:	fa878793          	addi	a5,a5,-88 # 1045ec <tsc.2>
    164c:	0007a783          	lw	a5,0(a5)
    1650:	fcf42823          	sw	a5,-48(s0)
    1654:	fd042503          	lw	a0,-48(s0)
    1658:	eedff0ef          	jal	ra,1544 <p>
    165c:	00050713          	mv	a4,a0
    1660:	00100797          	auipc	a5,0x100
    1664:	f8c78793          	addi	a5,a5,-116 # 1015ec <canvas>
    1668:	00e7a023          	sw	a4,0(a5)
    166c:	00101797          	auipc	a5,0x101
    1670:	f8078793          	addi	a5,a5,-128 # 1025ec <used>
    1674:	00100713          	li	a4,1
    1678:	00e7a023          	sw	a4,0(a5)
    167c:	fe042223          	sw	zero,-28(s0)
    1680:	fe042023          	sw	zero,-32(s0)
    1684:	fc042e23          	sw	zero,-36(s0)
    1688:	00100793          	li	a5,1
    168c:	fcf42c23          	sw	a5,-40(s0)
    1690:	1700006f          	j	1800 <update+0x24c>
    1694:	fc042a23          	sw	zero,-44(s0)
    1698:	1500006f          	j	17e8 <update+0x234>
    169c:	000ff717          	auipc	a4,0xff
    16a0:	2ac70713          	addi	a4,a4,684 # 100948 <dx.1>
    16a4:	fdc42783          	lw	a5,-36(s0)
    16a8:	00279793          	slli	a5,a5,0x2
    16ac:	00f707b3          	add	a5,a4,a5
    16b0:	0007a783          	lw	a5,0(a5)
    16b4:	fe442703          	lw	a4,-28(s0)
    16b8:	00f707b3          	add	a5,a4,a5
    16bc:	fcf42623          	sw	a5,-52(s0)
    16c0:	000ff717          	auipc	a4,0xff
    16c4:	29870713          	addi	a4,a4,664 # 100958 <dy.0>
    16c8:	fdc42783          	lw	a5,-36(s0)
    16cc:	00279793          	slli	a5,a5,0x2
    16d0:	00f707b3          	add	a5,a4,a5
    16d4:	0007a783          	lw	a5,0(a5)
    16d8:	fe042703          	lw	a4,-32(s0)
    16dc:	00f707b3          	add	a5,a4,a5
    16e0:	fcf42423          	sw	a5,-56(s0)
    16e4:	fcc42783          	lw	a5,-52(s0)
    16e8:	0c07ca63          	bltz	a5,17bc <update+0x208>
    16ec:	fcc42703          	lw	a4,-52(s0)
    16f0:	01f00793          	li	a5,31
    16f4:	0ce7c463          	blt	a5,a4,17bc <update+0x208>
    16f8:	fc842783          	lw	a5,-56(s0)
    16fc:	0c07c063          	bltz	a5,17bc <update+0x208>
    1700:	fc842703          	lw	a4,-56(s0)
    1704:	01f00793          	li	a5,31
    1708:	0ae7ca63          	blt	a5,a4,17bc <update+0x208>
    170c:	00101717          	auipc	a4,0x101
    1710:	ee070713          	addi	a4,a4,-288 # 1025ec <used>
    1714:	fcc42783          	lw	a5,-52(s0)
    1718:	00579693          	slli	a3,a5,0x5
    171c:	fc842783          	lw	a5,-56(s0)
    1720:	00f687b3          	add	a5,a3,a5
    1724:	00279793          	slli	a5,a5,0x2
    1728:	00f707b3          	add	a5,a4,a5
    172c:	0007a783          	lw	a5,0(a5)
    1730:	08079663          	bnez	a5,17bc <update+0x208>
    1734:	fcc42783          	lw	a5,-52(s0)
    1738:	fef42223          	sw	a5,-28(s0)
    173c:	fc842783          	lw	a5,-56(s0)
    1740:	fef42023          	sw	a5,-32(s0)
    1744:	00101717          	auipc	a4,0x101
    1748:	ea870713          	addi	a4,a4,-344 # 1025ec <used>
    174c:	fe442783          	lw	a5,-28(s0)
    1750:	00579693          	slli	a3,a5,0x5
    1754:	fe042783          	lw	a5,-32(s0)
    1758:	00f687b3          	add	a5,a3,a5
    175c:	00279793          	slli	a5,a5,0x2
    1760:	00f707b3          	add	a5,a4,a5
    1764:	00100713          	li	a4,1
    1768:	00e7a023          	sw	a4,0(a5)
    176c:	fd842783          	lw	a5,-40(s0)
    1770:	01f7d713          	srli	a4,a5,0x1f
    1774:	00f707b3          	add	a5,a4,a5
    1778:	4017d793          	srai	a5,a5,0x1
    177c:	00078713          	mv	a4,a5
    1780:	fd042783          	lw	a5,-48(s0)
    1784:	00f707b3          	add	a5,a4,a5
    1788:	00078513          	mv	a0,a5
    178c:	db9ff0ef          	jal	ra,1544 <p>
    1790:	00050613          	mv	a2,a0
    1794:	00100717          	auipc	a4,0x100
    1798:	e5870713          	addi	a4,a4,-424 # 1015ec <canvas>
    179c:	fe442783          	lw	a5,-28(s0)
    17a0:	00579693          	slli	a3,a5,0x5
    17a4:	fe042783          	lw	a5,-32(s0)
    17a8:	00f687b3          	add	a5,a3,a5
    17ac:	00279793          	slli	a5,a5,0x2
    17b0:	00f707b3          	add	a5,a4,a5
    17b4:	00c7a023          	sw	a2,0(a5)
    17b8:	03c0006f          	j	17f4 <update+0x240>
    17bc:	fdc42783          	lw	a5,-36(s0)
    17c0:	00178713          	addi	a4,a5,1
    17c4:	41f75793          	srai	a5,a4,0x1f
    17c8:	01e7d793          	srli	a5,a5,0x1e
    17cc:	00f70733          	add	a4,a4,a5
    17d0:	00377713          	andi	a4,a4,3
    17d4:	40f707b3          	sub	a5,a4,a5
    17d8:	fcf42e23          	sw	a5,-36(s0)
    17dc:	fd442783          	lw	a5,-44(s0)
    17e0:	00178793          	addi	a5,a5,1
    17e4:	fcf42a23          	sw	a5,-44(s0)
    17e8:	fd442703          	lw	a4,-44(s0)
    17ec:	00300793          	li	a5,3
    17f0:	eae7d6e3          	bge	a5,a4,169c <update+0xe8>
    17f4:	fd842783          	lw	a5,-40(s0)
    17f8:	00178793          	addi	a5,a5,1
    17fc:	fcf42c23          	sw	a5,-40(s0)
    1800:	fd842703          	lw	a4,-40(s0)
    1804:	3ff00793          	li	a5,1023
    1808:	e8e7d6e3          	bge	a5,a4,1694 <update+0xe0>
    180c:	00000013          	nop
    1810:	00000013          	nop
    1814:	03c12083          	lw	ra,60(sp)
    1818:	03812403          	lw	s0,56(sp)
    181c:	04010113          	addi	sp,sp,64
    1820:	00008067          	ret

00001824 <exec_vtest>:
    1824:	fd010113          	addi	sp,sp,-48
    1828:	02112623          	sw	ra,44(sp)
    182c:	02812423          	sw	s0,40(sp)
    1830:	03010413          	addi	s0,sp,48
    1834:	fca42e23          	sw	a0,-36(s0)
    1838:	11c040ef          	jal	ra,5954 <swtch>
    183c:	fe042623          	sw	zero,-20(s0)
    1840:	fe042423          	sw	zero,-24(s0)
    1844:	fe042223          	sw	zero,-28(s0)
    1848:	7b5030ef          	jal	ra,57fc <gettimeofday>
    184c:	00050793          	mv	a5,a0
    1850:	3e800593          	li	a1,1000
    1854:	00078513          	mv	a0,a5
    1858:	5c5030ef          	jal	ra,561c <__udivsi3>
    185c:	00050793          	mv	a5,a0
    1860:	fef42023          	sw	a5,-32(s0)
    1864:	6a4040ef          	jal	ra,5f08 <readkey>
    1868:	00050793          	mv	a5,a0
    186c:	00078663          	beqz	a5,1878 <exec_vtest+0x54>
    1870:	0e4040ef          	jal	ra,5954 <swtch>
    1874:	0580006f          	j	18cc <exec_vtest+0xa8>
    1878:	fe042703          	lw	a4,-32(s0)
    187c:	fec42783          	lw	a5,-20(s0)
    1880:	40f70733          	sub	a4,a4,a5
    1884:	04200793          	li	a5,66
    1888:	02e7f063          	bgeu	a5,a4,18a8 <exec_vtest+0x84>
    188c:	d29ff0ef          	jal	ra,15b4 <update>
    1890:	b79ff0ef          	jal	ra,1408 <redraw>
    1894:	fe042783          	lw	a5,-32(s0)
    1898:	fef42623          	sw	a5,-20(s0)
    189c:	fe442783          	lw	a5,-28(s0)
    18a0:	00178793          	addi	a5,a5,1
    18a4:	fef42223          	sw	a5,-28(s0)
    18a8:	fe042703          	lw	a4,-32(s0)
    18ac:	fe842783          	lw	a5,-24(s0)
    18b0:	40f70733          	sub	a4,a4,a5
    18b4:	3e800793          	li	a5,1000
    18b8:	f8e7f8e3          	bgeu	a5,a4,1848 <exec_vtest+0x24>
    18bc:	fe042783          	lw	a5,-32(s0)
    18c0:	fef42423          	sw	a5,-24(s0)
    18c4:	fe042223          	sw	zero,-28(s0)
    18c8:	f81ff06f          	j	1848 <exec_vtest+0x24>
    18cc:	02c12083          	lw	ra,44(sp)
    18d0:	02812403          	lw	s0,40(sp)
    18d4:	03010113          	addi	sp,sp,48
    18d8:	00008067          	ret

000018dc <calc_func>:
    18dc:	fd010113          	addi	sp,sp,-48
    18e0:	02112623          	sw	ra,44(sp)
    18e4:	02812423          	sw	s0,40(sp)
    18e8:	03010413          	addi	s0,sp,48
    18ec:	fca42e23          	sw	a0,-36(s0)
    18f0:	fcb42c23          	sw	a1,-40(s0)
    18f4:	fdc42783          	lw	a5,-36(s0)
    18f8:	0007d783          	lhu	a5,0(a5)
    18fc:	fef41523          	sh	a5,-22(s0)
    1900:	fea41783          	lh	a5,-22(s0)
    1904:	4077d793          	srai	a5,a5,0x7
    1908:	01079793          	slli	a5,a5,0x10
    190c:	4107d793          	srai	a5,a5,0x10
    1910:	0ff7f793          	andi	a5,a5,255
    1914:	0017f793          	andi	a5,a5,1
    1918:	fef404a3          	sb	a5,-23(s0)
    191c:	fe944783          	lbu	a5,-23(s0)
    1920:	00078c63          	beqz	a5,1938 <calc_func+0x5c>
    1924:	fea45783          	lhu	a5,-22(s0)
    1928:	07f7f793          	andi	a5,a5,127
    192c:	01079793          	slli	a5,a5,0x10
    1930:	4107d793          	srai	a5,a5,0x10
    1934:	18c0006f          	j	1ac0 <calc_func+0x1e4>
    1938:	fea45783          	lhu	a5,-22(s0)
    193c:	0077f793          	andi	a5,a5,7
    1940:	fef41323          	sh	a5,-26(s0)
    1944:	fea41783          	lh	a5,-22(s0)
    1948:	4037d793          	srai	a5,a5,0x3
    194c:	01079793          	slli	a5,a5,0x10
    1950:	4107d793          	srai	a5,a5,0x10
    1954:	00f7f793          	andi	a5,a5,15
    1958:	fef41623          	sh	a5,-20(s0)
    195c:	fec41783          	lh	a5,-20(s0)
    1960:	00479793          	slli	a5,a5,0x4
    1964:	01079713          	slli	a4,a5,0x10
    1968:	41075713          	srai	a4,a4,0x10
    196c:	fec45783          	lhu	a5,-20(s0)
    1970:	00f767b3          	or	a5,a4,a5
    1974:	fef41623          	sh	a5,-20(s0)
    1978:	fe641783          	lh	a5,-26(s0)
    197c:	00078863          	beqz	a5,198c <calc_func+0xb0>
    1980:	00100713          	li	a4,1
    1984:	06e78863          	beq	a5,a4,19f4 <calc_func+0x118>
    1988:	0b40006f          	j	1a3c <calc_func+0x160>
    198c:	fec41703          	lh	a4,-20(s0)
    1990:	02100793          	li	a5,33
    1994:	00e7c663          	blt	a5,a4,19a0 <calc_func+0xc4>
    1998:	02200793          	li	a5,34
    199c:	fef41623          	sh	a5,-20(s0)
    19a0:	fd842783          	lw	a5,-40(s0)
    19a4:	0187a503          	lw	a0,24(a5)
    19a8:	fd842783          	lw	a5,-40(s0)
    19ac:	0147a583          	lw	a1,20(a5)
    19b0:	fd842783          	lw	a5,-40(s0)
    19b4:	00079603          	lh	a2,0(a5)
    19b8:	fd842783          	lw	a5,-40(s0)
    19bc:	00279683          	lh	a3,2(a5)
    19c0:	fd842783          	lw	a5,-40(s0)
    19c4:	0387d783          	lhu	a5,56(a5)
    19c8:	fec41703          	lh	a4,-20(s0)
    19cc:	201020ef          	jal	ra,43cc <core_bench_state>
    19d0:	00050793          	mv	a5,a0
    19d4:	fef41723          	sh	a5,-18(s0)
    19d8:	fd842783          	lw	a5,-40(s0)
    19dc:	03e7d783          	lhu	a5,62(a5)
    19e0:	06079463          	bnez	a5,1a48 <calc_func+0x16c>
    19e4:	fee45703          	lhu	a4,-18(s0)
    19e8:	fd842783          	lw	a5,-40(s0)
    19ec:	02e79f23          	sh	a4,62(a5)
    19f0:	0580006f          	j	1a48 <calc_func+0x16c>
    19f4:	fd842783          	lw	a5,-40(s0)
    19f8:	02878713          	addi	a4,a5,40
    19fc:	fd842783          	lw	a5,-40(s0)
    1a00:	0387d683          	lhu	a3,56(a5)
    1a04:	fec41783          	lh	a5,-20(s0)
    1a08:	00068613          	mv	a2,a3
    1a0c:	00078593          	mv	a1,a5
    1a10:	00070513          	mv	a0,a4
    1a14:	3f1010ef          	jal	ra,3604 <core_bench_matrix>
    1a18:	00050793          	mv	a5,a0
    1a1c:	fef41723          	sh	a5,-18(s0)
    1a20:	fd842783          	lw	a5,-40(s0)
    1a24:	03c7d783          	lhu	a5,60(a5)
    1a28:	02079463          	bnez	a5,1a50 <calc_func+0x174>
    1a2c:	fee45703          	lhu	a4,-18(s0)
    1a30:	fd842783          	lw	a5,-40(s0)
    1a34:	02e79e23          	sh	a4,60(a5)
    1a38:	0180006f          	j	1a50 <calc_func+0x174>
    1a3c:	fea45783          	lhu	a5,-22(s0)
    1a40:	fef41723          	sh	a5,-18(s0)
    1a44:	0100006f          	j	1a54 <calc_func+0x178>
    1a48:	00000013          	nop
    1a4c:	0080006f          	j	1a54 <calc_func+0x178>
    1a50:	00000013          	nop
    1a54:	fee45703          	lhu	a4,-18(s0)
    1a58:	fd842783          	lw	a5,-40(s0)
    1a5c:	0387d783          	lhu	a5,56(a5)
    1a60:	00078593          	mv	a1,a5
    1a64:	00070513          	mv	a0,a4
    1a68:	454030ef          	jal	ra,4ebc <crcu16>
    1a6c:	00050793          	mv	a5,a0
    1a70:	00078713          	mv	a4,a5
    1a74:	fd842783          	lw	a5,-40(s0)
    1a78:	02e79c23          	sh	a4,56(a5)
    1a7c:	fee45783          	lhu	a5,-18(s0)
    1a80:	07f7f793          	andi	a5,a5,127
    1a84:	fef41723          	sh	a5,-18(s0)
    1a88:	fea45783          	lhu	a5,-22(s0)
    1a8c:	f007f793          	andi	a5,a5,-256
    1a90:	01079793          	slli	a5,a5,0x10
    1a94:	4107d793          	srai	a5,a5,0x10
    1a98:	0807e793          	ori	a5,a5,128
    1a9c:	01079713          	slli	a4,a5,0x10
    1aa0:	41075713          	srai	a4,a4,0x10
    1aa4:	fee45783          	lhu	a5,-18(s0)
    1aa8:	00f767b3          	or	a5,a4,a5
    1aac:	01079713          	slli	a4,a5,0x10
    1ab0:	41075713          	srai	a4,a4,0x10
    1ab4:	fdc42783          	lw	a5,-36(s0)
    1ab8:	00e79023          	sh	a4,0(a5)
    1abc:	fee41783          	lh	a5,-18(s0)
    1ac0:	00078513          	mv	a0,a5
    1ac4:	02c12083          	lw	ra,44(sp)
    1ac8:	02812403          	lw	s0,40(sp)
    1acc:	03010113          	addi	sp,sp,48
    1ad0:	00008067          	ret

00001ad4 <cmp_complex>:
    1ad4:	fd010113          	addi	sp,sp,-48
    1ad8:	02112623          	sw	ra,44(sp)
    1adc:	02812423          	sw	s0,40(sp)
    1ae0:	03010413          	addi	s0,sp,48
    1ae4:	fca42e23          	sw	a0,-36(s0)
    1ae8:	fcb42c23          	sw	a1,-40(s0)
    1aec:	fcc42a23          	sw	a2,-44(s0)
    1af0:	fdc42783          	lw	a5,-36(s0)
    1af4:	fd442583          	lw	a1,-44(s0)
    1af8:	00078513          	mv	a0,a5
    1afc:	de1ff0ef          	jal	ra,18dc <calc_func>
    1b00:	00050793          	mv	a5,a0
    1b04:	fef41723          	sh	a5,-18(s0)
    1b08:	fd842783          	lw	a5,-40(s0)
    1b0c:	fd442583          	lw	a1,-44(s0)
    1b10:	00078513          	mv	a0,a5
    1b14:	dc9ff0ef          	jal	ra,18dc <calc_func>
    1b18:	00050793          	mv	a5,a0
    1b1c:	fef41623          	sh	a5,-20(s0)
    1b20:	fee41703          	lh	a4,-18(s0)
    1b24:	fec41783          	lh	a5,-20(s0)
    1b28:	40f707b3          	sub	a5,a4,a5
    1b2c:	00078513          	mv	a0,a5
    1b30:	02c12083          	lw	ra,44(sp)
    1b34:	02812403          	lw	s0,40(sp)
    1b38:	03010113          	addi	sp,sp,48
    1b3c:	00008067          	ret

00001b40 <cmp_idx>:
    1b40:	fe010113          	addi	sp,sp,-32
    1b44:	00812e23          	sw	s0,28(sp)
    1b48:	02010413          	addi	s0,sp,32
    1b4c:	fea42623          	sw	a0,-20(s0)
    1b50:	feb42423          	sw	a1,-24(s0)
    1b54:	fec42223          	sw	a2,-28(s0)
    1b58:	fe442783          	lw	a5,-28(s0)
    1b5c:	08079e63          	bnez	a5,1bf8 <cmp_idx+0xb8>
    1b60:	fec42783          	lw	a5,-20(s0)
    1b64:	00079783          	lh	a5,0(a5)
    1b68:	f007f793          	andi	a5,a5,-256
    1b6c:	01079713          	slli	a4,a5,0x10
    1b70:	41075713          	srai	a4,a4,0x10
    1b74:	fec42783          	lw	a5,-20(s0)
    1b78:	00079783          	lh	a5,0(a5)
    1b7c:	01079793          	slli	a5,a5,0x10
    1b80:	0107d793          	srli	a5,a5,0x10
    1b84:	0087d793          	srli	a5,a5,0x8
    1b88:	01079793          	slli	a5,a5,0x10
    1b8c:	0107d793          	srli	a5,a5,0x10
    1b90:	01079793          	slli	a5,a5,0x10
    1b94:	4107d793          	srai	a5,a5,0x10
    1b98:	00f767b3          	or	a5,a4,a5
    1b9c:	01079713          	slli	a4,a5,0x10
    1ba0:	41075713          	srai	a4,a4,0x10
    1ba4:	fec42783          	lw	a5,-20(s0)
    1ba8:	00e79023          	sh	a4,0(a5)
    1bac:	fe842783          	lw	a5,-24(s0)
    1bb0:	00079783          	lh	a5,0(a5)
    1bb4:	f007f793          	andi	a5,a5,-256
    1bb8:	01079713          	slli	a4,a5,0x10
    1bbc:	41075713          	srai	a4,a4,0x10
    1bc0:	fe842783          	lw	a5,-24(s0)
    1bc4:	00079783          	lh	a5,0(a5)
    1bc8:	01079793          	slli	a5,a5,0x10
    1bcc:	0107d793          	srli	a5,a5,0x10
    1bd0:	0087d793          	srli	a5,a5,0x8
    1bd4:	01079793          	slli	a5,a5,0x10
    1bd8:	0107d793          	srli	a5,a5,0x10
    1bdc:	01079793          	slli	a5,a5,0x10
    1be0:	4107d793          	srai	a5,a5,0x10
    1be4:	00f767b3          	or	a5,a4,a5
    1be8:	01079713          	slli	a4,a5,0x10
    1bec:	41075713          	srai	a4,a4,0x10
    1bf0:	fe842783          	lw	a5,-24(s0)
    1bf4:	00e79023          	sh	a4,0(a5)
    1bf8:	fec42783          	lw	a5,-20(s0)
    1bfc:	00279783          	lh	a5,2(a5)
    1c00:	00078713          	mv	a4,a5
    1c04:	fe842783          	lw	a5,-24(s0)
    1c08:	00279783          	lh	a5,2(a5)
    1c0c:	40f707b3          	sub	a5,a4,a5
    1c10:	00078513          	mv	a0,a5
    1c14:	01c12403          	lw	s0,28(sp)
    1c18:	02010113          	addi	sp,sp,32
    1c1c:	00008067          	ret

00001c20 <copy_info>:
    1c20:	fe010113          	addi	sp,sp,-32
    1c24:	00812e23          	sw	s0,28(sp)
    1c28:	02010413          	addi	s0,sp,32
    1c2c:	fea42623          	sw	a0,-20(s0)
    1c30:	feb42423          	sw	a1,-24(s0)
    1c34:	fe842783          	lw	a5,-24(s0)
    1c38:	00079703          	lh	a4,0(a5)
    1c3c:	fec42783          	lw	a5,-20(s0)
    1c40:	00e79023          	sh	a4,0(a5)
    1c44:	fe842783          	lw	a5,-24(s0)
    1c48:	00279703          	lh	a4,2(a5)
    1c4c:	fec42783          	lw	a5,-20(s0)
    1c50:	00e79123          	sh	a4,2(a5)
    1c54:	00000013          	nop
    1c58:	01c12403          	lw	s0,28(sp)
    1c5c:	02010113          	addi	sp,sp,32
    1c60:	00008067          	ret

00001c64 <core_bench_list>:
    1c64:	fc010113          	addi	sp,sp,-64
    1c68:	02112e23          	sw	ra,60(sp)
    1c6c:	02812c23          	sw	s0,56(sp)
    1c70:	04010413          	addi	s0,sp,64
    1c74:	fca42623          	sw	a0,-52(s0)
    1c78:	00058793          	mv	a5,a1
    1c7c:	fcf41523          	sh	a5,-54(s0)
    1c80:	fe041723          	sh	zero,-18(s0)
    1c84:	fe041623          	sh	zero,-20(s0)
    1c88:	fe041523          	sh	zero,-22(s0)
    1c8c:	fcc42783          	lw	a5,-52(s0)
    1c90:	0247a783          	lw	a5,36(a5)
    1c94:	fef42223          	sw	a5,-28(s0)
    1c98:	fcc42783          	lw	a5,-52(s0)
    1c9c:	0047d783          	lhu	a5,4(a5)
    1ca0:	fcf41e23          	sh	a5,-36(s0)
    1ca4:	fc042823          	sw	zero,-48(s0)
    1ca8:	fca45783          	lhu	a5,-54(s0)
    1cac:	fcf41923          	sh	a5,-46(s0)
    1cb0:	fc041f23          	sh	zero,-34(s0)
    1cb4:	1780006f          	j	1e2c <core_bench_list+0x1c8>
    1cb8:	fde45783          	lhu	a5,-34(s0)
    1cbc:	0ff7f793          	andi	a5,a5,255
    1cc0:	01079793          	slli	a5,a5,0x10
    1cc4:	4107d793          	srai	a5,a5,0x10
    1cc8:	fcf41823          	sh	a5,-48(s0)
    1ccc:	fd040793          	addi	a5,s0,-48
    1cd0:	00078593          	mv	a1,a5
    1cd4:	fe442503          	lw	a0,-28(s0)
    1cd8:	748000ef          	jal	ra,2420 <core_list_find>
    1cdc:	fca42a23          	sw	a0,-44(s0)
    1ce0:	fe442503          	lw	a0,-28(s0)
    1ce4:	7e0000ef          	jal	ra,24c4 <core_list_reverse>
    1ce8:	fea42223          	sw	a0,-28(s0)
    1cec:	fd442783          	lw	a5,-44(s0)
    1cf0:	04079863          	bnez	a5,1d40 <core_bench_list+0xdc>
    1cf4:	fea45783          	lhu	a5,-22(s0)
    1cf8:	00178793          	addi	a5,a5,1
    1cfc:	fef41523          	sh	a5,-22(s0)
    1d00:	fe442783          	lw	a5,-28(s0)
    1d04:	0007a783          	lw	a5,0(a5)
    1d08:	0047a783          	lw	a5,4(a5)
    1d0c:	00079783          	lh	a5,0(a5)
    1d10:	4087d793          	srai	a5,a5,0x8
    1d14:	01079793          	slli	a5,a5,0x10
    1d18:	4107d793          	srai	a5,a5,0x10
    1d1c:	01079793          	slli	a5,a5,0x10
    1d20:	0107d793          	srli	a5,a5,0x10
    1d24:	0017f793          	andi	a5,a5,1
    1d28:	01079713          	slli	a4,a5,0x10
    1d2c:	01075713          	srli	a4,a4,0x10
    1d30:	fee45783          	lhu	a5,-18(s0)
    1d34:	00f707b3          	add	a5,a4,a5
    1d38:	fef41723          	sh	a5,-18(s0)
    1d3c:	0a80006f          	j	1de4 <core_bench_list+0x180>
    1d40:	fec45783          	lhu	a5,-20(s0)
    1d44:	00178793          	addi	a5,a5,1
    1d48:	fef41623          	sh	a5,-20(s0)
    1d4c:	fd442783          	lw	a5,-44(s0)
    1d50:	0047a783          	lw	a5,4(a5)
    1d54:	00079783          	lh	a5,0(a5)
    1d58:	01079793          	slli	a5,a5,0x10
    1d5c:	0107d793          	srli	a5,a5,0x10
    1d60:	0017f793          	andi	a5,a5,1
    1d64:	02078e63          	beqz	a5,1da0 <core_bench_list+0x13c>
    1d68:	fd442783          	lw	a5,-44(s0)
    1d6c:	0047a783          	lw	a5,4(a5)
    1d70:	00079783          	lh	a5,0(a5)
    1d74:	4097d793          	srai	a5,a5,0x9
    1d78:	01079793          	slli	a5,a5,0x10
    1d7c:	4107d793          	srai	a5,a5,0x10
    1d80:	01079793          	slli	a5,a5,0x10
    1d84:	0107d793          	srli	a5,a5,0x10
    1d88:	0017f793          	andi	a5,a5,1
    1d8c:	01079713          	slli	a4,a5,0x10
    1d90:	01075713          	srli	a4,a4,0x10
    1d94:	fee45783          	lhu	a5,-18(s0)
    1d98:	00f707b3          	add	a5,a4,a5
    1d9c:	fef41723          	sh	a5,-18(s0)
    1da0:	fd442783          	lw	a5,-44(s0)
    1da4:	0007a783          	lw	a5,0(a5)
    1da8:	02078e63          	beqz	a5,1de4 <core_bench_list+0x180>
    1dac:	fd442783          	lw	a5,-44(s0)
    1db0:	0007a783          	lw	a5,0(a5)
    1db4:	fef42023          	sw	a5,-32(s0)
    1db8:	fe042783          	lw	a5,-32(s0)
    1dbc:	0007a703          	lw	a4,0(a5)
    1dc0:	fd442783          	lw	a5,-44(s0)
    1dc4:	00e7a023          	sw	a4,0(a5)
    1dc8:	fe442783          	lw	a5,-28(s0)
    1dcc:	0007a703          	lw	a4,0(a5)
    1dd0:	fe042783          	lw	a5,-32(s0)
    1dd4:	00e7a023          	sw	a4,0(a5)
    1dd8:	fe442783          	lw	a5,-28(s0)
    1ddc:	fe042703          	lw	a4,-32(s0)
    1de0:	00e7a023          	sw	a4,0(a5)
    1de4:	fd241783          	lh	a5,-46(s0)
    1de8:	0207c463          	bltz	a5,1e10 <core_bench_list+0x1ac>
    1dec:	fd241783          	lh	a5,-46(s0)
    1df0:	01079793          	slli	a5,a5,0x10
    1df4:	0107d793          	srli	a5,a5,0x10
    1df8:	00178793          	addi	a5,a5,1
    1dfc:	01079793          	slli	a5,a5,0x10
    1e00:	0107d793          	srli	a5,a5,0x10
    1e04:	01079793          	slli	a5,a5,0x10
    1e08:	4107d793          	srai	a5,a5,0x10
    1e0c:	fcf41923          	sh	a5,-46(s0)
    1e10:	fde41783          	lh	a5,-34(s0)
    1e14:	01079793          	slli	a5,a5,0x10
    1e18:	0107d793          	srli	a5,a5,0x10
    1e1c:	00178793          	addi	a5,a5,1
    1e20:	01079793          	slli	a5,a5,0x10
    1e24:	0107d793          	srli	a5,a5,0x10
    1e28:	fcf41f23          	sh	a5,-34(s0)
    1e2c:	fde41703          	lh	a4,-34(s0)
    1e30:	fdc41783          	lh	a5,-36(s0)
    1e34:	e8f742e3          	blt	a4,a5,1cb8 <core_bench_list+0x54>
    1e38:	fec45783          	lhu	a5,-20(s0)
    1e3c:	00279793          	slli	a5,a5,0x2
    1e40:	01079713          	slli	a4,a5,0x10
    1e44:	01075713          	srli	a4,a4,0x10
    1e48:	fea45783          	lhu	a5,-22(s0)
    1e4c:	40f707b3          	sub	a5,a4,a5
    1e50:	01079713          	slli	a4,a5,0x10
    1e54:	01075713          	srli	a4,a4,0x10
    1e58:	fee45783          	lhu	a5,-18(s0)
    1e5c:	00f707b3          	add	a5,a4,a5
    1e60:	fef41723          	sh	a5,-18(s0)
    1e64:	fca41783          	lh	a5,-54(s0)
    1e68:	00f05e63          	blez	a5,1e84 <core_bench_list+0x220>
    1e6c:	fcc42603          	lw	a2,-52(s0)
    1e70:	00000597          	auipc	a1,0x0
    1e74:	c6458593          	addi	a1,a1,-924 # 1ad4 <cmp_complex>
    1e78:	fe442503          	lw	a0,-28(s0)
    1e7c:	6a4000ef          	jal	ra,2520 <core_list_mergesort>
    1e80:	fea42223          	sw	a0,-28(s0)
    1e84:	fe442783          	lw	a5,-28(s0)
    1e88:	0007a783          	lw	a5,0(a5)
    1e8c:	00078513          	mv	a0,a5
    1e90:	4b0000ef          	jal	ra,2340 <core_list_remove>
    1e94:	fca42c23          	sw	a0,-40(s0)
    1e98:	fd040793          	addi	a5,s0,-48
    1e9c:	00078593          	mv	a1,a5
    1ea0:	fe442503          	lw	a0,-28(s0)
    1ea4:	57c000ef          	jal	ra,2420 <core_list_find>
    1ea8:	fea42023          	sw	a0,-32(s0)
    1eac:	fe042783          	lw	a5,-32(s0)
    1eb0:	04079263          	bnez	a5,1ef4 <core_bench_list+0x290>
    1eb4:	fe442783          	lw	a5,-28(s0)
    1eb8:	0007a783          	lw	a5,0(a5)
    1ebc:	fef42023          	sw	a5,-32(s0)
    1ec0:	0340006f          	j	1ef4 <core_bench_list+0x290>
    1ec4:	fe442783          	lw	a5,-28(s0)
    1ec8:	0047a783          	lw	a5,4(a5)
    1ecc:	00079783          	lh	a5,0(a5)
    1ed0:	fee45703          	lhu	a4,-18(s0)
    1ed4:	00070593          	mv	a1,a4
    1ed8:	00078513          	mv	a0,a5
    1edc:	0e8030ef          	jal	ra,4fc4 <crc16>
    1ee0:	00050793          	mv	a5,a0
    1ee4:	fef41723          	sh	a5,-18(s0)
    1ee8:	fe042783          	lw	a5,-32(s0)
    1eec:	0007a783          	lw	a5,0(a5)
    1ef0:	fef42023          	sw	a5,-32(s0)
    1ef4:	fe042783          	lw	a5,-32(s0)
    1ef8:	fc0796e3          	bnez	a5,1ec4 <core_bench_list+0x260>
    1efc:	fe442783          	lw	a5,-28(s0)
    1f00:	0007a783          	lw	a5,0(a5)
    1f04:	00078593          	mv	a1,a5
    1f08:	fd842503          	lw	a0,-40(s0)
    1f0c:	4a8000ef          	jal	ra,23b4 <core_list_undo_remove>
    1f10:	fca42c23          	sw	a0,-40(s0)
    1f14:	00000613          	li	a2,0
    1f18:	00000597          	auipc	a1,0x0
    1f1c:	c2858593          	addi	a1,a1,-984 # 1b40 <cmp_idx>
    1f20:	fe442503          	lw	a0,-28(s0)
    1f24:	5fc000ef          	jal	ra,2520 <core_list_mergesort>
    1f28:	fea42223          	sw	a0,-28(s0)
    1f2c:	fe442783          	lw	a5,-28(s0)
    1f30:	0007a783          	lw	a5,0(a5)
    1f34:	fef42023          	sw	a5,-32(s0)
    1f38:	0340006f          	j	1f6c <core_bench_list+0x308>
    1f3c:	fe442783          	lw	a5,-28(s0)
    1f40:	0047a783          	lw	a5,4(a5)
    1f44:	00079783          	lh	a5,0(a5)
    1f48:	fee45703          	lhu	a4,-18(s0)
    1f4c:	00070593          	mv	a1,a4
    1f50:	00078513          	mv	a0,a5
    1f54:	070030ef          	jal	ra,4fc4 <crc16>
    1f58:	00050793          	mv	a5,a0
    1f5c:	fef41723          	sh	a5,-18(s0)
    1f60:	fe042783          	lw	a5,-32(s0)
    1f64:	0007a783          	lw	a5,0(a5)
    1f68:	fef42023          	sw	a5,-32(s0)
    1f6c:	fe042783          	lw	a5,-32(s0)
    1f70:	fc0796e3          	bnez	a5,1f3c <core_bench_list+0x2d8>
    1f74:	fee45783          	lhu	a5,-18(s0)
    1f78:	00078513          	mv	a0,a5
    1f7c:	03c12083          	lw	ra,60(sp)
    1f80:	03812403          	lw	s0,56(sp)
    1f84:	04010113          	addi	sp,sp,64
    1f88:	00008067          	ret

00001f8c <core_list_init>:
    1f8c:	fb010113          	addi	sp,sp,-80
    1f90:	04112623          	sw	ra,76(sp)
    1f94:	04812423          	sw	s0,72(sp)
    1f98:	05010413          	addi	s0,sp,80
    1f9c:	faa42e23          	sw	a0,-68(s0)
    1fa0:	fab42c23          	sw	a1,-72(s0)
    1fa4:	00060793          	mv	a5,a2
    1fa8:	faf41b23          	sh	a5,-74(s0)
    1fac:	01400793          	li	a5,20
    1fb0:	fef42223          	sw	a5,-28(s0)
    1fb4:	fe442583          	lw	a1,-28(s0)
    1fb8:	fbc42503          	lw	a0,-68(s0)
    1fbc:	660030ef          	jal	ra,561c <__udivsi3>
    1fc0:	00050793          	mv	a5,a0
    1fc4:	ffe78793          	addi	a5,a5,-2
    1fc8:	fef42023          	sw	a5,-32(s0)
    1fcc:	fb842703          	lw	a4,-72(s0)
    1fd0:	fe042783          	lw	a5,-32(s0)
    1fd4:	00379793          	slli	a5,a5,0x3
    1fd8:	00f707b3          	add	a5,a4,a5
    1fdc:	fcf42e23          	sw	a5,-36(s0)
    1fe0:	fdc42783          	lw	a5,-36(s0)
    1fe4:	fcf42423          	sw	a5,-56(s0)
    1fe8:	fc842703          	lw	a4,-56(s0)
    1fec:	fe042783          	lw	a5,-32(s0)
    1ff0:	00279793          	slli	a5,a5,0x2
    1ff4:	00f707b3          	add	a5,a4,a5
    1ff8:	fcf42c23          	sw	a5,-40(s0)
    1ffc:	fb842783          	lw	a5,-72(s0)
    2000:	fcf42a23          	sw	a5,-44(s0)
    2004:	fd442783          	lw	a5,-44(s0)
    2008:	0007a023          	sw	zero,0(a5)
    200c:	fc842703          	lw	a4,-56(s0)
    2010:	fd442783          	lw	a5,-44(s0)
    2014:	00e7a223          	sw	a4,4(a5)
    2018:	fd442783          	lw	a5,-44(s0)
    201c:	0047a783          	lw	a5,4(a5)
    2020:	00079123          	sh	zero,2(a5)
    2024:	fd442783          	lw	a5,-44(s0)
    2028:	0047a783          	lw	a5,4(a5)
    202c:	ffff8737          	lui	a4,0xffff8
    2030:	08070713          	addi	a4,a4,128 # ffff8080 <_end+0xffef2480>
    2034:	00e79023          	sh	a4,0(a5)
    2038:	fb842783          	lw	a5,-72(s0)
    203c:	00878793          	addi	a5,a5,8
    2040:	faf42c23          	sw	a5,-72(s0)
    2044:	fc842783          	lw	a5,-56(s0)
    2048:	00478793          	addi	a5,a5,4
    204c:	fcf42423          	sw	a5,-56(s0)
    2050:	ffff87b7          	lui	a5,0xffff8
    2054:	fff7c793          	not	a5,a5
    2058:	fcf41323          	sh	a5,-58(s0)
    205c:	fff00793          	li	a5,-1
    2060:	fcf41223          	sh	a5,-60(s0)
    2064:	fc840693          	addi	a3,s0,-56
    2068:	fb840613          	addi	a2,s0,-72
    206c:	fc440593          	addi	a1,s0,-60
    2070:	fd842783          	lw	a5,-40(s0)
    2074:	fdc42703          	lw	a4,-36(s0)
    2078:	fd442503          	lw	a0,-44(s0)
    207c:	1d8000ef          	jal	ra,2254 <core_list_insert_new>
    2080:	fe042623          	sw	zero,-20(s0)
    2084:	0a40006f          	j	2128 <core_list_init+0x19c>
    2088:	fec42783          	lw	a5,-20(s0)
    208c:	01079713          	slli	a4,a5,0x10
    2090:	01075713          	srli	a4,a4,0x10
    2094:	fb645783          	lhu	a5,-74(s0)
    2098:	00f747b3          	xor	a5,a4,a5
    209c:	01079793          	slli	a5,a5,0x10
    20a0:	0107d793          	srli	a5,a5,0x10
    20a4:	00f7f793          	andi	a5,a5,15
    20a8:	fcf41823          	sh	a5,-48(s0)
    20ac:	fd045783          	lhu	a5,-48(s0)
    20b0:	00379793          	slli	a5,a5,0x3
    20b4:	01079713          	slli	a4,a5,0x10
    20b8:	01075713          	srli	a4,a4,0x10
    20bc:	fec42783          	lw	a5,-20(s0)
    20c0:	01079793          	slli	a5,a5,0x10
    20c4:	0107d793          	srli	a5,a5,0x10
    20c8:	0077f793          	andi	a5,a5,7
    20cc:	01079793          	slli	a5,a5,0x10
    20d0:	0107d793          	srli	a5,a5,0x10
    20d4:	00f767b3          	or	a5,a4,a5
    20d8:	fcf41723          	sh	a5,-50(s0)
    20dc:	fce45783          	lhu	a5,-50(s0)
    20e0:	00879793          	slli	a5,a5,0x8
    20e4:	01079713          	slli	a4,a5,0x10
    20e8:	41075713          	srai	a4,a4,0x10
    20ec:	fce41783          	lh	a5,-50(s0)
    20f0:	00f767b3          	or	a5,a4,a5
    20f4:	01079793          	slli	a5,a5,0x10
    20f8:	4107d793          	srai	a5,a5,0x10
    20fc:	fcf41223          	sh	a5,-60(s0)
    2100:	fc840693          	addi	a3,s0,-56
    2104:	fb840613          	addi	a2,s0,-72
    2108:	fc440593          	addi	a1,s0,-60
    210c:	fd842783          	lw	a5,-40(s0)
    2110:	fdc42703          	lw	a4,-36(s0)
    2114:	fd442503          	lw	a0,-44(s0)
    2118:	13c000ef          	jal	ra,2254 <core_list_insert_new>
    211c:	fec42783          	lw	a5,-20(s0)
    2120:	00178793          	addi	a5,a5,1 # ffff8001 <_end+0xffef2401>
    2124:	fef42623          	sw	a5,-20(s0)
    2128:	fec42703          	lw	a4,-20(s0)
    212c:	fe042783          	lw	a5,-32(s0)
    2130:	f4f76ce3          	bltu	a4,a5,2088 <core_list_init+0xfc>
    2134:	fd442783          	lw	a5,-44(s0)
    2138:	0007a783          	lw	a5,0(a5)
    213c:	fef42423          	sw	a5,-24(s0)
    2140:	00100793          	li	a5,1
    2144:	fef42623          	sw	a5,-20(s0)
    2148:	0d00006f          	j	2218 <core_list_init+0x28c>
    214c:	fe042783          	lw	a5,-32(s0)
    2150:	00500593          	li	a1,5
    2154:	00078513          	mv	a0,a5
    2158:	4c4030ef          	jal	ra,561c <__udivsi3>
    215c:	00050793          	mv	a5,a0
    2160:	00078713          	mv	a4,a5
    2164:	fec42783          	lw	a5,-20(s0)
    2168:	02e7f463          	bgeu	a5,a4,2190 <core_list_init+0x204>
    216c:	fec42783          	lw	a5,-20(s0)
    2170:	00178713          	addi	a4,a5,1
    2174:	fee42623          	sw	a4,-20(s0)
    2178:	fe842703          	lw	a4,-24(s0)
    217c:	00472703          	lw	a4,4(a4)
    2180:	01079793          	slli	a5,a5,0x10
    2184:	4107d793          	srai	a5,a5,0x10
    2188:	00f71123          	sh	a5,2(a4)
    218c:	0800006f          	j	220c <core_list_init+0x280>
    2190:	fec42783          	lw	a5,-20(s0)
    2194:	00178713          	addi	a4,a5,1
    2198:	fee42623          	sw	a4,-20(s0)
    219c:	01079713          	slli	a4,a5,0x10
    21a0:	01075713          	srli	a4,a4,0x10
    21a4:	fb645783          	lhu	a5,-74(s0)
    21a8:	00f747b3          	xor	a5,a4,a5
    21ac:	fcf41923          	sh	a5,-46(s0)
    21b0:	fec42783          	lw	a5,-20(s0)
    21b4:	01079793          	slli	a5,a5,0x10
    21b8:	0107d793          	srli	a5,a5,0x10
    21bc:	00879793          	slli	a5,a5,0x8
    21c0:	01079793          	slli	a5,a5,0x10
    21c4:	0107d793          	srli	a5,a5,0x10
    21c8:	7007f793          	andi	a5,a5,1792
    21cc:	01079713          	slli	a4,a5,0x10
    21d0:	01075713          	srli	a4,a4,0x10
    21d4:	fd245783          	lhu	a5,-46(s0)
    21d8:	00f767b3          	or	a5,a4,a5
    21dc:	01079793          	slli	a5,a5,0x10
    21e0:	0107d793          	srli	a5,a5,0x10
    21e4:	01079693          	slli	a3,a5,0x10
    21e8:	4106d693          	srai	a3,a3,0x10
    21ec:	fe842783          	lw	a5,-24(s0)
    21f0:	0047a783          	lw	a5,4(a5)
    21f4:	00004737          	lui	a4,0x4
    21f8:	fff70713          	addi	a4,a4,-1 # 3fff <matrix_mul_matrix+0xff>
    21fc:	00e6f733          	and	a4,a3,a4
    2200:	01071713          	slli	a4,a4,0x10
    2204:	41075713          	srai	a4,a4,0x10
    2208:	00e79123          	sh	a4,2(a5)
    220c:	fe842783          	lw	a5,-24(s0)
    2210:	0007a783          	lw	a5,0(a5)
    2214:	fef42423          	sw	a5,-24(s0)
    2218:	fe842783          	lw	a5,-24(s0)
    221c:	0007a783          	lw	a5,0(a5)
    2220:	f20796e3          	bnez	a5,214c <core_list_init+0x1c0>
    2224:	00000613          	li	a2,0
    2228:	00000597          	auipc	a1,0x0
    222c:	91858593          	addi	a1,a1,-1768 # 1b40 <cmp_idx>
    2230:	fd442503          	lw	a0,-44(s0)
    2234:	2ec000ef          	jal	ra,2520 <core_list_mergesort>
    2238:	fca42a23          	sw	a0,-44(s0)
    223c:	fd442783          	lw	a5,-44(s0)
    2240:	00078513          	mv	a0,a5
    2244:	04c12083          	lw	ra,76(sp)
    2248:	04812403          	lw	s0,72(sp)
    224c:	05010113          	addi	sp,sp,80
    2250:	00008067          	ret

00002254 <core_list_insert_new>:
    2254:	fc010113          	addi	sp,sp,-64
    2258:	02112e23          	sw	ra,60(sp)
    225c:	02812c23          	sw	s0,56(sp)
    2260:	04010413          	addi	s0,sp,64
    2264:	fca42e23          	sw	a0,-36(s0)
    2268:	fcb42c23          	sw	a1,-40(s0)
    226c:	fcc42a23          	sw	a2,-44(s0)
    2270:	fcd42823          	sw	a3,-48(s0)
    2274:	fce42623          	sw	a4,-52(s0)
    2278:	fcf42423          	sw	a5,-56(s0)
    227c:	fd442783          	lw	a5,-44(s0)
    2280:	0007a783          	lw	a5,0(a5)
    2284:	00878793          	addi	a5,a5,8
    2288:	fcc42703          	lw	a4,-52(s0)
    228c:	00e7e663          	bltu	a5,a4,2298 <core_list_insert_new+0x44>
    2290:	00000793          	li	a5,0
    2294:	0980006f          	j	232c <core_list_insert_new+0xd8>
    2298:	fd042783          	lw	a5,-48(s0)
    229c:	0007a783          	lw	a5,0(a5)
    22a0:	00478793          	addi	a5,a5,4
    22a4:	fc842703          	lw	a4,-56(s0)
    22a8:	00e7e663          	bltu	a5,a4,22b4 <core_list_insert_new+0x60>
    22ac:	00000793          	li	a5,0
    22b0:	07c0006f          	j	232c <core_list_insert_new+0xd8>
    22b4:	fd442783          	lw	a5,-44(s0)
    22b8:	0007a783          	lw	a5,0(a5)
    22bc:	fef42623          	sw	a5,-20(s0)
    22c0:	fd442783          	lw	a5,-44(s0)
    22c4:	0007a783          	lw	a5,0(a5)
    22c8:	00878713          	addi	a4,a5,8
    22cc:	fd442783          	lw	a5,-44(s0)
    22d0:	00e7a023          	sw	a4,0(a5)
    22d4:	fdc42783          	lw	a5,-36(s0)
    22d8:	0007a703          	lw	a4,0(a5)
    22dc:	fec42783          	lw	a5,-20(s0)
    22e0:	00e7a023          	sw	a4,0(a5)
    22e4:	fdc42783          	lw	a5,-36(s0)
    22e8:	fec42703          	lw	a4,-20(s0)
    22ec:	00e7a023          	sw	a4,0(a5)
    22f0:	fd042783          	lw	a5,-48(s0)
    22f4:	0007a703          	lw	a4,0(a5)
    22f8:	fec42783          	lw	a5,-20(s0)
    22fc:	00e7a223          	sw	a4,4(a5)
    2300:	fd042783          	lw	a5,-48(s0)
    2304:	0007a783          	lw	a5,0(a5)
    2308:	00478713          	addi	a4,a5,4
    230c:	fd042783          	lw	a5,-48(s0)
    2310:	00e7a023          	sw	a4,0(a5)
    2314:	fec42783          	lw	a5,-20(s0)
    2318:	0047a783          	lw	a5,4(a5)
    231c:	fd842583          	lw	a1,-40(s0)
    2320:	00078513          	mv	a0,a5
    2324:	8fdff0ef          	jal	ra,1c20 <copy_info>
    2328:	fec42783          	lw	a5,-20(s0)
    232c:	00078513          	mv	a0,a5
    2330:	03c12083          	lw	ra,60(sp)
    2334:	03812403          	lw	s0,56(sp)
    2338:	04010113          	addi	sp,sp,64
    233c:	00008067          	ret

00002340 <core_list_remove>:
    2340:	fd010113          	addi	sp,sp,-48
    2344:	02812623          	sw	s0,44(sp)
    2348:	03010413          	addi	s0,sp,48
    234c:	fca42e23          	sw	a0,-36(s0)
    2350:	fdc42783          	lw	a5,-36(s0)
    2354:	0007a783          	lw	a5,0(a5)
    2358:	fef42623          	sw	a5,-20(s0)
    235c:	fdc42783          	lw	a5,-36(s0)
    2360:	0047a783          	lw	a5,4(a5)
    2364:	fef42423          	sw	a5,-24(s0)
    2368:	fec42783          	lw	a5,-20(s0)
    236c:	0047a703          	lw	a4,4(a5)
    2370:	fdc42783          	lw	a5,-36(s0)
    2374:	00e7a223          	sw	a4,4(a5)
    2378:	fec42783          	lw	a5,-20(s0)
    237c:	fe842703          	lw	a4,-24(s0)
    2380:	00e7a223          	sw	a4,4(a5)
    2384:	fdc42783          	lw	a5,-36(s0)
    2388:	0007a783          	lw	a5,0(a5)
    238c:	0007a703          	lw	a4,0(a5)
    2390:	fdc42783          	lw	a5,-36(s0)
    2394:	00e7a023          	sw	a4,0(a5)
    2398:	fec42783          	lw	a5,-20(s0)
    239c:	0007a023          	sw	zero,0(a5)
    23a0:	fec42783          	lw	a5,-20(s0)
    23a4:	00078513          	mv	a0,a5
    23a8:	02c12403          	lw	s0,44(sp)
    23ac:	03010113          	addi	sp,sp,48
    23b0:	00008067          	ret

000023b4 <core_list_undo_remove>:
    23b4:	fd010113          	addi	sp,sp,-48
    23b8:	02812623          	sw	s0,44(sp)
    23bc:	03010413          	addi	s0,sp,48
    23c0:	fca42e23          	sw	a0,-36(s0)
    23c4:	fcb42c23          	sw	a1,-40(s0)
    23c8:	fdc42783          	lw	a5,-36(s0)
    23cc:	0047a783          	lw	a5,4(a5)
    23d0:	fef42623          	sw	a5,-20(s0)
    23d4:	fd842783          	lw	a5,-40(s0)
    23d8:	0047a703          	lw	a4,4(a5)
    23dc:	fdc42783          	lw	a5,-36(s0)
    23e0:	00e7a223          	sw	a4,4(a5)
    23e4:	fd842783          	lw	a5,-40(s0)
    23e8:	fec42703          	lw	a4,-20(s0)
    23ec:	00e7a223          	sw	a4,4(a5)
    23f0:	fd842783          	lw	a5,-40(s0)
    23f4:	0007a703          	lw	a4,0(a5)
    23f8:	fdc42783          	lw	a5,-36(s0)
    23fc:	00e7a023          	sw	a4,0(a5)
    2400:	fd842783          	lw	a5,-40(s0)
    2404:	fdc42703          	lw	a4,-36(s0)
    2408:	00e7a023          	sw	a4,0(a5)
    240c:	fdc42783          	lw	a5,-36(s0)
    2410:	00078513          	mv	a0,a5
    2414:	02c12403          	lw	s0,44(sp)
    2418:	03010113          	addi	sp,sp,48
    241c:	00008067          	ret

00002420 <core_list_find>:
    2420:	fe010113          	addi	sp,sp,-32
    2424:	00812e23          	sw	s0,28(sp)
    2428:	02010413          	addi	s0,sp,32
    242c:	fea42623          	sw	a0,-20(s0)
    2430:	feb42423          	sw	a1,-24(s0)
    2434:	fe842783          	lw	a5,-24(s0)
    2438:	00279783          	lh	a5,2(a5)
    243c:	0407c463          	bltz	a5,2484 <core_list_find+0x64>
    2440:	0100006f          	j	2450 <core_list_find+0x30>
    2444:	fec42783          	lw	a5,-20(s0)
    2448:	0007a783          	lw	a5,0(a5)
    244c:	fef42623          	sw	a5,-20(s0)
    2450:	fec42783          	lw	a5,-20(s0)
    2454:	00078e63          	beqz	a5,2470 <core_list_find+0x50>
    2458:	fec42783          	lw	a5,-20(s0)
    245c:	0047a783          	lw	a5,4(a5)
    2460:	00279703          	lh	a4,2(a5)
    2464:	fe842783          	lw	a5,-24(s0)
    2468:	00279783          	lh	a5,2(a5)
    246c:	fcf71ce3          	bne	a4,a5,2444 <core_list_find+0x24>
    2470:	fec42783          	lw	a5,-20(s0)
    2474:	0400006f          	j	24b4 <core_list_find+0x94>
    2478:	fec42783          	lw	a5,-20(s0)
    247c:	0007a783          	lw	a5,0(a5)
    2480:	fef42623          	sw	a5,-20(s0)
    2484:	fec42783          	lw	a5,-20(s0)
    2488:	02078463          	beqz	a5,24b0 <core_list_find+0x90>
    248c:	fec42783          	lw	a5,-20(s0)
    2490:	0047a783          	lw	a5,4(a5)
    2494:	00079783          	lh	a5,0(a5)
    2498:	01079793          	slli	a5,a5,0x10
    249c:	0107d793          	srli	a5,a5,0x10
    24a0:	0ff7f793          	andi	a5,a5,255
    24a4:	fe842703          	lw	a4,-24(s0)
    24a8:	00071703          	lh	a4,0(a4)
    24ac:	fce796e3          	bne	a5,a4,2478 <core_list_find+0x58>
    24b0:	fec42783          	lw	a5,-20(s0)
    24b4:	00078513          	mv	a0,a5
    24b8:	01c12403          	lw	s0,28(sp)
    24bc:	02010113          	addi	sp,sp,32
    24c0:	00008067          	ret

000024c4 <core_list_reverse>:
    24c4:	fd010113          	addi	sp,sp,-48
    24c8:	02812623          	sw	s0,44(sp)
    24cc:	03010413          	addi	s0,sp,48
    24d0:	fca42e23          	sw	a0,-36(s0)
    24d4:	fe042623          	sw	zero,-20(s0)
    24d8:	02c0006f          	j	2504 <core_list_reverse+0x40>
    24dc:	fdc42783          	lw	a5,-36(s0)
    24e0:	0007a783          	lw	a5,0(a5)
    24e4:	fef42423          	sw	a5,-24(s0)
    24e8:	fdc42783          	lw	a5,-36(s0)
    24ec:	fec42703          	lw	a4,-20(s0)
    24f0:	00e7a023          	sw	a4,0(a5)
    24f4:	fdc42783          	lw	a5,-36(s0)
    24f8:	fef42623          	sw	a5,-20(s0)
    24fc:	fe842783          	lw	a5,-24(s0)
    2500:	fcf42e23          	sw	a5,-36(s0)
    2504:	fdc42783          	lw	a5,-36(s0)
    2508:	fc079ae3          	bnez	a5,24dc <core_list_reverse+0x18>
    250c:	fec42783          	lw	a5,-20(s0)
    2510:	00078513          	mv	a0,a5
    2514:	02c12403          	lw	s0,44(sp)
    2518:	03010113          	addi	sp,sp,48
    251c:	00008067          	ret

00002520 <core_list_mergesort>:
    2520:	fb010113          	addi	sp,sp,-80
    2524:	04112623          	sw	ra,76(sp)
    2528:	04812423          	sw	s0,72(sp)
    252c:	05010413          	addi	s0,sp,80
    2530:	faa42e23          	sw	a0,-68(s0)
    2534:	fab42c23          	sw	a1,-72(s0)
    2538:	fac42a23          	sw	a2,-76(s0)
    253c:	00100793          	li	a5,1
    2540:	fcf42e23          	sw	a5,-36(s0)
    2544:	fbc42783          	lw	a5,-68(s0)
    2548:	fef42623          	sw	a5,-20(s0)
    254c:	fa042e23          	sw	zero,-68(s0)
    2550:	fe042023          	sw	zero,-32(s0)
    2554:	fc042c23          	sw	zero,-40(s0)
    2558:	1880006f          	j	26e0 <core_list_mergesort+0x1c0>
    255c:	fd842783          	lw	a5,-40(s0)
    2560:	00178793          	addi	a5,a5,1
    2564:	fcf42c23          	sw	a5,-40(s0)
    2568:	fec42783          	lw	a5,-20(s0)
    256c:	fef42423          	sw	a5,-24(s0)
    2570:	fc042a23          	sw	zero,-44(s0)
    2574:	fc042623          	sw	zero,-52(s0)
    2578:	0300006f          	j	25a8 <core_list_mergesort+0x88>
    257c:	fd442783          	lw	a5,-44(s0)
    2580:	00178793          	addi	a5,a5,1
    2584:	fcf42a23          	sw	a5,-44(s0)
    2588:	fe842783          	lw	a5,-24(s0)
    258c:	0007a783          	lw	a5,0(a5)
    2590:	fef42423          	sw	a5,-24(s0)
    2594:	fe842783          	lw	a5,-24(s0)
    2598:	02078063          	beqz	a5,25b8 <core_list_mergesort+0x98>
    259c:	fcc42783          	lw	a5,-52(s0)
    25a0:	00178793          	addi	a5,a5,1
    25a4:	fcf42623          	sw	a5,-52(s0)
    25a8:	fcc42703          	lw	a4,-52(s0)
    25ac:	fdc42783          	lw	a5,-36(s0)
    25b0:	fcf746e3          	blt	a4,a5,257c <core_list_mergesort+0x5c>
    25b4:	0080006f          	j	25bc <core_list_mergesort+0x9c>
    25b8:	00000013          	nop
    25bc:	fdc42783          	lw	a5,-36(s0)
    25c0:	fcf42823          	sw	a5,-48(s0)
    25c4:	0fc0006f          	j	26c0 <core_list_mergesort+0x1a0>
    25c8:	fd442783          	lw	a5,-44(s0)
    25cc:	02079463          	bnez	a5,25f4 <core_list_mergesort+0xd4>
    25d0:	fe842783          	lw	a5,-24(s0)
    25d4:	fef42223          	sw	a5,-28(s0)
    25d8:	fe842783          	lw	a5,-24(s0)
    25dc:	0007a783          	lw	a5,0(a5)
    25e0:	fef42423          	sw	a5,-24(s0)
    25e4:	fd042783          	lw	a5,-48(s0)
    25e8:	fff78793          	addi	a5,a5,-1
    25ec:	fcf42823          	sw	a5,-48(s0)
    25f0:	0a80006f          	j	2698 <core_list_mergesort+0x178>
    25f4:	fd042783          	lw	a5,-48(s0)
    25f8:	00078663          	beqz	a5,2604 <core_list_mergesort+0xe4>
    25fc:	fe842783          	lw	a5,-24(s0)
    2600:	02079463          	bnez	a5,2628 <core_list_mergesort+0x108>
    2604:	fec42783          	lw	a5,-20(s0)
    2608:	fef42223          	sw	a5,-28(s0)
    260c:	fec42783          	lw	a5,-20(s0)
    2610:	0007a783          	lw	a5,0(a5)
    2614:	fef42623          	sw	a5,-20(s0)
    2618:	fd442783          	lw	a5,-44(s0)
    261c:	fff78793          	addi	a5,a5,-1
    2620:	fcf42a23          	sw	a5,-44(s0)
    2624:	0740006f          	j	2698 <core_list_mergesort+0x178>
    2628:	fec42783          	lw	a5,-20(s0)
    262c:	0047a703          	lw	a4,4(a5)
    2630:	fe842783          	lw	a5,-24(s0)
    2634:	0047a783          	lw	a5,4(a5)
    2638:	fb842683          	lw	a3,-72(s0)
    263c:	fb442603          	lw	a2,-76(s0)
    2640:	00078593          	mv	a1,a5
    2644:	00070513          	mv	a0,a4
    2648:	000680e7          	jalr	a3
    264c:	00050793          	mv	a5,a0
    2650:	02f04463          	bgtz	a5,2678 <core_list_mergesort+0x158>
    2654:	fec42783          	lw	a5,-20(s0)
    2658:	fef42223          	sw	a5,-28(s0)
    265c:	fec42783          	lw	a5,-20(s0)
    2660:	0007a783          	lw	a5,0(a5)
    2664:	fef42623          	sw	a5,-20(s0)
    2668:	fd442783          	lw	a5,-44(s0)
    266c:	fff78793          	addi	a5,a5,-1
    2670:	fcf42a23          	sw	a5,-44(s0)
    2674:	0240006f          	j	2698 <core_list_mergesort+0x178>
    2678:	fe842783          	lw	a5,-24(s0)
    267c:	fef42223          	sw	a5,-28(s0)
    2680:	fe842783          	lw	a5,-24(s0)
    2684:	0007a783          	lw	a5,0(a5)
    2688:	fef42423          	sw	a5,-24(s0)
    268c:	fd042783          	lw	a5,-48(s0)
    2690:	fff78793          	addi	a5,a5,-1
    2694:	fcf42823          	sw	a5,-48(s0)
    2698:	fe042783          	lw	a5,-32(s0)
    269c:	00078a63          	beqz	a5,26b0 <core_list_mergesort+0x190>
    26a0:	fe042783          	lw	a5,-32(s0)
    26a4:	fe442703          	lw	a4,-28(s0)
    26a8:	00e7a023          	sw	a4,0(a5)
    26ac:	00c0006f          	j	26b8 <core_list_mergesort+0x198>
    26b0:	fe442783          	lw	a5,-28(s0)
    26b4:	faf42e23          	sw	a5,-68(s0)
    26b8:	fe442783          	lw	a5,-28(s0)
    26bc:	fef42023          	sw	a5,-32(s0)
    26c0:	fd442783          	lw	a5,-44(s0)
    26c4:	f0f042e3          	bgtz	a5,25c8 <core_list_mergesort+0xa8>
    26c8:	fd042783          	lw	a5,-48(s0)
    26cc:	00f05663          	blez	a5,26d8 <core_list_mergesort+0x1b8>
    26d0:	fe842783          	lw	a5,-24(s0)
    26d4:	ee079ae3          	bnez	a5,25c8 <core_list_mergesort+0xa8>
    26d8:	fe842783          	lw	a5,-24(s0)
    26dc:	fef42623          	sw	a5,-20(s0)
    26e0:	fec42783          	lw	a5,-20(s0)
    26e4:	e6079ce3          	bnez	a5,255c <core_list_mergesort+0x3c>
    26e8:	fe042783          	lw	a5,-32(s0)
    26ec:	0007a023          	sw	zero,0(a5)
    26f0:	fd842703          	lw	a4,-40(s0)
    26f4:	00100793          	li	a5,1
    26f8:	00e7c663          	blt	a5,a4,2704 <core_list_mergesort+0x1e4>
    26fc:	fbc42783          	lw	a5,-68(s0)
    2700:	0140006f          	j	2714 <core_list_mergesort+0x1f4>
    2704:	fdc42783          	lw	a5,-36(s0)
    2708:	00179793          	slli	a5,a5,0x1
    270c:	fcf42e23          	sw	a5,-36(s0)
    2710:	e35ff06f          	j	2544 <core_list_mergesort+0x24>
    2714:	00078513          	mv	a0,a5
    2718:	04c12083          	lw	ra,76(sp)
    271c:	04812403          	lw	s0,72(sp)
    2720:	05010113          	addi	sp,sp,80
    2724:	00008067          	ret

00002728 <iterate>:
    2728:	fd010113          	addi	sp,sp,-48
    272c:	02112623          	sw	ra,44(sp)
    2730:	02812423          	sw	s0,40(sp)
    2734:	03010413          	addi	s0,sp,48
    2738:	fca42e23          	sw	a0,-36(s0)
    273c:	fdc42783          	lw	a5,-36(s0)
    2740:	fef42423          	sw	a5,-24(s0)
    2744:	fe842783          	lw	a5,-24(s0)
    2748:	01c7a783          	lw	a5,28(a5)
    274c:	fef42223          	sw	a5,-28(s0)
    2750:	fe842783          	lw	a5,-24(s0)
    2754:	02079c23          	sh	zero,56(a5)
    2758:	fe842783          	lw	a5,-24(s0)
    275c:	02079d23          	sh	zero,58(a5)
    2760:	fe842783          	lw	a5,-24(s0)
    2764:	02079e23          	sh	zero,60(a5)
    2768:	fe842783          	lw	a5,-24(s0)
    276c:	02079f23          	sh	zero,62(a5)
    2770:	fe042623          	sw	zero,-20(s0)
    2774:	0a00006f          	j	2814 <iterate+0xec>
    2778:	00100593          	li	a1,1
    277c:	fe842503          	lw	a0,-24(s0)
    2780:	ce4ff0ef          	jal	ra,1c64 <core_bench_list>
    2784:	00050793          	mv	a5,a0
    2788:	fef41123          	sh	a5,-30(s0)
    278c:	fe842783          	lw	a5,-24(s0)
    2790:	0387d703          	lhu	a4,56(a5)
    2794:	fe245783          	lhu	a5,-30(s0)
    2798:	00070593          	mv	a1,a4
    279c:	00078513          	mv	a0,a5
    27a0:	71c020ef          	jal	ra,4ebc <crcu16>
    27a4:	00050793          	mv	a5,a0
    27a8:	00078713          	mv	a4,a5
    27ac:	fe842783          	lw	a5,-24(s0)
    27b0:	02e79c23          	sh	a4,56(a5)
    27b4:	fff00593          	li	a1,-1
    27b8:	fe842503          	lw	a0,-24(s0)
    27bc:	ca8ff0ef          	jal	ra,1c64 <core_bench_list>
    27c0:	00050793          	mv	a5,a0
    27c4:	fef41123          	sh	a5,-30(s0)
    27c8:	fe842783          	lw	a5,-24(s0)
    27cc:	0387d703          	lhu	a4,56(a5)
    27d0:	fe245783          	lhu	a5,-30(s0)
    27d4:	00070593          	mv	a1,a4
    27d8:	00078513          	mv	a0,a5
    27dc:	6e0020ef          	jal	ra,4ebc <crcu16>
    27e0:	00050793          	mv	a5,a0
    27e4:	00078713          	mv	a4,a5
    27e8:	fe842783          	lw	a5,-24(s0)
    27ec:	02e79c23          	sh	a4,56(a5)
    27f0:	fec42783          	lw	a5,-20(s0)
    27f4:	00079a63          	bnez	a5,2808 <iterate+0xe0>
    27f8:	fe842783          	lw	a5,-24(s0)
    27fc:	0387d703          	lhu	a4,56(a5)
    2800:	fe842783          	lw	a5,-24(s0)
    2804:	02e79d23          	sh	a4,58(a5)
    2808:	fec42783          	lw	a5,-20(s0)
    280c:	00178793          	addi	a5,a5,1
    2810:	fef42623          	sw	a5,-20(s0)
    2814:	fec42703          	lw	a4,-20(s0)
    2818:	fe442783          	lw	a5,-28(s0)
    281c:	f4f76ee3          	bltu	a4,a5,2778 <iterate+0x50>
    2820:	00000793          	li	a5,0
    2824:	00078513          	mv	a0,a5
    2828:	02c12083          	lw	ra,44(sp)
    282c:	02812403          	lw	s0,40(sp)
    2830:	03010113          	addi	sp,sp,48
    2834:	00008067          	ret

00002838 <exec_benchmark>:
    2838:	f7010113          	addi	sp,sp,-144
    283c:	08112623          	sw	ra,140(sp)
    2840:	08812423          	sw	s0,136(sp)
    2844:	08912223          	sw	s1,132(sp)
    2848:	09010413          	addi	s0,sp,144
    284c:	f6a42e23          	sw	a0,-132(s0)
    2850:	fe041623          	sh	zero,-20(s0)
    2854:	fe041523          	sh	zero,-22(s0)
    2858:	fff00793          	li	a5,-1
    285c:	fef41423          	sh	a5,-24(s0)
    2860:	fe041323          	sh	zero,-26(s0)
    2864:	fc041b23          	sh	zero,-42(s0)
    2868:	3e800593          	li	a1,1000
    286c:	000fd517          	auipc	a0,0xfd
    2870:	7b050513          	addi	a0,a0,1968 # 10001c <_etext+0xfa0e4>
    2874:	0ed020ef          	jal	ra,5160 <kprintf>
    2878:	f8c40793          	addi	a5,s0,-116
    287c:	04278793          	addi	a5,a5,66
    2880:	00000613          	li	a2,0
    2884:	00000593          	li	a1,0
    2888:	00078513          	mv	a0,a5
    288c:	2e5010ef          	jal	ra,4370 <portable_init>
    2890:	00100513          	li	a0,1
    2894:	464020ef          	jal	ra,4cf8 <get_seed_32>
    2898:	00050793          	mv	a5,a0
    289c:	01079793          	slli	a5,a5,0x10
    28a0:	4107d793          	srai	a5,a5,0x10
    28a4:	f8f41623          	sh	a5,-116(s0)
    28a8:	00200513          	li	a0,2
    28ac:	44c020ef          	jal	ra,4cf8 <get_seed_32>
    28b0:	00050793          	mv	a5,a0
    28b4:	01079793          	slli	a5,a5,0x10
    28b8:	4107d793          	srai	a5,a5,0x10
    28bc:	f8f41723          	sh	a5,-114(s0)
    28c0:	00300513          	li	a0,3
    28c4:	434020ef          	jal	ra,4cf8 <get_seed_32>
    28c8:	00050793          	mv	a5,a0
    28cc:	01079793          	slli	a5,a5,0x10
    28d0:	4107d793          	srai	a5,a5,0x10
    28d4:	f8f41823          	sh	a5,-112(s0)
    28d8:	00400513          	li	a0,4
    28dc:	41c020ef          	jal	ra,4cf8 <get_seed_32>
    28e0:	00050793          	mv	a5,a0
    28e4:	faf42423          	sw	a5,-88(s0)
    28e8:	00500513          	li	a0,5
    28ec:	40c020ef          	jal	ra,4cf8 <get_seed_32>
    28f0:	00050793          	mv	a5,a0
    28f4:	faf42623          	sw	a5,-84(s0)
    28f8:	fac42783          	lw	a5,-84(s0)
    28fc:	00079663          	bnez	a5,2908 <exec_benchmark+0xd0>
    2900:	00700793          	li	a5,7
    2904:	faf42623          	sw	a5,-84(s0)
    2908:	f8c41783          	lh	a5,-116(s0)
    290c:	02079263          	bnez	a5,2930 <exec_benchmark+0xf8>
    2910:	f8e41783          	lh	a5,-114(s0)
    2914:	00079e63          	bnez	a5,2930 <exec_benchmark+0xf8>
    2918:	f9041783          	lh	a5,-112(s0)
    291c:	00079a63          	bnez	a5,2930 <exec_benchmark+0xf8>
    2920:	f8041623          	sh	zero,-116(s0)
    2924:	f8041723          	sh	zero,-114(s0)
    2928:	06600793          	li	a5,102
    292c:	f8f41823          	sh	a5,-112(s0)
    2930:	f8c41703          	lh	a4,-116(s0)
    2934:	00100793          	li	a5,1
    2938:	02f71a63          	bne	a4,a5,296c <exec_benchmark+0x134>
    293c:	f8e41783          	lh	a5,-114(s0)
    2940:	02079663          	bnez	a5,296c <exec_benchmark+0x134>
    2944:	f9041783          	lh	a5,-112(s0)
    2948:	02079263          	bnez	a5,296c <exec_benchmark+0x134>
    294c:	000037b7          	lui	a5,0x3
    2950:	41578793          	addi	a5,a5,1045 # 3415 <exec_benchmark+0xbdd>
    2954:	f8f41623          	sh	a5,-116(s0)
    2958:	000037b7          	lui	a5,0x3
    295c:	41578793          	addi	a5,a5,1045 # 3415 <exec_benchmark+0xbdd>
    2960:	f8f41723          	sh	a5,-114(s0)
    2964:	06600793          	li	a5,102
    2968:	f8f41823          	sh	a5,-112(s0)
    296c:	00102797          	auipc	a5,0x102
    2970:	c8478793          	addi	a5,a5,-892 # 1045f0 <static_memblk>
    2974:	f8f42a23          	sw	a5,-108(s0)
    2978:	7d000793          	li	a5,2000
    297c:	faf42223          	sw	a5,-92(s0)
    2980:	fc041623          	sh	zero,-52(s0)
    2984:	fe041723          	sh	zero,-18(s0)
    2988:	0380006f          	j	29c0 <exec_benchmark+0x188>
    298c:	fee45783          	lhu	a5,-18(s0)
    2990:	00100713          	li	a4,1
    2994:	00f717b3          	sll	a5,a4,a5
    2998:	00078713          	mv	a4,a5
    299c:	fac42783          	lw	a5,-84(s0)
    29a0:	00f777b3          	and	a5,a4,a5
    29a4:	00078863          	beqz	a5,29b4 <exec_benchmark+0x17c>
    29a8:	fea45783          	lhu	a5,-22(s0)
    29ac:	00178793          	addi	a5,a5,1
    29b0:	fef41523          	sh	a5,-22(s0)
    29b4:	fee45783          	lhu	a5,-18(s0)
    29b8:	00178793          	addi	a5,a5,1
    29bc:	fef41723          	sh	a5,-18(s0)
    29c0:	fee45703          	lhu	a4,-18(s0)
    29c4:	00200793          	li	a5,2
    29c8:	fce7f2e3          	bgeu	a5,a4,298c <exec_benchmark+0x154>
    29cc:	fe041723          	sh	zero,-18(s0)
    29d0:	0680006f          	j	2a38 <exec_benchmark+0x200>
    29d4:	fee45703          	lhu	a4,-18(s0)
    29d8:	00070793          	mv	a5,a4
    29dc:	00479793          	slli	a5,a5,0x4
    29e0:	00e787b3          	add	a5,a5,a4
    29e4:	00279793          	slli	a5,a5,0x2
    29e8:	ff040713          	addi	a4,s0,-16
    29ec:	00f707b3          	add	a5,a4,a5
    29f0:	fb47a783          	lw	a5,-76(a5)
    29f4:	fea45703          	lhu	a4,-22(s0)
    29f8:	fee45483          	lhu	s1,-18(s0)
    29fc:	00070593          	mv	a1,a4
    2a00:	00078513          	mv	a0,a5
    2a04:	419020ef          	jal	ra,561c <__udivsi3>
    2a08:	00050793          	mv	a5,a0
    2a0c:	00078713          	mv	a4,a5
    2a10:	00048793          	mv	a5,s1
    2a14:	00479793          	slli	a5,a5,0x4
    2a18:	009787b3          	add	a5,a5,s1
    2a1c:	00279793          	slli	a5,a5,0x2
    2a20:	ff040693          	addi	a3,s0,-16
    2a24:	00f687b3          	add	a5,a3,a5
    2a28:	fae7aa23          	sw	a4,-76(a5)
    2a2c:	fee45783          	lhu	a5,-18(s0)
    2a30:	00178793          	addi	a5,a5,1
    2a34:	fef41723          	sh	a5,-18(s0)
    2a38:	fee45783          	lhu	a5,-18(s0)
    2a3c:	f8078ce3          	beqz	a5,29d4 <exec_benchmark+0x19c>
    2a40:	fe041723          	sh	zero,-18(s0)
    2a44:	0c00006f          	j	2b04 <exec_benchmark+0x2cc>
    2a48:	fee45783          	lhu	a5,-18(s0)
    2a4c:	00100713          	li	a4,1
    2a50:	00f717b3          	sll	a5,a4,a5
    2a54:	00078713          	mv	a4,a5
    2a58:	fac42783          	lw	a5,-84(s0)
    2a5c:	00f777b3          	and	a5,a4,a5
    2a60:	08078c63          	beqz	a5,2af8 <exec_benchmark+0x2c0>
    2a64:	fe042023          	sw	zero,-32(s0)
    2a68:	07c0006f          	j	2ae4 <exec_benchmark+0x2ac>
    2a6c:	fe042703          	lw	a4,-32(s0)
    2a70:	00070793          	mv	a5,a4
    2a74:	00479793          	slli	a5,a5,0x4
    2a78:	00e787b3          	add	a5,a5,a4
    2a7c:	00279793          	slli	a5,a5,0x2
    2a80:	ff040713          	addi	a4,s0,-16
    2a84:	00f707b3          	add	a5,a4,a5
    2a88:	fa47a483          	lw	s1,-92(a5)
    2a8c:	fa442783          	lw	a5,-92(s0)
    2a90:	fec45703          	lhu	a4,-20(s0)
    2a94:	00070593          	mv	a1,a4
    2a98:	00078513          	mv	a0,a5
    2a9c:	259020ef          	jal	ra,54f4 <__mulsi3>
    2aa0:	00050793          	mv	a5,a0
    2aa4:	00078713          	mv	a4,a5
    2aa8:	fee45783          	lhu	a5,-18(s0)
    2aac:	00178613          	addi	a2,a5,1
    2ab0:	00e486b3          	add	a3,s1,a4
    2ab4:	fe042703          	lw	a4,-32(s0)
    2ab8:	00070793          	mv	a5,a4
    2abc:	00479793          	slli	a5,a5,0x4
    2ac0:	00e787b3          	add	a5,a5,a4
    2ac4:	00c787b3          	add	a5,a5,a2
    2ac8:	00279793          	slli	a5,a5,0x2
    2acc:	ff040713          	addi	a4,s0,-16
    2ad0:	00f707b3          	add	a5,a4,a5
    2ad4:	fad7a223          	sw	a3,-92(a5)
    2ad8:	fe042783          	lw	a5,-32(s0)
    2adc:	00178793          	addi	a5,a5,1
    2ae0:	fef42023          	sw	a5,-32(s0)
    2ae4:	fe042783          	lw	a5,-32(s0)
    2ae8:	f80782e3          	beqz	a5,2a6c <exec_benchmark+0x234>
    2aec:	fec45783          	lhu	a5,-20(s0)
    2af0:	00178793          	addi	a5,a5,1
    2af4:	fef41623          	sh	a5,-20(s0)
    2af8:	fee45783          	lhu	a5,-18(s0)
    2afc:	00178793          	addi	a5,a5,1
    2b00:	fef41723          	sh	a5,-18(s0)
    2b04:	fee45703          	lhu	a4,-18(s0)
    2b08:	00200793          	li	a5,2
    2b0c:	f2e7fee3          	bgeu	a5,a4,2a48 <exec_benchmark+0x210>
    2b10:	fe041723          	sh	zero,-18(s0)
    2b14:	1e80006f          	j	2cfc <exec_benchmark+0x4c4>
    2b18:	fee45703          	lhu	a4,-18(s0)
    2b1c:	00070793          	mv	a5,a4
    2b20:	00479793          	slli	a5,a5,0x4
    2b24:	00e787b3          	add	a5,a5,a4
    2b28:	00279793          	slli	a5,a5,0x2
    2b2c:	ff040713          	addi	a4,s0,-16
    2b30:	00f707b3          	add	a5,a4,a5
    2b34:	fbc7a783          	lw	a5,-68(a5)
    2b38:	0017f793          	andi	a5,a5,1
    2b3c:	06078c63          	beqz	a5,2bb4 <exec_benchmark+0x37c>
    2b40:	fa442683          	lw	a3,-92(s0)
    2b44:	fee45703          	lhu	a4,-18(s0)
    2b48:	00070793          	mv	a5,a4
    2b4c:	00479793          	slli	a5,a5,0x4
    2b50:	00e787b3          	add	a5,a5,a4
    2b54:	00279793          	slli	a5,a5,0x2
    2b58:	ff040713          	addi	a4,s0,-16
    2b5c:	00f707b3          	add	a5,a4,a5
    2b60:	fa87a583          	lw	a1,-88(a5)
    2b64:	fee45703          	lhu	a4,-18(s0)
    2b68:	00070793          	mv	a5,a4
    2b6c:	00479793          	slli	a5,a5,0x4
    2b70:	00e787b3          	add	a5,a5,a4
    2b74:	00279793          	slli	a5,a5,0x2
    2b78:	ff040713          	addi	a4,s0,-16
    2b7c:	00f707b3          	add	a5,a4,a5
    2b80:	f9c79783          	lh	a5,-100(a5)
    2b84:	fee45483          	lhu	s1,-18(s0)
    2b88:	00078613          	mv	a2,a5
    2b8c:	00068513          	mv	a0,a3
    2b90:	bfcff0ef          	jal	ra,1f8c <core_list_init>
    2b94:	00050713          	mv	a4,a0
    2b98:	00048793          	mv	a5,s1
    2b9c:	00479793          	slli	a5,a5,0x4
    2ba0:	009787b3          	add	a5,a5,s1
    2ba4:	00279793          	slli	a5,a5,0x2
    2ba8:	ff040693          	addi	a3,s0,-16
    2bac:	00f687b3          	add	a5,a3,a5
    2bb0:	fce7a023          	sw	a4,-64(a5)
    2bb4:	fee45703          	lhu	a4,-18(s0)
    2bb8:	00070793          	mv	a5,a4
    2bbc:	00479793          	slli	a5,a5,0x4
    2bc0:	00e787b3          	add	a5,a5,a4
    2bc4:	00279793          	slli	a5,a5,0x2
    2bc8:	ff040713          	addi	a4,s0,-16
    2bcc:	00f707b3          	add	a5,a4,a5
    2bd0:	fbc7a783          	lw	a5,-68(a5)
    2bd4:	0027f793          	andi	a5,a5,2
    2bd8:	0a078063          	beqz	a5,2c78 <exec_benchmark+0x440>
    2bdc:	fa442503          	lw	a0,-92(s0)
    2be0:	fee45703          	lhu	a4,-18(s0)
    2be4:	00070793          	mv	a5,a4
    2be8:	00479793          	slli	a5,a5,0x4
    2bec:	00e787b3          	add	a5,a5,a4
    2bf0:	00279793          	slli	a5,a5,0x2
    2bf4:	ff040713          	addi	a4,s0,-16
    2bf8:	00f707b3          	add	a5,a4,a5
    2bfc:	fac7a583          	lw	a1,-84(a5)
    2c00:	fee45703          	lhu	a4,-18(s0)
    2c04:	00070793          	mv	a5,a4
    2c08:	00479793          	slli	a5,a5,0x4
    2c0c:	00e787b3          	add	a5,a5,a4
    2c10:	00279793          	slli	a5,a5,0x2
    2c14:	ff040713          	addi	a4,s0,-16
    2c18:	00f707b3          	add	a5,a4,a5
    2c1c:	f9c79783          	lh	a5,-100(a5)
    2c20:	00078693          	mv	a3,a5
    2c24:	fee45703          	lhu	a4,-18(s0)
    2c28:	00070793          	mv	a5,a4
    2c2c:	00479793          	slli	a5,a5,0x4
    2c30:	00e787b3          	add	a5,a5,a4
    2c34:	00279793          	slli	a5,a5,0x2
    2c38:	ff040713          	addi	a4,s0,-16
    2c3c:	00f707b3          	add	a5,a4,a5
    2c40:	f9e79783          	lh	a5,-98(a5)
    2c44:	01079793          	slli	a5,a5,0x10
    2c48:	00f6e633          	or	a2,a3,a5
    2c4c:	fee45703          	lhu	a4,-18(s0)
    2c50:	f8c40693          	addi	a3,s0,-116
    2c54:	00070793          	mv	a5,a4
    2c58:	00479793          	slli	a5,a5,0x4
    2c5c:	00e787b3          	add	a5,a5,a4
    2c60:	00279793          	slli	a5,a5,0x2
    2c64:	02078793          	addi	a5,a5,32
    2c68:	00f687b3          	add	a5,a3,a5
    2c6c:	00878793          	addi	a5,a5,8
    2c70:	00078693          	mv	a3,a5
    2c74:	3f9000ef          	jal	ra,386c <core_init_matrix>
    2c78:	fee45703          	lhu	a4,-18(s0)
    2c7c:	00070793          	mv	a5,a4
    2c80:	00479793          	slli	a5,a5,0x4
    2c84:	00e787b3          	add	a5,a5,a4
    2c88:	00279793          	slli	a5,a5,0x2
    2c8c:	ff040713          	addi	a4,s0,-16
    2c90:	00f707b3          	add	a5,a4,a5
    2c94:	fbc7a783          	lw	a5,-68(a5)
    2c98:	0047f793          	andi	a5,a5,4
    2c9c:	04078a63          	beqz	a5,2cf0 <exec_benchmark+0x4b8>
    2ca0:	fa442683          	lw	a3,-92(s0)
    2ca4:	fee45703          	lhu	a4,-18(s0)
    2ca8:	00070793          	mv	a5,a4
    2cac:	00479793          	slli	a5,a5,0x4
    2cb0:	00e787b3          	add	a5,a5,a4
    2cb4:	00279793          	slli	a5,a5,0x2
    2cb8:	ff040713          	addi	a4,s0,-16
    2cbc:	00f707b3          	add	a5,a4,a5
    2cc0:	f9c79583          	lh	a1,-100(a5)
    2cc4:	fee45703          	lhu	a4,-18(s0)
    2cc8:	00070793          	mv	a5,a4
    2ccc:	00479793          	slli	a5,a5,0x4
    2cd0:	00e787b3          	add	a5,a5,a4
    2cd4:	00279793          	slli	a5,a5,0x2
    2cd8:	ff040713          	addi	a4,s0,-16
    2cdc:	00f707b3          	add	a5,a4,a5
    2ce0:	fb07a783          	lw	a5,-80(a5)
    2ce4:	00078613          	mv	a2,a5
    2ce8:	00068513          	mv	a0,a3
    2cec:	18d010ef          	jal	ra,4678 <core_init_state>
    2cf0:	fee45783          	lhu	a5,-18(s0)
    2cf4:	00178793          	addi	a5,a5,1
    2cf8:	fef41723          	sh	a5,-18(s0)
    2cfc:	fee45783          	lhu	a5,-18(s0)
    2d00:	e0078ce3          	beqz	a5,2b18 <exec_benchmark+0x2e0>
    2d04:	fa842783          	lw	a5,-88(s0)
    2d08:	0a079063          	bnez	a5,2da8 <exec_benchmark+0x570>
    2d0c:	fc042e23          	sw	zero,-36(s0)
    2d10:	00100793          	li	a5,1
    2d14:	faf42423          	sw	a5,-88(s0)
    2d18:	0440006f          	j	2d5c <exec_benchmark+0x524>
    2d1c:	fa842703          	lw	a4,-88(s0)
    2d20:	00070793          	mv	a5,a4
    2d24:	00279793          	slli	a5,a5,0x2
    2d28:	00e787b3          	add	a5,a5,a4
    2d2c:	00179793          	slli	a5,a5,0x1
    2d30:	faf42423          	sw	a5,-88(s0)
    2d34:	570010ef          	jal	ra,42a4 <start_time>
    2d38:	f8c40793          	addi	a5,s0,-116
    2d3c:	00078513          	mv	a0,a5
    2d40:	9e9ff0ef          	jal	ra,2728 <iterate>
    2d44:	598010ef          	jal	ra,42dc <stop_time>
    2d48:	5cc010ef          	jal	ra,4314 <get_time>
    2d4c:	00050793          	mv	a5,a0
    2d50:	00078513          	mv	a0,a5
    2d54:	5f8010ef          	jal	ra,434c <time_in_secs>
    2d58:	fca42e23          	sw	a0,-36(s0)
    2d5c:	fdc42783          	lw	a5,-36(s0)
    2d60:	fa078ee3          	beqz	a5,2d1c <exec_benchmark+0x4e4>
    2d64:	fdc42783          	lw	a5,-36(s0)
    2d68:	fcf42c23          	sw	a5,-40(s0)
    2d6c:	fd842783          	lw	a5,-40(s0)
    2d70:	00079663          	bnez	a5,2d7c <exec_benchmark+0x544>
    2d74:	00100793          	li	a5,1
    2d78:	fcf42c23          	sw	a5,-40(s0)
    2d7c:	fa842483          	lw	s1,-88(s0)
    2d80:	fd842583          	lw	a1,-40(s0)
    2d84:	00a00513          	li	a0,10
    2d88:	095020ef          	jal	ra,561c <__udivsi3>
    2d8c:	00050793          	mv	a5,a0
    2d90:	00178793          	addi	a5,a5,1
    2d94:	00078593          	mv	a1,a5
    2d98:	00048513          	mv	a0,s1
    2d9c:	758020ef          	jal	ra,54f4 <__mulsi3>
    2da0:	00050793          	mv	a5,a0
    2da4:	faf42423          	sw	a5,-88(s0)
    2da8:	4fc010ef          	jal	ra,42a4 <start_time>
    2dac:	f8c40793          	addi	a5,s0,-116
    2db0:	00078513          	mv	a0,a5
    2db4:	975ff0ef          	jal	ra,2728 <iterate>
    2db8:	524010ef          	jal	ra,42dc <stop_time>
    2dbc:	558010ef          	jal	ra,4314 <get_time>
    2dc0:	fca42823          	sw	a0,-48(s0)
    2dc4:	f8c41783          	lh	a5,-116(s0)
    2dc8:	fd645703          	lhu	a4,-42(s0)
    2dcc:	00070593          	mv	a1,a4
    2dd0:	00078513          	mv	a0,a5
    2dd4:	1f0020ef          	jal	ra,4fc4 <crc16>
    2dd8:	00050793          	mv	a5,a0
    2ddc:	fcf41b23          	sh	a5,-42(s0)
    2de0:	f8e41783          	lh	a5,-114(s0)
    2de4:	fd645703          	lhu	a4,-42(s0)
    2de8:	00070593          	mv	a1,a4
    2dec:	00078513          	mv	a0,a5
    2df0:	1d4020ef          	jal	ra,4fc4 <crc16>
    2df4:	00050793          	mv	a5,a0
    2df8:	fcf41b23          	sh	a5,-42(s0)
    2dfc:	f9041783          	lh	a5,-112(s0)
    2e00:	fd645703          	lhu	a4,-42(s0)
    2e04:	00070593          	mv	a1,a4
    2e08:	00078513          	mv	a0,a5
    2e0c:	1b8020ef          	jal	ra,4fc4 <crc16>
    2e10:	00050793          	mv	a5,a0
    2e14:	fcf41b23          	sh	a5,-42(s0)
    2e18:	fa442783          	lw	a5,-92(s0)
    2e1c:	01079793          	slli	a5,a5,0x10
    2e20:	4107d793          	srai	a5,a5,0x10
    2e24:	fd645703          	lhu	a4,-42(s0)
    2e28:	00070593          	mv	a1,a4
    2e2c:	00078513          	mv	a0,a5
    2e30:	194020ef          	jal	ra,4fc4 <crc16>
    2e34:	00050793          	mv	a5,a0
    2e38:	fcf41b23          	sh	a5,-42(s0)
    2e3c:	fd645783          	lhu	a5,-42(s0)
    2e40:	0000f737          	lui	a4,0xf
    2e44:	9f570713          	addi	a4,a4,-1547 # e9f5 <_etext+0x8abd>
    2e48:	0ae78063          	beq	a5,a4,2ee8 <exec_benchmark+0x6b0>
    2e4c:	0000f737          	lui	a4,0xf
    2e50:	9f570713          	addi	a4,a4,-1547 # e9f5 <_etext+0x8abd>
    2e54:	0cf74263          	blt	a4,a5,2f18 <exec_benchmark+0x6e0>
    2e58:	00009737          	lui	a4,0x9
    2e5c:	a0270713          	addi	a4,a4,-1534 # 8a02 <_etext+0x2aca>
    2e60:	04e78263          	beq	a5,a4,2ea4 <exec_benchmark+0x66c>
    2e64:	00009737          	lui	a4,0x9
    2e68:	a0270713          	addi	a4,a4,-1534 # 8a02 <_etext+0x2aca>
    2e6c:	0af74663          	blt	a4,a5,2f18 <exec_benchmark+0x6e0>
    2e70:	00008737          	lui	a4,0x8
    2e74:	b0570713          	addi	a4,a4,-1275 # 7b05 <_etext+0x1bcd>
    2e78:	04e78063          	beq	a5,a4,2eb8 <exec_benchmark+0x680>
    2e7c:	00008737          	lui	a4,0x8
    2e80:	b0570713          	addi	a4,a4,-1275 # 7b05 <_etext+0x1bcd>
    2e84:	08f74a63          	blt	a4,a5,2f18 <exec_benchmark+0x6e0>
    2e88:	00002737          	lui	a4,0x2
    2e8c:	8f270713          	addi	a4,a4,-1806 # 18f2 <calc_func+0x16>
    2e90:	06e78863          	beq	a5,a4,2f00 <exec_benchmark+0x6c8>
    2e94:	00005737          	lui	a4,0x5
    2e98:	eaf70713          	addi	a4,a4,-337 # 4eaf <crcu8+0xf3>
    2e9c:	02e78a63          	beq	a5,a4,2ed0 <exec_benchmark+0x698>
    2ea0:	0780006f          	j	2f18 <exec_benchmark+0x6e0>
    2ea4:	fe041423          	sh	zero,-24(s0)
    2ea8:	000fd517          	auipc	a0,0xfd
    2eac:	19850513          	addi	a0,a0,408 # 100040 <_etext+0xfa108>
    2eb0:	2b0020ef          	jal	ra,5160 <kprintf>
    2eb4:	0700006f          	j	2f24 <exec_benchmark+0x6ec>
    2eb8:	00100793          	li	a5,1
    2ebc:	fef41423          	sh	a5,-24(s0)
    2ec0:	000fd517          	auipc	a0,0xfd
    2ec4:	1b050513          	addi	a0,a0,432 # 100070 <_etext+0xfa138>
    2ec8:	298020ef          	jal	ra,5160 <kprintf>
    2ecc:	0580006f          	j	2f24 <exec_benchmark+0x6ec>
    2ed0:	00200793          	li	a5,2
    2ed4:	fef41423          	sh	a5,-24(s0)
    2ed8:	000fd517          	auipc	a0,0xfd
    2edc:	1c450513          	addi	a0,a0,452 # 10009c <_etext+0xfa164>
    2ee0:	280020ef          	jal	ra,5160 <kprintf>
    2ee4:	0400006f          	j	2f24 <exec_benchmark+0x6ec>
    2ee8:	00300793          	li	a5,3
    2eec:	fef41423          	sh	a5,-24(s0)
    2ef0:	000fd517          	auipc	a0,0xfd
    2ef4:	1e050513          	addi	a0,a0,480 # 1000d0 <_etext+0xfa198>
    2ef8:	268020ef          	jal	ra,5160 <kprintf>
    2efc:	0280006f          	j	2f24 <exec_benchmark+0x6ec>
    2f00:	00400793          	li	a5,4
    2f04:	fef41423          	sh	a5,-24(s0)
    2f08:	000fd517          	auipc	a0,0xfd
    2f0c:	1f850513          	addi	a0,a0,504 # 100100 <_etext+0xfa1c8>
    2f10:	250020ef          	jal	ra,5160 <kprintf>
    2f14:	0100006f          	j	2f24 <exec_benchmark+0x6ec>
    2f18:	fff00793          	li	a5,-1
    2f1c:	fef41323          	sh	a5,-26(s0)
    2f20:	00000013          	nop
    2f24:	fe841783          	lh	a5,-24(s0)
    2f28:	3a07c663          	bltz	a5,32d4 <exec_benchmark+0xa9c>
    2f2c:	fe041723          	sh	zero,-18(s0)
    2f30:	3900006f          	j	32c0 <exec_benchmark+0xa88>
    2f34:	fee45703          	lhu	a4,-18(s0)
    2f38:	00070793          	mv	a5,a4
    2f3c:	00479793          	slli	a5,a5,0x4
    2f40:	00e787b3          	add	a5,a5,a4
    2f44:	00279793          	slli	a5,a5,0x2
    2f48:	ff040713          	addi	a4,s0,-16
    2f4c:	00f707b3          	add	a5,a4,a5
    2f50:	fc079e23          	sh	zero,-36(a5)
    2f54:	fee45703          	lhu	a4,-18(s0)
    2f58:	00070793          	mv	a5,a4
    2f5c:	00479793          	slli	a5,a5,0x4
    2f60:	00e787b3          	add	a5,a5,a4
    2f64:	00279793          	slli	a5,a5,0x2
    2f68:	ff040713          	addi	a4,s0,-16
    2f6c:	00f707b3          	add	a5,a4,a5
    2f70:	fbc7a783          	lw	a5,-68(a5)
    2f74:	0017f793          	andi	a5,a5,1
    2f78:	0e078463          	beqz	a5,3060 <exec_benchmark+0x828>
    2f7c:	fee45703          	lhu	a4,-18(s0)
    2f80:	00070793          	mv	a5,a4
    2f84:	00479793          	slli	a5,a5,0x4
    2f88:	00e787b3          	add	a5,a5,a4
    2f8c:	00279793          	slli	a5,a5,0x2
    2f90:	ff040713          	addi	a4,s0,-16
    2f94:	00f707b3          	add	a5,a4,a5
    2f98:	fd67d703          	lhu	a4,-42(a5)
    2f9c:	fe841783          	lh	a5,-24(s0)
    2fa0:	000fe697          	auipc	a3,0xfe
    2fa4:	9c868693          	addi	a3,a3,-1592 # 100968 <list_known_crc>
    2fa8:	00179793          	slli	a5,a5,0x1
    2fac:	00f687b3          	add	a5,a3,a5
    2fb0:	0007d783          	lhu	a5,0(a5)
    2fb4:	0af70663          	beq	a4,a5,3060 <exec_benchmark+0x828>
    2fb8:	fee45583          	lhu	a1,-18(s0)
    2fbc:	fee45703          	lhu	a4,-18(s0)
    2fc0:	00070793          	mv	a5,a4
    2fc4:	00479793          	slli	a5,a5,0x4
    2fc8:	00e787b3          	add	a5,a5,a4
    2fcc:	00279793          	slli	a5,a5,0x2
    2fd0:	ff040713          	addi	a4,s0,-16
    2fd4:	00f707b3          	add	a5,a4,a5
    2fd8:	fd67d783          	lhu	a5,-42(a5)
    2fdc:	00078613          	mv	a2,a5
    2fe0:	fe841783          	lh	a5,-24(s0)
    2fe4:	000fe717          	auipc	a4,0xfe
    2fe8:	98470713          	addi	a4,a4,-1660 # 100968 <list_known_crc>
    2fec:	00179793          	slli	a5,a5,0x1
    2ff0:	00f707b3          	add	a5,a4,a5
    2ff4:	0007d783          	lhu	a5,0(a5)
    2ff8:	00078693          	mv	a3,a5
    2ffc:	000fd517          	auipc	a0,0xfd
    3000:	13050513          	addi	a0,a0,304 # 10012c <_etext+0xfa1f4>
    3004:	15c020ef          	jal	ra,5160 <kprintf>
    3008:	fee45703          	lhu	a4,-18(s0)
    300c:	00070793          	mv	a5,a4
    3010:	00479793          	slli	a5,a5,0x4
    3014:	00e787b3          	add	a5,a5,a4
    3018:	00279793          	slli	a5,a5,0x2
    301c:	ff040693          	addi	a3,s0,-16
    3020:	00f687b3          	add	a5,a3,a5
    3024:	fdc79783          	lh	a5,-36(a5)
    3028:	01079793          	slli	a5,a5,0x10
    302c:	0107d793          	srli	a5,a5,0x10
    3030:	00178793          	addi	a5,a5,1
    3034:	01079793          	slli	a5,a5,0x10
    3038:	0107d793          	srli	a5,a5,0x10
    303c:	01079693          	slli	a3,a5,0x10
    3040:	4106d693          	srai	a3,a3,0x10
    3044:	00070793          	mv	a5,a4
    3048:	00479793          	slli	a5,a5,0x4
    304c:	00e787b3          	add	a5,a5,a4
    3050:	00279793          	slli	a5,a5,0x2
    3054:	ff040713          	addi	a4,s0,-16
    3058:	00f707b3          	add	a5,a4,a5
    305c:	fcd79e23          	sh	a3,-36(a5)
    3060:	fee45703          	lhu	a4,-18(s0)
    3064:	00070793          	mv	a5,a4
    3068:	00479793          	slli	a5,a5,0x4
    306c:	00e787b3          	add	a5,a5,a4
    3070:	00279793          	slli	a5,a5,0x2
    3074:	ff040713          	addi	a4,s0,-16
    3078:	00f707b3          	add	a5,a4,a5
    307c:	fbc7a783          	lw	a5,-68(a5)
    3080:	0027f793          	andi	a5,a5,2
    3084:	0e078463          	beqz	a5,316c <exec_benchmark+0x934>
    3088:	fee45703          	lhu	a4,-18(s0)
    308c:	00070793          	mv	a5,a4
    3090:	00479793          	slli	a5,a5,0x4
    3094:	00e787b3          	add	a5,a5,a4
    3098:	00279793          	slli	a5,a5,0x2
    309c:	ff040713          	addi	a4,s0,-16
    30a0:	00f707b3          	add	a5,a4,a5
    30a4:	fd87d703          	lhu	a4,-40(a5)
    30a8:	fe841783          	lh	a5,-24(s0)
    30ac:	000fe697          	auipc	a3,0xfe
    30b0:	8c868693          	addi	a3,a3,-1848 # 100974 <matrix_known_crc>
    30b4:	00179793          	slli	a5,a5,0x1
    30b8:	00f687b3          	add	a5,a3,a5
    30bc:	0007d783          	lhu	a5,0(a5)
    30c0:	0af70663          	beq	a4,a5,316c <exec_benchmark+0x934>
    30c4:	fee45583          	lhu	a1,-18(s0)
    30c8:	fee45703          	lhu	a4,-18(s0)
    30cc:	00070793          	mv	a5,a4
    30d0:	00479793          	slli	a5,a5,0x4
    30d4:	00e787b3          	add	a5,a5,a4
    30d8:	00279793          	slli	a5,a5,0x2
    30dc:	ff040713          	addi	a4,s0,-16
    30e0:	00f707b3          	add	a5,a4,a5
    30e4:	fd87d783          	lhu	a5,-40(a5)
    30e8:	00078613          	mv	a2,a5
    30ec:	fe841783          	lh	a5,-24(s0)
    30f0:	000fe717          	auipc	a4,0xfe
    30f4:	88470713          	addi	a4,a4,-1916 # 100974 <matrix_known_crc>
    30f8:	00179793          	slli	a5,a5,0x1
    30fc:	00f707b3          	add	a5,a4,a5
    3100:	0007d783          	lhu	a5,0(a5)
    3104:	00078693          	mv	a3,a5
    3108:	000fd517          	auipc	a0,0xfd
    310c:	05450513          	addi	a0,a0,84 # 10015c <_etext+0xfa224>
    3110:	050020ef          	jal	ra,5160 <kprintf>
    3114:	fee45703          	lhu	a4,-18(s0)
    3118:	00070793          	mv	a5,a4
    311c:	00479793          	slli	a5,a5,0x4
    3120:	00e787b3          	add	a5,a5,a4
    3124:	00279793          	slli	a5,a5,0x2
    3128:	ff040693          	addi	a3,s0,-16
    312c:	00f687b3          	add	a5,a3,a5
    3130:	fdc79783          	lh	a5,-36(a5)
    3134:	01079793          	slli	a5,a5,0x10
    3138:	0107d793          	srli	a5,a5,0x10
    313c:	00178793          	addi	a5,a5,1
    3140:	01079793          	slli	a5,a5,0x10
    3144:	0107d793          	srli	a5,a5,0x10
    3148:	01079693          	slli	a3,a5,0x10
    314c:	4106d693          	srai	a3,a3,0x10
    3150:	00070793          	mv	a5,a4
    3154:	00479793          	slli	a5,a5,0x4
    3158:	00e787b3          	add	a5,a5,a4
    315c:	00279793          	slli	a5,a5,0x2
    3160:	ff040713          	addi	a4,s0,-16
    3164:	00f707b3          	add	a5,a4,a5
    3168:	fcd79e23          	sh	a3,-36(a5)
    316c:	fee45703          	lhu	a4,-18(s0)
    3170:	00070793          	mv	a5,a4
    3174:	00479793          	slli	a5,a5,0x4
    3178:	00e787b3          	add	a5,a5,a4
    317c:	00279793          	slli	a5,a5,0x2
    3180:	ff040713          	addi	a4,s0,-16
    3184:	00f707b3          	add	a5,a4,a5
    3188:	fbc7a783          	lw	a5,-68(a5)
    318c:	0047f793          	andi	a5,a5,4
    3190:	0e078463          	beqz	a5,3278 <exec_benchmark+0xa40>
    3194:	fee45703          	lhu	a4,-18(s0)
    3198:	00070793          	mv	a5,a4
    319c:	00479793          	slli	a5,a5,0x4
    31a0:	00e787b3          	add	a5,a5,a4
    31a4:	00279793          	slli	a5,a5,0x2
    31a8:	ff040713          	addi	a4,s0,-16
    31ac:	00f707b3          	add	a5,a4,a5
    31b0:	fda7d703          	lhu	a4,-38(a5)
    31b4:	fe841783          	lh	a5,-24(s0)
    31b8:	000fd697          	auipc	a3,0xfd
    31bc:	7c868693          	addi	a3,a3,1992 # 100980 <state_known_crc>
    31c0:	00179793          	slli	a5,a5,0x1
    31c4:	00f687b3          	add	a5,a3,a5
    31c8:	0007d783          	lhu	a5,0(a5)
    31cc:	0af70663          	beq	a4,a5,3278 <exec_benchmark+0xa40>
    31d0:	fee45583          	lhu	a1,-18(s0)
    31d4:	fee45703          	lhu	a4,-18(s0)
    31d8:	00070793          	mv	a5,a4
    31dc:	00479793          	slli	a5,a5,0x4
    31e0:	00e787b3          	add	a5,a5,a4
    31e4:	00279793          	slli	a5,a5,0x2
    31e8:	ff040713          	addi	a4,s0,-16
    31ec:	00f707b3          	add	a5,a4,a5
    31f0:	fda7d783          	lhu	a5,-38(a5)
    31f4:	00078613          	mv	a2,a5
    31f8:	fe841783          	lh	a5,-24(s0)
    31fc:	000fd717          	auipc	a4,0xfd
    3200:	78470713          	addi	a4,a4,1924 # 100980 <state_known_crc>
    3204:	00179793          	slli	a5,a5,0x1
    3208:	00f707b3          	add	a5,a4,a5
    320c:	0007d783          	lhu	a5,0(a5)
    3210:	00078693          	mv	a3,a5
    3214:	000fd517          	auipc	a0,0xfd
    3218:	f7c50513          	addi	a0,a0,-132 # 100190 <_etext+0xfa258>
    321c:	745010ef          	jal	ra,5160 <kprintf>
    3220:	fee45703          	lhu	a4,-18(s0)
    3224:	00070793          	mv	a5,a4
    3228:	00479793          	slli	a5,a5,0x4
    322c:	00e787b3          	add	a5,a5,a4
    3230:	00279793          	slli	a5,a5,0x2
    3234:	ff040693          	addi	a3,s0,-16
    3238:	00f687b3          	add	a5,a3,a5
    323c:	fdc79783          	lh	a5,-36(a5)
    3240:	01079793          	slli	a5,a5,0x10
    3244:	0107d793          	srli	a5,a5,0x10
    3248:	00178793          	addi	a5,a5,1
    324c:	01079793          	slli	a5,a5,0x10
    3250:	0107d793          	srli	a5,a5,0x10
    3254:	01079693          	slli	a3,a5,0x10
    3258:	4106d693          	srai	a3,a3,0x10
    325c:	00070793          	mv	a5,a4
    3260:	00479793          	slli	a5,a5,0x4
    3264:	00e787b3          	add	a5,a5,a4
    3268:	00279793          	slli	a5,a5,0x2
    326c:	ff040713          	addi	a4,s0,-16
    3270:	00f707b3          	add	a5,a4,a5
    3274:	fcd79e23          	sh	a3,-36(a5)
    3278:	fee45703          	lhu	a4,-18(s0)
    327c:	00070793          	mv	a5,a4
    3280:	00479793          	slli	a5,a5,0x4
    3284:	00e787b3          	add	a5,a5,a4
    3288:	00279793          	slli	a5,a5,0x2
    328c:	ff040713          	addi	a4,s0,-16
    3290:	00f707b3          	add	a5,a4,a5
    3294:	fdc79783          	lh	a5,-36(a5)
    3298:	01079713          	slli	a4,a5,0x10
    329c:	01075713          	srli	a4,a4,0x10
    32a0:	fe645783          	lhu	a5,-26(s0)
    32a4:	00f707b3          	add	a5,a4,a5
    32a8:	01079793          	slli	a5,a5,0x10
    32ac:	0107d793          	srli	a5,a5,0x10
    32b0:	fef41323          	sh	a5,-26(s0)
    32b4:	fee45783          	lhu	a5,-18(s0)
    32b8:	00178793          	addi	a5,a5,1
    32bc:	fef41723          	sh	a5,-18(s0)
    32c0:	fee45703          	lhu	a4,-18(s0)
    32c4:	000fd797          	auipc	a5,0xfd
    32c8:	71c78793          	addi	a5,a5,1820 # 1009e0 <default_num_contexts>
    32cc:	0007a783          	lw	a5,0(a5)
    32d0:	c6f762e3          	bltu	a4,a5,2f34 <exec_benchmark+0x6fc>
    32d4:	541010ef          	jal	ra,5014 <check_data_types>
    32d8:	00050793          	mv	a5,a0
    32dc:	01079713          	slli	a4,a5,0x10
    32e0:	01075713          	srli	a4,a4,0x10
    32e4:	fe645783          	lhu	a5,-26(s0)
    32e8:	00f707b3          	add	a5,a4,a5
    32ec:	01079793          	slli	a5,a5,0x10
    32f0:	0107d793          	srli	a5,a5,0x10
    32f4:	fef41323          	sh	a5,-26(s0)
    32f8:	fa442783          	lw	a5,-92(s0)
    32fc:	00078593          	mv	a1,a5
    3300:	000fd517          	auipc	a0,0xfd
    3304:	ec050513          	addi	a0,a0,-320 # 1001c0 <_etext+0xfa288>
    3308:	659010ef          	jal	ra,5160 <kprintf>
    330c:	fd042503          	lw	a0,-48(s0)
    3310:	03c010ef          	jal	ra,434c <time_in_secs>
    3314:	00050793          	mv	a5,a0
    3318:	00078593          	mv	a1,a5
    331c:	000fd517          	auipc	a0,0xfd
    3320:	ebc50513          	addi	a0,a0,-324 # 1001d8 <_etext+0xfa2a0>
    3324:	63d010ef          	jal	ra,5160 <kprintf>
    3328:	fa842703          	lw	a4,-88(s0)
    332c:	000fd797          	auipc	a5,0xfd
    3330:	6b478793          	addi	a5,a5,1716 # 1009e0 <default_num_contexts>
    3334:	0007a783          	lw	a5,0(a5)
    3338:	00078593          	mv	a1,a5
    333c:	00070513          	mv	a0,a4
    3340:	1b4020ef          	jal	ra,54f4 <__mulsi3>
    3344:	00050793          	mv	a5,a0
    3348:	00078593          	mv	a1,a5
    334c:	000fd517          	auipc	a0,0xfd
    3350:	ea450513          	addi	a0,a0,-348 # 1001f0 <_etext+0xfa2b8>
    3354:	60d010ef          	jal	ra,5160 <kprintf>
    3358:	000fd597          	auipc	a1,0xfd
    335c:	eb058593          	addi	a1,a1,-336 # 100208 <_etext+0xfa2d0>
    3360:	000fd517          	auipc	a0,0xfd
    3364:	eb450513          	addi	a0,a0,-332 # 100214 <_etext+0xfa2dc>
    3368:	5f9010ef          	jal	ra,5160 <kprintf>
    336c:	fd645783          	lhu	a5,-42(s0)
    3370:	00078593          	mv	a1,a5
    3374:	000fd517          	auipc	a0,0xfd
    3378:	eb850513          	addi	a0,a0,-328 # 10022c <_etext+0xfa2f4>
    337c:	5e5010ef          	jal	ra,5160 <kprintf>
    3380:	fac42783          	lw	a5,-84(s0)
    3384:	0017f793          	andi	a5,a5,1
    3388:	06078263          	beqz	a5,33ec <exec_benchmark+0xbb4>
    338c:	fe041723          	sh	zero,-18(s0)
    3390:	0480006f          	j	33d8 <exec_benchmark+0xba0>
    3394:	fee45683          	lhu	a3,-18(s0)
    3398:	fee45703          	lhu	a4,-18(s0)
    339c:	00070793          	mv	a5,a4
    33a0:	00479793          	slli	a5,a5,0x4
    33a4:	00e787b3          	add	a5,a5,a4
    33a8:	00279793          	slli	a5,a5,0x2
    33ac:	ff040713          	addi	a4,s0,-16
    33b0:	00f707b3          	add	a5,a4,a5
    33b4:	fd67d783          	lhu	a5,-42(a5)
    33b8:	00078613          	mv	a2,a5
    33bc:	00068593          	mv	a1,a3
    33c0:	000fd517          	auipc	a0,0xfd
    33c4:	e8850513          	addi	a0,a0,-376 # 100248 <_etext+0xfa310>
    33c8:	599010ef          	jal	ra,5160 <kprintf>
    33cc:	fee45783          	lhu	a5,-18(s0)
    33d0:	00178793          	addi	a5,a5,1
    33d4:	fef41723          	sh	a5,-18(s0)
    33d8:	fee45703          	lhu	a4,-18(s0)
    33dc:	000fd797          	auipc	a5,0xfd
    33e0:	60478793          	addi	a5,a5,1540 # 1009e0 <default_num_contexts>
    33e4:	0007a783          	lw	a5,0(a5)
    33e8:	faf766e3          	bltu	a4,a5,3394 <exec_benchmark+0xb5c>
    33ec:	fac42783          	lw	a5,-84(s0)
    33f0:	0027f793          	andi	a5,a5,2
    33f4:	06078263          	beqz	a5,3458 <exec_benchmark+0xc20>
    33f8:	fe041723          	sh	zero,-18(s0)
    33fc:	0480006f          	j	3444 <exec_benchmark+0xc0c>
    3400:	fee45683          	lhu	a3,-18(s0)
    3404:	fee45703          	lhu	a4,-18(s0)
    3408:	00070793          	mv	a5,a4
    340c:	00479793          	slli	a5,a5,0x4
    3410:	00e787b3          	add	a5,a5,a4
    3414:	00279793          	slli	a5,a5,0x2
    3418:	ff040713          	addi	a4,s0,-16
    341c:	00f707b3          	add	a5,a4,a5
    3420:	fd87d783          	lhu	a5,-40(a5)
    3424:	00078613          	mv	a2,a5
    3428:	00068593          	mv	a1,a3
    342c:	000fd517          	auipc	a0,0xfd
    3430:	e3850513          	addi	a0,a0,-456 # 100264 <_etext+0xfa32c>
    3434:	52d010ef          	jal	ra,5160 <kprintf>
    3438:	fee45783          	lhu	a5,-18(s0)
    343c:	00178793          	addi	a5,a5,1
    3440:	fef41723          	sh	a5,-18(s0)
    3444:	fee45703          	lhu	a4,-18(s0)
    3448:	000fd797          	auipc	a5,0xfd
    344c:	59878793          	addi	a5,a5,1432 # 1009e0 <default_num_contexts>
    3450:	0007a783          	lw	a5,0(a5)
    3454:	faf766e3          	bltu	a4,a5,3400 <exec_benchmark+0xbc8>
    3458:	fac42783          	lw	a5,-84(s0)
    345c:	0047f793          	andi	a5,a5,4
    3460:	06078263          	beqz	a5,34c4 <exec_benchmark+0xc8c>
    3464:	fe041723          	sh	zero,-18(s0)
    3468:	0480006f          	j	34b0 <exec_benchmark+0xc78>
    346c:	fee45683          	lhu	a3,-18(s0)
    3470:	fee45703          	lhu	a4,-18(s0)
    3474:	00070793          	mv	a5,a4
    3478:	00479793          	slli	a5,a5,0x4
    347c:	00e787b3          	add	a5,a5,a4
    3480:	00279793          	slli	a5,a5,0x2
    3484:	ff040713          	addi	a4,s0,-16
    3488:	00f707b3          	add	a5,a4,a5
    348c:	fda7d783          	lhu	a5,-38(a5)
    3490:	00078613          	mv	a2,a5
    3494:	00068593          	mv	a1,a3
    3498:	000fd517          	auipc	a0,0xfd
    349c:	de850513          	addi	a0,a0,-536 # 100280 <_etext+0xfa348>
    34a0:	4c1010ef          	jal	ra,5160 <kprintf>
    34a4:	fee45783          	lhu	a5,-18(s0)
    34a8:	00178793          	addi	a5,a5,1
    34ac:	fef41723          	sh	a5,-18(s0)
    34b0:	fee45703          	lhu	a4,-18(s0)
    34b4:	000fd797          	auipc	a5,0xfd
    34b8:	52c78793          	addi	a5,a5,1324 # 1009e0 <default_num_contexts>
    34bc:	0007a783          	lw	a5,0(a5)
    34c0:	faf766e3          	bltu	a4,a5,346c <exec_benchmark+0xc34>
    34c4:	fe041723          	sh	zero,-18(s0)
    34c8:	0480006f          	j	3510 <exec_benchmark+0xcd8>
    34cc:	fee45683          	lhu	a3,-18(s0)
    34d0:	fee45703          	lhu	a4,-18(s0)
    34d4:	00070793          	mv	a5,a4
    34d8:	00479793          	slli	a5,a5,0x4
    34dc:	00e787b3          	add	a5,a5,a4
    34e0:	00279793          	slli	a5,a5,0x2
    34e4:	ff040713          	addi	a4,s0,-16
    34e8:	00f707b3          	add	a5,a4,a5
    34ec:	fd47d783          	lhu	a5,-44(a5)
    34f0:	00078613          	mv	a2,a5
    34f4:	00068593          	mv	a1,a3
    34f8:	000fd517          	auipc	a0,0xfd
    34fc:	da450513          	addi	a0,a0,-604 # 10029c <_etext+0xfa364>
    3500:	461010ef          	jal	ra,5160 <kprintf>
    3504:	fee45783          	lhu	a5,-18(s0)
    3508:	00178793          	addi	a5,a5,1
    350c:	fef41723          	sh	a5,-18(s0)
    3510:	fee45703          	lhu	a4,-18(s0)
    3514:	000fd797          	auipc	a5,0xfd
    3518:	4cc78793          	addi	a5,a5,1228 # 1009e0 <default_num_contexts>
    351c:	0007a783          	lw	a5,0(a5)
    3520:	faf766e3          	bltu	a4,a5,34cc <exec_benchmark+0xc94>
    3524:	fd042783          	lw	a5,-48(s0)
    3528:	00078593          	mv	a1,a5
    352c:	000fd517          	auipc	a0,0xfd
    3530:	d8c50513          	addi	a0,a0,-628 # 1002b8 <_etext+0xfa380>
    3534:	42d010ef          	jal	ra,5160 <kprintf>
    3538:	fe641783          	lh	a5,-26(s0)
    353c:	06079c63          	bnez	a5,35b4 <exec_benchmark+0xd7c>
    3540:	000fd517          	auipc	a0,0xfd
    3544:	d8c50513          	addi	a0,a0,-628 # 1002cc <_etext+0xfa394>
    3548:	419010ef          	jal	ra,5160 <kprintf>
    354c:	fd042503          	lw	a0,-48(s0)
    3550:	5fd000ef          	jal	ra,434c <time_in_secs>
    3554:	00050713          	mv	a4,a0
    3558:	002c97b7          	lui	a5,0x2c9
    355c:	00070593          	mv	a1,a4
    3560:	3b878513          	addi	a0,a5,952 # 2c93b8 <_end+0x1c37b8>
    3564:	0b8020ef          	jal	ra,561c <__udivsi3>
    3568:	00050793          	mv	a5,a0
    356c:	00078713          	mv	a4,a5
    3570:	00070793          	mv	a5,a4
    3574:	00579793          	slli	a5,a5,0x5
    3578:	40e787b3          	sub	a5,a5,a4
    357c:	00279793          	slli	a5,a5,0x2
    3580:	00e787b3          	add	a5,a5,a4
    3584:	00379793          	slli	a5,a5,0x3
    3588:	3e800593          	li	a1,1000
    358c:	00078513          	mv	a0,a5
    3590:	08c020ef          	jal	ra,561c <__udivsi3>
    3594:	00050793          	mv	a5,a0
    3598:	00078593          	mv	a1,a5
    359c:	000fd517          	auipc	a0,0xfd
    35a0:	d6450513          	addi	a0,a0,-668 # 100300 <_etext+0xfa3c8>
    35a4:	3bd010ef          	jal	ra,5160 <kprintf>
    35a8:	000fd517          	auipc	a0,0xfd
    35ac:	d7850513          	addi	a0,a0,-648 # 100320 <_etext+0xfa3e8>
    35b0:	3b1010ef          	jal	ra,5160 <kprintf>
    35b4:	fe641783          	lh	a5,-26(s0)
    35b8:	00f05863          	blez	a5,35c8 <exec_benchmark+0xd90>
    35bc:	000fd517          	auipc	a0,0xfd
    35c0:	d9c50513          	addi	a0,a0,-612 # 100358 <_etext+0xfa420>
    35c4:	39d010ef          	jal	ra,5160 <kprintf>
    35c8:	fe641783          	lh	a5,-26(s0)
    35cc:	0007d863          	bgez	a5,35dc <exec_benchmark+0xda4>
    35d0:	000fd517          	auipc	a0,0xfd
    35d4:	d9c50513          	addi	a0,a0,-612 # 10036c <_etext+0xfa434>
    35d8:	389010ef          	jal	ra,5160 <kprintf>
    35dc:	f8c40793          	addi	a5,s0,-116
    35e0:	04278793          	addi	a5,a5,66
    35e4:	00078513          	mv	a0,a5
    35e8:	5bd000ef          	jal	ra,43a4 <portable_fini>
    35ec:	00000013          	nop
    35f0:	08c12083          	lw	ra,140(sp)
    35f4:	08812403          	lw	s0,136(sp)
    35f8:	08412483          	lw	s1,132(sp)
    35fc:	09010113          	addi	sp,sp,144
    3600:	00008067          	ret

00003604 <core_bench_matrix>:
    3604:	fc010113          	addi	sp,sp,-64
    3608:	02112e23          	sw	ra,60(sp)
    360c:	02812c23          	sw	s0,56(sp)
    3610:	04010413          	addi	s0,sp,64
    3614:	fca42623          	sw	a0,-52(s0)
    3618:	00058793          	mv	a5,a1
    361c:	00060713          	mv	a4,a2
    3620:	fcf41523          	sh	a5,-54(s0)
    3624:	00070793          	mv	a5,a4
    3628:	fcf41423          	sh	a5,-56(s0)
    362c:	fcc42783          	lw	a5,-52(s0)
    3630:	0007a783          	lw	a5,0(a5)
    3634:	fef42623          	sw	a5,-20(s0)
    3638:	fcc42783          	lw	a5,-52(s0)
    363c:	00c7a783          	lw	a5,12(a5)
    3640:	fef42423          	sw	a5,-24(s0)
    3644:	fcc42783          	lw	a5,-52(s0)
    3648:	0047a783          	lw	a5,4(a5)
    364c:	fef42223          	sw	a5,-28(s0)
    3650:	fcc42783          	lw	a5,-52(s0)
    3654:	0087a783          	lw	a5,8(a5)
    3658:	fef42023          	sw	a5,-32(s0)
    365c:	fca45783          	lhu	a5,-54(s0)
    3660:	fcf41f23          	sh	a5,-34(s0)
    3664:	fde41783          	lh	a5,-34(s0)
    3668:	00078713          	mv	a4,a5
    366c:	fe042683          	lw	a3,-32(s0)
    3670:	fe442603          	lw	a2,-28(s0)
    3674:	fe842583          	lw	a1,-24(s0)
    3678:	fec42503          	lw	a0,-20(s0)
    367c:	03c000ef          	jal	ra,36b8 <matrix_test>
    3680:	00050793          	mv	a5,a0
    3684:	00078713          	mv	a4,a5
    3688:	fc845783          	lhu	a5,-56(s0)
    368c:	00078593          	mv	a1,a5
    3690:	00070513          	mv	a0,a4
    3694:	131010ef          	jal	ra,4fc4 <crc16>
    3698:	00050793          	mv	a5,a0
    369c:	fcf41423          	sh	a5,-56(s0)
    36a0:	fc845783          	lhu	a5,-56(s0)
    36a4:	00078513          	mv	a0,a5
    36a8:	03c12083          	lw	ra,60(sp)
    36ac:	03812403          	lw	s0,56(sp)
    36b0:	04010113          	addi	sp,sp,64
    36b4:	00008067          	ret

000036b8 <matrix_test>:
    36b8:	fc010113          	addi	sp,sp,-64
    36bc:	02112e23          	sw	ra,60(sp)
    36c0:	02812c23          	sw	s0,56(sp)
    36c4:	04010413          	addi	s0,sp,64
    36c8:	fca42e23          	sw	a0,-36(s0)
    36cc:	fcb42c23          	sw	a1,-40(s0)
    36d0:	fcc42a23          	sw	a2,-44(s0)
    36d4:	fcd42823          	sw	a3,-48(s0)
    36d8:	00070793          	mv	a5,a4
    36dc:	fcf41723          	sh	a5,-50(s0)
    36e0:	fe041723          	sh	zero,-18(s0)
    36e4:	fce45703          	lhu	a4,-50(s0)
    36e8:	fffff7b7          	lui	a5,0xfffff
    36ec:	00f767b3          	or	a5,a4,a5
    36f0:	fef41623          	sh	a5,-20(s0)
    36f4:	fce41783          	lh	a5,-50(s0)
    36f8:	00078613          	mv	a2,a5
    36fc:	fd442583          	lw	a1,-44(s0)
    3700:	fdc42503          	lw	a0,-36(s0)
    3704:	5ec000ef          	jal	ra,3cf0 <matrix_add_const>
    3708:	fce41783          	lh	a5,-50(s0)
    370c:	00078693          	mv	a3,a5
    3710:	fd442603          	lw	a2,-44(s0)
    3714:	fd842583          	lw	a1,-40(s0)
    3718:	fdc42503          	lw	a0,-36(s0)
    371c:	4d0000ef          	jal	ra,3bec <matrix_mul_const>
    3720:	fec41783          	lh	a5,-20(s0)
    3724:	00078613          	mv	a2,a5
    3728:	fd842583          	lw	a1,-40(s0)
    372c:	fdc42503          	lw	a0,-36(s0)
    3730:	398000ef          	jal	ra,3ac8 <matrix_sum>
    3734:	00050793          	mv	a5,a0
    3738:	00078713          	mv	a4,a5
    373c:	fee45783          	lhu	a5,-18(s0)
    3740:	00078593          	mv	a1,a5
    3744:	00070513          	mv	a0,a4
    3748:	07d010ef          	jal	ra,4fc4 <crc16>
    374c:	00050793          	mv	a5,a0
    3750:	fef41723          	sh	a5,-18(s0)
    3754:	fd042683          	lw	a3,-48(s0)
    3758:	fd442603          	lw	a2,-44(s0)
    375c:	fd842583          	lw	a1,-40(s0)
    3760:	fdc42503          	lw	a0,-36(s0)
    3764:	684000ef          	jal	ra,3de8 <matrix_mul_vect>
    3768:	fec41783          	lh	a5,-20(s0)
    376c:	00078613          	mv	a2,a5
    3770:	fd842583          	lw	a1,-40(s0)
    3774:	fdc42503          	lw	a0,-36(s0)
    3778:	350000ef          	jal	ra,3ac8 <matrix_sum>
    377c:	00050793          	mv	a5,a0
    3780:	00078713          	mv	a4,a5
    3784:	fee45783          	lhu	a5,-18(s0)
    3788:	00078593          	mv	a1,a5
    378c:	00070513          	mv	a0,a4
    3790:	035010ef          	jal	ra,4fc4 <crc16>
    3794:	00050793          	mv	a5,a0
    3798:	fef41723          	sh	a5,-18(s0)
    379c:	fd042683          	lw	a3,-48(s0)
    37a0:	fd442603          	lw	a2,-44(s0)
    37a4:	fd842583          	lw	a1,-40(s0)
    37a8:	fdc42503          	lw	a0,-36(s0)
    37ac:	754000ef          	jal	ra,3f00 <matrix_mul_matrix>
    37b0:	fec41783          	lh	a5,-20(s0)
    37b4:	00078613          	mv	a2,a5
    37b8:	fd842583          	lw	a1,-40(s0)
    37bc:	fdc42503          	lw	a0,-36(s0)
    37c0:	308000ef          	jal	ra,3ac8 <matrix_sum>
    37c4:	00050793          	mv	a5,a0
    37c8:	00078713          	mv	a4,a5
    37cc:	fee45783          	lhu	a5,-18(s0)
    37d0:	00078593          	mv	a1,a5
    37d4:	00070513          	mv	a0,a4
    37d8:	7ec010ef          	jal	ra,4fc4 <crc16>
    37dc:	00050793          	mv	a5,a0
    37e0:	fef41723          	sh	a5,-18(s0)
    37e4:	fd042683          	lw	a3,-48(s0)
    37e8:	fd442603          	lw	a2,-44(s0)
    37ec:	fd842583          	lw	a1,-40(s0)
    37f0:	fdc42503          	lw	a0,-36(s0)
    37f4:	0ad000ef          	jal	ra,40a0 <matrix_mul_matrix_bitextract>
    37f8:	fec41783          	lh	a5,-20(s0)
    37fc:	00078613          	mv	a2,a5
    3800:	fd842583          	lw	a1,-40(s0)
    3804:	fdc42503          	lw	a0,-36(s0)
    3808:	2c0000ef          	jal	ra,3ac8 <matrix_sum>
    380c:	00050793          	mv	a5,a0
    3810:	00078713          	mv	a4,a5
    3814:	fee45783          	lhu	a5,-18(s0)
    3818:	00078593          	mv	a1,a5
    381c:	00070513          	mv	a0,a4
    3820:	7a4010ef          	jal	ra,4fc4 <crc16>
    3824:	00050793          	mv	a5,a0
    3828:	fef41723          	sh	a5,-18(s0)
    382c:	fce45783          	lhu	a5,-50(s0)
    3830:	40f007b3          	neg	a5,a5
    3834:	01079793          	slli	a5,a5,0x10
    3838:	0107d793          	srli	a5,a5,0x10
    383c:	01079793          	slli	a5,a5,0x10
    3840:	4107d793          	srai	a5,a5,0x10
    3844:	00078613          	mv	a2,a5
    3848:	fd442583          	lw	a1,-44(s0)
    384c:	fdc42503          	lw	a0,-36(s0)
    3850:	4a0000ef          	jal	ra,3cf0 <matrix_add_const>
    3854:	fee41783          	lh	a5,-18(s0)
    3858:	00078513          	mv	a0,a5
    385c:	03c12083          	lw	ra,60(sp)
    3860:	03812403          	lw	s0,56(sp)
    3864:	04010113          	addi	sp,sp,64
    3868:	00008067          	ret

0000386c <core_init_matrix>:
    386c:	fc010113          	addi	sp,sp,-64
    3870:	02112e23          	sw	ra,60(sp)
    3874:	02812c23          	sw	s0,56(sp)
    3878:	04010413          	addi	s0,sp,64
    387c:	fca42623          	sw	a0,-52(s0)
    3880:	fcb42423          	sw	a1,-56(s0)
    3884:	fcc42223          	sw	a2,-60(s0)
    3888:	fcd42023          	sw	a3,-64(s0)
    388c:	fe042023          	sw	zero,-32(s0)
    3890:	00100793          	li	a5,1
    3894:	fef42623          	sw	a5,-20(s0)
    3898:	fe042423          	sw	zero,-24(s0)
    389c:	fe042223          	sw	zero,-28(s0)
    38a0:	fc442783          	lw	a5,-60(s0)
    38a4:	02079a63          	bnez	a5,38d8 <core_init_matrix+0x6c>
    38a8:	00100793          	li	a5,1
    38ac:	fcf42223          	sw	a5,-60(s0)
    38b0:	0280006f          	j	38d8 <core_init_matrix+0x6c>
    38b4:	fe842783          	lw	a5,-24(s0)
    38b8:	00178793          	addi	a5,a5,1 # fffff001 <_end+0xffef9401>
    38bc:	fef42423          	sw	a5,-24(s0)
    38c0:	fe842583          	lw	a1,-24(s0)
    38c4:	fe842503          	lw	a0,-24(s0)
    38c8:	42d010ef          	jal	ra,54f4 <__mulsi3>
    38cc:	00050793          	mv	a5,a0
    38d0:	00379793          	slli	a5,a5,0x3
    38d4:	fef42223          	sw	a5,-28(s0)
    38d8:	fe442703          	lw	a4,-28(s0)
    38dc:	fcc42783          	lw	a5,-52(s0)
    38e0:	fcf76ae3          	bltu	a4,a5,38b4 <core_init_matrix+0x48>
    38e4:	fe842783          	lw	a5,-24(s0)
    38e8:	fff78793          	addi	a5,a5,-1
    38ec:	fef42023          	sw	a5,-32(s0)
    38f0:	fc842783          	lw	a5,-56(s0)
    38f4:	fff78793          	addi	a5,a5,-1
    38f8:	ffc7f793          	andi	a5,a5,-4
    38fc:	00478793          	addi	a5,a5,4
    3900:	fcf42e23          	sw	a5,-36(s0)
    3904:	fe042583          	lw	a1,-32(s0)
    3908:	fe042503          	lw	a0,-32(s0)
    390c:	3e9010ef          	jal	ra,54f4 <__mulsi3>
    3910:	00050793          	mv	a5,a0
    3914:	00179793          	slli	a5,a5,0x1
    3918:	fdc42703          	lw	a4,-36(s0)
    391c:	00f707b3          	add	a5,a4,a5
    3920:	fcf42c23          	sw	a5,-40(s0)
    3924:	fe042423          	sw	zero,-24(s0)
    3928:	1240006f          	j	3a4c <core_init_matrix+0x1e0>
    392c:	fe042223          	sw	zero,-28(s0)
    3930:	1040006f          	j	3a34 <core_init_matrix+0x1c8>
    3934:	fc442583          	lw	a1,-60(s0)
    3938:	fec42503          	lw	a0,-20(s0)
    393c:	3b9010ef          	jal	ra,54f4 <__mulsi3>
    3940:	00050793          	mv	a5,a0
    3944:	00078713          	mv	a4,a5
    3948:	41f75793          	srai	a5,a4,0x1f
    394c:	0107d793          	srli	a5,a5,0x10
    3950:	00f706b3          	add	a3,a4,a5
    3954:	00010737          	lui	a4,0x10
    3958:	fff70713          	addi	a4,a4,-1 # ffff <_etext+0xa0c7>
    395c:	00e6f733          	and	a4,a3,a4
    3960:	40f707b3          	sub	a5,a4,a5
    3964:	fcf42223          	sw	a5,-60(s0)
    3968:	fc442783          	lw	a5,-60(s0)
    396c:	01079713          	slli	a4,a5,0x10
    3970:	01075713          	srli	a4,a4,0x10
    3974:	fec42783          	lw	a5,-20(s0)
    3978:	01079793          	slli	a5,a5,0x10
    397c:	0107d793          	srli	a5,a5,0x10
    3980:	00f707b3          	add	a5,a4,a5
    3984:	01079793          	slli	a5,a5,0x10
    3988:	0107d793          	srli	a5,a5,0x10
    398c:	fcf41b23          	sh	a5,-42(s0)
    3990:	fe042583          	lw	a1,-32(s0)
    3994:	fe842503          	lw	a0,-24(s0)
    3998:	35d010ef          	jal	ra,54f4 <__mulsi3>
    399c:	00050793          	mv	a5,a0
    39a0:	00078713          	mv	a4,a5
    39a4:	fe442783          	lw	a5,-28(s0)
    39a8:	00f707b3          	add	a5,a4,a5
    39ac:	00179793          	slli	a5,a5,0x1
    39b0:	fd842703          	lw	a4,-40(s0)
    39b4:	00f707b3          	add	a5,a4,a5
    39b8:	fd645703          	lhu	a4,-42(s0)
    39bc:	00e79023          	sh	a4,0(a5)
    39c0:	fec42783          	lw	a5,-20(s0)
    39c4:	01079713          	slli	a4,a5,0x10
    39c8:	01075713          	srli	a4,a4,0x10
    39cc:	fd645783          	lhu	a5,-42(s0)
    39d0:	00f707b3          	add	a5,a4,a5
    39d4:	01079793          	slli	a5,a5,0x10
    39d8:	0107d793          	srli	a5,a5,0x10
    39dc:	fcf41b23          	sh	a5,-42(s0)
    39e0:	fd645783          	lhu	a5,-42(s0)
    39e4:	0ff7f793          	andi	a5,a5,255
    39e8:	fcf41b23          	sh	a5,-42(s0)
    39ec:	fe042583          	lw	a1,-32(s0)
    39f0:	fe842503          	lw	a0,-24(s0)
    39f4:	301010ef          	jal	ra,54f4 <__mulsi3>
    39f8:	00050793          	mv	a5,a0
    39fc:	00078713          	mv	a4,a5
    3a00:	fe442783          	lw	a5,-28(s0)
    3a04:	00f707b3          	add	a5,a4,a5
    3a08:	00179793          	slli	a5,a5,0x1
    3a0c:	fdc42703          	lw	a4,-36(s0)
    3a10:	00f707b3          	add	a5,a4,a5
    3a14:	fd645703          	lhu	a4,-42(s0)
    3a18:	00e79023          	sh	a4,0(a5)
    3a1c:	fec42783          	lw	a5,-20(s0)
    3a20:	00178793          	addi	a5,a5,1
    3a24:	fef42623          	sw	a5,-20(s0)
    3a28:	fe442783          	lw	a5,-28(s0)
    3a2c:	00178793          	addi	a5,a5,1
    3a30:	fef42223          	sw	a5,-28(s0)
    3a34:	fe442703          	lw	a4,-28(s0)
    3a38:	fe042783          	lw	a5,-32(s0)
    3a3c:	eef76ce3          	bltu	a4,a5,3934 <core_init_matrix+0xc8>
    3a40:	fe842783          	lw	a5,-24(s0)
    3a44:	00178793          	addi	a5,a5,1
    3a48:	fef42423          	sw	a5,-24(s0)
    3a4c:	fe842703          	lw	a4,-24(s0)
    3a50:	fe042783          	lw	a5,-32(s0)
    3a54:	ecf76ce3          	bltu	a4,a5,392c <core_init_matrix+0xc0>
    3a58:	fc042783          	lw	a5,-64(s0)
    3a5c:	fdc42703          	lw	a4,-36(s0)
    3a60:	00e7a223          	sw	a4,4(a5)
    3a64:	fc042783          	lw	a5,-64(s0)
    3a68:	fd842703          	lw	a4,-40(s0)
    3a6c:	00e7a423          	sw	a4,8(a5)
    3a70:	fe042583          	lw	a1,-32(s0)
    3a74:	fe042503          	lw	a0,-32(s0)
    3a78:	27d010ef          	jal	ra,54f4 <__mulsi3>
    3a7c:	00050793          	mv	a5,a0
    3a80:	00179793          	slli	a5,a5,0x1
    3a84:	fd842703          	lw	a4,-40(s0)
    3a88:	00f707b3          	add	a5,a4,a5
    3a8c:	fff78793          	addi	a5,a5,-1
    3a90:	ffc7f793          	andi	a5,a5,-4
    3a94:	00478793          	addi	a5,a5,4
    3a98:	00078713          	mv	a4,a5
    3a9c:	fc042783          	lw	a5,-64(s0)
    3aa0:	00e7a623          	sw	a4,12(a5)
    3aa4:	fe042703          	lw	a4,-32(s0)
    3aa8:	fc042783          	lw	a5,-64(s0)
    3aac:	00e7a023          	sw	a4,0(a5)
    3ab0:	fe042783          	lw	a5,-32(s0)
    3ab4:	00078513          	mv	a0,a5
    3ab8:	03c12083          	lw	ra,60(sp)
    3abc:	03812403          	lw	s0,56(sp)
    3ac0:	04010113          	addi	sp,sp,64
    3ac4:	00008067          	ret

00003ac8 <matrix_sum>:
    3ac8:	fc010113          	addi	sp,sp,-64
    3acc:	02112e23          	sw	ra,60(sp)
    3ad0:	02812c23          	sw	s0,56(sp)
    3ad4:	04010413          	addi	s0,sp,64
    3ad8:	fca42623          	sw	a0,-52(s0)
    3adc:	fcb42423          	sw	a1,-56(s0)
    3ae0:	00060793          	mv	a5,a2
    3ae4:	fcf41323          	sh	a5,-58(s0)
    3ae8:	fe042623          	sw	zero,-20(s0)
    3aec:	fe042423          	sw	zero,-24(s0)
    3af0:	fc042c23          	sw	zero,-40(s0)
    3af4:	fe041323          	sh	zero,-26(s0)
    3af8:	fe042023          	sw	zero,-32(s0)
    3afc:	0cc0006f          	j	3bc8 <matrix_sum+0x100>
    3b00:	fc042e23          	sw	zero,-36(s0)
    3b04:	0ac0006f          	j	3bb0 <matrix_sum+0xe8>
    3b08:	fcc42583          	lw	a1,-52(s0)
    3b0c:	fe042503          	lw	a0,-32(s0)
    3b10:	1e5010ef          	jal	ra,54f4 <__mulsi3>
    3b14:	00050793          	mv	a5,a0
    3b18:	00078713          	mv	a4,a5
    3b1c:	fdc42783          	lw	a5,-36(s0)
    3b20:	00f707b3          	add	a5,a4,a5
    3b24:	00279793          	slli	a5,a5,0x2
    3b28:	fc842703          	lw	a4,-56(s0)
    3b2c:	00f707b3          	add	a5,a4,a5
    3b30:	0007a783          	lw	a5,0(a5)
    3b34:	fcf42c23          	sw	a5,-40(s0)
    3b38:	fec42703          	lw	a4,-20(s0)
    3b3c:	fd842783          	lw	a5,-40(s0)
    3b40:	00f707b3          	add	a5,a4,a5
    3b44:	fef42623          	sw	a5,-20(s0)
    3b48:	fc641783          	lh	a5,-58(s0)
    3b4c:	fec42703          	lw	a4,-20(s0)
    3b50:	02e7d063          	bge	a5,a4,3b70 <matrix_sum+0xa8>
    3b54:	fe645783          	lhu	a5,-26(s0)
    3b58:	00a78793          	addi	a5,a5,10
    3b5c:	01079793          	slli	a5,a5,0x10
    3b60:	0107d793          	srli	a5,a5,0x10
    3b64:	fef41323          	sh	a5,-26(s0)
    3b68:	fe042623          	sw	zero,-20(s0)
    3b6c:	0300006f          	j	3b9c <matrix_sum+0xd4>
    3b70:	fd842703          	lw	a4,-40(s0)
    3b74:	fe842783          	lw	a5,-24(s0)
    3b78:	00e7a7b3          	slt	a5,a5,a4
    3b7c:	0ff7f793          	andi	a5,a5,255
    3b80:	01079713          	slli	a4,a5,0x10
    3b84:	01075713          	srli	a4,a4,0x10
    3b88:	fe645783          	lhu	a5,-26(s0)
    3b8c:	00f707b3          	add	a5,a4,a5
    3b90:	01079793          	slli	a5,a5,0x10
    3b94:	0107d793          	srli	a5,a5,0x10
    3b98:	fef41323          	sh	a5,-26(s0)
    3b9c:	fd842783          	lw	a5,-40(s0)
    3ba0:	fef42423          	sw	a5,-24(s0)
    3ba4:	fdc42783          	lw	a5,-36(s0)
    3ba8:	00178793          	addi	a5,a5,1
    3bac:	fcf42e23          	sw	a5,-36(s0)
    3bb0:	fdc42703          	lw	a4,-36(s0)
    3bb4:	fcc42783          	lw	a5,-52(s0)
    3bb8:	f4f768e3          	bltu	a4,a5,3b08 <matrix_sum+0x40>
    3bbc:	fe042783          	lw	a5,-32(s0)
    3bc0:	00178793          	addi	a5,a5,1
    3bc4:	fef42023          	sw	a5,-32(s0)
    3bc8:	fe042703          	lw	a4,-32(s0)
    3bcc:	fcc42783          	lw	a5,-52(s0)
    3bd0:	f2f768e3          	bltu	a4,a5,3b00 <matrix_sum+0x38>
    3bd4:	fe641783          	lh	a5,-26(s0)
    3bd8:	00078513          	mv	a0,a5
    3bdc:	03c12083          	lw	ra,60(sp)
    3be0:	03812403          	lw	s0,56(sp)
    3be4:	04010113          	addi	sp,sp,64
    3be8:	00008067          	ret

00003bec <matrix_mul_const>:
    3bec:	fc010113          	addi	sp,sp,-64
    3bf0:	02112e23          	sw	ra,60(sp)
    3bf4:	02812c23          	sw	s0,56(sp)
    3bf8:	02912a23          	sw	s1,52(sp)
    3bfc:	03212823          	sw	s2,48(sp)
    3c00:	03312623          	sw	s3,44(sp)
    3c04:	04010413          	addi	s0,sp,64
    3c08:	fca42623          	sw	a0,-52(s0)
    3c0c:	fcb42423          	sw	a1,-56(s0)
    3c10:	fcc42223          	sw	a2,-60(s0)
    3c14:	00068793          	mv	a5,a3
    3c18:	fcf41123          	sh	a5,-62(s0)
    3c1c:	fc042e23          	sw	zero,-36(s0)
    3c20:	0a00006f          	j	3cc0 <matrix_mul_const+0xd4>
    3c24:	fc042c23          	sw	zero,-40(s0)
    3c28:	0800006f          	j	3ca8 <matrix_mul_const+0xbc>
    3c2c:	fcc42583          	lw	a1,-52(s0)
    3c30:	fdc42503          	lw	a0,-36(s0)
    3c34:	0c1010ef          	jal	ra,54f4 <__mulsi3>
    3c38:	00050793          	mv	a5,a0
    3c3c:	00078713          	mv	a4,a5
    3c40:	fd842783          	lw	a5,-40(s0)
    3c44:	00f707b3          	add	a5,a4,a5
    3c48:	00179793          	slli	a5,a5,0x1
    3c4c:	fc442703          	lw	a4,-60(s0)
    3c50:	00f707b3          	add	a5,a4,a5
    3c54:	00079783          	lh	a5,0(a5)
    3c58:	00078993          	mv	s3,a5
    3c5c:	fc241903          	lh	s2,-62(s0)
    3c60:	fcc42583          	lw	a1,-52(s0)
    3c64:	fdc42503          	lw	a0,-36(s0)
    3c68:	08d010ef          	jal	ra,54f4 <__mulsi3>
    3c6c:	00050793          	mv	a5,a0
    3c70:	00078713          	mv	a4,a5
    3c74:	fd842783          	lw	a5,-40(s0)
    3c78:	00f707b3          	add	a5,a4,a5
    3c7c:	00279793          	slli	a5,a5,0x2
    3c80:	fc842703          	lw	a4,-56(s0)
    3c84:	00f704b3          	add	s1,a4,a5
    3c88:	00090593          	mv	a1,s2
    3c8c:	00098513          	mv	a0,s3
    3c90:	065010ef          	jal	ra,54f4 <__mulsi3>
    3c94:	00050793          	mv	a5,a0
    3c98:	00f4a023          	sw	a5,0(s1)
    3c9c:	fd842783          	lw	a5,-40(s0)
    3ca0:	00178793          	addi	a5,a5,1
    3ca4:	fcf42c23          	sw	a5,-40(s0)
    3ca8:	fd842703          	lw	a4,-40(s0)
    3cac:	fcc42783          	lw	a5,-52(s0)
    3cb0:	f6f76ee3          	bltu	a4,a5,3c2c <matrix_mul_const+0x40>
    3cb4:	fdc42783          	lw	a5,-36(s0)
    3cb8:	00178793          	addi	a5,a5,1
    3cbc:	fcf42e23          	sw	a5,-36(s0)
    3cc0:	fdc42703          	lw	a4,-36(s0)
    3cc4:	fcc42783          	lw	a5,-52(s0)
    3cc8:	f4f76ee3          	bltu	a4,a5,3c24 <matrix_mul_const+0x38>
    3ccc:	00000013          	nop
    3cd0:	00000013          	nop
    3cd4:	03c12083          	lw	ra,60(sp)
    3cd8:	03812403          	lw	s0,56(sp)
    3cdc:	03412483          	lw	s1,52(sp)
    3ce0:	03012903          	lw	s2,48(sp)
    3ce4:	02c12983          	lw	s3,44(sp)
    3ce8:	04010113          	addi	sp,sp,64
    3cec:	00008067          	ret

00003cf0 <matrix_add_const>:
    3cf0:	fd010113          	addi	sp,sp,-48
    3cf4:	02112623          	sw	ra,44(sp)
    3cf8:	02812423          	sw	s0,40(sp)
    3cfc:	02912223          	sw	s1,36(sp)
    3d00:	03010413          	addi	s0,sp,48
    3d04:	fca42e23          	sw	a0,-36(s0)
    3d08:	fcb42c23          	sw	a1,-40(s0)
    3d0c:	00060793          	mv	a5,a2
    3d10:	fcf41b23          	sh	a5,-42(s0)
    3d14:	fe042623          	sw	zero,-20(s0)
    3d18:	0a80006f          	j	3dc0 <matrix_add_const+0xd0>
    3d1c:	fe042423          	sw	zero,-24(s0)
    3d20:	0880006f          	j	3da8 <matrix_add_const+0xb8>
    3d24:	fdc42583          	lw	a1,-36(s0)
    3d28:	fec42503          	lw	a0,-20(s0)
    3d2c:	7c8010ef          	jal	ra,54f4 <__mulsi3>
    3d30:	00050793          	mv	a5,a0
    3d34:	00078713          	mv	a4,a5
    3d38:	fe842783          	lw	a5,-24(s0)
    3d3c:	00f707b3          	add	a5,a4,a5
    3d40:	00179793          	slli	a5,a5,0x1
    3d44:	fd842703          	lw	a4,-40(s0)
    3d48:	00f707b3          	add	a5,a4,a5
    3d4c:	00079783          	lh	a5,0(a5)
    3d50:	01079713          	slli	a4,a5,0x10
    3d54:	01075713          	srli	a4,a4,0x10
    3d58:	fd645783          	lhu	a5,-42(s0)
    3d5c:	00f707b3          	add	a5,a4,a5
    3d60:	01079493          	slli	s1,a5,0x10
    3d64:	0104d493          	srli	s1,s1,0x10
    3d68:	fdc42583          	lw	a1,-36(s0)
    3d6c:	fec42503          	lw	a0,-20(s0)
    3d70:	784010ef          	jal	ra,54f4 <__mulsi3>
    3d74:	00050793          	mv	a5,a0
    3d78:	00078713          	mv	a4,a5
    3d7c:	fe842783          	lw	a5,-24(s0)
    3d80:	00f707b3          	add	a5,a4,a5
    3d84:	00179793          	slli	a5,a5,0x1
    3d88:	fd842703          	lw	a4,-40(s0)
    3d8c:	00f707b3          	add	a5,a4,a5
    3d90:	01049713          	slli	a4,s1,0x10
    3d94:	41075713          	srai	a4,a4,0x10
    3d98:	00e79023          	sh	a4,0(a5)
    3d9c:	fe842783          	lw	a5,-24(s0)
    3da0:	00178793          	addi	a5,a5,1
    3da4:	fef42423          	sw	a5,-24(s0)
    3da8:	fe842703          	lw	a4,-24(s0)
    3dac:	fdc42783          	lw	a5,-36(s0)
    3db0:	f6f76ae3          	bltu	a4,a5,3d24 <matrix_add_const+0x34>
    3db4:	fec42783          	lw	a5,-20(s0)
    3db8:	00178793          	addi	a5,a5,1
    3dbc:	fef42623          	sw	a5,-20(s0)
    3dc0:	fec42703          	lw	a4,-20(s0)
    3dc4:	fdc42783          	lw	a5,-36(s0)
    3dc8:	f4f76ae3          	bltu	a4,a5,3d1c <matrix_add_const+0x2c>
    3dcc:	00000013          	nop
    3dd0:	00000013          	nop
    3dd4:	02c12083          	lw	ra,44(sp)
    3dd8:	02812403          	lw	s0,40(sp)
    3ddc:	02412483          	lw	s1,36(sp)
    3de0:	03010113          	addi	sp,sp,48
    3de4:	00008067          	ret

00003de8 <matrix_mul_vect>:
    3de8:	fd010113          	addi	sp,sp,-48
    3dec:	02112623          	sw	ra,44(sp)
    3df0:	02812423          	sw	s0,40(sp)
    3df4:	02912223          	sw	s1,36(sp)
    3df8:	03010413          	addi	s0,sp,48
    3dfc:	fca42e23          	sw	a0,-36(s0)
    3e00:	fcb42c23          	sw	a1,-40(s0)
    3e04:	fcc42a23          	sw	a2,-44(s0)
    3e08:	fcd42823          	sw	a3,-48(s0)
    3e0c:	fe042623          	sw	zero,-20(s0)
    3e10:	0c80006f          	j	3ed8 <matrix_mul_vect+0xf0>
    3e14:	fec42783          	lw	a5,-20(s0)
    3e18:	00279793          	slli	a5,a5,0x2
    3e1c:	fd842703          	lw	a4,-40(s0)
    3e20:	00f707b3          	add	a5,a4,a5
    3e24:	0007a023          	sw	zero,0(a5)
    3e28:	fe042423          	sw	zero,-24(s0)
    3e2c:	0940006f          	j	3ec0 <matrix_mul_vect+0xd8>
    3e30:	fec42783          	lw	a5,-20(s0)
    3e34:	00279793          	slli	a5,a5,0x2
    3e38:	fd842703          	lw	a4,-40(s0)
    3e3c:	00f707b3          	add	a5,a4,a5
    3e40:	0007a483          	lw	s1,0(a5)
    3e44:	fdc42583          	lw	a1,-36(s0)
    3e48:	fec42503          	lw	a0,-20(s0)
    3e4c:	6a8010ef          	jal	ra,54f4 <__mulsi3>
    3e50:	00050793          	mv	a5,a0
    3e54:	00078713          	mv	a4,a5
    3e58:	fe842783          	lw	a5,-24(s0)
    3e5c:	00f707b3          	add	a5,a4,a5
    3e60:	00179793          	slli	a5,a5,0x1
    3e64:	fd442703          	lw	a4,-44(s0)
    3e68:	00f707b3          	add	a5,a4,a5
    3e6c:	00079783          	lh	a5,0(a5)
    3e70:	00078693          	mv	a3,a5
    3e74:	fe842783          	lw	a5,-24(s0)
    3e78:	00179793          	slli	a5,a5,0x1
    3e7c:	fd042703          	lw	a4,-48(s0)
    3e80:	00f707b3          	add	a5,a4,a5
    3e84:	00079783          	lh	a5,0(a5)
    3e88:	00078593          	mv	a1,a5
    3e8c:	00068513          	mv	a0,a3
    3e90:	664010ef          	jal	ra,54f4 <__mulsi3>
    3e94:	00050793          	mv	a5,a0
    3e98:	00078693          	mv	a3,a5
    3e9c:	fec42783          	lw	a5,-20(s0)
    3ea0:	00279793          	slli	a5,a5,0x2
    3ea4:	fd842703          	lw	a4,-40(s0)
    3ea8:	00f707b3          	add	a5,a4,a5
    3eac:	00d48733          	add	a4,s1,a3
    3eb0:	00e7a023          	sw	a4,0(a5)
    3eb4:	fe842783          	lw	a5,-24(s0)
    3eb8:	00178793          	addi	a5,a5,1
    3ebc:	fef42423          	sw	a5,-24(s0)
    3ec0:	fe842703          	lw	a4,-24(s0)
    3ec4:	fdc42783          	lw	a5,-36(s0)
    3ec8:	f6f764e3          	bltu	a4,a5,3e30 <matrix_mul_vect+0x48>
    3ecc:	fec42783          	lw	a5,-20(s0)
    3ed0:	00178793          	addi	a5,a5,1
    3ed4:	fef42623          	sw	a5,-20(s0)
    3ed8:	fec42703          	lw	a4,-20(s0)
    3edc:	fdc42783          	lw	a5,-36(s0)
    3ee0:	f2f76ae3          	bltu	a4,a5,3e14 <matrix_mul_vect+0x2c>
    3ee4:	00000013          	nop
    3ee8:	00000013          	nop
    3eec:	02c12083          	lw	ra,44(sp)
    3ef0:	02812403          	lw	s0,40(sp)
    3ef4:	02412483          	lw	s1,36(sp)
    3ef8:	03010113          	addi	sp,sp,48
    3efc:	00008067          	ret

00003f00 <matrix_mul_matrix>:
    3f00:	fd010113          	addi	sp,sp,-48
    3f04:	02112623          	sw	ra,44(sp)
    3f08:	02812423          	sw	s0,40(sp)
    3f0c:	02912223          	sw	s1,36(sp)
    3f10:	03212023          	sw	s2,32(sp)
    3f14:	03010413          	addi	s0,sp,48
    3f18:	fca42e23          	sw	a0,-36(s0)
    3f1c:	fcb42c23          	sw	a1,-40(s0)
    3f20:	fcc42a23          	sw	a2,-44(s0)
    3f24:	fcd42823          	sw	a3,-48(s0)
    3f28:	fe042623          	sw	zero,-20(s0)
    3f2c:	1480006f          	j	4074 <matrix_mul_matrix+0x174>
    3f30:	fe042423          	sw	zero,-24(s0)
    3f34:	1280006f          	j	405c <matrix_mul_matrix+0x15c>
    3f38:	fdc42583          	lw	a1,-36(s0)
    3f3c:	fec42503          	lw	a0,-20(s0)
    3f40:	5b4010ef          	jal	ra,54f4 <__mulsi3>
    3f44:	00050793          	mv	a5,a0
    3f48:	00078713          	mv	a4,a5
    3f4c:	fe842783          	lw	a5,-24(s0)
    3f50:	00f707b3          	add	a5,a4,a5
    3f54:	00279793          	slli	a5,a5,0x2
    3f58:	fd842703          	lw	a4,-40(s0)
    3f5c:	00f707b3          	add	a5,a4,a5
    3f60:	0007a023          	sw	zero,0(a5)
    3f64:	fe042223          	sw	zero,-28(s0)
    3f68:	0dc0006f          	j	4044 <matrix_mul_matrix+0x144>
    3f6c:	fdc42583          	lw	a1,-36(s0)
    3f70:	fec42503          	lw	a0,-20(s0)
    3f74:	580010ef          	jal	ra,54f4 <__mulsi3>
    3f78:	00050793          	mv	a5,a0
    3f7c:	00078713          	mv	a4,a5
    3f80:	fe842783          	lw	a5,-24(s0)
    3f84:	00f707b3          	add	a5,a4,a5
    3f88:	00279793          	slli	a5,a5,0x2
    3f8c:	fd842703          	lw	a4,-40(s0)
    3f90:	00f707b3          	add	a5,a4,a5
    3f94:	0007a483          	lw	s1,0(a5)
    3f98:	fdc42583          	lw	a1,-36(s0)
    3f9c:	fec42503          	lw	a0,-20(s0)
    3fa0:	554010ef          	jal	ra,54f4 <__mulsi3>
    3fa4:	00050793          	mv	a5,a0
    3fa8:	00078713          	mv	a4,a5
    3fac:	fe442783          	lw	a5,-28(s0)
    3fb0:	00f707b3          	add	a5,a4,a5
    3fb4:	00179793          	slli	a5,a5,0x1
    3fb8:	fd442703          	lw	a4,-44(s0)
    3fbc:	00f707b3          	add	a5,a4,a5
    3fc0:	00079783          	lh	a5,0(a5)
    3fc4:	00078913          	mv	s2,a5
    3fc8:	fdc42583          	lw	a1,-36(s0)
    3fcc:	fe442503          	lw	a0,-28(s0)
    3fd0:	524010ef          	jal	ra,54f4 <__mulsi3>
    3fd4:	00050793          	mv	a5,a0
    3fd8:	00078713          	mv	a4,a5
    3fdc:	fe842783          	lw	a5,-24(s0)
    3fe0:	00f707b3          	add	a5,a4,a5
    3fe4:	00179793          	slli	a5,a5,0x1
    3fe8:	fd042703          	lw	a4,-48(s0)
    3fec:	00f707b3          	add	a5,a4,a5
    3ff0:	00079783          	lh	a5,0(a5)
    3ff4:	00078593          	mv	a1,a5
    3ff8:	00090513          	mv	a0,s2
    3ffc:	4f8010ef          	jal	ra,54f4 <__mulsi3>
    4000:	00050793          	mv	a5,a0
    4004:	00078913          	mv	s2,a5
    4008:	fdc42583          	lw	a1,-36(s0)
    400c:	fec42503          	lw	a0,-20(s0)
    4010:	4e4010ef          	jal	ra,54f4 <__mulsi3>
    4014:	00050793          	mv	a5,a0
    4018:	00078713          	mv	a4,a5
    401c:	fe842783          	lw	a5,-24(s0)
    4020:	00f707b3          	add	a5,a4,a5
    4024:	00279793          	slli	a5,a5,0x2
    4028:	fd842703          	lw	a4,-40(s0)
    402c:	00f707b3          	add	a5,a4,a5
    4030:	01248733          	add	a4,s1,s2
    4034:	00e7a023          	sw	a4,0(a5)
    4038:	fe442783          	lw	a5,-28(s0)
    403c:	00178793          	addi	a5,a5,1
    4040:	fef42223          	sw	a5,-28(s0)
    4044:	fe442703          	lw	a4,-28(s0)
    4048:	fdc42783          	lw	a5,-36(s0)
    404c:	f2f760e3          	bltu	a4,a5,3f6c <matrix_mul_matrix+0x6c>
    4050:	fe842783          	lw	a5,-24(s0)
    4054:	00178793          	addi	a5,a5,1
    4058:	fef42423          	sw	a5,-24(s0)
    405c:	fe842703          	lw	a4,-24(s0)
    4060:	fdc42783          	lw	a5,-36(s0)
    4064:	ecf76ae3          	bltu	a4,a5,3f38 <matrix_mul_matrix+0x38>
    4068:	fec42783          	lw	a5,-20(s0)
    406c:	00178793          	addi	a5,a5,1
    4070:	fef42623          	sw	a5,-20(s0)
    4074:	fec42703          	lw	a4,-20(s0)
    4078:	fdc42783          	lw	a5,-36(s0)
    407c:	eaf76ae3          	bltu	a4,a5,3f30 <matrix_mul_matrix+0x30>
    4080:	00000013          	nop
    4084:	00000013          	nop
    4088:	02c12083          	lw	ra,44(sp)
    408c:	02812403          	lw	s0,40(sp)
    4090:	02412483          	lw	s1,36(sp)
    4094:	02012903          	lw	s2,32(sp)
    4098:	03010113          	addi	sp,sp,48
    409c:	00008067          	ret

000040a0 <matrix_mul_matrix_bitextract>:
    40a0:	fd010113          	addi	sp,sp,-48
    40a4:	02112623          	sw	ra,44(sp)
    40a8:	02812423          	sw	s0,40(sp)
    40ac:	02912223          	sw	s1,36(sp)
    40b0:	03010413          	addi	s0,sp,48
    40b4:	fca42e23          	sw	a0,-36(s0)
    40b8:	fcb42c23          	sw	a1,-40(s0)
    40bc:	fcc42a23          	sw	a2,-44(s0)
    40c0:	fcd42823          	sw	a3,-48(s0)
    40c4:	fe042623          	sw	zero,-20(s0)
    40c8:	1780006f          	j	4240 <matrix_mul_matrix_bitextract+0x1a0>
    40cc:	fe042423          	sw	zero,-24(s0)
    40d0:	1580006f          	j	4228 <matrix_mul_matrix_bitextract+0x188>
    40d4:	fdc42583          	lw	a1,-36(s0)
    40d8:	fec42503          	lw	a0,-20(s0)
    40dc:	418010ef          	jal	ra,54f4 <__mulsi3>
    40e0:	00050793          	mv	a5,a0
    40e4:	00078713          	mv	a4,a5
    40e8:	fe842783          	lw	a5,-24(s0)
    40ec:	00f707b3          	add	a5,a4,a5
    40f0:	00279793          	slli	a5,a5,0x2
    40f4:	fd842703          	lw	a4,-40(s0)
    40f8:	00f707b3          	add	a5,a4,a5
    40fc:	0007a023          	sw	zero,0(a5)
    4100:	fe042223          	sw	zero,-28(s0)
    4104:	10c0006f          	j	4210 <matrix_mul_matrix_bitextract+0x170>
    4108:	fdc42583          	lw	a1,-36(s0)
    410c:	fec42503          	lw	a0,-20(s0)
    4110:	3e4010ef          	jal	ra,54f4 <__mulsi3>
    4114:	00050793          	mv	a5,a0
    4118:	00078713          	mv	a4,a5
    411c:	fe442783          	lw	a5,-28(s0)
    4120:	00f707b3          	add	a5,a4,a5
    4124:	00179793          	slli	a5,a5,0x1
    4128:	fd442703          	lw	a4,-44(s0)
    412c:	00f707b3          	add	a5,a4,a5
    4130:	00079783          	lh	a5,0(a5)
    4134:	00078493          	mv	s1,a5
    4138:	fdc42583          	lw	a1,-36(s0)
    413c:	fe442503          	lw	a0,-28(s0)
    4140:	3b4010ef          	jal	ra,54f4 <__mulsi3>
    4144:	00050793          	mv	a5,a0
    4148:	00078713          	mv	a4,a5
    414c:	fe842783          	lw	a5,-24(s0)
    4150:	00f707b3          	add	a5,a4,a5
    4154:	00179793          	slli	a5,a5,0x1
    4158:	fd042703          	lw	a4,-48(s0)
    415c:	00f707b3          	add	a5,a4,a5
    4160:	00079783          	lh	a5,0(a5)
    4164:	00078593          	mv	a1,a5
    4168:	00048513          	mv	a0,s1
    416c:	388010ef          	jal	ra,54f4 <__mulsi3>
    4170:	00050793          	mv	a5,a0
    4174:	fef42023          	sw	a5,-32(s0)
    4178:	fdc42583          	lw	a1,-36(s0)
    417c:	fec42503          	lw	a0,-20(s0)
    4180:	374010ef          	jal	ra,54f4 <__mulsi3>
    4184:	00050793          	mv	a5,a0
    4188:	00078713          	mv	a4,a5
    418c:	fe842783          	lw	a5,-24(s0)
    4190:	00f707b3          	add	a5,a4,a5
    4194:	00279793          	slli	a5,a5,0x2
    4198:	fd842703          	lw	a4,-40(s0)
    419c:	00f707b3          	add	a5,a4,a5
    41a0:	0007a783          	lw	a5,0(a5)
    41a4:	00078493          	mv	s1,a5
    41a8:	fe042783          	lw	a5,-32(s0)
    41ac:	4027d793          	srai	a5,a5,0x2
    41b0:	00f7f713          	andi	a4,a5,15
    41b4:	fe042783          	lw	a5,-32(s0)
    41b8:	4057d793          	srai	a5,a5,0x5
    41bc:	07f7f793          	andi	a5,a5,127
    41c0:	00078593          	mv	a1,a5
    41c4:	00070513          	mv	a0,a4
    41c8:	32c010ef          	jal	ra,54f4 <__mulsi3>
    41cc:	00050793          	mv	a5,a0
    41d0:	00f484b3          	add	s1,s1,a5
    41d4:	fdc42583          	lw	a1,-36(s0)
    41d8:	fec42503          	lw	a0,-20(s0)
    41dc:	318010ef          	jal	ra,54f4 <__mulsi3>
    41e0:	00050793          	mv	a5,a0
    41e4:	00078713          	mv	a4,a5
    41e8:	fe842783          	lw	a5,-24(s0)
    41ec:	00f707b3          	add	a5,a4,a5
    41f0:	00279793          	slli	a5,a5,0x2
    41f4:	fd842703          	lw	a4,-40(s0)
    41f8:	00f707b3          	add	a5,a4,a5
    41fc:	00048713          	mv	a4,s1
    4200:	00e7a023          	sw	a4,0(a5)
    4204:	fe442783          	lw	a5,-28(s0)
    4208:	00178793          	addi	a5,a5,1
    420c:	fef42223          	sw	a5,-28(s0)
    4210:	fe442703          	lw	a4,-28(s0)
    4214:	fdc42783          	lw	a5,-36(s0)
    4218:	eef768e3          	bltu	a4,a5,4108 <matrix_mul_matrix_bitextract+0x68>
    421c:	fe842783          	lw	a5,-24(s0)
    4220:	00178793          	addi	a5,a5,1
    4224:	fef42423          	sw	a5,-24(s0)
    4228:	fe842703          	lw	a4,-24(s0)
    422c:	fdc42783          	lw	a5,-36(s0)
    4230:	eaf762e3          	bltu	a4,a5,40d4 <matrix_mul_matrix_bitextract+0x34>
    4234:	fec42783          	lw	a5,-20(s0)
    4238:	00178793          	addi	a5,a5,1
    423c:	fef42623          	sw	a5,-20(s0)
    4240:	fec42703          	lw	a4,-20(s0)
    4244:	fdc42783          	lw	a5,-36(s0)
    4248:	e8f762e3          	bltu	a4,a5,40cc <matrix_mul_matrix_bitextract+0x2c>
    424c:	00000013          	nop
    4250:	00000013          	nop
    4254:	02c12083          	lw	ra,44(sp)
    4258:	02812403          	lw	s0,40(sp)
    425c:	02412483          	lw	s1,36(sp)
    4260:	03010113          	addi	sp,sp,48
    4264:	00008067          	ret

00004268 <uptime_ms>:
    4268:	ff010113          	addi	sp,sp,-16
    426c:	00112623          	sw	ra,12(sp)
    4270:	00812423          	sw	s0,8(sp)
    4274:	01010413          	addi	s0,sp,16
    4278:	584010ef          	jal	ra,57fc <gettimeofday>
    427c:	00050793          	mv	a5,a0
    4280:	3e800593          	li	a1,1000
    4284:	00078513          	mv	a0,a5
    4288:	394010ef          	jal	ra,561c <__udivsi3>
    428c:	00050793          	mv	a5,a0
    4290:	00078513          	mv	a0,a5
    4294:	00c12083          	lw	ra,12(sp)
    4298:	00812403          	lw	s0,8(sp)
    429c:	01010113          	addi	sp,sp,16
    42a0:	00008067          	ret

000042a4 <start_time>:
    42a4:	ff010113          	addi	sp,sp,-16
    42a8:	00112623          	sw	ra,12(sp)
    42ac:	00812423          	sw	s0,8(sp)
    42b0:	01010413          	addi	s0,sp,16
    42b4:	fb5ff0ef          	jal	ra,4268 <uptime_ms>
    42b8:	00050713          	mv	a4,a0
    42bc:	00101797          	auipc	a5,0x101
    42c0:	35078793          	addi	a5,a5,848 # 10560c <start_time_val>
    42c4:	00e7a023          	sw	a4,0(a5)
    42c8:	00000013          	nop
    42cc:	00c12083          	lw	ra,12(sp)
    42d0:	00812403          	lw	s0,8(sp)
    42d4:	01010113          	addi	sp,sp,16
    42d8:	00008067          	ret

000042dc <stop_time>:
    42dc:	ff010113          	addi	sp,sp,-16
    42e0:	00112623          	sw	ra,12(sp)
    42e4:	00812423          	sw	s0,8(sp)
    42e8:	01010413          	addi	s0,sp,16
    42ec:	f7dff0ef          	jal	ra,4268 <uptime_ms>
    42f0:	00050713          	mv	a4,a0
    42f4:	00101797          	auipc	a5,0x101
    42f8:	31c78793          	addi	a5,a5,796 # 105610 <stop_time_val>
    42fc:	00e7a023          	sw	a4,0(a5)
    4300:	00000013          	nop
    4304:	00c12083          	lw	ra,12(sp)
    4308:	00812403          	lw	s0,8(sp)
    430c:	01010113          	addi	sp,sp,16
    4310:	00008067          	ret

00004314 <get_time>:
    4314:	ff010113          	addi	sp,sp,-16
    4318:	00812623          	sw	s0,12(sp)
    431c:	01010413          	addi	s0,sp,16
    4320:	00101797          	auipc	a5,0x101
    4324:	2f078793          	addi	a5,a5,752 # 105610 <stop_time_val>
    4328:	0007a703          	lw	a4,0(a5)
    432c:	00101797          	auipc	a5,0x101
    4330:	2e078793          	addi	a5,a5,736 # 10560c <start_time_val>
    4334:	0007a783          	lw	a5,0(a5)
    4338:	40f707b3          	sub	a5,a4,a5
    433c:	00078513          	mv	a0,a5
    4340:	00c12403          	lw	s0,12(sp)
    4344:	01010113          	addi	sp,sp,16
    4348:	00008067          	ret

0000434c <time_in_secs>:
    434c:	fe010113          	addi	sp,sp,-32
    4350:	00812e23          	sw	s0,28(sp)
    4354:	02010413          	addi	s0,sp,32
    4358:	fea42623          	sw	a0,-20(s0)
    435c:	fec42783          	lw	a5,-20(s0)
    4360:	00078513          	mv	a0,a5
    4364:	01c12403          	lw	s0,28(sp)
    4368:	02010113          	addi	sp,sp,32
    436c:	00008067          	ret

00004370 <portable_init>:
    4370:	fe010113          	addi	sp,sp,-32
    4374:	00812e23          	sw	s0,28(sp)
    4378:	02010413          	addi	s0,sp,32
    437c:	fea42623          	sw	a0,-20(s0)
    4380:	feb42423          	sw	a1,-24(s0)
    4384:	fec42223          	sw	a2,-28(s0)
    4388:	fec42783          	lw	a5,-20(s0)
    438c:	00100713          	li	a4,1
    4390:	00e78023          	sb	a4,0(a5)
    4394:	00000013          	nop
    4398:	01c12403          	lw	s0,28(sp)
    439c:	02010113          	addi	sp,sp,32
    43a0:	00008067          	ret

000043a4 <portable_fini>:
    43a4:	fe010113          	addi	sp,sp,-32
    43a8:	00812e23          	sw	s0,28(sp)
    43ac:	02010413          	addi	s0,sp,32
    43b0:	fea42623          	sw	a0,-20(s0)
    43b4:	fec42783          	lw	a5,-20(s0)
    43b8:	00078023          	sb	zero,0(a5)
    43bc:	00000013          	nop
    43c0:	01c12403          	lw	s0,28(sp)
    43c4:	02010113          	addi	sp,sp,32
    43c8:	00008067          	ret

000043cc <core_bench_state>:
    43cc:	f9010113          	addi	sp,sp,-112
    43d0:	06112623          	sw	ra,108(sp)
    43d4:	06812423          	sw	s0,104(sp)
    43d8:	07010413          	addi	s0,sp,112
    43dc:	f8a42e23          	sw	a0,-100(s0)
    43e0:	f8b42c23          	sw	a1,-104(s0)
    43e4:	00060593          	mv	a1,a2
    43e8:	00068613          	mv	a2,a3
    43ec:	00070693          	mv	a3,a4
    43f0:	00078713          	mv	a4,a5
    43f4:	00058793          	mv	a5,a1
    43f8:	f8f41b23          	sh	a5,-106(s0)
    43fc:	00060793          	mv	a5,a2
    4400:	f8f41a23          	sh	a5,-108(s0)
    4404:	00068793          	mv	a5,a3
    4408:	f8f41923          	sh	a5,-110(s0)
    440c:	00070793          	mv	a5,a4
    4410:	f8f41823          	sh	a5,-112(s0)
    4414:	f9842783          	lw	a5,-104(s0)
    4418:	faf42023          	sw	a5,-96(s0)
    441c:	fe042623          	sw	zero,-20(s0)
    4420:	04c0006f          	j	446c <core_bench_state+0xa0>
    4424:	fec42783          	lw	a5,-20(s0)
    4428:	00279793          	slli	a5,a5,0x2
    442c:	ff040713          	addi	a4,s0,-16
    4430:	00f707b3          	add	a5,a4,a5
    4434:	fa07aa23          	sw	zero,-76(a5)
    4438:	fec42783          	lw	a5,-20(s0)
    443c:	00279793          	slli	a5,a5,0x2
    4440:	ff040713          	addi	a4,s0,-16
    4444:	00f707b3          	add	a5,a4,a5
    4448:	fb47a703          	lw	a4,-76(a5)
    444c:	fec42783          	lw	a5,-20(s0)
    4450:	00279793          	slli	a5,a5,0x2
    4454:	ff040693          	addi	a3,s0,-16
    4458:	00f687b3          	add	a5,a3,a5
    445c:	fce7aa23          	sw	a4,-44(a5)
    4460:	fec42783          	lw	a5,-20(s0)
    4464:	00178793          	addi	a5,a5,1
    4468:	fef42623          	sw	a5,-20(s0)
    446c:	fec42703          	lw	a4,-20(s0)
    4470:	00700793          	li	a5,7
    4474:	fae7f8e3          	bgeu	a5,a4,4424 <core_bench_state+0x58>
    4478:	0480006f          	j	44c0 <core_bench_state+0xf4>
    447c:	fa440713          	addi	a4,s0,-92
    4480:	fa040793          	addi	a5,s0,-96
    4484:	00070593          	mv	a1,a4
    4488:	00078513          	mv	a0,a5
    448c:	4c4000ef          	jal	ra,4950 <core_state_transition>
    4490:	fea42223          	sw	a0,-28(s0)
    4494:	fe442783          	lw	a5,-28(s0)
    4498:	00279793          	slli	a5,a5,0x2
    449c:	ff040713          	addi	a4,s0,-16
    44a0:	00f707b3          	add	a5,a4,a5
    44a4:	fd47a783          	lw	a5,-44(a5)
    44a8:	00178713          	addi	a4,a5,1
    44ac:	fe442783          	lw	a5,-28(s0)
    44b0:	00279793          	slli	a5,a5,0x2
    44b4:	ff040693          	addi	a3,s0,-16
    44b8:	00f687b3          	add	a5,a3,a5
    44bc:	fce7aa23          	sw	a4,-44(a5)
    44c0:	fa042783          	lw	a5,-96(s0)
    44c4:	0007c783          	lbu	a5,0(a5)
    44c8:	fa079ae3          	bnez	a5,447c <core_bench_state+0xb0>
    44cc:	f9842783          	lw	a5,-104(s0)
    44d0:	faf42023          	sw	a5,-96(s0)
    44d4:	0440006f          	j	4518 <core_bench_state+0x14c>
    44d8:	fa042783          	lw	a5,-96(s0)
    44dc:	0007c703          	lbu	a4,0(a5)
    44e0:	02c00793          	li	a5,44
    44e4:	02f70263          	beq	a4,a5,4508 <core_bench_state+0x13c>
    44e8:	fa042783          	lw	a5,-96(s0)
    44ec:	0007c683          	lbu	a3,0(a5)
    44f0:	f9645783          	lhu	a5,-106(s0)
    44f4:	0ff7f713          	andi	a4,a5,255
    44f8:	fa042783          	lw	a5,-96(s0)
    44fc:	00e6c733          	xor	a4,a3,a4
    4500:	0ff77713          	andi	a4,a4,255
    4504:	00e78023          	sb	a4,0(a5)
    4508:	fa042703          	lw	a4,-96(s0)
    450c:	f9241783          	lh	a5,-110(s0)
    4510:	00f707b3          	add	a5,a4,a5
    4514:	faf42023          	sw	a5,-96(s0)
    4518:	f9842703          	lw	a4,-104(s0)
    451c:	f9c42783          	lw	a5,-100(s0)
    4520:	00f70733          	add	a4,a4,a5
    4524:	fa042783          	lw	a5,-96(s0)
    4528:	fae7e8e3          	bltu	a5,a4,44d8 <core_bench_state+0x10c>
    452c:	f9842783          	lw	a5,-104(s0)
    4530:	faf42023          	sw	a5,-96(s0)
    4534:	0480006f          	j	457c <core_bench_state+0x1b0>
    4538:	fa440713          	addi	a4,s0,-92
    453c:	fa040793          	addi	a5,s0,-96
    4540:	00070593          	mv	a1,a4
    4544:	00078513          	mv	a0,a5
    4548:	408000ef          	jal	ra,4950 <core_state_transition>
    454c:	fea42423          	sw	a0,-24(s0)
    4550:	fe842783          	lw	a5,-24(s0)
    4554:	00279793          	slli	a5,a5,0x2
    4558:	ff040713          	addi	a4,s0,-16
    455c:	00f707b3          	add	a5,a4,a5
    4560:	fd47a783          	lw	a5,-44(a5)
    4564:	00178713          	addi	a4,a5,1
    4568:	fe842783          	lw	a5,-24(s0)
    456c:	00279793          	slli	a5,a5,0x2
    4570:	ff040693          	addi	a3,s0,-16
    4574:	00f687b3          	add	a5,a3,a5
    4578:	fce7aa23          	sw	a4,-44(a5)
    457c:	fa042783          	lw	a5,-96(s0)
    4580:	0007c783          	lbu	a5,0(a5)
    4584:	fa079ae3          	bnez	a5,4538 <core_bench_state+0x16c>
    4588:	f9842783          	lw	a5,-104(s0)
    458c:	faf42023          	sw	a5,-96(s0)
    4590:	0440006f          	j	45d4 <core_bench_state+0x208>
    4594:	fa042783          	lw	a5,-96(s0)
    4598:	0007c703          	lbu	a4,0(a5)
    459c:	02c00793          	li	a5,44
    45a0:	02f70263          	beq	a4,a5,45c4 <core_bench_state+0x1f8>
    45a4:	fa042783          	lw	a5,-96(s0)
    45a8:	0007c683          	lbu	a3,0(a5)
    45ac:	f9445783          	lhu	a5,-108(s0)
    45b0:	0ff7f713          	andi	a4,a5,255
    45b4:	fa042783          	lw	a5,-96(s0)
    45b8:	00e6c733          	xor	a4,a3,a4
    45bc:	0ff77713          	andi	a4,a4,255
    45c0:	00e78023          	sb	a4,0(a5)
    45c4:	fa042703          	lw	a4,-96(s0)
    45c8:	f9241783          	lh	a5,-110(s0)
    45cc:	00f707b3          	add	a5,a4,a5
    45d0:	faf42023          	sw	a5,-96(s0)
    45d4:	f9842703          	lw	a4,-104(s0)
    45d8:	f9c42783          	lw	a5,-100(s0)
    45dc:	00f70733          	add	a4,a4,a5
    45e0:	fa042783          	lw	a5,-96(s0)
    45e4:	fae7e8e3          	bltu	a5,a4,4594 <core_bench_state+0x1c8>
    45e8:	fe042623          	sw	zero,-20(s0)
    45ec:	0680006f          	j	4654 <core_bench_state+0x288>
    45f0:	fec42783          	lw	a5,-20(s0)
    45f4:	00279793          	slli	a5,a5,0x2
    45f8:	ff040713          	addi	a4,s0,-16
    45fc:	00f707b3          	add	a5,a4,a5
    4600:	fd47a783          	lw	a5,-44(a5)
    4604:	f9045703          	lhu	a4,-112(s0)
    4608:	00070593          	mv	a1,a4
    460c:	00078513          	mv	a0,a5
    4610:	135000ef          	jal	ra,4f44 <crcu32>
    4614:	00050793          	mv	a5,a0
    4618:	f8f41823          	sh	a5,-112(s0)
    461c:	fec42783          	lw	a5,-20(s0)
    4620:	00279793          	slli	a5,a5,0x2
    4624:	ff040713          	addi	a4,s0,-16
    4628:	00f707b3          	add	a5,a4,a5
    462c:	fb47a783          	lw	a5,-76(a5)
    4630:	f9045703          	lhu	a4,-112(s0)
    4634:	00070593          	mv	a1,a4
    4638:	00078513          	mv	a0,a5
    463c:	109000ef          	jal	ra,4f44 <crcu32>
    4640:	00050793          	mv	a5,a0
    4644:	f8f41823          	sh	a5,-112(s0)
    4648:	fec42783          	lw	a5,-20(s0)
    464c:	00178793          	addi	a5,a5,1
    4650:	fef42623          	sw	a5,-20(s0)
    4654:	fec42703          	lw	a4,-20(s0)
    4658:	00700793          	li	a5,7
    465c:	f8e7fae3          	bgeu	a5,a4,45f0 <core_bench_state+0x224>
    4660:	f9045783          	lhu	a5,-112(s0)
    4664:	00078513          	mv	a0,a5
    4668:	06c12083          	lw	ra,108(sp)
    466c:	06812403          	lw	s0,104(sp)
    4670:	07010113          	addi	sp,sp,112
    4674:	00008067          	ret

00004678 <core_init_state>:
    4678:	fd010113          	addi	sp,sp,-48
    467c:	02812623          	sw	s0,44(sp)
    4680:	03010413          	addi	s0,sp,48
    4684:	fca42e23          	sw	a0,-36(s0)
    4688:	00058793          	mv	a5,a1
    468c:	fcc42a23          	sw	a2,-44(s0)
    4690:	fcf41d23          	sh	a5,-38(s0)
    4694:	fe042623          	sw	zero,-20(s0)
    4698:	fe042423          	sw	zero,-24(s0)
    469c:	fe042023          	sw	zero,-32(s0)
    46a0:	fdc42783          	lw	a5,-36(s0)
    46a4:	fff78793          	addi	a5,a5,-1
    46a8:	fcf42e23          	sw	a5,-36(s0)
    46ac:	fe042423          	sw	zero,-24(s0)
    46b0:	1ec0006f          	j	489c <core_init_state+0x224>
    46b4:	fe842783          	lw	a5,-24(s0)
    46b8:	06078e63          	beqz	a5,4734 <core_init_state+0xbc>
    46bc:	fe042223          	sw	zero,-28(s0)
    46c0:	0380006f          	j	46f8 <core_init_state+0x80>
    46c4:	fe042703          	lw	a4,-32(s0)
    46c8:	fe442783          	lw	a5,-28(s0)
    46cc:	00f70733          	add	a4,a4,a5
    46d0:	fec42683          	lw	a3,-20(s0)
    46d4:	fe442783          	lw	a5,-28(s0)
    46d8:	00f687b3          	add	a5,a3,a5
    46dc:	fd442683          	lw	a3,-44(s0)
    46e0:	00f687b3          	add	a5,a3,a5
    46e4:	00074703          	lbu	a4,0(a4)
    46e8:	00e78023          	sb	a4,0(a5)
    46ec:	fe442783          	lw	a5,-28(s0)
    46f0:	00178793          	addi	a5,a5,1
    46f4:	fef42223          	sw	a5,-28(s0)
    46f8:	fe442703          	lw	a4,-28(s0)
    46fc:	fe842783          	lw	a5,-24(s0)
    4700:	fcf762e3          	bltu	a4,a5,46c4 <core_init_state+0x4c>
    4704:	fec42703          	lw	a4,-20(s0)
    4708:	fe442783          	lw	a5,-28(s0)
    470c:	00f707b3          	add	a5,a4,a5
    4710:	fd442703          	lw	a4,-44(s0)
    4714:	00f707b3          	add	a5,a4,a5
    4718:	02c00713          	li	a4,44
    471c:	00e78023          	sb	a4,0(a5)
    4720:	fe842703          	lw	a4,-24(s0)
    4724:	fec42783          	lw	a5,-20(s0)
    4728:	00f707b3          	add	a5,a4,a5
    472c:	00178793          	addi	a5,a5,1
    4730:	fef42623          	sw	a5,-20(s0)
    4734:	fda41783          	lh	a5,-38(s0)
    4738:	01079793          	slli	a5,a5,0x10
    473c:	0107d793          	srli	a5,a5,0x10
    4740:	00178793          	addi	a5,a5,1
    4744:	01079793          	slli	a5,a5,0x10
    4748:	0107d793          	srli	a5,a5,0x10
    474c:	fcf41d23          	sh	a5,-38(s0)
    4750:	fda45783          	lhu	a5,-38(s0)
    4754:	0077f793          	andi	a5,a5,7
    4758:	00700713          	li	a4,7
    475c:	0ee78e63          	beq	a5,a4,4858 <core_init_state+0x1e0>
    4760:	00700713          	li	a4,7
    4764:	12f74a63          	blt	a4,a5,4898 <core_init_state+0x220>
    4768:	00600713          	li	a4,6
    476c:	12f74663          	blt	a4,a5,4898 <core_init_state+0x220>
    4770:	00500713          	li	a4,5
    4774:	0ae7d263          	bge	a5,a4,4818 <core_init_state+0x1a0>
    4778:	00200713          	li	a4,2
    477c:	00f74663          	blt	a4,a5,4788 <core_init_state+0x110>
    4780:	0007dc63          	bgez	a5,4798 <core_init_state+0x120>
    4784:	1140006f          	j	4898 <core_init_state+0x220>
    4788:	ffd78713          	addi	a4,a5,-3
    478c:	00100793          	li	a5,1
    4790:	10e7e463          	bltu	a5,a4,4898 <core_init_state+0x220>
    4794:	0440006f          	j	47d8 <core_init_state+0x160>
    4798:	fda41783          	lh	a5,-38(s0)
    479c:	4037d793          	srai	a5,a5,0x3
    47a0:	01079793          	slli	a5,a5,0x10
    47a4:	4107d793          	srai	a5,a5,0x10
    47a8:	01079793          	slli	a5,a5,0x10
    47ac:	0107d793          	srli	a5,a5,0x10
    47b0:	0037f793          	andi	a5,a5,3
    47b4:	000fc717          	auipc	a4,0xfc
    47b8:	1e470713          	addi	a4,a4,484 # 100998 <intpat>
    47bc:	00279793          	slli	a5,a5,0x2
    47c0:	00f707b3          	add	a5,a4,a5
    47c4:	0007a783          	lw	a5,0(a5)
    47c8:	fef42023          	sw	a5,-32(s0)
    47cc:	00400793          	li	a5,4
    47d0:	fef42423          	sw	a5,-24(s0)
    47d4:	0c80006f          	j	489c <core_init_state+0x224>
    47d8:	fda41783          	lh	a5,-38(s0)
    47dc:	4037d793          	srai	a5,a5,0x3
    47e0:	01079793          	slli	a5,a5,0x10
    47e4:	4107d793          	srai	a5,a5,0x10
    47e8:	01079793          	slli	a5,a5,0x10
    47ec:	0107d793          	srli	a5,a5,0x10
    47f0:	0037f793          	andi	a5,a5,3
    47f4:	000fc717          	auipc	a4,0xfc
    47f8:	1b470713          	addi	a4,a4,436 # 1009a8 <floatpat>
    47fc:	00279793          	slli	a5,a5,0x2
    4800:	00f707b3          	add	a5,a4,a5
    4804:	0007a783          	lw	a5,0(a5)
    4808:	fef42023          	sw	a5,-32(s0)
    480c:	00800793          	li	a5,8
    4810:	fef42423          	sw	a5,-24(s0)
    4814:	0880006f          	j	489c <core_init_state+0x224>
    4818:	fda41783          	lh	a5,-38(s0)
    481c:	4037d793          	srai	a5,a5,0x3
    4820:	01079793          	slli	a5,a5,0x10
    4824:	4107d793          	srai	a5,a5,0x10
    4828:	01079793          	slli	a5,a5,0x10
    482c:	0107d793          	srli	a5,a5,0x10
    4830:	0037f793          	andi	a5,a5,3
    4834:	000fc717          	auipc	a4,0xfc
    4838:	18470713          	addi	a4,a4,388 # 1009b8 <scipat>
    483c:	00279793          	slli	a5,a5,0x2
    4840:	00f707b3          	add	a5,a4,a5
    4844:	0007a783          	lw	a5,0(a5)
    4848:	fef42023          	sw	a5,-32(s0)
    484c:	00800793          	li	a5,8
    4850:	fef42423          	sw	a5,-24(s0)
    4854:	0480006f          	j	489c <core_init_state+0x224>
    4858:	fda41783          	lh	a5,-38(s0)
    485c:	4037d793          	srai	a5,a5,0x3
    4860:	01079793          	slli	a5,a5,0x10
    4864:	4107d793          	srai	a5,a5,0x10
    4868:	01079793          	slli	a5,a5,0x10
    486c:	0107d793          	srli	a5,a5,0x10
    4870:	0037f793          	andi	a5,a5,3
    4874:	000fc717          	auipc	a4,0xfc
    4878:	15470713          	addi	a4,a4,340 # 1009c8 <errpat>
    487c:	00279793          	slli	a5,a5,0x2
    4880:	00f707b3          	add	a5,a4,a5
    4884:	0007a783          	lw	a5,0(a5)
    4888:	fef42023          	sw	a5,-32(s0)
    488c:	00800793          	li	a5,8
    4890:	fef42423          	sw	a5,-24(s0)
    4894:	0080006f          	j	489c <core_init_state+0x224>
    4898:	00000013          	nop
    489c:	fec42703          	lw	a4,-20(s0)
    48a0:	fe842783          	lw	a5,-24(s0)
    48a4:	00f707b3          	add	a5,a4,a5
    48a8:	00178793          	addi	a5,a5,1
    48ac:	fdc42703          	lw	a4,-36(s0)
    48b0:	e0e7e2e3          	bltu	a5,a4,46b4 <core_init_state+0x3c>
    48b4:	fdc42783          	lw	a5,-36(s0)
    48b8:	00178793          	addi	a5,a5,1
    48bc:	fcf42e23          	sw	a5,-36(s0)
    48c0:	0200006f          	j	48e0 <core_init_state+0x268>
    48c4:	fd442703          	lw	a4,-44(s0)
    48c8:	fec42783          	lw	a5,-20(s0)
    48cc:	00f707b3          	add	a5,a4,a5
    48d0:	00078023          	sb	zero,0(a5)
    48d4:	fec42783          	lw	a5,-20(s0)
    48d8:	00178793          	addi	a5,a5,1
    48dc:	fef42623          	sw	a5,-20(s0)
    48e0:	fec42703          	lw	a4,-20(s0)
    48e4:	fdc42783          	lw	a5,-36(s0)
    48e8:	fcf76ee3          	bltu	a4,a5,48c4 <core_init_state+0x24c>
    48ec:	00000013          	nop
    48f0:	00000013          	nop
    48f4:	02c12403          	lw	s0,44(sp)
    48f8:	03010113          	addi	sp,sp,48
    48fc:	00008067          	ret

00004900 <ee_isdigit>:
    4900:	fd010113          	addi	sp,sp,-48
    4904:	02812623          	sw	s0,44(sp)
    4908:	03010413          	addi	s0,sp,48
    490c:	00050793          	mv	a5,a0
    4910:	fcf40fa3          	sb	a5,-33(s0)
    4914:	fdf44783          	lbu	a5,-33(s0)
    4918:	0307b793          	sltiu	a5,a5,48
    491c:	0017c793          	xori	a5,a5,1
    4920:	0ff7f713          	andi	a4,a5,255
    4924:	fdf44783          	lbu	a5,-33(s0)
    4928:	03a7b793          	sltiu	a5,a5,58
    492c:	0ff7f793          	andi	a5,a5,255
    4930:	00f777b3          	and	a5,a4,a5
    4934:	0ff7f793          	andi	a5,a5,255
    4938:	fef407a3          	sb	a5,-17(s0)
    493c:	fef44783          	lbu	a5,-17(s0)
    4940:	00078513          	mv	a0,a5
    4944:	02c12403          	lw	s0,44(sp)
    4948:	03010113          	addi	sp,sp,48
    494c:	00008067          	ret

00004950 <core_state_transition>:
    4950:	fd010113          	addi	sp,sp,-48
    4954:	02112623          	sw	ra,44(sp)
    4958:	02812423          	sw	s0,40(sp)
    495c:	03010413          	addi	s0,sp,48
    4960:	fca42e23          	sw	a0,-36(s0)
    4964:	fcb42c23          	sw	a1,-40(s0)
    4968:	fdc42783          	lw	a5,-36(s0)
    496c:	0007a783          	lw	a5,0(a5)
    4970:	fef42623          	sw	a5,-20(s0)
    4974:	fe042423          	sw	zero,-24(s0)
    4978:	3440006f          	j	4cbc <core_state_transition+0x36c>
    497c:	fec42783          	lw	a5,-20(s0)
    4980:	0007c783          	lbu	a5,0(a5)
    4984:	fef403a3          	sb	a5,-25(s0)
    4988:	fe744703          	lbu	a4,-25(s0)
    498c:	02c00793          	li	a5,44
    4990:	00f71a63          	bne	a4,a5,49a4 <core_state_transition+0x54>
    4994:	fec42783          	lw	a5,-20(s0)
    4998:	00178793          	addi	a5,a5,1
    499c:	fef42623          	sw	a5,-20(s0)
    49a0:	3340006f          	j	4cd4 <core_state_transition+0x384>
    49a4:	fe842703          	lw	a4,-24(s0)
    49a8:	00700793          	li	a5,7
    49ac:	2ee7e463          	bltu	a5,a4,4c94 <core_state_transition+0x344>
    49b0:	fe842783          	lw	a5,-24(s0)
    49b4:	00279713          	slli	a4,a5,0x2
    49b8:	000fc797          	auipc	a5,0xfc
    49bc:	ac878793          	addi	a5,a5,-1336 # 100480 <_etext+0xfa548>
    49c0:	00f707b3          	add	a5,a4,a5
    49c4:	0007a703          	lw	a4,0(a5)
    49c8:	000fc797          	auipc	a5,0xfc
    49cc:	ab878793          	addi	a5,a5,-1352 # 100480 <_etext+0xfa548>
    49d0:	00f707b3          	add	a5,a4,a5
    49d4:	00078067          	jr	a5
    49d8:	fe744783          	lbu	a5,-25(s0)
    49dc:	00078513          	mv	a0,a5
    49e0:	f21ff0ef          	jal	ra,4900 <ee_isdigit>
    49e4:	00050793          	mv	a5,a0
    49e8:	00078863          	beqz	a5,49f8 <core_state_transition+0xa8>
    49ec:	00400793          	li	a5,4
    49f0:	fef42423          	sw	a5,-24(s0)
    49f4:	05c0006f          	j	4a50 <core_state_transition+0x100>
    49f8:	fe744703          	lbu	a4,-25(s0)
    49fc:	02b00793          	li	a5,43
    4a00:	00f70863          	beq	a4,a5,4a10 <core_state_transition+0xc0>
    4a04:	fe744703          	lbu	a4,-25(s0)
    4a08:	02d00793          	li	a5,45
    4a0c:	00f71863          	bne	a4,a5,4a1c <core_state_transition+0xcc>
    4a10:	00200793          	li	a5,2
    4a14:	fef42423          	sw	a5,-24(s0)
    4a18:	0380006f          	j	4a50 <core_state_transition+0x100>
    4a1c:	fe744703          	lbu	a4,-25(s0)
    4a20:	02e00793          	li	a5,46
    4a24:	00f71863          	bne	a4,a5,4a34 <core_state_transition+0xe4>
    4a28:	00500793          	li	a5,5
    4a2c:	fef42423          	sw	a5,-24(s0)
    4a30:	0200006f          	j	4a50 <core_state_transition+0x100>
    4a34:	00100793          	li	a5,1
    4a38:	fef42423          	sw	a5,-24(s0)
    4a3c:	fd842783          	lw	a5,-40(s0)
    4a40:	00478793          	addi	a5,a5,4
    4a44:	0007a703          	lw	a4,0(a5)
    4a48:	00170713          	addi	a4,a4,1
    4a4c:	00e7a023          	sw	a4,0(a5)
    4a50:	fd842783          	lw	a5,-40(s0)
    4a54:	0007a783          	lw	a5,0(a5)
    4a58:	00178713          	addi	a4,a5,1
    4a5c:	fd842783          	lw	a5,-40(s0)
    4a60:	00e7a023          	sw	a4,0(a5)
    4a64:	24c0006f          	j	4cb0 <core_state_transition+0x360>
    4a68:	fe744783          	lbu	a5,-25(s0)
    4a6c:	00078513          	mv	a0,a5
    4a70:	e91ff0ef          	jal	ra,4900 <ee_isdigit>
    4a74:	00050793          	mv	a5,a0
    4a78:	02078263          	beqz	a5,4a9c <core_state_transition+0x14c>
    4a7c:	00400793          	li	a5,4
    4a80:	fef42423          	sw	a5,-24(s0)
    4a84:	fd842783          	lw	a5,-40(s0)
    4a88:	00878793          	addi	a5,a5,8
    4a8c:	0007a703          	lw	a4,0(a5)
    4a90:	00170713          	addi	a4,a4,1
    4a94:	00e7a023          	sw	a4,0(a5)
    4a98:	2180006f          	j	4cb0 <core_state_transition+0x360>
    4a9c:	fe744703          	lbu	a4,-25(s0)
    4aa0:	02e00793          	li	a5,46
    4aa4:	02f71263          	bne	a4,a5,4ac8 <core_state_transition+0x178>
    4aa8:	00500793          	li	a5,5
    4aac:	fef42423          	sw	a5,-24(s0)
    4ab0:	fd842783          	lw	a5,-40(s0)
    4ab4:	00878793          	addi	a5,a5,8
    4ab8:	0007a703          	lw	a4,0(a5)
    4abc:	00170713          	addi	a4,a4,1
    4ac0:	00e7a023          	sw	a4,0(a5)
    4ac4:	1ec0006f          	j	4cb0 <core_state_transition+0x360>
    4ac8:	00100793          	li	a5,1
    4acc:	fef42423          	sw	a5,-24(s0)
    4ad0:	fd842783          	lw	a5,-40(s0)
    4ad4:	00878793          	addi	a5,a5,8
    4ad8:	0007a703          	lw	a4,0(a5)
    4adc:	00170713          	addi	a4,a4,1
    4ae0:	00e7a023          	sw	a4,0(a5)
    4ae4:	1cc0006f          	j	4cb0 <core_state_transition+0x360>
    4ae8:	fe744703          	lbu	a4,-25(s0)
    4aec:	02e00793          	li	a5,46
    4af0:	02f71263          	bne	a4,a5,4b14 <core_state_transition+0x1c4>
    4af4:	00500793          	li	a5,5
    4af8:	fef42423          	sw	a5,-24(s0)
    4afc:	fd842783          	lw	a5,-40(s0)
    4b00:	01078793          	addi	a5,a5,16
    4b04:	0007a703          	lw	a4,0(a5)
    4b08:	00170713          	addi	a4,a4,1
    4b0c:	00e7a023          	sw	a4,0(a5)
    4b10:	18c0006f          	j	4c9c <core_state_transition+0x34c>
    4b14:	fe744783          	lbu	a5,-25(s0)
    4b18:	00078513          	mv	a0,a5
    4b1c:	de5ff0ef          	jal	ra,4900 <ee_isdigit>
    4b20:	00050793          	mv	a5,a0
    4b24:	16079c63          	bnez	a5,4c9c <core_state_transition+0x34c>
    4b28:	00100793          	li	a5,1
    4b2c:	fef42423          	sw	a5,-24(s0)
    4b30:	fd842783          	lw	a5,-40(s0)
    4b34:	01078793          	addi	a5,a5,16
    4b38:	0007a703          	lw	a4,0(a5)
    4b3c:	00170713          	addi	a4,a4,1
    4b40:	00e7a023          	sw	a4,0(a5)
    4b44:	1580006f          	j	4c9c <core_state_transition+0x34c>
    4b48:	fe744703          	lbu	a4,-25(s0)
    4b4c:	04500793          	li	a5,69
    4b50:	00f70863          	beq	a4,a5,4b60 <core_state_transition+0x210>
    4b54:	fe744703          	lbu	a4,-25(s0)
    4b58:	06500793          	li	a5,101
    4b5c:	02f71263          	bne	a4,a5,4b80 <core_state_transition+0x230>
    4b60:	00300793          	li	a5,3
    4b64:	fef42423          	sw	a5,-24(s0)
    4b68:	fd842783          	lw	a5,-40(s0)
    4b6c:	01478793          	addi	a5,a5,20
    4b70:	0007a703          	lw	a4,0(a5)
    4b74:	00170713          	addi	a4,a4,1
    4b78:	00e7a023          	sw	a4,0(a5)
    4b7c:	1280006f          	j	4ca4 <core_state_transition+0x354>
    4b80:	fe744783          	lbu	a5,-25(s0)
    4b84:	00078513          	mv	a0,a5
    4b88:	d79ff0ef          	jal	ra,4900 <ee_isdigit>
    4b8c:	00050793          	mv	a5,a0
    4b90:	10079a63          	bnez	a5,4ca4 <core_state_transition+0x354>
    4b94:	00100793          	li	a5,1
    4b98:	fef42423          	sw	a5,-24(s0)
    4b9c:	fd842783          	lw	a5,-40(s0)
    4ba0:	01478793          	addi	a5,a5,20
    4ba4:	0007a703          	lw	a4,0(a5)
    4ba8:	00170713          	addi	a4,a4,1
    4bac:	00e7a023          	sw	a4,0(a5)
    4bb0:	0f40006f          	j	4ca4 <core_state_transition+0x354>
    4bb4:	fe744703          	lbu	a4,-25(s0)
    4bb8:	02b00793          	li	a5,43
    4bbc:	00f70863          	beq	a4,a5,4bcc <core_state_transition+0x27c>
    4bc0:	fe744703          	lbu	a4,-25(s0)
    4bc4:	02d00793          	li	a5,45
    4bc8:	02f71263          	bne	a4,a5,4bec <core_state_transition+0x29c>
    4bcc:	00600793          	li	a5,6
    4bd0:	fef42423          	sw	a5,-24(s0)
    4bd4:	fd842783          	lw	a5,-40(s0)
    4bd8:	00c78793          	addi	a5,a5,12
    4bdc:	0007a703          	lw	a4,0(a5)
    4be0:	00170713          	addi	a4,a4,1
    4be4:	00e7a023          	sw	a4,0(a5)
    4be8:	0c80006f          	j	4cb0 <core_state_transition+0x360>
    4bec:	00100793          	li	a5,1
    4bf0:	fef42423          	sw	a5,-24(s0)
    4bf4:	fd842783          	lw	a5,-40(s0)
    4bf8:	00c78793          	addi	a5,a5,12
    4bfc:	0007a703          	lw	a4,0(a5)
    4c00:	00170713          	addi	a4,a4,1
    4c04:	00e7a023          	sw	a4,0(a5)
    4c08:	0a80006f          	j	4cb0 <core_state_transition+0x360>
    4c0c:	fe744783          	lbu	a5,-25(s0)
    4c10:	00078513          	mv	a0,a5
    4c14:	cedff0ef          	jal	ra,4900 <ee_isdigit>
    4c18:	00050793          	mv	a5,a0
    4c1c:	02078263          	beqz	a5,4c40 <core_state_transition+0x2f0>
    4c20:	00700793          	li	a5,7
    4c24:	fef42423          	sw	a5,-24(s0)
    4c28:	fd842783          	lw	a5,-40(s0)
    4c2c:	01878793          	addi	a5,a5,24
    4c30:	0007a703          	lw	a4,0(a5)
    4c34:	00170713          	addi	a4,a4,1
    4c38:	00e7a023          	sw	a4,0(a5)
    4c3c:	0740006f          	j	4cb0 <core_state_transition+0x360>
    4c40:	00100793          	li	a5,1
    4c44:	fef42423          	sw	a5,-24(s0)
    4c48:	fd842783          	lw	a5,-40(s0)
    4c4c:	01878793          	addi	a5,a5,24
    4c50:	0007a703          	lw	a4,0(a5)
    4c54:	00170713          	addi	a4,a4,1
    4c58:	00e7a023          	sw	a4,0(a5)
    4c5c:	0540006f          	j	4cb0 <core_state_transition+0x360>
    4c60:	fe744783          	lbu	a5,-25(s0)
    4c64:	00078513          	mv	a0,a5
    4c68:	c99ff0ef          	jal	ra,4900 <ee_isdigit>
    4c6c:	00050793          	mv	a5,a0
    4c70:	02079e63          	bnez	a5,4cac <core_state_transition+0x35c>
    4c74:	00100793          	li	a5,1
    4c78:	fef42423          	sw	a5,-24(s0)
    4c7c:	fd842783          	lw	a5,-40(s0)
    4c80:	00478793          	addi	a5,a5,4
    4c84:	0007a703          	lw	a4,0(a5)
    4c88:	00170713          	addi	a4,a4,1
    4c8c:	00e7a023          	sw	a4,0(a5)
    4c90:	01c0006f          	j	4cac <core_state_transition+0x35c>
    4c94:	00000013          	nop
    4c98:	0180006f          	j	4cb0 <core_state_transition+0x360>
    4c9c:	00000013          	nop
    4ca0:	0100006f          	j	4cb0 <core_state_transition+0x360>
    4ca4:	00000013          	nop
    4ca8:	0080006f          	j	4cb0 <core_state_transition+0x360>
    4cac:	00000013          	nop
    4cb0:	fec42783          	lw	a5,-20(s0)
    4cb4:	00178793          	addi	a5,a5,1
    4cb8:	fef42623          	sw	a5,-20(s0)
    4cbc:	fec42783          	lw	a5,-20(s0)
    4cc0:	0007c783          	lbu	a5,0(a5)
    4cc4:	00078863          	beqz	a5,4cd4 <core_state_transition+0x384>
    4cc8:	fe842703          	lw	a4,-24(s0)
    4ccc:	00100793          	li	a5,1
    4cd0:	caf716e3          	bne	a4,a5,497c <core_state_transition+0x2c>
    4cd4:	fdc42783          	lw	a5,-36(s0)
    4cd8:	fec42703          	lw	a4,-20(s0)
    4cdc:	00e7a023          	sw	a4,0(a5)
    4ce0:	fe842783          	lw	a5,-24(s0)
    4ce4:	00078513          	mv	a0,a5
    4ce8:	02c12083          	lw	ra,44(sp)
    4cec:	02812403          	lw	s0,40(sp)
    4cf0:	03010113          	addi	sp,sp,48
    4cf4:	00008067          	ret

00004cf8 <get_seed_32>:
    4cf8:	fd010113          	addi	sp,sp,-48
    4cfc:	02812623          	sw	s0,44(sp)
    4d00:	03010413          	addi	s0,sp,48
    4d04:	fca42e23          	sw	a0,-36(s0)
    4d08:	fdc42703          	lw	a4,-36(s0)
    4d0c:	00500793          	li	a5,5
    4d10:	08e7e863          	bltu	a5,a4,4da0 <get_seed_32+0xa8>
    4d14:	fdc42783          	lw	a5,-36(s0)
    4d18:	00279713          	slli	a4,a5,0x2
    4d1c:	000fb797          	auipc	a5,0xfb
    4d20:	78478793          	addi	a5,a5,1924 # 1004a0 <_etext+0xfa568>
    4d24:	00f707b3          	add	a5,a4,a5
    4d28:	0007a703          	lw	a4,0(a5)
    4d2c:	000fb797          	auipc	a5,0xfb
    4d30:	77478793          	addi	a5,a5,1908 # 1004a0 <_etext+0xfa568>
    4d34:	00f707b3          	add	a5,a4,a5
    4d38:	00078067          	jr	a5
    4d3c:	00101797          	auipc	a5,0x101
    4d40:	8c478793          	addi	a5,a5,-1852 # 105600 <seed1_volatile>
    4d44:	0007a783          	lw	a5,0(a5)
    4d48:	fef42623          	sw	a5,-20(s0)
    4d4c:	05c0006f          	j	4da8 <get_seed_32+0xb0>
    4d50:	00101797          	auipc	a5,0x101
    4d54:	8b478793          	addi	a5,a5,-1868 # 105604 <seed2_volatile>
    4d58:	0007a783          	lw	a5,0(a5)
    4d5c:	fef42623          	sw	a5,-20(s0)
    4d60:	0480006f          	j	4da8 <get_seed_32+0xb0>
    4d64:	000fc797          	auipc	a5,0xfc
    4d68:	c7478793          	addi	a5,a5,-908 # 1009d8 <seed3_volatile>
    4d6c:	0007a783          	lw	a5,0(a5)
    4d70:	fef42623          	sw	a5,-20(s0)
    4d74:	0340006f          	j	4da8 <get_seed_32+0xb0>
    4d78:	000fc797          	auipc	a5,0xfc
    4d7c:	c6478793          	addi	a5,a5,-924 # 1009dc <seed4_volatile>
    4d80:	0007a783          	lw	a5,0(a5)
    4d84:	fef42623          	sw	a5,-20(s0)
    4d88:	0200006f          	j	4da8 <get_seed_32+0xb0>
    4d8c:	00101797          	auipc	a5,0x101
    4d90:	87c78793          	addi	a5,a5,-1924 # 105608 <seed5_volatile>
    4d94:	0007a783          	lw	a5,0(a5)
    4d98:	fef42623          	sw	a5,-20(s0)
    4d9c:	00c0006f          	j	4da8 <get_seed_32+0xb0>
    4da0:	fe042623          	sw	zero,-20(s0)
    4da4:	00000013          	nop
    4da8:	fec42783          	lw	a5,-20(s0)
    4dac:	00078513          	mv	a0,a5
    4db0:	02c12403          	lw	s0,44(sp)
    4db4:	03010113          	addi	sp,sp,48
    4db8:	00008067          	ret

00004dbc <crcu8>:
    4dbc:	fd010113          	addi	sp,sp,-48
    4dc0:	02812623          	sw	s0,44(sp)
    4dc4:	03010413          	addi	s0,sp,48
    4dc8:	00050793          	mv	a5,a0
    4dcc:	00058713          	mv	a4,a1
    4dd0:	fcf40fa3          	sb	a5,-33(s0)
    4dd4:	00070793          	mv	a5,a4
    4dd8:	fcf41e23          	sh	a5,-36(s0)
    4ddc:	fe0407a3          	sb	zero,-17(s0)
    4de0:	fe0406a3          	sb	zero,-19(s0)
    4de4:	fe040723          	sb	zero,-18(s0)
    4de8:	fe0407a3          	sb	zero,-17(s0)
    4dec:	0b00006f          	j	4e9c <crcu8+0xe0>
    4df0:	fdc45783          	lhu	a5,-36(s0)
    4df4:	01879713          	slli	a4,a5,0x18
    4df8:	41875713          	srai	a4,a4,0x18
    4dfc:	fdf40783          	lb	a5,-33(s0)
    4e00:	00f747b3          	xor	a5,a4,a5
    4e04:	01879793          	slli	a5,a5,0x18
    4e08:	4187d793          	srai	a5,a5,0x18
    4e0c:	0ff7f793          	andi	a5,a5,255
    4e10:	0017f793          	andi	a5,a5,1
    4e14:	fef406a3          	sb	a5,-19(s0)
    4e18:	fdf44783          	lbu	a5,-33(s0)
    4e1c:	0017d793          	srli	a5,a5,0x1
    4e20:	fcf40fa3          	sb	a5,-33(s0)
    4e24:	fed44703          	lbu	a4,-19(s0)
    4e28:	00100793          	li	a5,1
    4e2c:	02f71263          	bne	a4,a5,4e50 <crcu8+0x94>
    4e30:	fdc45703          	lhu	a4,-36(s0)
    4e34:	000047b7          	lui	a5,0x4
    4e38:	00278793          	addi	a5,a5,2 # 4002 <matrix_mul_matrix+0x102>
    4e3c:	00f747b3          	xor	a5,a4,a5
    4e40:	fcf41e23          	sh	a5,-36(s0)
    4e44:	00100793          	li	a5,1
    4e48:	fef40723          	sb	a5,-18(s0)
    4e4c:	0080006f          	j	4e54 <crcu8+0x98>
    4e50:	fe040723          	sb	zero,-18(s0)
    4e54:	fdc45783          	lhu	a5,-36(s0)
    4e58:	0017d793          	srli	a5,a5,0x1
    4e5c:	fcf41e23          	sh	a5,-36(s0)
    4e60:	fee44783          	lbu	a5,-18(s0)
    4e64:	00078c63          	beqz	a5,4e7c <crcu8+0xc0>
    4e68:	fdc45703          	lhu	a4,-36(s0)
    4e6c:	ffff87b7          	lui	a5,0xffff8
    4e70:	00f767b3          	or	a5,a4,a5
    4e74:	fcf41e23          	sh	a5,-36(s0)
    4e78:	0180006f          	j	4e90 <crcu8+0xd4>
    4e7c:	fdc45703          	lhu	a4,-36(s0)
    4e80:	000087b7          	lui	a5,0x8
    4e84:	fff78793          	addi	a5,a5,-1 # 7fff <_etext+0x20c7>
    4e88:	00f777b3          	and	a5,a4,a5
    4e8c:	fcf41e23          	sh	a5,-36(s0)
    4e90:	fef44783          	lbu	a5,-17(s0)
    4e94:	00178793          	addi	a5,a5,1
    4e98:	fef407a3          	sb	a5,-17(s0)
    4e9c:	fef44703          	lbu	a4,-17(s0)
    4ea0:	00700793          	li	a5,7
    4ea4:	f4e7f6e3          	bgeu	a5,a4,4df0 <crcu8+0x34>
    4ea8:	fdc45783          	lhu	a5,-36(s0)
    4eac:	00078513          	mv	a0,a5
    4eb0:	02c12403          	lw	s0,44(sp)
    4eb4:	03010113          	addi	sp,sp,48
    4eb8:	00008067          	ret

00004ebc <crcu16>:
    4ebc:	fe010113          	addi	sp,sp,-32
    4ec0:	00112e23          	sw	ra,28(sp)
    4ec4:	00812c23          	sw	s0,24(sp)
    4ec8:	02010413          	addi	s0,sp,32
    4ecc:	00050793          	mv	a5,a0
    4ed0:	00058713          	mv	a4,a1
    4ed4:	fef41723          	sh	a5,-18(s0)
    4ed8:	00070793          	mv	a5,a4
    4edc:	fef41623          	sh	a5,-20(s0)
    4ee0:	fee45783          	lhu	a5,-18(s0)
    4ee4:	0ff7f793          	andi	a5,a5,255
    4ee8:	fec45703          	lhu	a4,-20(s0)
    4eec:	00070593          	mv	a1,a4
    4ef0:	00078513          	mv	a0,a5
    4ef4:	ec9ff0ef          	jal	ra,4dbc <crcu8>
    4ef8:	00050793          	mv	a5,a0
    4efc:	fef41623          	sh	a5,-20(s0)
    4f00:	fee45783          	lhu	a5,-18(s0)
    4f04:	0087d793          	srli	a5,a5,0x8
    4f08:	01079793          	slli	a5,a5,0x10
    4f0c:	0107d793          	srli	a5,a5,0x10
    4f10:	0ff7f793          	andi	a5,a5,255
    4f14:	fec45703          	lhu	a4,-20(s0)
    4f18:	00070593          	mv	a1,a4
    4f1c:	00078513          	mv	a0,a5
    4f20:	e9dff0ef          	jal	ra,4dbc <crcu8>
    4f24:	00050793          	mv	a5,a0
    4f28:	fef41623          	sh	a5,-20(s0)
    4f2c:	fec45783          	lhu	a5,-20(s0)
    4f30:	00078513          	mv	a0,a5
    4f34:	01c12083          	lw	ra,28(sp)
    4f38:	01812403          	lw	s0,24(sp)
    4f3c:	02010113          	addi	sp,sp,32
    4f40:	00008067          	ret

00004f44 <crcu32>:
    4f44:	fe010113          	addi	sp,sp,-32
    4f48:	00112e23          	sw	ra,28(sp)
    4f4c:	00812c23          	sw	s0,24(sp)
    4f50:	02010413          	addi	s0,sp,32
    4f54:	fea42623          	sw	a0,-20(s0)
    4f58:	00058793          	mv	a5,a1
    4f5c:	fef41523          	sh	a5,-22(s0)
    4f60:	fec42783          	lw	a5,-20(s0)
    4f64:	01079793          	slli	a5,a5,0x10
    4f68:	4107d793          	srai	a5,a5,0x10
    4f6c:	fea45703          	lhu	a4,-22(s0)
    4f70:	00070593          	mv	a1,a4
    4f74:	00078513          	mv	a0,a5
    4f78:	04c000ef          	jal	ra,4fc4 <crc16>
    4f7c:	00050793          	mv	a5,a0
    4f80:	fef41523          	sh	a5,-22(s0)
    4f84:	fec42783          	lw	a5,-20(s0)
    4f88:	0107d793          	srli	a5,a5,0x10
    4f8c:	01079793          	slli	a5,a5,0x10
    4f90:	4107d793          	srai	a5,a5,0x10
    4f94:	fea45703          	lhu	a4,-22(s0)
    4f98:	00070593          	mv	a1,a4
    4f9c:	00078513          	mv	a0,a5
    4fa0:	024000ef          	jal	ra,4fc4 <crc16>
    4fa4:	00050793          	mv	a5,a0
    4fa8:	fef41523          	sh	a5,-22(s0)
    4fac:	fea45783          	lhu	a5,-22(s0)
    4fb0:	00078513          	mv	a0,a5
    4fb4:	01c12083          	lw	ra,28(sp)
    4fb8:	01812403          	lw	s0,24(sp)
    4fbc:	02010113          	addi	sp,sp,32
    4fc0:	00008067          	ret

00004fc4 <crc16>:
    4fc4:	fe010113          	addi	sp,sp,-32
    4fc8:	00112e23          	sw	ra,28(sp)
    4fcc:	00812c23          	sw	s0,24(sp)
    4fd0:	02010413          	addi	s0,sp,32
    4fd4:	00050793          	mv	a5,a0
    4fd8:	00058713          	mv	a4,a1
    4fdc:	fef41723          	sh	a5,-18(s0)
    4fe0:	00070793          	mv	a5,a4
    4fe4:	fef41623          	sh	a5,-20(s0)
    4fe8:	fee45783          	lhu	a5,-18(s0)
    4fec:	fec45703          	lhu	a4,-20(s0)
    4ff0:	00070593          	mv	a1,a4
    4ff4:	00078513          	mv	a0,a5
    4ff8:	ec5ff0ef          	jal	ra,4ebc <crcu16>
    4ffc:	00050793          	mv	a5,a0
    5000:	00078513          	mv	a0,a5
    5004:	01c12083          	lw	ra,28(sp)
    5008:	01812403          	lw	s0,24(sp)
    500c:	02010113          	addi	sp,sp,32
    5010:	00008067          	ret

00005014 <check_data_types>:
    5014:	fe010113          	addi	sp,sp,-32
    5018:	00112e23          	sw	ra,28(sp)
    501c:	00812c23          	sw	s0,24(sp)
    5020:	02010413          	addi	s0,sp,32
    5024:	fe0407a3          	sb	zero,-17(s0)
    5028:	fef44783          	lbu	a5,-17(s0)
    502c:	00078863          	beqz	a5,503c <check_data_types+0x28>
    5030:	000fb517          	auipc	a0,0xfb
    5034:	48850513          	addi	a0,a0,1160 # 1004b8 <_etext+0xfa580>
    5038:	128000ef          	jal	ra,5160 <kprintf>
    503c:	fef44783          	lbu	a5,-17(s0)
    5040:	00078513          	mv	a0,a5
    5044:	01c12083          	lw	ra,28(sp)
    5048:	01812403          	lw	s0,24(sp)
    504c:	02010113          	addi	sp,sp,32
    5050:	00008067          	ret

00005054 <putu_>:
    5054:	fe010113          	addi	sp,sp,-32
    5058:	00112e23          	sw	ra,28(sp)
    505c:	00812c23          	sw	s0,24(sp)
    5060:	02010413          	addi	s0,sp,32
    5064:	fea42623          	sw	a0,-20(s0)
    5068:	fec42783          	lw	a5,-20(s0)
    506c:	04078663          	beqz	a5,50b8 <putu_+0x64>
    5070:	fec42783          	lw	a5,-20(s0)
    5074:	00a00593          	li	a1,10
    5078:	00078513          	mv	a0,a5
    507c:	5a0000ef          	jal	ra,561c <__udivsi3>
    5080:	00050793          	mv	a5,a0
    5084:	00078513          	mv	a0,a5
    5088:	fcdff0ef          	jal	ra,5054 <putu_>
    508c:	fec42783          	lw	a5,-20(s0)
    5090:	00a00593          	li	a1,10
    5094:	00078513          	mv	a0,a5
    5098:	4c8000ef          	jal	ra,5560 <__umodsi3>
    509c:	00050793          	mv	a5,a0
    50a0:	0ff7f793          	andi	a5,a5,255
    50a4:	03078793          	addi	a5,a5,48
    50a8:	0ff7f793          	andi	a5,a5,255
    50ac:	00078513          	mv	a0,a5
    50b0:	319000ef          	jal	ra,5bc8 <putch>
    50b4:	0080006f          	j	50bc <putu_+0x68>
    50b8:	00000013          	nop
    50bc:	01c12083          	lw	ra,28(sp)
    50c0:	01812403          	lw	s0,24(sp)
    50c4:	02010113          	addi	sp,sp,32
    50c8:	00008067          	ret

000050cc <putu>:
    50cc:	fe010113          	addi	sp,sp,-32
    50d0:	00112e23          	sw	ra,28(sp)
    50d4:	00812c23          	sw	s0,24(sp)
    50d8:	02010413          	addi	s0,sp,32
    50dc:	fea42623          	sw	a0,-20(s0)
    50e0:	fec42783          	lw	a5,-20(s0)
    50e4:	00079863          	bnez	a5,50f4 <putu+0x28>
    50e8:	03000513          	li	a0,48
    50ec:	2dd000ef          	jal	ra,5bc8 <putch>
    50f0:	00c0006f          	j	50fc <putu+0x30>
    50f4:	fec42503          	lw	a0,-20(s0)
    50f8:	f5dff0ef          	jal	ra,5054 <putu_>
    50fc:	00000013          	nop
    5100:	01c12083          	lw	ra,28(sp)
    5104:	01812403          	lw	s0,24(sp)
    5108:	02010113          	addi	sp,sp,32
    510c:	00008067          	ret

00005110 <puti>:
    5110:	fe010113          	addi	sp,sp,-32
    5114:	00112e23          	sw	ra,28(sp)
    5118:	00812c23          	sw	s0,24(sp)
    511c:	02010413          	addi	s0,sp,32
    5120:	fea42623          	sw	a0,-20(s0)
    5124:	fec42783          	lw	a5,-20(s0)
    5128:	0007dc63          	bgez	a5,5140 <puti+0x30>
    512c:	fec42783          	lw	a5,-20(s0)
    5130:	40f007b3          	neg	a5,a5
    5134:	fef42623          	sw	a5,-20(s0)
    5138:	02d00513          	li	a0,45
    513c:	28d000ef          	jal	ra,5bc8 <putch>
    5140:	fec42783          	lw	a5,-20(s0)
    5144:	00078513          	mv	a0,a5
    5148:	f85ff0ef          	jal	ra,50cc <putu>
    514c:	00000013          	nop
    5150:	01c12083          	lw	ra,28(sp)
    5154:	01812403          	lw	s0,24(sp)
    5158:	02010113          	addi	sp,sp,32
    515c:	00008067          	ret

00005160 <kprintf>:
    5160:	fb010113          	addi	sp,sp,-80
    5164:	02112623          	sw	ra,44(sp)
    5168:	02812423          	sw	s0,40(sp)
    516c:	03010413          	addi	s0,sp,48
    5170:	fca42e23          	sw	a0,-36(s0)
    5174:	00b42223          	sw	a1,4(s0)
    5178:	00c42423          	sw	a2,8(s0)
    517c:	00d42623          	sw	a3,12(s0)
    5180:	00e42823          	sw	a4,16(s0)
    5184:	00f42a23          	sw	a5,20(s0)
    5188:	01042c23          	sw	a6,24(s0)
    518c:	01142e23          	sw	a7,28(s0)
    5190:	02040793          	addi	a5,s0,32
    5194:	fcf42c23          	sw	a5,-40(s0)
    5198:	fd842783          	lw	a5,-40(s0)
    519c:	fe478793          	addi	a5,a5,-28
    51a0:	fef42423          	sw	a5,-24(s0)
    51a4:	fdc42783          	lw	a5,-36(s0)
    51a8:	fef42623          	sw	a5,-20(s0)
    51ac:	10c0006f          	j	52b8 <kprintf+0x158>
    51b0:	fec42783          	lw	a5,-20(s0)
    51b4:	0007c703          	lbu	a4,0(a5)
    51b8:	02500793          	li	a5,37
    51bc:	00f70c63          	beq	a4,a5,51d4 <kprintf+0x74>
    51c0:	fec42783          	lw	a5,-20(s0)
    51c4:	0007c783          	lbu	a5,0(a5)
    51c8:	00078513          	mv	a0,a5
    51cc:	1fd000ef          	jal	ra,5bc8 <putch>
    51d0:	0dc0006f          	j	52ac <kprintf+0x14c>
    51d4:	fec42783          	lw	a5,-20(s0)
    51d8:	00178793          	addi	a5,a5,1
    51dc:	fef42623          	sw	a5,-20(s0)
    51e0:	fec42783          	lw	a5,-20(s0)
    51e4:	0007c783          	lbu	a5,0(a5)
    51e8:	07500713          	li	a4,117
    51ec:	06e78663          	beq	a5,a4,5258 <kprintf+0xf8>
    51f0:	07500713          	li	a4,117
    51f4:	0af74c63          	blt	a4,a5,52ac <kprintf+0x14c>
    51f8:	07300713          	li	a4,115
    51fc:	08e78a63          	beq	a5,a4,5290 <kprintf+0x130>
    5200:	07300713          	li	a4,115
    5204:	0af74463          	blt	a4,a5,52ac <kprintf+0x14c>
    5208:	06400713          	li	a4,100
    520c:	06e78463          	beq	a5,a4,5274 <kprintf+0x114>
    5210:	06400713          	li	a4,100
    5214:	08f74c63          	blt	a4,a5,52ac <kprintf+0x14c>
    5218:	02500713          	li	a4,37
    521c:	00e78863          	beq	a5,a4,522c <kprintf+0xcc>
    5220:	06300713          	li	a4,99
    5224:	00e78a63          	beq	a5,a4,5238 <kprintf+0xd8>
    5228:	0840006f          	j	52ac <kprintf+0x14c>
    522c:	02500513          	li	a0,37
    5230:	199000ef          	jal	ra,5bc8 <putch>
    5234:	0780006f          	j	52ac <kprintf+0x14c>
    5238:	fe842783          	lw	a5,-24(s0)
    523c:	00478713          	addi	a4,a5,4
    5240:	fee42423          	sw	a4,-24(s0)
    5244:	0007a783          	lw	a5,0(a5)
    5248:	0ff7f793          	andi	a5,a5,255
    524c:	00078513          	mv	a0,a5
    5250:	179000ef          	jal	ra,5bc8 <putch>
    5254:	0580006f          	j	52ac <kprintf+0x14c>
    5258:	fe842783          	lw	a5,-24(s0)
    525c:	00478713          	addi	a4,a5,4
    5260:	fee42423          	sw	a4,-24(s0)
    5264:	0007a783          	lw	a5,0(a5)
    5268:	00078513          	mv	a0,a5
    526c:	e61ff0ef          	jal	ra,50cc <putu>
    5270:	03c0006f          	j	52ac <kprintf+0x14c>
    5274:	fe842783          	lw	a5,-24(s0)
    5278:	00478713          	addi	a4,a5,4
    527c:	fee42423          	sw	a4,-24(s0)
    5280:	0007a783          	lw	a5,0(a5)
    5284:	00078513          	mv	a0,a5
    5288:	e89ff0ef          	jal	ra,5110 <puti>
    528c:	0200006f          	j	52ac <kprintf+0x14c>
    5290:	fe842783          	lw	a5,-24(s0)
    5294:	00478713          	addi	a4,a5,4
    5298:	fee42423          	sw	a4,-24(s0)
    529c:	0007a783          	lw	a5,0(a5)
    52a0:	00078513          	mv	a0,a5
    52a4:	405000ef          	jal	ra,5ea8 <putstr>
    52a8:	00000013          	nop
    52ac:	fec42783          	lw	a5,-20(s0)
    52b0:	00178793          	addi	a5,a5,1
    52b4:	fef42623          	sw	a5,-20(s0)
    52b8:	fec42783          	lw	a5,-20(s0)
    52bc:	0007c783          	lbu	a5,0(a5)
    52c0:	ee0798e3          	bnez	a5,51b0 <kprintf+0x50>
    52c4:	00000013          	nop
    52c8:	00000013          	nop
    52cc:	02c12083          	lw	ra,44(sp)
    52d0:	02812403          	lw	s0,40(sp)
    52d4:	05010113          	addi	sp,sp,80
    52d8:	00008067          	ret

000052dc <kputs>:
    52dc:	fe010113          	addi	sp,sp,-32
    52e0:	00112e23          	sw	ra,28(sp)
    52e4:	00812c23          	sw	s0,24(sp)
    52e8:	02010413          	addi	s0,sp,32
    52ec:	fea42623          	sw	a0,-20(s0)
    52f0:	fec42503          	lw	a0,-20(s0)
    52f4:	3b5000ef          	jal	ra,5ea8 <putstr>
    52f8:	00000013          	nop
    52fc:	01c12083          	lw	ra,28(sp)
    5300:	01812403          	lw	s0,24(sp)
    5304:	02010113          	addi	sp,sp,32
    5308:	00008067          	ret

0000530c <kstrlen>:
    530c:	fd010113          	addi	sp,sp,-48
    5310:	02812623          	sw	s0,44(sp)
    5314:	03010413          	addi	s0,sp,48
    5318:	fca42e23          	sw	a0,-36(s0)
    531c:	fe042623          	sw	zero,-20(s0)
    5320:	0100006f          	j	5330 <kstrlen+0x24>
    5324:	fec42783          	lw	a5,-20(s0)
    5328:	00178793          	addi	a5,a5,1
    532c:	fef42623          	sw	a5,-20(s0)
    5330:	fec42783          	lw	a5,-20(s0)
    5334:	fdc42703          	lw	a4,-36(s0)
    5338:	00f707b3          	add	a5,a4,a5
    533c:	0007c783          	lbu	a5,0(a5)
    5340:	fe0792e3          	bnez	a5,5324 <kstrlen+0x18>
    5344:	fec42783          	lw	a5,-20(s0)
    5348:	00078513          	mv	a0,a5
    534c:	02c12403          	lw	s0,44(sp)
    5350:	03010113          	addi	sp,sp,48
    5354:	00008067          	ret

00005358 <kstrcmp>:
    5358:	fd010113          	addi	sp,sp,-48
    535c:	02812623          	sw	s0,44(sp)
    5360:	03010413          	addi	s0,sp,48
    5364:	fca42e23          	sw	a0,-36(s0)
    5368:	fcb42c23          	sw	a1,-40(s0)
    536c:	fdc42783          	lw	a5,-36(s0)
    5370:	fef42623          	sw	a5,-20(s0)
    5374:	fd842783          	lw	a5,-40(s0)
    5378:	fef42423          	sw	a5,-24(s0)
    537c:	01c0006f          	j	5398 <kstrcmp+0x40>
    5380:	fec42783          	lw	a5,-20(s0)
    5384:	00178793          	addi	a5,a5,1
    5388:	fef42623          	sw	a5,-20(s0)
    538c:	fe842783          	lw	a5,-24(s0)
    5390:	00178793          	addi	a5,a5,1
    5394:	fef42423          	sw	a5,-24(s0)
    5398:	fec42783          	lw	a5,-20(s0)
    539c:	0007c703          	lbu	a4,0(a5)
    53a0:	fe842783          	lw	a5,-24(s0)
    53a4:	0007c783          	lbu	a5,0(a5)
    53a8:	00f71e63          	bne	a4,a5,53c4 <kstrcmp+0x6c>
    53ac:	fec42783          	lw	a5,-20(s0)
    53b0:	0007c783          	lbu	a5,0(a5)
    53b4:	00078863          	beqz	a5,53c4 <kstrcmp+0x6c>
    53b8:	fe842783          	lw	a5,-24(s0)
    53bc:	0007c783          	lbu	a5,0(a5)
    53c0:	fc0790e3          	bnez	a5,5380 <kstrcmp+0x28>
    53c4:	fec42783          	lw	a5,-20(s0)
    53c8:	0007c703          	lbu	a4,0(a5)
    53cc:	fe842783          	lw	a5,-24(s0)
    53d0:	0007c783          	lbu	a5,0(a5)
    53d4:	00f71663          	bne	a4,a5,53e0 <kstrcmp+0x88>
    53d8:	00000793          	li	a5,0
    53dc:	0240006f          	j	5400 <kstrcmp+0xa8>
    53e0:	fec42783          	lw	a5,-20(s0)
    53e4:	0007c703          	lbu	a4,0(a5)
    53e8:	fe842783          	lw	a5,-24(s0)
    53ec:	0007c783          	lbu	a5,0(a5)
    53f0:	00e7f663          	bgeu	a5,a4,53fc <kstrcmp+0xa4>
    53f4:	00100793          	li	a5,1
    53f8:	0080006f          	j	5400 <kstrcmp+0xa8>
    53fc:	fff00793          	li	a5,-1
    5400:	00078513          	mv	a0,a5
    5404:	02c12403          	lw	s0,44(sp)
    5408:	03010113          	addi	sp,sp,48
    540c:	00008067          	ret

00005410 <kstrncmp>:
    5410:	fd010113          	addi	sp,sp,-48
    5414:	02812623          	sw	s0,44(sp)
    5418:	03010413          	addi	s0,sp,48
    541c:	fca42e23          	sw	a0,-36(s0)
    5420:	fcb42c23          	sw	a1,-40(s0)
    5424:	fcc42a23          	sw	a2,-44(s0)
    5428:	fe042623          	sw	zero,-20(s0)
    542c:	fdc42783          	lw	a5,-36(s0)
    5430:	fef42423          	sw	a5,-24(s0)
    5434:	fd842783          	lw	a5,-40(s0)
    5438:	fef42223          	sw	a5,-28(s0)
    543c:	0280006f          	j	5464 <kstrncmp+0x54>
    5440:	fe842783          	lw	a5,-24(s0)
    5444:	00178793          	addi	a5,a5,1
    5448:	fef42423          	sw	a5,-24(s0)
    544c:	fe442783          	lw	a5,-28(s0)
    5450:	00178793          	addi	a5,a5,1
    5454:	fef42223          	sw	a5,-28(s0)
    5458:	fec42783          	lw	a5,-20(s0)
    545c:	00178793          	addi	a5,a5,1
    5460:	fef42623          	sw	a5,-20(s0)
    5464:	fe842783          	lw	a5,-24(s0)
    5468:	0007c703          	lbu	a4,0(a5)
    546c:	fe442783          	lw	a5,-28(s0)
    5470:	0007c783          	lbu	a5,0(a5)
    5474:	02f71463          	bne	a4,a5,549c <kstrncmp+0x8c>
    5478:	fe842783          	lw	a5,-24(s0)
    547c:	0007c783          	lbu	a5,0(a5)
    5480:	00078e63          	beqz	a5,549c <kstrncmp+0x8c>
    5484:	fe442783          	lw	a5,-28(s0)
    5488:	0007c783          	lbu	a5,0(a5)
    548c:	00078863          	beqz	a5,549c <kstrncmp+0x8c>
    5490:	fec42703          	lw	a4,-20(s0)
    5494:	fd442783          	lw	a5,-44(s0)
    5498:	faf744e3          	blt	a4,a5,5440 <kstrncmp+0x30>
    549c:	fe842783          	lw	a5,-24(s0)
    54a0:	0007c703          	lbu	a4,0(a5)
    54a4:	fe442783          	lw	a5,-28(s0)
    54a8:	0007c783          	lbu	a5,0(a5)
    54ac:	00f70863          	beq	a4,a5,54bc <kstrncmp+0xac>
    54b0:	fec42703          	lw	a4,-20(s0)
    54b4:	fd442783          	lw	a5,-44(s0)
    54b8:	00f71663          	bne	a4,a5,54c4 <kstrncmp+0xb4>
    54bc:	00000793          	li	a5,0
    54c0:	0240006f          	j	54e4 <kstrncmp+0xd4>
    54c4:	fe842783          	lw	a5,-24(s0)
    54c8:	0007c703          	lbu	a4,0(a5)
    54cc:	fe442783          	lw	a5,-28(s0)
    54d0:	0007c783          	lbu	a5,0(a5)
    54d4:	00e7f663          	bgeu	a5,a4,54e0 <kstrncmp+0xd0>
    54d8:	00100793          	li	a5,1
    54dc:	0080006f          	j	54e4 <kstrncmp+0xd4>
    54e0:	fff00793          	li	a5,-1
    54e4:	00078513          	mv	a0,a5
    54e8:	02c12403          	lw	s0,44(sp)
    54ec:	03010113          	addi	sp,sp,48
    54f0:	00008067          	ret

000054f4 <__mulsi3>:
    54f4:	fd010113          	addi	sp,sp,-48
    54f8:	02812623          	sw	s0,44(sp)
    54fc:	03010413          	addi	s0,sp,48
    5500:	fca42e23          	sw	a0,-36(s0)
    5504:	fcb42c23          	sw	a1,-40(s0)
    5508:	fe042623          	sw	zero,-20(s0)
    550c:	0380006f          	j	5544 <__mulsi3+0x50>
    5510:	fdc42783          	lw	a5,-36(s0)
    5514:	0017f793          	andi	a5,a5,1
    5518:	00078a63          	beqz	a5,552c <__mulsi3+0x38>
    551c:	fec42703          	lw	a4,-20(s0)
    5520:	fd842783          	lw	a5,-40(s0)
    5524:	00f707b3          	add	a5,a4,a5
    5528:	fef42623          	sw	a5,-20(s0)
    552c:	fdc42783          	lw	a5,-36(s0)
    5530:	0017d793          	srli	a5,a5,0x1
    5534:	fcf42e23          	sw	a5,-36(s0)
    5538:	fd842783          	lw	a5,-40(s0)
    553c:	00179793          	slli	a5,a5,0x1
    5540:	fcf42c23          	sw	a5,-40(s0)
    5544:	fdc42783          	lw	a5,-36(s0)
    5548:	fc0794e3          	bnez	a5,5510 <__mulsi3+0x1c>
    554c:	fec42783          	lw	a5,-20(s0)
    5550:	00078513          	mv	a0,a5
    5554:	02c12403          	lw	s0,44(sp)
    5558:	03010113          	addi	sp,sp,48
    555c:	00008067          	ret

00005560 <__umodsi3>:
    5560:	fd010113          	addi	sp,sp,-48
    5564:	02812623          	sw	s0,44(sp)
    5568:	03010413          	addi	s0,sp,48
    556c:	fca42e23          	sw	a0,-36(s0)
    5570:	fcb42c23          	sw	a1,-40(s0)
    5574:	00100793          	li	a5,1
    5578:	fef42623          	sw	a5,-20(s0)
    557c:	fe042423          	sw	zero,-24(s0)
    5580:	01c0006f          	j	559c <__umodsi3+0x3c>
    5584:	fd842783          	lw	a5,-40(s0)
    5588:	00179793          	slli	a5,a5,0x1
    558c:	fcf42c23          	sw	a5,-40(s0)
    5590:	fec42783          	lw	a5,-20(s0)
    5594:	00179793          	slli	a5,a5,0x1
    5598:	fef42623          	sw	a5,-20(s0)
    559c:	fd842703          	lw	a4,-40(s0)
    55a0:	fdc42783          	lw	a5,-36(s0)
    55a4:	04f77e63          	bgeu	a4,a5,5600 <__umodsi3+0xa0>
    55a8:	fec42783          	lw	a5,-20(s0)
    55ac:	04078a63          	beqz	a5,5600 <__umodsi3+0xa0>
    55b0:	fd842783          	lw	a5,-40(s0)
    55b4:	fc07d8e3          	bgez	a5,5584 <__umodsi3+0x24>
    55b8:	0480006f          	j	5600 <__umodsi3+0xa0>
    55bc:	fdc42703          	lw	a4,-36(s0)
    55c0:	fd842783          	lw	a5,-40(s0)
    55c4:	02f76263          	bltu	a4,a5,55e8 <__umodsi3+0x88>
    55c8:	fdc42703          	lw	a4,-36(s0)
    55cc:	fd842783          	lw	a5,-40(s0)
    55d0:	40f707b3          	sub	a5,a4,a5
    55d4:	fcf42e23          	sw	a5,-36(s0)
    55d8:	fe842703          	lw	a4,-24(s0)
    55dc:	fec42783          	lw	a5,-20(s0)
    55e0:	00f767b3          	or	a5,a4,a5
    55e4:	fef42423          	sw	a5,-24(s0)
    55e8:	fec42783          	lw	a5,-20(s0)
    55ec:	0017d793          	srli	a5,a5,0x1
    55f0:	fef42623          	sw	a5,-20(s0)
    55f4:	fd842783          	lw	a5,-40(s0)
    55f8:	0017d793          	srli	a5,a5,0x1
    55fc:	fcf42c23          	sw	a5,-40(s0)
    5600:	fec42783          	lw	a5,-20(s0)
    5604:	fa079ce3          	bnez	a5,55bc <__umodsi3+0x5c>
    5608:	fdc42783          	lw	a5,-36(s0)
    560c:	00078513          	mv	a0,a5
    5610:	02c12403          	lw	s0,44(sp)
    5614:	03010113          	addi	sp,sp,48
    5618:	00008067          	ret

0000561c <__udivsi3>:
    561c:	fd010113          	addi	sp,sp,-48
    5620:	02812623          	sw	s0,44(sp)
    5624:	03010413          	addi	s0,sp,48
    5628:	fca42e23          	sw	a0,-36(s0)
    562c:	fcb42c23          	sw	a1,-40(s0)
    5630:	00100793          	li	a5,1
    5634:	fef42623          	sw	a5,-20(s0)
    5638:	fe042423          	sw	zero,-24(s0)
    563c:	01c0006f          	j	5658 <__udivsi3+0x3c>
    5640:	fd842783          	lw	a5,-40(s0)
    5644:	00179793          	slli	a5,a5,0x1
    5648:	fcf42c23          	sw	a5,-40(s0)
    564c:	fec42783          	lw	a5,-20(s0)
    5650:	00179793          	slli	a5,a5,0x1
    5654:	fef42623          	sw	a5,-20(s0)
    5658:	fd842703          	lw	a4,-40(s0)
    565c:	fdc42783          	lw	a5,-36(s0)
    5660:	04f77e63          	bgeu	a4,a5,56bc <__udivsi3+0xa0>
    5664:	fec42783          	lw	a5,-20(s0)
    5668:	04078a63          	beqz	a5,56bc <__udivsi3+0xa0>
    566c:	fd842783          	lw	a5,-40(s0)
    5670:	fc07d8e3          	bgez	a5,5640 <__udivsi3+0x24>
    5674:	0480006f          	j	56bc <__udivsi3+0xa0>
    5678:	fdc42703          	lw	a4,-36(s0)
    567c:	fd842783          	lw	a5,-40(s0)
    5680:	02f76263          	bltu	a4,a5,56a4 <__udivsi3+0x88>
    5684:	fdc42703          	lw	a4,-36(s0)
    5688:	fd842783          	lw	a5,-40(s0)
    568c:	40f707b3          	sub	a5,a4,a5
    5690:	fcf42e23          	sw	a5,-36(s0)
    5694:	fe842703          	lw	a4,-24(s0)
    5698:	fec42783          	lw	a5,-20(s0)
    569c:	00f767b3          	or	a5,a4,a5
    56a0:	fef42423          	sw	a5,-24(s0)
    56a4:	fec42783          	lw	a5,-20(s0)
    56a8:	0017d793          	srli	a5,a5,0x1
    56ac:	fef42623          	sw	a5,-20(s0)
    56b0:	fd842783          	lw	a5,-40(s0)
    56b4:	0017d793          	srli	a5,a5,0x1
    56b8:	fcf42c23          	sw	a5,-40(s0)
    56bc:	fec42783          	lw	a5,-20(s0)
    56c0:	fa079ce3          	bnez	a5,5678 <__udivsi3+0x5c>
    56c4:	fe842783          	lw	a5,-24(s0)
    56c8:	00078513          	mv	a0,a5
    56cc:	02c12403          	lw	s0,44(sp)
    56d0:	03010113          	addi	sp,sp,48
    56d4:	00008067          	ret

000056d8 <__divsi3>:
    56d8:	fe010113          	addi	sp,sp,-32
    56dc:	00112e23          	sw	ra,28(sp)
    56e0:	00812c23          	sw	s0,24(sp)
    56e4:	02010413          	addi	s0,sp,32
    56e8:	fea42623          	sw	a0,-20(s0)
    56ec:	feb42423          	sw	a1,-24(s0)
    56f0:	fec42783          	lw	a5,-20(s0)
    56f4:	00078663          	beqz	a5,5700 <__divsi3+0x28>
    56f8:	fe842783          	lw	a5,-24(s0)
    56fc:	00079663          	bnez	a5,5708 <__divsi3+0x30>
    5700:	00000793          	li	a5,0
    5704:	0840006f          	j	5788 <__divsi3+0xb0>
    5708:	fec42783          	lw	a5,-20(s0)
    570c:	0207d463          	bgez	a5,5734 <__divsi3+0x5c>
    5710:	fe842783          	lw	a5,-24(s0)
    5714:	0207d063          	bgez	a5,5734 <__divsi3+0x5c>
    5718:	fec42783          	lw	a5,-20(s0)
    571c:	40f007b3          	neg	a5,a5
    5720:	fef42623          	sw	a5,-20(s0)
    5724:	fe842783          	lw	a5,-24(s0)
    5728:	40f007b3          	neg	a5,a5
    572c:	fef42423          	sw	a5,-24(s0)
    5730:	0400006f          	j	5770 <__divsi3+0x98>
    5734:	fec42783          	lw	a5,-20(s0)
    5738:	00f05e63          	blez	a5,5754 <__divsi3+0x7c>
    573c:	fe842783          	lw	a5,-24(s0)
    5740:	0007da63          	bgez	a5,5754 <__divsi3+0x7c>
    5744:	fe842783          	lw	a5,-24(s0)
    5748:	40f007b3          	neg	a5,a5
    574c:	fef42423          	sw	a5,-24(s0)
    5750:	0200006f          	j	5770 <__divsi3+0x98>
    5754:	fec42783          	lw	a5,-20(s0)
    5758:	0007dc63          	bgez	a5,5770 <__divsi3+0x98>
    575c:	fe842783          	lw	a5,-24(s0)
    5760:	00f05863          	blez	a5,5770 <__divsi3+0x98>
    5764:	fec42783          	lw	a5,-20(s0)
    5768:	40f007b3          	neg	a5,a5
    576c:	fef42623          	sw	a5,-20(s0)
    5770:	fec42783          	lw	a5,-20(s0)
    5774:	fe842703          	lw	a4,-24(s0)
    5778:	00070593          	mv	a1,a4
    577c:	00078513          	mv	a0,a5
    5780:	e9dff0ef          	jal	ra,561c <__udivsi3>
    5784:	00050793          	mv	a5,a0
    5788:	00078513          	mv	a0,a5
    578c:	01c12083          	lw	ra,28(sp)
    5790:	01812403          	lw	s0,24(sp)
    5794:	02010113          	addi	sp,sp,32
    5798:	00008067          	ret

0000579c <__modsi3>:
    579c:	fd010113          	addi	sp,sp,-48
    57a0:	02112623          	sw	ra,44(sp)
    57a4:	02812423          	sw	s0,40(sp)
    57a8:	03010413          	addi	s0,sp,48
    57ac:	fca42e23          	sw	a0,-36(s0)
    57b0:	fcb42c23          	sw	a1,-40(s0)
    57b4:	fd842583          	lw	a1,-40(s0)
    57b8:	fdc42503          	lw	a0,-36(s0)
    57bc:	f1dff0ef          	jal	ra,56d8 <__divsi3>
    57c0:	fea42623          	sw	a0,-20(s0)
    57c4:	fd842783          	lw	a5,-40(s0)
    57c8:	fec42703          	lw	a4,-20(s0)
    57cc:	00070593          	mv	a1,a4
    57d0:	00078513          	mv	a0,a5
    57d4:	d21ff0ef          	jal	ra,54f4 <__mulsi3>
    57d8:	00050793          	mv	a5,a0
    57dc:	00078713          	mv	a4,a5
    57e0:	fdc42783          	lw	a5,-36(s0)
    57e4:	40e787b3          	sub	a5,a5,a4
    57e8:	00078513          	mv	a0,a5
    57ec:	02c12083          	lw	ra,44(sp)
    57f0:	02812403          	lw	s0,40(sp)
    57f4:	03010113          	addi	sp,sp,48
    57f8:	00008067          	ret

000057fc <gettimeofday>:
    57fc:	ff010113          	addi	sp,sp,-16
    5800:	00812623          	sw	s0,12(sp)
    5804:	01010413          	addi	s0,sp,16
    5808:	000fb797          	auipc	a5,0xfb
    580c:	1dc78793          	addi	a5,a5,476 # 1009e4 <time>
    5810:	0007a783          	lw	a5,0(a5)
    5814:	0007a783          	lw	a5,0(a5)
    5818:	00078513          	mv	a0,a5
    581c:	00c12403          	lw	s0,12(sp)
    5820:	01010113          	addi	sp,sp,16
    5824:	00008067          	ret

00005828 <draw>:
    5828:	fe010113          	addi	sp,sp,-32
    582c:	00812e23          	sw	s0,28(sp)
    5830:	02010413          	addi	s0,sp,32
    5834:	fea42623          	sw	a0,-20(s0)
    5838:	feb42423          	sw	a1,-24(s0)
    583c:	fec42223          	sw	a2,-28(s0)
    5840:	fe842783          	lw	a5,-24(s0)
    5844:	00779713          	slli	a4,a5,0x7
    5848:	fec42783          	lw	a5,-20(s0)
    584c:	00f70733          	add	a4,a4,a5
    5850:	006007b7          	lui	a5,0x600
    5854:	00f707b3          	add	a5,a4,a5
    5858:	00078713          	mv	a4,a5
    585c:	fe442783          	lw	a5,-28(s0)
    5860:	00f72023          	sw	a5,0(a4)
    5864:	00000013          	nop
    5868:	01c12403          	lw	s0,28(sp)
    586c:	02010113          	addi	sp,sp,32
    5870:	00008067          	ret

00005874 <draw_rect>:
    5874:	fc010113          	addi	sp,sp,-64
    5878:	02112e23          	sw	ra,60(sp)
    587c:	02812c23          	sw	s0,56(sp)
    5880:	02912a23          	sw	s1,52(sp)
    5884:	03212823          	sw	s2,48(sp)
    5888:	04010413          	addi	s0,sp,64
    588c:	fca42e23          	sw	a0,-36(s0)
    5890:	fcb42c23          	sw	a1,-40(s0)
    5894:	fcc42a23          	sw	a2,-44(s0)
    5898:	fcd42823          	sw	a3,-48(s0)
    589c:	fce42623          	sw	a4,-52(s0)
    58a0:	fe042623          	sw	zero,-20(s0)
    58a4:	0840006f          	j	5928 <draw_rect+0xb4>
    58a8:	fe042423          	sw	zero,-24(s0)
    58ac:	0640006f          	j	5910 <draw_rect+0x9c>
    58b0:	fd842703          	lw	a4,-40(s0)
    58b4:	fec42783          	lw	a5,-20(s0)
    58b8:	00f704b3          	add	s1,a4,a5
    58bc:	fdc42703          	lw	a4,-36(s0)
    58c0:	fe842783          	lw	a5,-24(s0)
    58c4:	00f70933          	add	s2,a4,a5
    58c8:	fd042583          	lw	a1,-48(s0)
    58cc:	fec42503          	lw	a0,-20(s0)
    58d0:	c25ff0ef          	jal	ra,54f4 <__mulsi3>
    58d4:	00050793          	mv	a5,a0
    58d8:	00078713          	mv	a4,a5
    58dc:	fe842783          	lw	a5,-24(s0)
    58e0:	00f707b3          	add	a5,a4,a5
    58e4:	00279793          	slli	a5,a5,0x2
    58e8:	fd442703          	lw	a4,-44(s0)
    58ec:	00f707b3          	add	a5,a4,a5
    58f0:	0007a783          	lw	a5,0(a5) # 600000 <_end+0x4fa400>
    58f4:	00078613          	mv	a2,a5
    58f8:	00090593          	mv	a1,s2
    58fc:	00048513          	mv	a0,s1
    5900:	f29ff0ef          	jal	ra,5828 <draw>
    5904:	fe842783          	lw	a5,-24(s0)
    5908:	00178793          	addi	a5,a5,1
    590c:	fef42423          	sw	a5,-24(s0)
    5910:	fe842703          	lw	a4,-24(s0)
    5914:	fd042783          	lw	a5,-48(s0)
    5918:	f8f74ce3          	blt	a4,a5,58b0 <draw_rect+0x3c>
    591c:	fec42783          	lw	a5,-20(s0)
    5920:	00178793          	addi	a5,a5,1
    5924:	fef42623          	sw	a5,-20(s0)
    5928:	fec42703          	lw	a4,-20(s0)
    592c:	fcc42783          	lw	a5,-52(s0)
    5930:	f6f74ce3          	blt	a4,a5,58a8 <draw_rect+0x34>
    5934:	00000013          	nop
    5938:	00000013          	nop
    593c:	03c12083          	lw	ra,60(sp)
    5940:	03812403          	lw	s0,56(sp)
    5944:	03412483          	lw	s1,52(sp)
    5948:	03012903          	lw	s2,48(sp)
    594c:	04010113          	addi	sp,sp,64
    5950:	00008067          	ret

00005954 <swtch>:
    5954:	ff010113          	addi	sp,sp,-16
    5958:	00812623          	sw	s0,12(sp)
    595c:	01010413          	addi	s0,sp,16
    5960:	00100797          	auipc	a5,0x100
    5964:	c9478793          	addi	a5,a5,-876 # 1055f4 <ascii_or_pixel.1>
    5968:	0007a783          	lw	a5,0(a5)
    596c:	0017c713          	xori	a4,a5,1
    5970:	00100797          	auipc	a5,0x100
    5974:	c8478793          	addi	a5,a5,-892 # 1055f4 <ascii_or_pixel.1>
    5978:	00e7a023          	sw	a4,0(a5)
    597c:	005007b7          	lui	a5,0x500
    5980:	01078793          	addi	a5,a5,16 # 500010 <_end+0x3fa410>
    5984:	00100717          	auipc	a4,0x100
    5988:	c7070713          	addi	a4,a4,-912 # 1055f4 <ascii_or_pixel.1>
    598c:	00072703          	lw	a4,0(a4)
    5990:	00e7a023          	sw	a4,0(a5)
    5994:	00000013          	nop
    5998:	00c12403          	lw	s0,12(sp)
    599c:	01010113          	addi	sp,sp,16
    59a0:	00008067          	ret

000059a4 <sleep>:
    59a4:	fd010113          	addi	sp,sp,-48
    59a8:	02112623          	sw	ra,44(sp)
    59ac:	02812423          	sw	s0,40(sp)
    59b0:	03010413          	addi	s0,sp,48
    59b4:	fca42e23          	sw	a0,-36(s0)
    59b8:	e45ff0ef          	jal	ra,57fc <gettimeofday>
    59bc:	fea42623          	sw	a0,-20(s0)
    59c0:	00000013          	nop
    59c4:	e39ff0ef          	jal	ra,57fc <gettimeofday>
    59c8:	00050713          	mv	a4,a0
    59cc:	fec42783          	lw	a5,-20(s0)
    59d0:	40f707b3          	sub	a5,a4,a5
    59d4:	fdc42703          	lw	a4,-36(s0)
    59d8:	fef766e3          	bltu	a4,a5,59c4 <sleep+0x20>
    59dc:	00000013          	nop
    59e0:	00000013          	nop
    59e4:	02c12083          	lw	ra,44(sp)
    59e8:	02812403          	lw	s0,40(sp)
    59ec:	03010113          	addi	sp,sp,48
    59f0:	00008067          	ret

000059f4 <vga_init>:
    59f4:	fe010113          	addi	sp,sp,-32
    59f8:	00812e23          	sw	s0,28(sp)
    59fc:	02010413          	addi	s0,sp,32
    5a00:	00100797          	auipc	a5,0x100
    5a04:	c1478793          	addi	a5,a5,-1004 # 105614 <vga_line>
    5a08:	0007a023          	sw	zero,0(a5)
    5a0c:	00100797          	auipc	a5,0x100
    5a10:	c0c78793          	addi	a5,a5,-1012 # 105618 <vga_ch>
    5a14:	0007a023          	sw	zero,0(a5)
    5a18:	fe042623          	sw	zero,-20(s0)
    5a1c:	0680006f          	j	5a84 <vga_init+0x90>
    5a20:	fe042423          	sw	zero,-24(s0)
    5a24:	0480006f          	j	5a6c <vga_init+0x78>
    5a28:	000fb797          	auipc	a5,0xfb
    5a2c:	fc478793          	addi	a5,a5,-60 # 1009ec <vga_start>
    5a30:	0007a783          	lw	a5,0(a5)
    5a34:	000fb717          	auipc	a4,0xfb
    5a38:	fbc70713          	addi	a4,a4,-68 # 1009f0 <start_line>
    5a3c:	00072703          	lw	a4,0(a4)
    5a40:	00072683          	lw	a3,0(a4)
    5a44:	fec42703          	lw	a4,-20(s0)
    5a48:	00e68733          	add	a4,a3,a4
    5a4c:	00771693          	slli	a3,a4,0x7
    5a50:	fe842703          	lw	a4,-24(s0)
    5a54:	00e68733          	add	a4,a3,a4
    5a58:	00e787b3          	add	a5,a5,a4
    5a5c:	00078023          	sb	zero,0(a5)
    5a60:	fe842783          	lw	a5,-24(s0)
    5a64:	00178793          	addi	a5,a5,1
    5a68:	fef42423          	sw	a5,-24(s0)
    5a6c:	fe842703          	lw	a4,-24(s0)
    5a70:	04500793          	li	a5,69
    5a74:	fae7dae3          	bge	a5,a4,5a28 <vga_init+0x34>
    5a78:	fec42783          	lw	a5,-20(s0)
    5a7c:	00178793          	addi	a5,a5,1
    5a80:	fef42623          	sw	a5,-20(s0)
    5a84:	fec42703          	lw	a4,-20(s0)
    5a88:	01d00793          	li	a5,29
    5a8c:	f8e7dae3          	bge	a5,a4,5a20 <vga_init+0x2c>
    5a90:	00000013          	nop
    5a94:	00000013          	nop
    5a98:	01c12403          	lw	s0,28(sp)
    5a9c:	02010113          	addi	sp,sp,32
    5aa0:	00008067          	ret

00005aa4 <vga_roll>:
    5aa4:	fe010113          	addi	sp,sp,-32
    5aa8:	00812e23          	sw	s0,28(sp)
    5aac:	02010413          	addi	s0,sp,32
    5ab0:	000fb797          	auipc	a5,0xfb
    5ab4:	f4078793          	addi	a5,a5,-192 # 1009f0 <start_line>
    5ab8:	0007a783          	lw	a5,0(a5)
    5abc:	0007a703          	lw	a4,0(a5)
    5ac0:	00170713          	addi	a4,a4,1
    5ac4:	00e7a023          	sw	a4,0(a5)
    5ac8:	fe042623          	sw	zero,-20(s0)
    5acc:	0440006f          	j	5b10 <vga_roll+0x6c>
    5ad0:	000fb797          	auipc	a5,0xfb
    5ad4:	f1c78793          	addi	a5,a5,-228 # 1009ec <vga_start>
    5ad8:	0007a783          	lw	a5,0(a5)
    5adc:	000fb717          	auipc	a4,0xfb
    5ae0:	f1470713          	addi	a4,a4,-236 # 1009f0 <start_line>
    5ae4:	00072703          	lw	a4,0(a4)
    5ae8:	00072703          	lw	a4,0(a4)
    5aec:	01d70713          	addi	a4,a4,29
    5af0:	00771693          	slli	a3,a4,0x7
    5af4:	fec42703          	lw	a4,-20(s0)
    5af8:	00e68733          	add	a4,a3,a4
    5afc:	00e787b3          	add	a5,a5,a4
    5b00:	00078023          	sb	zero,0(a5)
    5b04:	fec42783          	lw	a5,-20(s0)
    5b08:	00178793          	addi	a5,a5,1
    5b0c:	fef42623          	sw	a5,-20(s0)
    5b10:	fec42703          	lw	a4,-20(s0)
    5b14:	04500793          	li	a5,69
    5b18:	fae7dce3          	bge	a5,a4,5ad0 <vga_roll+0x2c>
    5b1c:	00000013          	nop
    5b20:	00000013          	nop
    5b24:	01c12403          	lw	s0,28(sp)
    5b28:	02010113          	addi	sp,sp,32
    5b2c:	00008067          	ret

00005b30 <blink>:
    5b30:	ff010113          	addi	sp,sp,-16
    5b34:	00812623          	sw	s0,12(sp)
    5b38:	01010413          	addi	s0,sp,16
    5b3c:	00100797          	auipc	a5,0x100
    5b40:	abc78793          	addi	a5,a5,-1348 # 1055f8 <ch.0>
    5b44:	0007c783          	lbu	a5,0(a5)
    5b48:	00079663          	bnez	a5,5b54 <blink+0x24>
    5b4c:	0ff00793          	li	a5,255
    5b50:	0080006f          	j	5b58 <blink+0x28>
    5b54:	00000793          	li	a5,0
    5b58:	00100717          	auipc	a4,0x100
    5b5c:	aa070713          	addi	a4,a4,-1376 # 1055f8 <ch.0>
    5b60:	00f70023          	sb	a5,0(a4)
    5b64:	000fb797          	auipc	a5,0xfb
    5b68:	e8878793          	addi	a5,a5,-376 # 1009ec <vga_start>
    5b6c:	0007a783          	lw	a5,0(a5)
    5b70:	000fb717          	auipc	a4,0xfb
    5b74:	e8070713          	addi	a4,a4,-384 # 1009f0 <start_line>
    5b78:	00072703          	lw	a4,0(a4)
    5b7c:	00072683          	lw	a3,0(a4)
    5b80:	00100717          	auipc	a4,0x100
    5b84:	a9470713          	addi	a4,a4,-1388 # 105614 <vga_line>
    5b88:	00072703          	lw	a4,0(a4)
    5b8c:	00e68733          	add	a4,a3,a4
    5b90:	00771693          	slli	a3,a4,0x7
    5b94:	00100717          	auipc	a4,0x100
    5b98:	a8470713          	addi	a4,a4,-1404 # 105618 <vga_ch>
    5b9c:	00072703          	lw	a4,0(a4)
    5ba0:	00e68733          	add	a4,a3,a4
    5ba4:	00e787b3          	add	a5,a5,a4
    5ba8:	00100717          	auipc	a4,0x100
    5bac:	a5070713          	addi	a4,a4,-1456 # 1055f8 <ch.0>
    5bb0:	00074703          	lbu	a4,0(a4)
    5bb4:	00e78023          	sb	a4,0(a5)
    5bb8:	00000013          	nop
    5bbc:	00c12403          	lw	s0,12(sp)
    5bc0:	01010113          	addi	sp,sp,16
    5bc4:	00008067          	ret

00005bc8 <putch>:
    5bc8:	fe010113          	addi	sp,sp,-32
    5bcc:	00112e23          	sw	ra,28(sp)
    5bd0:	00812c23          	sw	s0,24(sp)
    5bd4:	02010413          	addi	s0,sp,32
    5bd8:	00050793          	mv	a5,a0
    5bdc:	fef407a3          	sb	a5,-17(s0)
    5be0:	fef44703          	lbu	a4,-17(s0)
    5be4:	00a00793          	li	a5,10
    5be8:	00f71663          	bne	a4,a5,5bf4 <putch+0x2c>
    5bec:	00d00793          	li	a5,13
    5bf0:	fef407a3          	sb	a5,-17(s0)
    5bf4:	fef44783          	lbu	a5,-17(s0)
    5bf8:	00800713          	li	a4,8
    5bfc:	00e78863          	beq	a5,a4,5c0c <putch+0x44>
    5c00:	00d00713          	li	a4,13
    5c04:	10e78c63          	beq	a5,a4,5d1c <putch+0x154>
    5c08:	1b00006f          	j	5db8 <putch+0x1f0>
    5c0c:	00100797          	auipc	a5,0x100
    5c10:	a0878793          	addi	a5,a5,-1528 # 105614 <vga_line>
    5c14:	0007a783          	lw	a5,0(a5)
    5c18:	00079a63          	bnez	a5,5c2c <putch+0x64>
    5c1c:	00100797          	auipc	a5,0x100
    5c20:	9fc78793          	addi	a5,a5,-1540 # 105618 <vga_ch>
    5c24:	0007a783          	lw	a5,0(a5)
    5c28:	26078063          	beqz	a5,5e88 <putch+0x2c0>
    5c2c:	000fb797          	auipc	a5,0xfb
    5c30:	dc078793          	addi	a5,a5,-576 # 1009ec <vga_start>
    5c34:	0007a783          	lw	a5,0(a5)
    5c38:	000fb717          	auipc	a4,0xfb
    5c3c:	db870713          	addi	a4,a4,-584 # 1009f0 <start_line>
    5c40:	00072703          	lw	a4,0(a4)
    5c44:	00072683          	lw	a3,0(a4)
    5c48:	00100717          	auipc	a4,0x100
    5c4c:	9cc70713          	addi	a4,a4,-1588 # 105614 <vga_line>
    5c50:	00072703          	lw	a4,0(a4)
    5c54:	00e68733          	add	a4,a3,a4
    5c58:	00771693          	slli	a3,a4,0x7
    5c5c:	00100717          	auipc	a4,0x100
    5c60:	9bc70713          	addi	a4,a4,-1604 # 105618 <vga_ch>
    5c64:	00072703          	lw	a4,0(a4)
    5c68:	00e68733          	add	a4,a3,a4
    5c6c:	00e787b3          	add	a5,a5,a4
    5c70:	00078023          	sb	zero,0(a5)
    5c74:	00100797          	auipc	a5,0x100
    5c78:	9a478793          	addi	a5,a5,-1628 # 105618 <vga_ch>
    5c7c:	0007a783          	lw	a5,0(a5)
    5c80:	02079a63          	bnez	a5,5cb4 <putch+0xec>
    5c84:	00100797          	auipc	a5,0x100
    5c88:	99078793          	addi	a5,a5,-1648 # 105614 <vga_line>
    5c8c:	0007a783          	lw	a5,0(a5)
    5c90:	fff78713          	addi	a4,a5,-1
    5c94:	00100797          	auipc	a5,0x100
    5c98:	98078793          	addi	a5,a5,-1664 # 105614 <vga_line>
    5c9c:	00e7a023          	sw	a4,0(a5)
    5ca0:	00100797          	auipc	a5,0x100
    5ca4:	97878793          	addi	a5,a5,-1672 # 105618 <vga_ch>
    5ca8:	04500713          	li	a4,69
    5cac:	00e7a023          	sw	a4,0(a5)
    5cb0:	0200006f          	j	5cd0 <putch+0x108>
    5cb4:	00100797          	auipc	a5,0x100
    5cb8:	96478793          	addi	a5,a5,-1692 # 105618 <vga_ch>
    5cbc:	0007a783          	lw	a5,0(a5)
    5cc0:	fff78713          	addi	a4,a5,-1
    5cc4:	00100797          	auipc	a5,0x100
    5cc8:	95478793          	addi	a5,a5,-1708 # 105618 <vga_ch>
    5ccc:	00e7a023          	sw	a4,0(a5)
    5cd0:	000fb797          	auipc	a5,0xfb
    5cd4:	d1c78793          	addi	a5,a5,-740 # 1009ec <vga_start>
    5cd8:	0007a783          	lw	a5,0(a5)
    5cdc:	000fb717          	auipc	a4,0xfb
    5ce0:	d1470713          	addi	a4,a4,-748 # 1009f0 <start_line>
    5ce4:	00072703          	lw	a4,0(a4)
    5ce8:	00072683          	lw	a3,0(a4)
    5cec:	00100717          	auipc	a4,0x100
    5cf0:	92870713          	addi	a4,a4,-1752 # 105614 <vga_line>
    5cf4:	00072703          	lw	a4,0(a4)
    5cf8:	00e68733          	add	a4,a3,a4
    5cfc:	00771693          	slli	a3,a4,0x7
    5d00:	00100717          	auipc	a4,0x100
    5d04:	91870713          	addi	a4,a4,-1768 # 105618 <vga_ch>
    5d08:	00072703          	lw	a4,0(a4)
    5d0c:	00e68733          	add	a4,a3,a4
    5d10:	00e787b3          	add	a5,a5,a4
    5d14:	00078023          	sb	zero,0(a5)
    5d18:	1700006f          	j	5e88 <putch+0x2c0>
    5d1c:	000fb797          	auipc	a5,0xfb
    5d20:	cd078793          	addi	a5,a5,-816 # 1009ec <vga_start>
    5d24:	0007a783          	lw	a5,0(a5)
    5d28:	000fb717          	auipc	a4,0xfb
    5d2c:	cc870713          	addi	a4,a4,-824 # 1009f0 <start_line>
    5d30:	00072703          	lw	a4,0(a4)
    5d34:	00072683          	lw	a3,0(a4)
    5d38:	00100717          	auipc	a4,0x100
    5d3c:	8dc70713          	addi	a4,a4,-1828 # 105614 <vga_line>
    5d40:	00072703          	lw	a4,0(a4)
    5d44:	00e68733          	add	a4,a3,a4
    5d48:	00771693          	slli	a3,a4,0x7
    5d4c:	00100717          	auipc	a4,0x100
    5d50:	8cc70713          	addi	a4,a4,-1844 # 105618 <vga_ch>
    5d54:	00072703          	lw	a4,0(a4)
    5d58:	00e68733          	add	a4,a3,a4
    5d5c:	00e787b3          	add	a5,a5,a4
    5d60:	00078023          	sb	zero,0(a5)
    5d64:	00100797          	auipc	a5,0x100
    5d68:	8b078793          	addi	a5,a5,-1872 # 105614 <vga_line>
    5d6c:	0007a783          	lw	a5,0(a5)
    5d70:	00178713          	addi	a4,a5,1
    5d74:	00100797          	auipc	a5,0x100
    5d78:	8a078793          	addi	a5,a5,-1888 # 105614 <vga_line>
    5d7c:	00e7a023          	sw	a4,0(a5)
    5d80:	00100797          	auipc	a5,0x100
    5d84:	89478793          	addi	a5,a5,-1900 # 105614 <vga_line>
    5d88:	0007a703          	lw	a4,0(a5)
    5d8c:	01d00793          	li	a5,29
    5d90:	00e7dc63          	bge	a5,a4,5da8 <putch+0x1e0>
    5d94:	d11ff0ef          	jal	ra,5aa4 <vga_roll>
    5d98:	00100797          	auipc	a5,0x100
    5d9c:	87c78793          	addi	a5,a5,-1924 # 105614 <vga_line>
    5da0:	01d00713          	li	a4,29
    5da4:	00e7a023          	sw	a4,0(a5)
    5da8:	00100797          	auipc	a5,0x100
    5dac:	87078793          	addi	a5,a5,-1936 # 105618 <vga_ch>
    5db0:	0007a023          	sw	zero,0(a5)
    5db4:	0e00006f          	j	5e94 <putch+0x2cc>
    5db8:	000fb797          	auipc	a5,0xfb
    5dbc:	c3478793          	addi	a5,a5,-972 # 1009ec <vga_start>
    5dc0:	0007a783          	lw	a5,0(a5)
    5dc4:	000fb717          	auipc	a4,0xfb
    5dc8:	c2c70713          	addi	a4,a4,-980 # 1009f0 <start_line>
    5dcc:	00072703          	lw	a4,0(a4)
    5dd0:	00072683          	lw	a3,0(a4)
    5dd4:	00100717          	auipc	a4,0x100
    5dd8:	84070713          	addi	a4,a4,-1984 # 105614 <vga_line>
    5ddc:	00072703          	lw	a4,0(a4)
    5de0:	00e68733          	add	a4,a3,a4
    5de4:	00771693          	slli	a3,a4,0x7
    5de8:	00100717          	auipc	a4,0x100
    5dec:	83070713          	addi	a4,a4,-2000 # 105618 <vga_ch>
    5df0:	00072703          	lw	a4,0(a4)
    5df4:	00e68733          	add	a4,a3,a4
    5df8:	00e787b3          	add	a5,a5,a4
    5dfc:	fef44703          	lbu	a4,-17(s0)
    5e00:	00e78023          	sb	a4,0(a5)
    5e04:	00100797          	auipc	a5,0x100
    5e08:	81478793          	addi	a5,a5,-2028 # 105618 <vga_ch>
    5e0c:	0007a783          	lw	a5,0(a5)
    5e10:	00178713          	addi	a4,a5,1
    5e14:	00100797          	auipc	a5,0x100
    5e18:	80478793          	addi	a5,a5,-2044 # 105618 <vga_ch>
    5e1c:	00e7a023          	sw	a4,0(a5)
    5e20:	000ff797          	auipc	a5,0xff
    5e24:	7f878793          	addi	a5,a5,2040 # 105618 <vga_ch>
    5e28:	0007a703          	lw	a4,0(a5)
    5e2c:	04500793          	li	a5,69
    5e30:	06e7d063          	bge	a5,a4,5e90 <putch+0x2c8>
    5e34:	000ff797          	auipc	a5,0xff
    5e38:	7e078793          	addi	a5,a5,2016 # 105614 <vga_line>
    5e3c:	0007a783          	lw	a5,0(a5)
    5e40:	00178713          	addi	a4,a5,1
    5e44:	000ff797          	auipc	a5,0xff
    5e48:	7d078793          	addi	a5,a5,2000 # 105614 <vga_line>
    5e4c:	00e7a023          	sw	a4,0(a5)
    5e50:	000ff797          	auipc	a5,0xff
    5e54:	7c478793          	addi	a5,a5,1988 # 105614 <vga_line>
    5e58:	0007a703          	lw	a4,0(a5)
    5e5c:	01d00793          	li	a5,29
    5e60:	00e7dc63          	bge	a5,a4,5e78 <putch+0x2b0>
    5e64:	c41ff0ef          	jal	ra,5aa4 <vga_roll>
    5e68:	000ff797          	auipc	a5,0xff
    5e6c:	7ac78793          	addi	a5,a5,1964 # 105614 <vga_line>
    5e70:	01d00713          	li	a4,29
    5e74:	00e7a023          	sw	a4,0(a5)
    5e78:	000ff797          	auipc	a5,0xff
    5e7c:	7a078793          	addi	a5,a5,1952 # 105618 <vga_ch>
    5e80:	0007a023          	sw	zero,0(a5)
    5e84:	00c0006f          	j	5e90 <putch+0x2c8>
    5e88:	00000013          	nop
    5e8c:	0080006f          	j	5e94 <putch+0x2cc>
    5e90:	00000013          	nop
    5e94:	00000013          	nop
    5e98:	01c12083          	lw	ra,28(sp)
    5e9c:	01812403          	lw	s0,24(sp)
    5ea0:	02010113          	addi	sp,sp,32
    5ea4:	00008067          	ret

00005ea8 <putstr>:
    5ea8:	fd010113          	addi	sp,sp,-48
    5eac:	02112623          	sw	ra,44(sp)
    5eb0:	02812423          	sw	s0,40(sp)
    5eb4:	03010413          	addi	s0,sp,48
    5eb8:	fca42e23          	sw	a0,-36(s0)
    5ebc:	fdc42783          	lw	a5,-36(s0)
    5ec0:	fef42623          	sw	a5,-20(s0)
    5ec4:	0200006f          	j	5ee4 <putstr+0x3c>
    5ec8:	fec42783          	lw	a5,-20(s0)
    5ecc:	0007c783          	lbu	a5,0(a5)
    5ed0:	00078513          	mv	a0,a5
    5ed4:	cf5ff0ef          	jal	ra,5bc8 <putch>
    5ed8:	fec42783          	lw	a5,-20(s0)
    5edc:	00178793          	addi	a5,a5,1
    5ee0:	fef42623          	sw	a5,-20(s0)
    5ee4:	fec42783          	lw	a5,-20(s0)
    5ee8:	0007c783          	lbu	a5,0(a5)
    5eec:	fc079ee3          	bnez	a5,5ec8 <putstr+0x20>
    5ef0:	00000013          	nop
    5ef4:	00000013          	nop
    5ef8:	02c12083          	lw	ra,44(sp)
    5efc:	02812403          	lw	s0,40(sp)
    5f00:	03010113          	addi	sp,sp,48
    5f04:	00008067          	ret

00005f08 <readkey>:
    5f08:	ff010113          	addi	sp,sp,-16
    5f0c:	00812623          	sw	s0,12(sp)
    5f10:	01010413          	addi	s0,sp,16
    5f14:	000fb797          	auipc	a5,0xfb
    5f18:	ae078793          	addi	a5,a5,-1312 # 1009f4 <key>
    5f1c:	0007a783          	lw	a5,0(a5)
    5f20:	0007a783          	lw	a5,0(a5)
    5f24:	0ff7f793          	andi	a5,a5,255
    5f28:	00078513          	mv	a0,a5
    5f2c:	00c12403          	lw	s0,12(sp)
    5f30:	01010113          	addi	sp,sp,16
    5f34:	00008067          	ret

Disassembly of section .rodata:

00100000 <.rodata>:
  100000:	6425                	lui	s0,0x9
  100002:	000a                	c.slli	zero,0x2
  100004:	74617453          	0x74617453
  100008:	6369                	lui	t1,0x1a
  10000a:	0000                	unimp
  10000c:	6548                	flw	fa0,12(a0)
  10000e:	7061                	c.lui	zero,0xffff8
  100010:	0000                	unimp
  100012:	0000                	unimp
  100014:	63617453          	0x63617453
  100018:	0000006b          	0x6b
  10001c:	7552                	flw	fa0,52(sp)
  10001e:	6e6e                	flw	ft8,216(sp)
  100020:	6e69                	lui	t3,0x1a
  100022:	6f432067          	0x6f432067
  100026:	6572                	flw	fa0,28(sp)
  100028:	614d                	addi	sp,sp,176
  10002a:	6b72                	flw	fs6,28(sp)
  10002c:	6620                	flw	fs0,72(a2)
  10002e:	2520726f          	jal	tp,107280 <_end+0x1680>
  100032:	2064                	fld	fs1,192(s0)
  100034:	7469                	lui	s0,0xffffa
  100036:	7265                	lui	tp,0xffff9
  100038:	7461                	lui	s0,0xffff8
  10003a:	6f69                	lui	t5,0x1a
  10003c:	736e                	flw	ft6,248(sp)
  10003e:	000a                	c.slli	zero,0x2
  100040:	6b36                	flw	fs6,76(sp)
  100042:	7020                	flw	fs0,96(s0)
  100044:	7265                	lui	tp,0xffff9
  100046:	6f66                	flw	ft10,88(sp)
  100048:	6d72                	flw	fs10,28(sp)
  10004a:	6e61                	lui	t3,0x18
  10004c:	72206563          	bltu	zero,sp,100776 <prior+0x22e>
  100050:	6e75                	lui	t3,0x1d
  100052:	7020                	flw	fs0,96(s0)
  100054:	7261                	lui	tp,0xffff8
  100056:	6d61                	lui	s10,0x18
  100058:	7465                	lui	s0,0xffff9
  10005a:	7265                	lui	tp,0xffff9
  10005c:	6f662073          	csrs	0x6f6,a2
  100060:	2072                	fld	ft0,280(sp)
  100062:	65726f63          	bltu	tp,s7,1006c0 <prior+0x178>
  100066:	616d                	addi	sp,sp,240
  100068:	6b72                	flw	fs6,28(sp)
  10006a:	0a2e                	slli	s4,s4,0xb
  10006c:	0000                	unimp
  10006e:	0000                	unimp
  100070:	6b36                	flw	fs6,76(sp)
  100072:	7620                	flw	fs0,104(a2)
  100074:	6c61                	lui	s8,0x18
  100076:	6469                	lui	s0,0x1a
  100078:	7461                	lui	s0,0xffff8
  10007a:	6f69                	lui	t5,0x1a
  10007c:	206e                	fld	ft0,216(sp)
  10007e:	7572                	flw	fa0,60(sp)
  100080:	206e                	fld	ft0,216(sp)
  100082:	6170                	flw	fa2,68(a0)
  100084:	6172                	flw	ft2,28(sp)
  100086:	656d                	lui	a0,0x1b
  100088:	6574                	flw	fa3,76(a0)
  10008a:	7372                	flw	ft6,60(sp)
  10008c:	6620                	flw	fs0,72(a2)
  10008e:	6320726f          	jal	tp,1076c0 <_end+0x1ac0>
  100092:	6d65726f          	jal	tp,157768 <_end+0x51b68>
  100096:	7261                	lui	tp,0xffff8
  100098:	000a2e6b          	0xa2e6b
  10009c:	7250                	flw	fa2,36(a2)
  10009e:	6c69666f          	jal	a2,196764 <_end+0x90b64>
  1000a2:	2065                	jal	10014a <_etext+0xfa212>
  1000a4:	656e6567          	0x656e6567
  1000a8:	6172                	flw	ft2,28(sp)
  1000aa:	6974                	flw	fa3,84(a0)
  1000ac:	72206e6f          	jal	t3,1067ce <_end+0xbce>
  1000b0:	6e75                	lui	t3,0x1d
  1000b2:	7020                	flw	fs0,96(s0)
  1000b4:	7261                	lui	tp,0xffff8
  1000b6:	6d61                	lui	s10,0x18
  1000b8:	7465                	lui	s0,0xffff9
  1000ba:	7265                	lui	tp,0xffff9
  1000bc:	6f662073          	csrs	0x6f6,a2
  1000c0:	2072                	fld	ft0,280(sp)
  1000c2:	65726f63          	bltu	tp,s7,100720 <prior+0x1d8>
  1000c6:	616d                	addi	sp,sp,240
  1000c8:	6b72                	flw	fs6,28(sp)
  1000ca:	0a2e                	slli	s4,s4,0xb
  1000cc:	0000                	unimp
  1000ce:	0000                	unimp
  1000d0:	4b32                	lw	s6,12(sp)
  1000d2:	7020                	flw	fs0,96(s0)
  1000d4:	7265                	lui	tp,0xffff9
  1000d6:	6f66                	flw	ft10,88(sp)
  1000d8:	6d72                	flw	fs10,28(sp)
  1000da:	6e61                	lui	t3,0x18
  1000dc:	72206563          	bltu	zero,sp,100806 <prior+0x2be>
  1000e0:	6e75                	lui	t3,0x1d
  1000e2:	7020                	flw	fs0,96(s0)
  1000e4:	7261                	lui	tp,0xffff8
  1000e6:	6d61                	lui	s10,0x18
  1000e8:	7465                	lui	s0,0xffff9
  1000ea:	7265                	lui	tp,0xffff9
  1000ec:	6f662073          	csrs	0x6f6,a2
  1000f0:	2072                	fld	ft0,280(sp)
  1000f2:	65726f63          	bltu	tp,s7,100750 <prior+0x208>
  1000f6:	616d                	addi	sp,sp,240
  1000f8:	6b72                	flw	fs6,28(sp)
  1000fa:	0a2e                	slli	s4,s4,0xb
  1000fc:	0000                	unimp
  1000fe:	0000                	unimp
  100100:	4b32                	lw	s6,12(sp)
  100102:	7620                	flw	fs0,104(a2)
  100104:	6c61                	lui	s8,0x18
  100106:	6469                	lui	s0,0x1a
  100108:	7461                	lui	s0,0xffff8
  10010a:	6f69                	lui	t5,0x1a
  10010c:	206e                	fld	ft0,216(sp)
  10010e:	7572                	flw	fa0,60(sp)
  100110:	206e                	fld	ft0,216(sp)
  100112:	6170                	flw	fa2,68(a0)
  100114:	6172                	flw	ft2,28(sp)
  100116:	656d                	lui	a0,0x1b
  100118:	6574                	flw	fa3,76(a0)
  10011a:	7372                	flw	ft6,60(sp)
  10011c:	6620                	flw	fs0,72(a2)
  10011e:	6320726f          	jal	tp,107750 <_end+0x1b50>
  100122:	6d65726f          	jal	tp,1577f8 <_end+0x51bf8>
  100126:	7261                	lui	tp,0xffff8
  100128:	000a2e6b          	0xa2e6b
  10012c:	5d75255b          	0x5d75255b
  100130:	5245                	li	tp,-15
  100132:	4f52                	lw	t5,20(sp)
  100134:	2152                	fld	ft2,272(sp)
  100136:	6c20                	flw	fs0,88(s0)
  100138:	7369                	lui	t1,0xffffa
  10013a:	2074                	fld	fa3,192(s0)
  10013c:	20637263          	bgeu	t1,t1,100340 <_etext+0xfa408>
  100140:	7830                	flw	fa2,112(s0)
  100142:	3025                	jal	ff96a <_etext+0xf9a32>
  100144:	7834                	flw	fa3,112(s0)
  100146:	2d20                	fld	fs0,88(a0)
  100148:	7320                	flw	fs0,96(a4)
  10014a:	6f68                	flw	fa0,92(a4)
  10014c:	6c75                	lui	s8,0x1d
  10014e:	2064                	fld	fs1,192(s0)
  100150:	6562                	flw	fa0,24(sp)
  100152:	3020                	fld	fs0,96(s0)
  100154:	2578                	fld	fa4,200(a0)
  100156:	3430                	fld	fa2,104(s0)
  100158:	0a78                	addi	a4,sp,284
  10015a:	0000                	unimp
  10015c:	5d75255b          	0x5d75255b
  100160:	5245                	li	tp,-15
  100162:	4f52                	lw	t5,20(sp)
  100164:	2152                	fld	ft2,272(sp)
  100166:	6d20                	flw	fs0,88(a0)
  100168:	7461                	lui	s0,0xffff8
  10016a:	6972                	flw	fs2,28(sp)
  10016c:	2078                	fld	fa4,192(s0)
  10016e:	20637263          	bgeu	t1,t1,100372 <_etext+0xfa43a>
  100172:	7830                	flw	fa2,112(s0)
  100174:	3025                	jal	ff99c <_etext+0xf9a64>
  100176:	7834                	flw	fa3,112(s0)
  100178:	2d20                	fld	fs0,88(a0)
  10017a:	7320                	flw	fs0,96(a4)
  10017c:	6f68                	flw	fa0,92(a4)
  10017e:	6c75                	lui	s8,0x1d
  100180:	2064                	fld	fs1,192(s0)
  100182:	6562                	flw	fa0,24(sp)
  100184:	3020                	fld	fs0,96(s0)
  100186:	2578                	fld	fa4,200(a0)
  100188:	3430                	fld	fa2,104(s0)
  10018a:	0a78                	addi	a4,sp,284
  10018c:	0000                	unimp
  10018e:	0000                	unimp
  100190:	5d75255b          	0x5d75255b
  100194:	5245                	li	tp,-15
  100196:	4f52                	lw	t5,20(sp)
  100198:	2152                	fld	ft2,272(sp)
  10019a:	7320                	flw	fs0,96(a4)
  10019c:	6174                	flw	fa3,68(a0)
  10019e:	6574                	flw	fa3,76(a0)
  1001a0:	6320                	flw	fs0,64(a4)
  1001a2:	6372                	flw	ft6,28(sp)
  1001a4:	3020                	fld	fs0,96(s0)
  1001a6:	2578                	fld	fa4,200(a0)
  1001a8:	3430                	fld	fa2,104(s0)
  1001aa:	2078                	fld	fa4,192(s0)
  1001ac:	202d                	jal	1001d6 <_etext+0xfa29e>
  1001ae:	756f6873          	csrrsi	a6,0x756,30
  1001b2:	646c                	flw	fa1,76(s0)
  1001b4:	6220                	flw	fs0,64(a2)
  1001b6:	2065                	jal	10025e <_etext+0xfa326>
  1001b8:	7830                	flw	fa2,112(s0)
  1001ba:	3025                	jal	ff9e2 <_etext+0xf9aaa>
  1001bc:	7834                	flw	fa3,112(s0)
  1001be:	000a                	c.slli	zero,0x2
  1001c0:	65726f43          	0x65726f43
  1001c4:	614d                	addi	sp,sp,176
  1001c6:	6b72                	flw	fs6,28(sp)
  1001c8:	5320                	lw	s0,96(a4)
  1001ca:	7a69                	lui	s4,0xffffa
  1001cc:	2065                	jal	100274 <_etext+0xfa33c>
  1001ce:	2020                	fld	fs0,64(s0)
  1001d0:	3a20                	fld	fs0,112(a2)
  1001d2:	2520                	fld	fs0,72(a0)
  1001d4:	0a64                	addi	s1,sp,284
  1001d6:	0000                	unimp
  1001d8:	6f54                	flw	fa3,28(a4)
  1001da:	6174                	flw	fa3,68(a0)
  1001dc:	206c                	fld	fa1,192(s0)
  1001de:	6974                	flw	fa3,84(a0)
  1001e0:	656d                	lui	a0,0x1b
  1001e2:	2820                	fld	fs0,80(s0)
  1001e4:	736d                	lui	t1,0xffffb
  1001e6:	2029                	jal	1001f0 <_etext+0xfa2b8>
  1001e8:	3a20                	fld	fs0,112(a2)
  1001ea:	2520                	fld	fs0,72(a0)
  1001ec:	0a64                	addi	s1,sp,284
  1001ee:	0000                	unimp
  1001f0:	7449                	lui	s0,0xffff2
  1001f2:	7265                	lui	tp,0xffff9
  1001f4:	7461                	lui	s0,0xffff8
  1001f6:	6f69                	lui	t5,0x1a
  1001f8:	736e                	flw	ft6,248(sp)
  1001fa:	2020                	fld	fs0,64(s0)
  1001fc:	2020                	fld	fs0,64(s0)
  1001fe:	2020                	fld	fs0,64(s0)
  100200:	3a20                	fld	fs0,112(a2)
  100202:	2520                	fld	fs0,72(a0)
  100204:	0a64                	addi	s1,sp,284
  100206:	0000                	unimp
  100208:	31434347          	fmsub.s	ft6,ft6,fs4,ft6,rmm
  10020c:	2e30                	fld	fa2,88(a2)
  10020e:	2e32                	fld	ft8,264(sp)
  100210:	0030                	addi	a2,sp,8
  100212:	0000                	unimp
  100214:	706d6f43          	fmadd.s	ft10,fs10,ft6,fa4,unknown
  100218:	6c69                	lui	s8,0x1a
  10021a:	7265                	lui	tp,0xffff9
  10021c:	7620                	flw	fs0,104(a2)
  10021e:	7265                	lui	tp,0xffff9
  100220:	6e6f6973          	csrrsi	s2,0x6e6,30
  100224:	3a20                	fld	fs0,112(a2)
  100226:	2520                	fld	fs0,72(a0)
  100228:	00000a73          	0xa73
  10022c:	64656573          	csrrsi	a0,0x646,10
  100230:	20637263          	bgeu	t1,t1,100434 <_etext+0xfa4fc>
  100234:	2020                	fld	fs0,64(s0)
  100236:	2020                	fld	fs0,64(s0)
  100238:	2020                	fld	fs0,64(s0)
  10023a:	2020                	fld	fs0,64(s0)
  10023c:	3a20                	fld	fs0,112(a2)
  10023e:	3020                	fld	fs0,96(s0)
  100240:	2578                	fld	fa4,200(a0)
  100242:	3430                	fld	fa2,104(s0)
  100244:	0a78                	addi	a4,sp,284
  100246:	0000                	unimp
  100248:	5d64255b          	0x5d64255b
  10024c:	6c637263          	bgeu	t1,t1,100910 <prior+0x3c8>
  100250:	7369                	lui	t1,0xffffa
  100252:	2074                	fld	fa3,192(s0)
  100254:	2020                	fld	fs0,64(s0)
  100256:	2020                	fld	fs0,64(s0)
  100258:	2020                	fld	fs0,64(s0)
  10025a:	203a                	fld	ft0,392(sp)
  10025c:	7830                	flw	fa2,112(s0)
  10025e:	3025                	jal	ffa86 <_etext+0xf9b4e>
  100260:	7834                	flw	fa3,112(s0)
  100262:	000a                	c.slli	zero,0x2
  100264:	5d64255b          	0x5d64255b
  100268:	6d637263          	bgeu	t1,s6,10092c <prior+0x3e4>
  10026c:	7461                	lui	s0,0xffff8
  10026e:	6972                	flw	fs2,28(sp)
  100270:	2078                	fld	fa4,192(s0)
  100272:	2020                	fld	fs0,64(s0)
  100274:	2020                	fld	fs0,64(s0)
  100276:	203a                	fld	ft0,392(sp)
  100278:	7830                	flw	fa2,112(s0)
  10027a:	3025                	jal	ffaa2 <_etext+0xf9b6a>
  10027c:	7834                	flw	fa3,112(s0)
  10027e:	000a                	c.slli	zero,0x2
  100280:	5d64255b          	0x5d64255b
  100284:	73637263          	bgeu	t1,s6,1009a8 <floatpat>
  100288:	6174                	flw	fa3,68(a0)
  10028a:	6574                	flw	fa3,76(a0)
  10028c:	2020                	fld	fs0,64(s0)
  10028e:	2020                	fld	fs0,64(s0)
  100290:	2020                	fld	fs0,64(s0)
  100292:	203a                	fld	ft0,392(sp)
  100294:	7830                	flw	fa2,112(s0)
  100296:	3025                	jal	ffabe <_etext+0xf9b86>
  100298:	7834                	flw	fa3,112(s0)
  10029a:	000a                	c.slli	zero,0x2
  10029c:	5d64255b          	0x5d64255b
  1002a0:	66637263          	bgeu	t1,t1,100904 <prior+0x3bc>
  1002a4:	6e69                	lui	t3,0x1a
  1002a6:	6c61                	lui	s8,0x18
  1002a8:	2020                	fld	fs0,64(s0)
  1002aa:	2020                	fld	fs0,64(s0)
  1002ac:	2020                	fld	fs0,64(s0)
  1002ae:	203a                	fld	ft0,392(sp)
  1002b0:	7830                	flw	fa2,112(s0)
  1002b2:	3025                	jal	ffada <_etext+0xf9ba2>
  1002b4:	7834                	flw	fa3,112(s0)
  1002b6:	000a                	c.slli	zero,0x2
  1002b8:	6946                	flw	fs2,80(sp)
  1002ba:	696e                	flw	fs2,216(sp)
  1002bc:	20646573          	csrrsi	a0,0x206,8
  1002c0:	6e69                	lui	t3,0x1a
  1002c2:	2520                	fld	fs0,72(a0)
  1002c4:	2064                	fld	fs1,192(s0)
  1002c6:	736d                	lui	t1,0xffffb
  1002c8:	0a2e                	slli	s4,s4,0xb
  1002ca:	0000                	unimp
  1002cc:	3d3d                	jal	10010a <_etext+0xfa1d2>
  1002ce:	3d3d                	jal	10010c <_etext+0xfa1d4>
  1002d0:	3d3d                	jal	10010e <_etext+0xfa1d6>
  1002d2:	3d3d                	jal	100110 <_etext+0xfa1d8>
  1002d4:	3d3d                	jal	100112 <_etext+0xfa1da>
  1002d6:	3d3d                	jal	100114 <_etext+0xfa1dc>
  1002d8:	3d3d                	jal	100116 <_etext+0xfa1de>
  1002da:	3d3d                	jal	100118 <_etext+0xfa1e0>
  1002dc:	3d3d                	jal	10011a <_etext+0xfa1e2>
  1002de:	3d3d                	jal	10011c <_etext+0xfa1e4>
  1002e0:	3d3d                	jal	10011e <_etext+0xfa1e6>
  1002e2:	3d3d                	jal	100120 <_etext+0xfa1e8>
  1002e4:	3d3d                	jal	100122 <_etext+0xfa1ea>
  1002e6:	3d3d                	jal	100124 <_etext+0xfa1ec>
  1002e8:	3d3d                	jal	100126 <_etext+0xfa1ee>
  1002ea:	3d3d                	jal	100128 <_etext+0xfa1f0>
  1002ec:	3d3d                	jal	10012a <_etext+0xfa1f2>
  1002ee:	3d3d                	jal	10012c <_etext+0xfa1f4>
  1002f0:	3d3d                	jal	10012e <_etext+0xfa1f6>
  1002f2:	3d3d                	jal	100130 <_etext+0xfa1f8>
  1002f4:	3d3d                	jal	100132 <_etext+0xfa1fa>
  1002f6:	3d3d                	jal	100134 <_etext+0xfa1fc>
  1002f8:	3d3d                	jal	100136 <_etext+0xfa1fe>
  1002fa:	3d3d                	jal	100138 <_etext+0xfa200>
  1002fc:	3d3d                	jal	10013a <_etext+0xfa202>
  1002fe:	000a                	c.slli	zero,0x2
  100300:	65726f43          	0x65726f43
  100304:	614d                	addi	sp,sp,176
  100306:	6b72                	flw	fs6,28(sp)
  100308:	5020                	lw	s0,96(s0)
  10030a:	5341                	li	t1,-16
  10030c:	20202053          	fsgnjx.s	ft0,ft0,ft2
  100310:	2020                	fld	fs0,64(s0)
  100312:	2020                	fld	fs0,64(s0)
  100314:	6425                	lui	s0,0x9
  100316:	4d20                	lw	s0,88(a0)
  100318:	7261                	lui	tp,0xffff8
  10031a:	000a736b          	0xa736b
  10031e:	0000                	unimp
  100320:	2020                	fld	fs0,64(s0)
  100322:	2020                	fld	fs0,64(s0)
  100324:	2020                	fld	fs0,64(s0)
  100326:	2020                	fld	fs0,64(s0)
  100328:	2020                	fld	fs0,64(s0)
  10032a:	2020                	fld	fs0,64(s0)
  10032c:	2020                	fld	fs0,64(s0)
  10032e:	2020                	fld	fs0,64(s0)
  100330:	7376                	flw	ft6,124(sp)
  100332:	202e                	fld	ft0,200(sp)
  100334:	3031                	jal	ffb40 <_etext+0xf9c08>
  100336:	3030                	fld	fa2,96(s0)
  100338:	3030                	fld	fa2,96(s0)
  10033a:	4d20                	lw	s0,88(a0)
  10033c:	7261                	lui	tp,0xffff8
  10033e:	2820736b          	0x2820736b
  100342:	3769                	jal	1002cc <_etext+0xfa394>
  100344:	372d                	jal	10026e <_etext+0xfa336>
  100346:	4b303037          	lui	zero,0x4b303
  10034a:	4020                	lw	s0,64(s0)
  10034c:	3420                	fld	fs0,104(s0)
  10034e:	322e                	fld	ft4,232(sp)
  100350:	4730                	lw	a2,72(a4)
  100352:	7a48                	flw	fa0,52(a2)
  100354:	0a29                	addi	s4,s4,10
  100356:	0000                	unimp
  100358:	7245                	lui	tp,0xffff1
  10035a:	6f72                	flw	ft10,28(sp)
  10035c:	7372                	flw	ft6,60(sp)
  10035e:	6420                	flw	fs0,72(s0)
  100360:	7465                	lui	s0,0xffff9
  100362:	6365                	lui	t1,0x19
  100364:	6574                	flw	fa3,76(a0)
  100366:	0a64                	addi	s1,sp,284
  100368:	0000                	unimp
  10036a:	0000                	unimp
  10036c:	6e6e6143          	fmadd.q	ft2,ft8,ft6,fa3,unknown
  100370:	7620746f          	jal	s0,107ad2 <_end+0x1ed2>
  100374:	6c61                	lui	s8,0x18
  100376:	6469                	lui	s0,0x1a
  100378:	7461                	lui	s0,0xffff8
  10037a:	2065                	jal	100422 <_etext+0xfa4ea>
  10037c:	7265706f          	j	157aa2 <_end+0x51ea2>
  100380:	7461                	lui	s0,0xffff8
  100382:	6f69                	lui	t5,0x1a
  100384:	206e                	fld	ft0,216(sp)
  100386:	6f66                	flw	ft10,88(sp)
  100388:	2072                	fld	ft0,280(sp)
  10038a:	6874                	flw	fa3,84(s0)
  10038c:	7365                	lui	t1,0xffff9
  10038e:	2065                	jal	100436 <_etext+0xfa4fe>
  100390:	64656573          	csrrsi	a0,0x646,10
  100394:	7620                	flw	fs0,104(a2)
  100396:	6c61                	lui	s8,0x18
  100398:	6575                	lui	a0,0x1d
  10039a:	70202c73          	csrr	s8,0x702
  10039e:	656c                	flw	fa1,76(a0)
  1003a0:	7361                	lui	t1,0xffff8
  1003a2:	2065                	jal	10044a <_etext+0xfa512>
  1003a4:	706d6f63          	bltu	s10,t1,100ac2 <tokens+0xca>
  1003a8:	7261                	lui	tp,0xffff8
  1003aa:	2065                	jal	100452 <_etext+0xfa51a>
  1003ac:	68746977          	0x68746977
  1003b0:	7220                	flw	fs0,96(a2)
  1003b2:	7365                	lui	t1,0xffff9
  1003b4:	6c75                	lui	s8,0x1d
  1003b6:	7374                	flw	fa3,100(a4)
  1003b8:	6f20                	flw	fs0,88(a4)
  1003ba:	206e                	fld	ft0,216(sp)
  1003bc:	2061                	jal	100444 <_etext+0xfa50c>
  1003be:	776f6e6b          	0x776f6e6b
  1003c2:	206e                	fld	ft0,216(sp)
  1003c4:	6c70                	flw	fa2,92(s0)
  1003c6:	7461                	lui	s0,0xffff8
  1003c8:	6f66                	flw	ft10,88(sp)
  1003ca:	6d72                	flw	fs10,28(sp)
  1003cc:	0a2e                	slli	s4,s4,0xb
  1003ce:	0000                	unimp
  1003d0:	3035                	jal	ffbfc <_etext+0xf9cc4>
  1003d2:	3231                	jal	ffcde <_etext+0xf9da6>
  1003d4:	0000                	unimp
  1003d6:	0000                	unimp
  1003d8:	3231                	jal	ffce4 <_etext+0xf9dac>
  1003da:	00003433          	snez	s0,zero
  1003de:	0000                	unimp
  1003e0:	382d                	jal	ffc1a <_etext+0xf9ce2>
  1003e2:	00003437          	lui	s0,0x3
  1003e6:	0000                	unimp
  1003e8:	3232312b          	0x3232312b
  1003ec:	0000                	unimp
  1003ee:	0000                	unimp
  1003f0:	352e3533          	0x352e3533
  1003f4:	3434                	fld	fa3,104(s0)
  1003f6:	3030                	fld	fa2,96(s0)
  1003f8:	0000                	unimp
  1003fa:	0000                	unimp
  1003fc:	312e                	fld	ft2,232(sp)
  1003fe:	3332                	fld	ft6,296(sp)
  100400:	3534                	fld	fa3,104(a0)
  100402:	3030                	fld	fa2,96(s0)
  100404:	0000                	unimp
  100406:	0000                	unimp
  100408:	312d                	jal	100032 <_etext+0xfa0fa>
  10040a:	3031                	jal	ffc16 <_etext+0xf9cde>
  10040c:	372e                	fld	fa4,232(sp)
  10040e:	3030                	fld	fa2,96(s0)
  100410:	0000                	unimp
  100412:	0000                	unimp
  100414:	362e302b          	0x362e302b
  100418:	3434                	fld	fa3,104(s0)
  10041a:	3030                	fld	fa2,96(s0)
  10041c:	0000                	unimp
  10041e:	0000                	unimp
  100420:	2e35                	jal	10075c <prior+0x214>
  100422:	3035                	jal	ffc4e <_etext+0xf9d16>
  100424:	6530                	flw	fa2,72(a0)
  100426:	0000332b          	0x332b
  10042a:	0000                	unimp
  10042c:	2e2d                	jal	100766 <prior+0x21e>
  10042e:	3231                	jal	ffd3a <_etext+0xf9e02>
  100430:	322d6533          	0x322d6533
  100434:	0000                	unimp
  100436:	0000                	unimp
  100438:	382d                	jal	ffc72 <_etext+0xf9d3a>
  10043a:	382b6537          	lui	a0,0x382b6
  10043e:	00003233          	snez	tp,zero
  100442:	0000                	unimp
  100444:	362e302b          	0x362e302b
  100448:	2d65                	jal	100b00 <tokens+0x108>
  10044a:	3231                	jal	ffd56 <_etext+0xf9e1e>
  10044c:	0000                	unimp
  10044e:	0000                	unimp
  100450:	3054                	fld	fa3,160(s0)
  100452:	332e                	fld	ft6,232(sp)
  100454:	2d65                	jal	100b0c <tokens+0x114>
  100456:	4631                	li	a2,12
  100458:	0000                	unimp
  10045a:	0000                	unimp
  10045c:	542d                	li	s0,-21
  10045e:	542e                	lw	s0,232(sp)
  100460:	71542b2b          	0x71542b2b
  100464:	0000                	unimp
  100466:	0000                	unimp
  100468:	5431                	li	s0,-20
  10046a:	65342e33          	0x65342e33
  10046e:	7a34                	flw	fa3,112(a2)
  100470:	0000                	unimp
  100472:	0000                	unimp
  100474:	302e3433          	0x302e3433
  100478:	2d65                	jal	100b30 <tokens+0x138>
  10047a:	5e54                	lw	a3,60(a2)
  10047c:	0000                	unimp
  10047e:	0000                	unimp
  100480:	4558                	lw	a4,12(a0)
  100482:	fff0                	fsw	fa2,124(a5)
  100484:	4814                	lw	a3,16(s0)
  100486:	fff0                	fsw	fa2,124(a5)
  100488:	45e8                	lw	a0,76(a1)
  10048a:	fff0                	fsw	fa2,124(a5)
  10048c:	4734                	lw	a3,72(a4)
  10048e:	fff0                	fsw	fa2,124(a5)
  100490:	4668                	lw	a0,76(a2)
  100492:	fff0                	fsw	fa2,124(a5)
  100494:	46c8                	lw	a0,12(a3)
  100496:	fff0                	fsw	fa2,124(a5)
  100498:	478c                	lw	a1,8(a5)
  10049a:	fff0                	fsw	fa2,124(a5)
  10049c:	47e0                	lw	s0,76(a5)
  10049e:	fff0                	fsw	fa2,124(a5)
  1004a0:	4900                	lw	s0,16(a0)
  1004a2:	fff0                	fsw	fa2,124(a5)
  1004a4:	489c                	lw	a5,16(s1)
  1004a6:	fff0                	fsw	fa2,124(a5)
  1004a8:	48b0                	lw	a2,80(s1)
  1004aa:	fff0                	fsw	fa2,124(a5)
  1004ac:	48c4                	lw	s1,20(s1)
  1004ae:	fff0                	fsw	fa2,124(a5)
  1004b0:	48d8                	lw	a4,20(s1)
  1004b2:	fff0                	fsw	fa2,124(a5)
  1004b4:	48ec                	lw	a1,84(s1)
  1004b6:	fff0                	fsw	fa2,124(a5)
  1004b8:	5245                	li	tp,-15
  1004ba:	4f52                	lw	t5,20(sp)
  1004bc:	3a52                	fld	fs4,304(sp)
  1004be:	5020                	lw	s0,96(s0)
  1004c0:	656c                	flw	fa1,76(a0)
  1004c2:	7361                	lui	t1,0xffff8
  1004c4:	2065                	jal	10056c <prior+0x24>
  1004c6:	6f6d                	lui	t5,0x1b
  1004c8:	6964                	flw	fs1,84(a0)
  1004ca:	7966                	flw	fs2,120(sp)
  1004cc:	7420                	flw	fs0,104(s0)
  1004ce:	6568                	flw	fa0,76(a0)
  1004d0:	6420                	flw	fs0,72(s0)
  1004d2:	7461                	lui	s0,0xffff8
  1004d4:	7461                	lui	s0,0xffff8
  1004d6:	7079                	c.lui	zero,0xffffe
  1004d8:	7365                	lui	t1,0xffff9
  1004da:	6920                	flw	fs0,80(a0)
  1004dc:	206e                	fld	ft0,216(sp)
  1004de:	65726f63          	bltu	tp,s7,100b3c <tokens+0x144>
  1004e2:	705f 726f 6d74      	0x6d74726f705f
  1004e8:	2e65                	jal	1008a0 <prior+0x358>
  1004ea:	2168                	fld	fa0,192(a0)
  1004ec:	000a                	c.slli	zero,0x2
  1004ee:	0000                	unimp
  1004f0:	6365                	lui	t1,0x19
  1004f2:	6f68                	flw	fa0,92(a4)
  1004f4:	0000                	unimp
  1004f6:	0000                	unimp
  1004f8:	6966                	flw	fs2,88(sp)
  1004fa:	0062                	c.slli	zero,0x18
  1004fc:	7665                	lui	a2,0xffff9
  1004fe:	6c61                	lui	s8,0x18
  100500:	0000                	unimp
  100502:	0000                	unimp
  100504:	61656c63          	bltu	a0,s6,100b1c <tokens+0x124>
  100508:	0072                	c.slli	zero,0x1c
  10050a:	0000                	unimp
  10050c:	73657467          	0x73657467
  100510:	0074                	addi	a3,sp,12
  100512:	0000                	unimp
  100514:	7476                	flw	fs0,124(sp)
  100516:	7365                	lui	t1,0xffff9
  100518:	0074                	addi	a3,sp,12
  10051a:	0000                	unimp
  10051c:	6562                	flw	fa0,24(sp)
  10051e:	636e                	flw	ft6,216(sp)
  100520:	6d68                	flw	fa0,92(a0)
  100522:	7261                	lui	tp,0xffff8
  100524:	0000006b          	0x6b
  100528:	7325                	lui	t1,0xfffe9
  10052a:	203a                	fld	ft0,392(sp)
  10052c:	6d6d6f63          	bltu	s10,s6,100c0a <tokens+0x212>
  100530:	6e61                	lui	t3,0x18
  100532:	2064                	fld	fs1,192(s0)
  100534:	6f6e                	flw	ft10,216(sp)
  100536:	2074                	fld	fa3,192(s0)
  100538:	6f66                	flw	ft10,88(sp)
  10053a:	6e75                	lui	t3,0x1d
  10053c:	0a64                	addi	s1,sp,284
  10053e:	0000                	unimp
  100540:	794e                	flw	fs2,240(sp)
  100542:	6e61                	lui	t3,0x18
  100544:	003e                	c.slli	zero,0xf

Disassembly of section .data:

00100548 <prior>:
  100548:	0000                	unimp
  10054a:	0000                	unimp
  10054c:	0000                	unimp
  10054e:	0000                	unimp
  100550:	0000                	unimp
  100552:	0000                	unimp
  100554:	0000                	unimp
  100556:	0000                	unimp
  100558:	0000                	unimp
  10055a:	0000                	unimp
  10055c:	0000                	unimp
  10055e:	0000                	unimp
  100560:	0000                	unimp
  100562:	0000                	unimp
  100564:	0000                	unimp
  100566:	0000                	unimp
  100568:	0000                	unimp
  10056a:	0000                	unimp
  10056c:	0000                	unimp
  10056e:	0000                	unimp
  100570:	0000                	unimp
  100572:	0000                	unimp
  100574:	0000                	unimp
  100576:	0000                	unimp
  100578:	0000                	unimp
  10057a:	0000                	unimp
  10057c:	0000                	unimp
  10057e:	0000                	unimp
  100580:	0000                	unimp
  100582:	0000                	unimp
  100584:	0000                	unimp
  100586:	0000                	unimp
  100588:	0000                	unimp
  10058a:	0000                	unimp
  10058c:	0000                	unimp
  10058e:	0000                	unimp
  100590:	0000                	unimp
  100592:	0000                	unimp
  100594:	0000                	unimp
  100596:	0000                	unimp
  100598:	0000                	unimp
  10059a:	0000                	unimp
  10059c:	0000                	unimp
  10059e:	0000                	unimp
  1005a0:	0000                	unimp
  1005a2:	0000                	unimp
  1005a4:	0000                	unimp
  1005a6:	0000                	unimp
  1005a8:	0000                	unimp
  1005aa:	0000                	unimp
  1005ac:	0000                	unimp
  1005ae:	0000                	unimp
  1005b0:	0000                	unimp
  1005b2:	0000                	unimp
  1005b4:	0000                	unimp
  1005b6:	0000                	unimp
  1005b8:	0000                	unimp
  1005ba:	0000                	unimp
  1005bc:	0000                	unimp
  1005be:	0000                	unimp
  1005c0:	0000                	unimp
  1005c2:	0000                	unimp
  1005c4:	0000                	unimp
  1005c6:	0000                	unimp
  1005c8:	0000                	unimp
  1005ca:	0000                	unimp
  1005cc:	0000                	unimp
  1005ce:	0000                	unimp
  1005d0:	0000                	unimp
  1005d2:	0000                	unimp
  1005d4:	0000                	unimp
  1005d6:	0000                	unimp
  1005d8:	0000                	unimp
  1005da:	0000                	unimp
  1005dc:	0000                	unimp
  1005de:	0000                	unimp
  1005e0:	0000                	unimp
  1005e2:	0000                	unimp
  1005e4:	0000                	unimp
  1005e6:	0000                	unimp
  1005e8:	0000                	unimp
  1005ea:	0000                	unimp
  1005ec:	0000                	unimp
  1005ee:	0000                	unimp
  1005f0:	0004                	0x4
  1005f2:	0000                	unimp
  1005f4:	00000003          	lb	zero,0(zero) # 0 <entry>
  1005f8:	0000                	unimp
  1005fa:	0000                	unimp
  1005fc:	00000003          	lb	zero,0(zero) # 0 <entry>
  100600:	0000                	unimp
  100602:	0000                	unimp
  100604:	0004                	0x4
  100606:	0000                	unimp
  100608:	0000                	unimp
  10060a:	0000                	unimp
  10060c:	0000                	unimp
  10060e:	0000                	unimp
  100610:	0000                	unimp
  100612:	0000                	unimp
  100614:	0000                	unimp
  100616:	0000                	unimp
  100618:	0000                	unimp
  10061a:	0000                	unimp
  10061c:	0000                	unimp
  10061e:	0000                	unimp
  100620:	0000                	unimp
  100622:	0000                	unimp
  100624:	0000                	unimp
  100626:	0000                	unimp
  100628:	0000                	unimp
  10062a:	0000                	unimp
  10062c:	0000                	unimp
  10062e:	0000                	unimp
  100630:	0000                	unimp
  100632:	0000                	unimp
  100634:	0000                	unimp
  100636:	0000                	unimp
  100638:	0000                	unimp
  10063a:	0000                	unimp
  10063c:	0000                	unimp
  10063e:	0000                	unimp
  100640:	0000                	unimp
  100642:	0000                	unimp
  100644:	0000                	unimp
  100646:	0000                	unimp
  100648:	0000                	unimp
  10064a:	0000                	unimp
  10064c:	0000                	unimp
  10064e:	0000                	unimp
  100650:	0000                	unimp
  100652:	0000                	unimp
  100654:	0000                	unimp
  100656:	0000                	unimp
  100658:	0000                	unimp
  10065a:	0000                	unimp
  10065c:	0000                	unimp
  10065e:	0000                	unimp
  100660:	0000                	unimp
  100662:	0000                	unimp
  100664:	0000                	unimp
  100666:	0000                	unimp
  100668:	0000                	unimp
  10066a:	0000                	unimp
  10066c:	0000                	unimp
  10066e:	0000                	unimp
  100670:	0000                	unimp
  100672:	0000                	unimp
  100674:	0000                	unimp
  100676:	0000                	unimp
  100678:	0000                	unimp
  10067a:	0000                	unimp
  10067c:	0000                	unimp
  10067e:	0000                	unimp
  100680:	0000                	unimp
  100682:	0000                	unimp
  100684:	0000                	unimp
  100686:	0000                	unimp
  100688:	0000                	unimp
  10068a:	0000                	unimp
  10068c:	0000                	unimp
  10068e:	0000                	unimp
  100690:	0000                	unimp
  100692:	0000                	unimp
  100694:	0000                	unimp
  100696:	0000                	unimp
  100698:	0000                	unimp
  10069a:	0000                	unimp
  10069c:	0000                	unimp
  10069e:	0000                	unimp
  1006a0:	0000                	unimp
  1006a2:	0000                	unimp
  1006a4:	0000                	unimp
  1006a6:	0000                	unimp
  1006a8:	0000                	unimp
  1006aa:	0000                	unimp
  1006ac:	0000                	unimp
  1006ae:	0000                	unimp
  1006b0:	0000                	unimp
  1006b2:	0000                	unimp
  1006b4:	0000                	unimp
  1006b6:	0000                	unimp
  1006b8:	0000                	unimp
  1006ba:	0000                	unimp
  1006bc:	0000                	unimp
  1006be:	0000                	unimp
  1006c0:	0005                	c.nop	1
  1006c2:	0000                	unimp
  1006c4:	0000                	unimp
  1006c6:	0000                	unimp
  1006c8:	0000                	unimp
  1006ca:	0000                	unimp
  1006cc:	0000                	unimp
  1006ce:	0000                	unimp
  1006d0:	0000                	unimp
  1006d2:	0000                	unimp
  1006d4:	0000                	unimp
  1006d6:	0000                	unimp
  1006d8:	0000                	unimp
  1006da:	0000                	unimp
  1006dc:	0000                	unimp
  1006de:	0000                	unimp
  1006e0:	0000                	unimp
  1006e2:	0000                	unimp
  1006e4:	0000                	unimp
  1006e6:	0000                	unimp
  1006e8:	0000                	unimp
  1006ea:	0000                	unimp
  1006ec:	0000                	unimp
  1006ee:	0000                	unimp
  1006f0:	0000                	unimp
  1006f2:	0000                	unimp
  1006f4:	0000                	unimp
  1006f6:	0000                	unimp
  1006f8:	0000                	unimp
  1006fa:	0000                	unimp
  1006fc:	0000                	unimp
  1006fe:	0000                	unimp
  100700:	0000                	unimp
  100702:	0000                	unimp
  100704:	0000                	unimp
  100706:	0000                	unimp
  100708:	0000                	unimp
  10070a:	0000                	unimp
  10070c:	0000                	unimp
  10070e:	0000                	unimp
  100710:	0000                	unimp
  100712:	0000                	unimp
  100714:	0000                	unimp
  100716:	0000                	unimp
  100718:	0000                	unimp
  10071a:	0000                	unimp
  10071c:	0000                	unimp
  10071e:	0000                	unimp
  100720:	0000                	unimp
  100722:	0000                	unimp
  100724:	0000                	unimp
  100726:	0000                	unimp
  100728:	0000                	unimp
  10072a:	0000                	unimp
  10072c:	0000                	unimp
  10072e:	0000                	unimp
  100730:	0000                	unimp
  100732:	0000                	unimp
  100734:	0000                	unimp
  100736:	0000                	unimp
  100738:	0000                	unimp
  10073a:	0000                	unimp
  10073c:	0000                	unimp
  10073e:	0000                	unimp
  100740:	0000                	unimp
  100742:	0000                	unimp
  100744:	0000                	unimp
  100746:	0000                	unimp
  100748:	0000                	unimp
  10074a:	0000                	unimp
  10074c:	0000                	unimp
  10074e:	0000                	unimp
  100750:	0000                	unimp
  100752:	0000                	unimp
  100754:	0000                	unimp
  100756:	0000                	unimp
  100758:	0000                	unimp
  10075a:	0000                	unimp
  10075c:	0000                	unimp
  10075e:	0000                	unimp
  100760:	0000                	unimp
  100762:	0000                	unimp
  100764:	0000                	unimp
  100766:	0000                	unimp
  100768:	0000                	unimp
  10076a:	0000                	unimp
  10076c:	0000                	unimp
  10076e:	0000                	unimp
  100770:	0000                	unimp
  100772:	0000                	unimp
  100774:	0000                	unimp
  100776:	0000                	unimp
  100778:	0000                	unimp
  10077a:	0000                	unimp
  10077c:	0000                	unimp
  10077e:	0000                	unimp
  100780:	0000                	unimp
  100782:	0000                	unimp
  100784:	0000                	unimp
  100786:	0000                	unimp
  100788:	0000                	unimp
  10078a:	0000                	unimp
  10078c:	0000                	unimp
  10078e:	0000                	unimp
  100790:	0000                	unimp
  100792:	0000                	unimp
  100794:	0000                	unimp
  100796:	0000                	unimp
  100798:	0000                	unimp
  10079a:	0000                	unimp
  10079c:	0000                	unimp
  10079e:	0000                	unimp
  1007a0:	0000                	unimp
  1007a2:	0000                	unimp
  1007a4:	0000                	unimp
  1007a6:	0000                	unimp
  1007a8:	0000                	unimp
  1007aa:	0000                	unimp
  1007ac:	0000                	unimp
  1007ae:	0000                	unimp
  1007b0:	0000                	unimp
  1007b2:	0000                	unimp
  1007b4:	0000                	unimp
  1007b6:	0000                	unimp
  1007b8:	0000                	unimp
  1007ba:	0000                	unimp
  1007bc:	0000                	unimp
  1007be:	0000                	unimp
  1007c0:	0000                	unimp
  1007c2:	0000                	unimp
  1007c4:	0000                	unimp
  1007c6:	0000                	unimp
  1007c8:	0000                	unimp
  1007ca:	0000                	unimp
  1007cc:	0000                	unimp
  1007ce:	0000                	unimp
  1007d0:	0000                	unimp
  1007d2:	0000                	unimp
  1007d4:	0000                	unimp
  1007d6:	0000                	unimp
  1007d8:	0000                	unimp
  1007da:	0000                	unimp
  1007dc:	0000                	unimp
  1007de:	0000                	unimp
  1007e0:	0000                	unimp
  1007e2:	0000                	unimp
  1007e4:	0000                	unimp
  1007e6:	0000                	unimp
  1007e8:	0000                	unimp
  1007ea:	0000                	unimp
  1007ec:	0000                	unimp
  1007ee:	0000                	unimp
  1007f0:	0000                	unimp
  1007f2:	0000                	unimp
  1007f4:	0000                	unimp
  1007f6:	0000                	unimp
  1007f8:	0000                	unimp
  1007fa:	0000                	unimp
  1007fc:	0000                	unimp
  1007fe:	0000                	unimp
  100800:	0000                	unimp
  100802:	0000                	unimp
  100804:	0000                	unimp
  100806:	0000                	unimp
  100808:	0000                	unimp
  10080a:	0000                	unimp
  10080c:	0000                	unimp
  10080e:	0000                	unimp
  100810:	0000                	unimp
  100812:	0000                	unimp
  100814:	0000                	unimp
  100816:	0000                	unimp
  100818:	0000                	unimp
  10081a:	0000                	unimp
  10081c:	0000                	unimp
  10081e:	0000                	unimp
  100820:	0000                	unimp
  100822:	0000                	unimp
  100824:	0000                	unimp
  100826:	0000                	unimp
  100828:	0000                	unimp
  10082a:	0000                	unimp
  10082c:	0000                	unimp
  10082e:	0000                	unimp
  100830:	0000                	unimp
  100832:	0000                	unimp
  100834:	0000                	unimp
  100836:	0000                	unimp
  100838:	0000                	unimp
  10083a:	0000                	unimp
  10083c:	0000                	unimp
  10083e:	0000                	unimp
  100840:	0000                	unimp
  100842:	0000                	unimp
  100844:	0000                	unimp
  100846:	0000                	unimp
  100848:	0000                	unimp
  10084a:	0000                	unimp
  10084c:	0000                	unimp
  10084e:	0000                	unimp
  100850:	0000                	unimp
  100852:	0000                	unimp
  100854:	0000                	unimp
  100856:	0000                	unimp
  100858:	0000                	unimp
  10085a:	0000                	unimp
  10085c:	0000                	unimp
  10085e:	0000                	unimp
  100860:	0000                	unimp
  100862:	0000                	unimp
  100864:	0000                	unimp
  100866:	0000                	unimp
  100868:	0000                	unimp
  10086a:	0000                	unimp
  10086c:	0000                	unimp
  10086e:	0000                	unimp
  100870:	0000                	unimp
  100872:	0000                	unimp
  100874:	0000                	unimp
  100876:	0000                	unimp
  100878:	0000                	unimp
  10087a:	0000                	unimp
  10087c:	0000                	unimp
  10087e:	0000                	unimp
  100880:	0000                	unimp
  100882:	0000                	unimp
  100884:	0000                	unimp
  100886:	0000                	unimp
  100888:	0000                	unimp
  10088a:	0000                	unimp
  10088c:	0000                	unimp
  10088e:	0000                	unimp
  100890:	0000                	unimp
  100892:	0000                	unimp
  100894:	0000                	unimp
  100896:	0000                	unimp
  100898:	0000                	unimp
  10089a:	0000                	unimp
  10089c:	0000                	unimp
  10089e:	0000                	unimp
  1008a0:	0000                	unimp
  1008a2:	0000                	unimp
  1008a4:	0000                	unimp
  1008a6:	0000                	unimp
  1008a8:	0000                	unimp
  1008aa:	0000                	unimp
  1008ac:	0000                	unimp
  1008ae:	0000                	unimp
  1008b0:	0000                	unimp
  1008b2:	0000                	unimp
  1008b4:	0000                	unimp
  1008b6:	0000                	unimp
  1008b8:	0000                	unimp
  1008ba:	0000                	unimp
  1008bc:	0000                	unimp
  1008be:	0000                	unimp
  1008c0:	0000                	unimp
  1008c2:	0000                	unimp
  1008c4:	0000                	unimp
  1008c6:	0000                	unimp
  1008c8:	0000                	unimp
  1008ca:	0000                	unimp
  1008cc:	0000                	unimp
  1008ce:	0000                	unimp
  1008d0:	0000                	unimp
  1008d2:	0000                	unimp
  1008d4:	0000                	unimp
  1008d6:	0000                	unimp
  1008d8:	0000                	unimp
  1008da:	0000                	unimp
  1008dc:	0000                	unimp
  1008de:	0000                	unimp
  1008e0:	0000                	unimp
  1008e2:	0000                	unimp
  1008e4:	0000                	unimp
  1008e6:	0000                	unimp
  1008e8:	0000                	unimp
  1008ea:	0000                	unimp
  1008ec:	0000                	unimp
  1008ee:	0000                	unimp
  1008f0:	0000                	unimp
  1008f2:	0000                	unimp
  1008f4:	0000                	unimp
  1008f6:	0000                	unimp
  1008f8:	0000                	unimp
  1008fa:	0000                	unimp
  1008fc:	0000                	unimp
  1008fe:	0000                	unimp
  100900:	0000                	unimp
  100902:	0000                	unimp
  100904:	0000                	unimp
  100906:	0000                	unimp
  100908:	0000                	unimp
  10090a:	0000                	unimp
  10090c:	0000                	unimp
  10090e:	0000                	unimp
  100910:	0000                	unimp
  100912:	0000                	unimp
  100914:	0000                	unimp
  100916:	0000                	unimp
  100918:	0000                	unimp
  10091a:	0000                	unimp
  10091c:	0000                	unimp
  10091e:	0000                	unimp
  100920:	0000                	unimp
  100922:	0000                	unimp
  100924:	0000                	unimp
  100926:	0000                	unimp
  100928:	0000                	unimp
  10092a:	0000                	unimp
  10092c:	0000                	unimp
  10092e:	0000                	unimp
  100930:	0000                	unimp
  100932:	0000                	unimp
  100934:	0000                	unimp
  100936:	0000                	unimp
  100938:	0000                	unimp
  10093a:	0000                	unimp
  10093c:	0000                	unimp
  10093e:	0000                	unimp
  100940:	0000                	unimp
  100942:	0000                	unimp
  100944:	0000                	unimp
  100946:	0000                	unimp

00100948 <dx.1>:
  100948:	0000                	unimp
  10094a:	0000                	unimp
  10094c:	0001                	nop
  10094e:	0000                	unimp
  100950:	0000                	unimp
  100952:	0000                	unimp
  100954:	ffff                	0xffff
  100956:	ffff                	0xffff

00100958 <dy.0>:
  100958:	0001                	nop
  10095a:	0000                	unimp
  10095c:	0000                	unimp
  10095e:	0000                	unimp
  100960:	ffff                	0xffff
  100962:	ffff                	0xffff
  100964:	0000                	unimp
  100966:	0000                	unimp

00100968 <list_known_crc>:
  100968:	d4b0                	sw	a2,104(s1)
  10096a:	3340                	fld	fs0,160(a4)
  10096c:	6a79                	lui	s4,0x1e
  10096e:	e714                	fsw	fa3,8(a4)
  100970:	e3c1                	bnez	a5,1009f0 <start_line>
  100972:	0000                	unimp

00100974 <matrix_known_crc>:
  100974:	be52                	fsd	fs4,312(sp)
  100976:	1199                	addi	gp,gp,-26
  100978:	5608                	lw	a0,40(a2)
  10097a:	07471fd7          	0x7471fd7
  10097e:	0000                	unimp

00100980 <state_known_crc>:
  100980:	39bf5e47          	fmsub.s	ft8,ft10,fs11,ft7,unknown
  100984:	e5a4                	fsw	fs1,72(a1)
  100986:	8e3a                	mv	t3,a4
  100988:	8d84                	0x8d84
  10098a:	0000                	unimp

0010098c <mem_name>:
  10098c:	0004                	0x4
  10098e:	0010                	0x10
  100990:	000c                	0xc
  100992:	0010                	0x10
  100994:	0014                	0x14
  100996:	0010                	0x10

00100998 <intpat>:
  100998:	03d0                	addi	a2,sp,452
  10099a:	0010                	0x10
  10099c:	03d8                	addi	a4,sp,452
  10099e:	0010                	0x10
  1009a0:	03e0                	addi	s0,sp,460
  1009a2:	0010                	0x10
  1009a4:	03e8                	addi	a0,sp,460
  1009a6:	0010                	0x10

001009a8 <floatpat>:
  1009a8:	03f0                	addi	a2,sp,460
  1009aa:	0010                	0x10
  1009ac:	03fc                	addi	a5,sp,460
  1009ae:	0010                	0x10
  1009b0:	0408                	addi	a0,sp,512
  1009b2:	0010                	0x10
  1009b4:	0414                	addi	a3,sp,512
  1009b6:	0010                	0x10

001009b8 <scipat>:
  1009b8:	0420                	addi	s0,sp,520
  1009ba:	0010                	0x10
  1009bc:	042c                	addi	a1,sp,520
  1009be:	0010                	0x10
  1009c0:	0438                	addi	a4,sp,520
  1009c2:	0010                	0x10
  1009c4:	0444                	addi	s1,sp,516
  1009c6:	0010                	0x10

001009c8 <errpat>:
  1009c8:	0450                	addi	a2,sp,516
  1009ca:	0010                	0x10
  1009cc:	045c                	addi	a5,sp,516
  1009ce:	0010                	0x10
  1009d0:	0468                	addi	a0,sp,524
  1009d2:	0010                	0x10
  1009d4:	0474                	addi	a3,sp,524
  1009d6:	0010                	0x10

Disassembly of section .sdata:

001009d8 <seed3_volatile>:
  1009d8:	0066                	c.slli	zero,0x19
  1009da:	0000                	unimp

001009dc <seed4_volatile>:
  1009dc:	03e8                	addi	a0,sp,460
  1009de:	0000                	unimp

001009e0 <default_num_contexts>:
  1009e0:	0001                	nop
  1009e2:	0000                	unimp

001009e4 <time>:
  1009e4:	0000                	unimp
  1009e6:	0040                	addi	s0,sp,4

001009e8 <gmem>:
  1009e8:	0000                	unimp
  1009ea:	0060                	addi	s0,sp,12

001009ec <vga_start>:
  1009ec:	0000                	unimp
  1009ee:	0020                	addi	s0,sp,8

001009f0 <start_line>:
  1009f0:	0000                	unimp
  1009f2:	0050                	addi	a2,sp,4

001009f4 <key>:
  1009f4:	0000                	unimp
  1009f6:	0030                	addi	a2,sp,8

Disassembly of section .bss:

001009f8 <tokens>:
  1009f8:	0000                	unimp
  1009fa:	0000                	unimp
  1009fc:	0000                	unimp
  1009fe:	0000                	unimp
  100a00:	0000                	unimp
  100a02:	0000                	unimp
  100a04:	0000                	unimp
  100a06:	0000                	unimp
  100a08:	0000                	unimp
  100a0a:	0000                	unimp
  100a0c:	0000                	unimp
  100a0e:	0000                	unimp
  100a10:	0000                	unimp
  100a12:	0000                	unimp
  100a14:	0000                	unimp
  100a16:	0000                	unimp
  100a18:	0000                	unimp
  100a1a:	0000                	unimp
  100a1c:	0000                	unimp
  100a1e:	0000                	unimp
  100a20:	0000                	unimp
  100a22:	0000                	unimp
  100a24:	0000                	unimp
  100a26:	0000                	unimp
  100a28:	0000                	unimp
  100a2a:	0000                	unimp
  100a2c:	0000                	unimp
  100a2e:	0000                	unimp
  100a30:	0000                	unimp
  100a32:	0000                	unimp
  100a34:	0000                	unimp
  100a36:	0000                	unimp
  100a38:	0000                	unimp
  100a3a:	0000                	unimp
  100a3c:	0000                	unimp
  100a3e:	0000                	unimp
  100a40:	0000                	unimp
  100a42:	0000                	unimp
  100a44:	0000                	unimp
  100a46:	0000                	unimp
  100a48:	0000                	unimp
  100a4a:	0000                	unimp
  100a4c:	0000                	unimp
  100a4e:	0000                	unimp
  100a50:	0000                	unimp
  100a52:	0000                	unimp
  100a54:	0000                	unimp
  100a56:	0000                	unimp
  100a58:	0000                	unimp
  100a5a:	0000                	unimp
  100a5c:	0000                	unimp
  100a5e:	0000                	unimp
  100a60:	0000                	unimp
  100a62:	0000                	unimp
  100a64:	0000                	unimp
  100a66:	0000                	unimp
  100a68:	0000                	unimp
  100a6a:	0000                	unimp
  100a6c:	0000                	unimp
  100a6e:	0000                	unimp
  100a70:	0000                	unimp
  100a72:	0000                	unimp
  100a74:	0000                	unimp
  100a76:	0000                	unimp
  100a78:	0000                	unimp
  100a7a:	0000                	unimp
  100a7c:	0000                	unimp
  100a7e:	0000                	unimp
  100a80:	0000                	unimp
  100a82:	0000                	unimp
  100a84:	0000                	unimp
  100a86:	0000                	unimp
  100a88:	0000                	unimp
  100a8a:	0000                	unimp
  100a8c:	0000                	unimp
  100a8e:	0000                	unimp
  100a90:	0000                	unimp
  100a92:	0000                	unimp
  100a94:	0000                	unimp
  100a96:	0000                	unimp
  100a98:	0000                	unimp
  100a9a:	0000                	unimp
  100a9c:	0000                	unimp
  100a9e:	0000                	unimp
  100aa0:	0000                	unimp
  100aa2:	0000                	unimp
  100aa4:	0000                	unimp
  100aa6:	0000                	unimp
  100aa8:	0000                	unimp
  100aaa:	0000                	unimp
  100aac:	0000                	unimp
  100aae:	0000                	unimp
  100ab0:	0000                	unimp
  100ab2:	0000                	unimp
  100ab4:	0000                	unimp
  100ab6:	0000                	unimp
  100ab8:	0000                	unimp
  100aba:	0000                	unimp
  100abc:	0000                	unimp
  100abe:	0000                	unimp
  100ac0:	0000                	unimp
  100ac2:	0000                	unimp
  100ac4:	0000                	unimp
  100ac6:	0000                	unimp
  100ac8:	0000                	unimp
  100aca:	0000                	unimp
  100acc:	0000                	unimp
  100ace:	0000                	unimp
  100ad0:	0000                	unimp
  100ad2:	0000                	unimp
  100ad4:	0000                	unimp
  100ad6:	0000                	unimp
  100ad8:	0000                	unimp
  100ada:	0000                	unimp
  100adc:	0000                	unimp
  100ade:	0000                	unimp
  100ae0:	0000                	unimp
  100ae2:	0000                	unimp
  100ae4:	0000                	unimp
  100ae6:	0000                	unimp
  100ae8:	0000                	unimp
  100aea:	0000                	unimp
  100aec:	0000                	unimp
  100aee:	0000                	unimp
  100af0:	0000                	unimp
  100af2:	0000                	unimp
  100af4:	0000                	unimp
  100af6:	0000                	unimp
  100af8:	0000                	unimp
  100afa:	0000                	unimp
  100afc:	0000                	unimp
  100afe:	0000                	unimp
  100b00:	0000                	unimp
  100b02:	0000                	unimp
  100b04:	0000                	unimp
  100b06:	0000                	unimp
  100b08:	0000                	unimp
  100b0a:	0000                	unimp
  100b0c:	0000                	unimp
  100b0e:	0000                	unimp
  100b10:	0000                	unimp
  100b12:	0000                	unimp
  100b14:	0000                	unimp
  100b16:	0000                	unimp
  100b18:	0000                	unimp
  100b1a:	0000                	unimp
  100b1c:	0000                	unimp
  100b1e:	0000                	unimp
  100b20:	0000                	unimp
  100b22:	0000                	unimp
  100b24:	0000                	unimp
  100b26:	0000                	unimp
  100b28:	0000                	unimp
  100b2a:	0000                	unimp
  100b2c:	0000                	unimp
  100b2e:	0000                	unimp
  100b30:	0000                	unimp
  100b32:	0000                	unimp
  100b34:	0000                	unimp
  100b36:	0000                	unimp
  100b38:	0000                	unimp
  100b3a:	0000                	unimp
  100b3c:	0000                	unimp
  100b3e:	0000                	unimp
  100b40:	0000                	unimp
  100b42:	0000                	unimp
  100b44:	0000                	unimp
  100b46:	0000                	unimp
  100b48:	0000                	unimp
  100b4a:	0000                	unimp
  100b4c:	0000                	unimp
  100b4e:	0000                	unimp
  100b50:	0000                	unimp
  100b52:	0000                	unimp
  100b54:	0000                	unimp
  100b56:	0000                	unimp
  100b58:	0000                	unimp
  100b5a:	0000                	unimp
  100b5c:	0000                	unimp
  100b5e:	0000                	unimp
  100b60:	0000                	unimp
  100b62:	0000                	unimp
  100b64:	0000                	unimp
  100b66:	0000                	unimp
  100b68:	0000                	unimp
  100b6a:	0000                	unimp
  100b6c:	0000                	unimp
  100b6e:	0000                	unimp
  100b70:	0000                	unimp
  100b72:	0000                	unimp
  100b74:	0000                	unimp
  100b76:	0000                	unimp
  100b78:	0000                	unimp
  100b7a:	0000                	unimp
  100b7c:	0000                	unimp
  100b7e:	0000                	unimp
  100b80:	0000                	unimp
  100b82:	0000                	unimp
  100b84:	0000                	unimp
  100b86:	0000                	unimp
  100b88:	0000                	unimp
  100b8a:	0000                	unimp
  100b8c:	0000                	unimp
  100b8e:	0000                	unimp
  100b90:	0000                	unimp
  100b92:	0000                	unimp
  100b94:	0000                	unimp
  100b96:	0000                	unimp
  100b98:	0000                	unimp
  100b9a:	0000                	unimp
  100b9c:	0000                	unimp
  100b9e:	0000                	unimp
  100ba0:	0000                	unimp
  100ba2:	0000                	unimp
  100ba4:	0000                	unimp
  100ba6:	0000                	unimp
  100ba8:	0000                	unimp
  100baa:	0000                	unimp
  100bac:	0000                	unimp
  100bae:	0000                	unimp
  100bb0:	0000                	unimp
  100bb2:	0000                	unimp
  100bb4:	0000                	unimp
  100bb6:	0000                	unimp
  100bb8:	0000                	unimp
  100bba:	0000                	unimp
  100bbc:	0000                	unimp
  100bbe:	0000                	unimp
  100bc0:	0000                	unimp
  100bc2:	0000                	unimp
  100bc4:	0000                	unimp
  100bc6:	0000                	unimp
  100bc8:	0000                	unimp
  100bca:	0000                	unimp
  100bcc:	0000                	unimp
  100bce:	0000                	unimp
  100bd0:	0000                	unimp
  100bd2:	0000                	unimp
  100bd4:	0000                	unimp
  100bd6:	0000                	unimp
  100bd8:	0000                	unimp
  100bda:	0000                	unimp
  100bdc:	0000                	unimp
  100bde:	0000                	unimp
  100be0:	0000                	unimp
  100be2:	0000                	unimp
  100be4:	0000                	unimp
  100be6:	0000                	unimp
  100be8:	0000                	unimp
  100bea:	0000                	unimp
  100bec:	0000                	unimp
  100bee:	0000                	unimp
  100bf0:	0000                	unimp
  100bf2:	0000                	unimp
  100bf4:	0000                	unimp
  100bf6:	0000                	unimp
  100bf8:	0000                	unimp
  100bfa:	0000                	unimp
  100bfc:	0000                	unimp
  100bfe:	0000                	unimp
  100c00:	0000                	unimp
  100c02:	0000                	unimp
  100c04:	0000                	unimp
  100c06:	0000                	unimp
  100c08:	0000                	unimp
  100c0a:	0000                	unimp
  100c0c:	0000                	unimp
  100c0e:	0000                	unimp
  100c10:	0000                	unimp
  100c12:	0000                	unimp
  100c14:	0000                	unimp
  100c16:	0000                	unimp
  100c18:	0000                	unimp
  100c1a:	0000                	unimp
  100c1c:	0000                	unimp
  100c1e:	0000                	unimp
  100c20:	0000                	unimp
  100c22:	0000                	unimp
  100c24:	0000                	unimp
  100c26:	0000                	unimp
  100c28:	0000                	unimp
  100c2a:	0000                	unimp
  100c2c:	0000                	unimp
  100c2e:	0000                	unimp
  100c30:	0000                	unimp
  100c32:	0000                	unimp
  100c34:	0000                	unimp
  100c36:	0000                	unimp
  100c38:	0000                	unimp
  100c3a:	0000                	unimp
  100c3c:	0000                	unimp
  100c3e:	0000                	unimp
  100c40:	0000                	unimp
  100c42:	0000                	unimp
  100c44:	0000                	unimp
  100c46:	0000                	unimp
  100c48:	0000                	unimp
  100c4a:	0000                	unimp
  100c4c:	0000                	unimp
  100c4e:	0000                	unimp
  100c50:	0000                	unimp
  100c52:	0000                	unimp
  100c54:	0000                	unimp
  100c56:	0000                	unimp
  100c58:	0000                	unimp
  100c5a:	0000                	unimp
  100c5c:	0000                	unimp
  100c5e:	0000                	unimp
  100c60:	0000                	unimp
  100c62:	0000                	unimp
  100c64:	0000                	unimp
  100c66:	0000                	unimp
  100c68:	0000                	unimp
  100c6a:	0000                	unimp
  100c6c:	0000                	unimp
  100c6e:	0000                	unimp
  100c70:	0000                	unimp
  100c72:	0000                	unimp
  100c74:	0000                	unimp
  100c76:	0000                	unimp
  100c78:	0000                	unimp
  100c7a:	0000                	unimp
  100c7c:	0000                	unimp
  100c7e:	0000                	unimp
  100c80:	0000                	unimp
  100c82:	0000                	unimp
  100c84:	0000                	unimp
  100c86:	0000                	unimp
  100c88:	0000                	unimp
  100c8a:	0000                	unimp
  100c8c:	0000                	unimp
  100c8e:	0000                	unimp
  100c90:	0000                	unimp
  100c92:	0000                	unimp
  100c94:	0000                	unimp
  100c96:	0000                	unimp
  100c98:	0000                	unimp
  100c9a:	0000                	unimp
  100c9c:	0000                	unimp
  100c9e:	0000                	unimp
  100ca0:	0000                	unimp
  100ca2:	0000                	unimp
  100ca4:	0000                	unimp
  100ca6:	0000                	unimp
  100ca8:	0000                	unimp
  100caa:	0000                	unimp
  100cac:	0000                	unimp
  100cae:	0000                	unimp
  100cb0:	0000                	unimp
  100cb2:	0000                	unimp
  100cb4:	0000                	unimp
  100cb6:	0000                	unimp
  100cb8:	0000                	unimp
  100cba:	0000                	unimp
  100cbc:	0000                	unimp
  100cbe:	0000                	unimp
  100cc0:	0000                	unimp
  100cc2:	0000                	unimp
  100cc4:	0000                	unimp
  100cc6:	0000                	unimp
  100cc8:	0000                	unimp
  100cca:	0000                	unimp
  100ccc:	0000                	unimp
  100cce:	0000                	unimp
  100cd0:	0000                	unimp
  100cd2:	0000                	unimp
  100cd4:	0000                	unimp
  100cd6:	0000                	unimp
  100cd8:	0000                	unimp
  100cda:	0000                	unimp
  100cdc:	0000                	unimp
  100cde:	0000                	unimp
  100ce0:	0000                	unimp
  100ce2:	0000                	unimp
  100ce4:	0000                	unimp
  100ce6:	0000                	unimp
  100ce8:	0000                	unimp
  100cea:	0000                	unimp
  100cec:	0000                	unimp
  100cee:	0000                	unimp
  100cf0:	0000                	unimp
  100cf2:	0000                	unimp
  100cf4:	0000                	unimp
  100cf6:	0000                	unimp
  100cf8:	0000                	unimp
  100cfa:	0000                	unimp
  100cfc:	0000                	unimp
  100cfe:	0000                	unimp
  100d00:	0000                	unimp
  100d02:	0000                	unimp
  100d04:	0000                	unimp
  100d06:	0000                	unimp
  100d08:	0000                	unimp
  100d0a:	0000                	unimp
  100d0c:	0000                	unimp
  100d0e:	0000                	unimp
  100d10:	0000                	unimp
  100d12:	0000                	unimp
  100d14:	0000                	unimp
  100d16:	0000                	unimp
  100d18:	0000                	unimp
  100d1a:	0000                	unimp
  100d1c:	0000                	unimp
  100d1e:	0000                	unimp
  100d20:	0000                	unimp
  100d22:	0000                	unimp
  100d24:	0000                	unimp
  100d26:	0000                	unimp
  100d28:	0000                	unimp
  100d2a:	0000                	unimp
  100d2c:	0000                	unimp
  100d2e:	0000                	unimp
  100d30:	0000                	unimp
  100d32:	0000                	unimp
  100d34:	0000                	unimp
  100d36:	0000                	unimp
  100d38:	0000                	unimp
  100d3a:	0000                	unimp
  100d3c:	0000                	unimp
  100d3e:	0000                	unimp
  100d40:	0000                	unimp
  100d42:	0000                	unimp
  100d44:	0000                	unimp
  100d46:	0000                	unimp
  100d48:	0000                	unimp
  100d4a:	0000                	unimp
  100d4c:	0000                	unimp
  100d4e:	0000                	unimp
  100d50:	0000                	unimp
  100d52:	0000                	unimp
  100d54:	0000                	unimp
  100d56:	0000                	unimp
  100d58:	0000                	unimp
  100d5a:	0000                	unimp
  100d5c:	0000                	unimp
  100d5e:	0000                	unimp
  100d60:	0000                	unimp
  100d62:	0000                	unimp
  100d64:	0000                	unimp
  100d66:	0000                	unimp
  100d68:	0000                	unimp
  100d6a:	0000                	unimp
  100d6c:	0000                	unimp
  100d6e:	0000                	unimp
  100d70:	0000                	unimp
  100d72:	0000                	unimp
  100d74:	0000                	unimp
  100d76:	0000                	unimp
  100d78:	0000                	unimp
  100d7a:	0000                	unimp
  100d7c:	0000                	unimp
  100d7e:	0000                	unimp
  100d80:	0000                	unimp
  100d82:	0000                	unimp
  100d84:	0000                	unimp
  100d86:	0000                	unimp
  100d88:	0000                	unimp
  100d8a:	0000                	unimp
  100d8c:	0000                	unimp
  100d8e:	0000                	unimp
  100d90:	0000                	unimp
  100d92:	0000                	unimp
  100d94:	0000                	unimp
  100d96:	0000                	unimp
  100d98:	0000                	unimp
  100d9a:	0000                	unimp
  100d9c:	0000                	unimp
  100d9e:	0000                	unimp
  100da0:	0000                	unimp
  100da2:	0000                	unimp
  100da4:	0000                	unimp
  100da6:	0000                	unimp
  100da8:	0000                	unimp
  100daa:	0000                	unimp
  100dac:	0000                	unimp
  100dae:	0000                	unimp
  100db0:	0000                	unimp
  100db2:	0000                	unimp
  100db4:	0000                	unimp
  100db6:	0000                	unimp
  100db8:	0000                	unimp
  100dba:	0000                	unimp
  100dbc:	0000                	unimp
  100dbe:	0000                	unimp
  100dc0:	0000                	unimp
  100dc2:	0000                	unimp
  100dc4:	0000                	unimp
  100dc6:	0000                	unimp
  100dc8:	0000                	unimp
  100dca:	0000                	unimp
  100dcc:	0000                	unimp
  100dce:	0000                	unimp
  100dd0:	0000                	unimp
  100dd2:	0000                	unimp
  100dd4:	0000                	unimp
  100dd6:	0000                	unimp
  100dd8:	0000                	unimp
  100dda:	0000                	unimp
  100ddc:	0000                	unimp
  100dde:	0000                	unimp
  100de0:	0000                	unimp
  100de2:	0000                	unimp
  100de4:	0000                	unimp
  100de6:	0000                	unimp
  100de8:	0000                	unimp
  100dea:	0000                	unimp
  100dec:	0000                	unimp
  100dee:	0000                	unimp
  100df0:	0000                	unimp
  100df2:	0000                	unimp
  100df4:	0000                	unimp
  100df6:	0000                	unimp
  100df8:	0000                	unimp
  100dfa:	0000                	unimp
  100dfc:	0000                	unimp
  100dfe:	0000                	unimp
  100e00:	0000                	unimp
  100e02:	0000                	unimp
  100e04:	0000                	unimp
  100e06:	0000                	unimp
  100e08:	0000                	unimp
  100e0a:	0000                	unimp
  100e0c:	0000                	unimp
  100e0e:	0000                	unimp
  100e10:	0000                	unimp
  100e12:	0000                	unimp
  100e14:	0000                	unimp
  100e16:	0000                	unimp
  100e18:	0000                	unimp
  100e1a:	0000                	unimp
  100e1c:	0000                	unimp
  100e1e:	0000                	unimp
  100e20:	0000                	unimp
  100e22:	0000                	unimp
  100e24:	0000                	unimp
  100e26:	0000                	unimp
  100e28:	0000                	unimp
  100e2a:	0000                	unimp
  100e2c:	0000                	unimp
  100e2e:	0000                	unimp
  100e30:	0000                	unimp
  100e32:	0000                	unimp
  100e34:	0000                	unimp
  100e36:	0000                	unimp
  100e38:	0000                	unimp
  100e3a:	0000                	unimp
  100e3c:	0000                	unimp
  100e3e:	0000                	unimp
  100e40:	0000                	unimp
  100e42:	0000                	unimp
  100e44:	0000                	unimp
  100e46:	0000                	unimp
  100e48:	0000                	unimp
  100e4a:	0000                	unimp
  100e4c:	0000                	unimp
  100e4e:	0000                	unimp
  100e50:	0000                	unimp
  100e52:	0000                	unimp
  100e54:	0000                	unimp
  100e56:	0000                	unimp
  100e58:	0000                	unimp
  100e5a:	0000                	unimp
  100e5c:	0000                	unimp
  100e5e:	0000                	unimp
  100e60:	0000                	unimp
  100e62:	0000                	unimp
  100e64:	0000                	unimp
  100e66:	0000                	unimp
  100e68:	0000                	unimp
  100e6a:	0000                	unimp
  100e6c:	0000                	unimp
  100e6e:	0000                	unimp
  100e70:	0000                	unimp
  100e72:	0000                	unimp
  100e74:	0000                	unimp
  100e76:	0000                	unimp
  100e78:	0000                	unimp
  100e7a:	0000                	unimp
  100e7c:	0000                	unimp
  100e7e:	0000                	unimp
  100e80:	0000                	unimp
  100e82:	0000                	unimp
  100e84:	0000                	unimp
  100e86:	0000                	unimp
  100e88:	0000                	unimp
  100e8a:	0000                	unimp
  100e8c:	0000                	unimp
  100e8e:	0000                	unimp
  100e90:	0000                	unimp
  100e92:	0000                	unimp
  100e94:	0000                	unimp
  100e96:	0000                	unimp
  100e98:	0000                	unimp
  100e9a:	0000                	unimp
  100e9c:	0000                	unimp
  100e9e:	0000                	unimp
  100ea0:	0000                	unimp
  100ea2:	0000                	unimp
  100ea4:	0000                	unimp
  100ea6:	0000                	unimp
  100ea8:	0000                	unimp
  100eaa:	0000                	unimp
  100eac:	0000                	unimp
  100eae:	0000                	unimp
  100eb0:	0000                	unimp
  100eb2:	0000                	unimp
  100eb4:	0000                	unimp
  100eb6:	0000                	unimp
  100eb8:	0000                	unimp
  100eba:	0000                	unimp
  100ebc:	0000                	unimp
  100ebe:	0000                	unimp
  100ec0:	0000                	unimp
  100ec2:	0000                	unimp
  100ec4:	0000                	unimp
  100ec6:	0000                	unimp
  100ec8:	0000                	unimp
  100eca:	0000                	unimp
  100ecc:	0000                	unimp
  100ece:	0000                	unimp
  100ed0:	0000                	unimp
  100ed2:	0000                	unimp
  100ed4:	0000                	unimp
  100ed6:	0000                	unimp
  100ed8:	0000                	unimp
  100eda:	0000                	unimp
  100edc:	0000                	unimp
  100ede:	0000                	unimp
  100ee0:	0000                	unimp
  100ee2:	0000                	unimp
  100ee4:	0000                	unimp
  100ee6:	0000                	unimp
  100ee8:	0000                	unimp
  100eea:	0000                	unimp
  100eec:	0000                	unimp
  100eee:	0000                	unimp
  100ef0:	0000                	unimp
  100ef2:	0000                	unimp
  100ef4:	0000                	unimp
  100ef6:	0000                	unimp
  100ef8:	0000                	unimp
  100efa:	0000                	unimp
  100efc:	0000                	unimp
  100efe:	0000                	unimp
  100f00:	0000                	unimp
  100f02:	0000                	unimp
  100f04:	0000                	unimp
  100f06:	0000                	unimp
  100f08:	0000                	unimp
  100f0a:	0000                	unimp
  100f0c:	0000                	unimp
  100f0e:	0000                	unimp
  100f10:	0000                	unimp
  100f12:	0000                	unimp
  100f14:	0000                	unimp
  100f16:	0000                	unimp
  100f18:	0000                	unimp
  100f1a:	0000                	unimp
  100f1c:	0000                	unimp
  100f1e:	0000                	unimp
  100f20:	0000                	unimp
  100f22:	0000                	unimp
  100f24:	0000                	unimp
  100f26:	0000                	unimp
  100f28:	0000                	unimp
  100f2a:	0000                	unimp
  100f2c:	0000                	unimp
  100f2e:	0000                	unimp
  100f30:	0000                	unimp
  100f32:	0000                	unimp
  100f34:	0000                	unimp
  100f36:	0000                	unimp
  100f38:	0000                	unimp
  100f3a:	0000                	unimp
  100f3c:	0000                	unimp
  100f3e:	0000                	unimp
  100f40:	0000                	unimp
  100f42:	0000                	unimp
  100f44:	0000                	unimp
  100f46:	0000                	unimp
  100f48:	0000                	unimp
  100f4a:	0000                	unimp
  100f4c:	0000                	unimp
  100f4e:	0000                	unimp
  100f50:	0000                	unimp
  100f52:	0000                	unimp
  100f54:	0000                	unimp
  100f56:	0000                	unimp
  100f58:	0000                	unimp
  100f5a:	0000                	unimp
  100f5c:	0000                	unimp
  100f5e:	0000                	unimp
  100f60:	0000                	unimp
  100f62:	0000                	unimp
  100f64:	0000                	unimp
  100f66:	0000                	unimp
  100f68:	0000                	unimp
  100f6a:	0000                	unimp
  100f6c:	0000                	unimp
  100f6e:	0000                	unimp
  100f70:	0000                	unimp
  100f72:	0000                	unimp
  100f74:	0000                	unimp
  100f76:	0000                	unimp
  100f78:	0000                	unimp
  100f7a:	0000                	unimp
  100f7c:	0000                	unimp
  100f7e:	0000                	unimp
  100f80:	0000                	unimp
  100f82:	0000                	unimp
  100f84:	0000                	unimp
  100f86:	0000                	unimp
  100f88:	0000                	unimp
  100f8a:	0000                	unimp
  100f8c:	0000                	unimp
  100f8e:	0000                	unimp
  100f90:	0000                	unimp
  100f92:	0000                	unimp
  100f94:	0000                	unimp
  100f96:	0000                	unimp
  100f98:	0000                	unimp
  100f9a:	0000                	unimp
  100f9c:	0000                	unimp
  100f9e:	0000                	unimp
  100fa0:	0000                	unimp
  100fa2:	0000                	unimp
  100fa4:	0000                	unimp
  100fa6:	0000                	unimp
  100fa8:	0000                	unimp
  100faa:	0000                	unimp
  100fac:	0000                	unimp
  100fae:	0000                	unimp
  100fb0:	0000                	unimp
  100fb2:	0000                	unimp
  100fb4:	0000                	unimp
  100fb6:	0000                	unimp
  100fb8:	0000                	unimp
  100fba:	0000                	unimp
  100fbc:	0000                	unimp
  100fbe:	0000                	unimp
  100fc0:	0000                	unimp
  100fc2:	0000                	unimp
  100fc4:	0000                	unimp
  100fc6:	0000                	unimp
  100fc8:	0000                	unimp
  100fca:	0000                	unimp
  100fcc:	0000                	unimp
  100fce:	0000                	unimp
  100fd0:	0000                	unimp
  100fd2:	0000                	unimp
  100fd4:	0000                	unimp
  100fd6:	0000                	unimp
  100fd8:	0000                	unimp
  100fda:	0000                	unimp
  100fdc:	0000                	unimp
  100fde:	0000                	unimp
  100fe0:	0000                	unimp
  100fe2:	0000                	unimp
  100fe4:	0000                	unimp
  100fe6:	0000                	unimp
  100fe8:	0000                	unimp
  100fea:	0000                	unimp
  100fec:	0000                	unimp
  100fee:	0000                	unimp
  100ff0:	0000                	unimp
  100ff2:	0000                	unimp
  100ff4:	0000                	unimp
  100ff6:	0000                	unimp
  100ff8:	0000                	unimp
  100ffa:	0000                	unimp
  100ffc:	0000                	unimp
  100ffe:	0000                	unimp
  101000:	0000                	unimp
  101002:	0000                	unimp
  101004:	0000                	unimp
  101006:	0000                	unimp
  101008:	0000                	unimp
  10100a:	0000                	unimp
  10100c:	0000                	unimp
  10100e:	0000                	unimp
  101010:	0000                	unimp
  101012:	0000                	unimp
  101014:	0000                	unimp
  101016:	0000                	unimp
  101018:	0000                	unimp
  10101a:	0000                	unimp
  10101c:	0000                	unimp
  10101e:	0000                	unimp
  101020:	0000                	unimp
  101022:	0000                	unimp
  101024:	0000                	unimp
  101026:	0000                	unimp
  101028:	0000                	unimp
  10102a:	0000                	unimp
  10102c:	0000                	unimp
  10102e:	0000                	unimp
  101030:	0000                	unimp
  101032:	0000                	unimp
  101034:	0000                	unimp
  101036:	0000                	unimp
  101038:	0000                	unimp
  10103a:	0000                	unimp
  10103c:	0000                	unimp
  10103e:	0000                	unimp
  101040:	0000                	unimp
  101042:	0000                	unimp
  101044:	0000                	unimp
  101046:	0000                	unimp
  101048:	0000                	unimp
  10104a:	0000                	unimp
  10104c:	0000                	unimp
  10104e:	0000                	unimp
  101050:	0000                	unimp
  101052:	0000                	unimp
  101054:	0000                	unimp
  101056:	0000                	unimp
  101058:	0000                	unimp
  10105a:	0000                	unimp
  10105c:	0000                	unimp
  10105e:	0000                	unimp
  101060:	0000                	unimp
  101062:	0000                	unimp
  101064:	0000                	unimp
  101066:	0000                	unimp
  101068:	0000                	unimp
  10106a:	0000                	unimp
  10106c:	0000                	unimp
  10106e:	0000                	unimp
  101070:	0000                	unimp
  101072:	0000                	unimp
  101074:	0000                	unimp
  101076:	0000                	unimp
  101078:	0000                	unimp
  10107a:	0000                	unimp
  10107c:	0000                	unimp
  10107e:	0000                	unimp
  101080:	0000                	unimp
  101082:	0000                	unimp
  101084:	0000                	unimp
  101086:	0000                	unimp
  101088:	0000                	unimp
  10108a:	0000                	unimp
  10108c:	0000                	unimp
  10108e:	0000                	unimp
  101090:	0000                	unimp
  101092:	0000                	unimp
  101094:	0000                	unimp
  101096:	0000                	unimp
  101098:	0000                	unimp
  10109a:	0000                	unimp
  10109c:	0000                	unimp
  10109e:	0000                	unimp
  1010a0:	0000                	unimp
  1010a2:	0000                	unimp
  1010a4:	0000                	unimp
  1010a6:	0000                	unimp
  1010a8:	0000                	unimp
  1010aa:	0000                	unimp
  1010ac:	0000                	unimp
  1010ae:	0000                	unimp
  1010b0:	0000                	unimp
  1010b2:	0000                	unimp
  1010b4:	0000                	unimp
  1010b6:	0000                	unimp
  1010b8:	0000                	unimp
  1010ba:	0000                	unimp
  1010bc:	0000                	unimp
  1010be:	0000                	unimp
  1010c0:	0000                	unimp
  1010c2:	0000                	unimp
  1010c4:	0000                	unimp
  1010c6:	0000                	unimp
  1010c8:	0000                	unimp
  1010ca:	0000                	unimp
  1010cc:	0000                	unimp
  1010ce:	0000                	unimp
  1010d0:	0000                	unimp
  1010d2:	0000                	unimp
  1010d4:	0000                	unimp
  1010d6:	0000                	unimp
  1010d8:	0000                	unimp
  1010da:	0000                	unimp
  1010dc:	0000                	unimp
  1010de:	0000                	unimp
  1010e0:	0000                	unimp
  1010e2:	0000                	unimp
  1010e4:	0000                	unimp
  1010e6:	0000                	unimp
  1010e8:	0000                	unimp
  1010ea:	0000                	unimp
  1010ec:	0000                	unimp
  1010ee:	0000                	unimp
  1010f0:	0000                	unimp
  1010f2:	0000                	unimp
  1010f4:	0000                	unimp
  1010f6:	0000                	unimp
  1010f8:	0000                	unimp
  1010fa:	0000                	unimp
  1010fc:	0000                	unimp
  1010fe:	0000                	unimp
  101100:	0000                	unimp
  101102:	0000                	unimp
  101104:	0000                	unimp
  101106:	0000                	unimp
  101108:	0000                	unimp
  10110a:	0000                	unimp
  10110c:	0000                	unimp
  10110e:	0000                	unimp
  101110:	0000                	unimp
  101112:	0000                	unimp
  101114:	0000                	unimp
  101116:	0000                	unimp
  101118:	0000                	unimp
  10111a:	0000                	unimp
  10111c:	0000                	unimp
  10111e:	0000                	unimp
  101120:	0000                	unimp
  101122:	0000                	unimp
  101124:	0000                	unimp
  101126:	0000                	unimp
  101128:	0000                	unimp
  10112a:	0000                	unimp
  10112c:	0000                	unimp
  10112e:	0000                	unimp
  101130:	0000                	unimp
  101132:	0000                	unimp
  101134:	0000                	unimp
  101136:	0000                	unimp
  101138:	0000                	unimp
  10113a:	0000                	unimp
  10113c:	0000                	unimp
  10113e:	0000                	unimp
  101140:	0000                	unimp
  101142:	0000                	unimp
  101144:	0000                	unimp
  101146:	0000                	unimp
  101148:	0000                	unimp
  10114a:	0000                	unimp
  10114c:	0000                	unimp
  10114e:	0000                	unimp
  101150:	0000                	unimp
  101152:	0000                	unimp
  101154:	0000                	unimp
  101156:	0000                	unimp
  101158:	0000                	unimp
  10115a:	0000                	unimp
  10115c:	0000                	unimp
  10115e:	0000                	unimp
  101160:	0000                	unimp
  101162:	0000                	unimp
  101164:	0000                	unimp
  101166:	0000                	unimp
  101168:	0000                	unimp
  10116a:	0000                	unimp
  10116c:	0000                	unimp
  10116e:	0000                	unimp
  101170:	0000                	unimp
  101172:	0000                	unimp
  101174:	0000                	unimp
  101176:	0000                	unimp
  101178:	0000                	unimp
  10117a:	0000                	unimp
  10117c:	0000                	unimp
  10117e:	0000                	unimp
  101180:	0000                	unimp
  101182:	0000                	unimp
  101184:	0000                	unimp
  101186:	0000                	unimp
  101188:	0000                	unimp
  10118a:	0000                	unimp
  10118c:	0000                	unimp
  10118e:	0000                	unimp
  101190:	0000                	unimp
  101192:	0000                	unimp
  101194:	0000                	unimp
  101196:	0000                	unimp
  101198:	0000                	unimp
  10119a:	0000                	unimp
  10119c:	0000                	unimp
  10119e:	0000                	unimp
  1011a0:	0000                	unimp
  1011a2:	0000                	unimp
  1011a4:	0000                	unimp
  1011a6:	0000                	unimp
  1011a8:	0000                	unimp
  1011aa:	0000                	unimp
  1011ac:	0000                	unimp
  1011ae:	0000                	unimp
  1011b0:	0000                	unimp
  1011b2:	0000                	unimp
  1011b4:	0000                	unimp
  1011b6:	0000                	unimp
  1011b8:	0000                	unimp
  1011ba:	0000                	unimp
  1011bc:	0000                	unimp
  1011be:	0000                	unimp
  1011c0:	0000                	unimp
  1011c2:	0000                	unimp
  1011c4:	0000                	unimp
  1011c6:	0000                	unimp
  1011c8:	0000                	unimp
  1011ca:	0000                	unimp
  1011cc:	0000                	unimp
  1011ce:	0000                	unimp
  1011d0:	0000                	unimp
  1011d2:	0000                	unimp
  1011d4:	0000                	unimp
  1011d6:	0000                	unimp
  1011d8:	0000                	unimp
  1011da:	0000                	unimp
  1011dc:	0000                	unimp
  1011de:	0000                	unimp
  1011e0:	0000                	unimp
  1011e2:	0000                	unimp
  1011e4:	0000                	unimp
  1011e6:	0000                	unimp
  1011e8:	0000                	unimp
  1011ea:	0000                	unimp
  1011ec:	0000                	unimp
  1011ee:	0000                	unimp
  1011f0:	0000                	unimp
  1011f2:	0000                	unimp
  1011f4:	0000                	unimp
  1011f6:	0000                	unimp
  1011f8:	0000                	unimp
  1011fa:	0000                	unimp
  1011fc:	0000                	unimp
  1011fe:	0000                	unimp
  101200:	0000                	unimp
  101202:	0000                	unimp
  101204:	0000                	unimp
  101206:	0000                	unimp
  101208:	0000                	unimp
  10120a:	0000                	unimp
  10120c:	0000                	unimp
  10120e:	0000                	unimp
  101210:	0000                	unimp
  101212:	0000                	unimp
  101214:	0000                	unimp
  101216:	0000                	unimp
  101218:	0000                	unimp
  10121a:	0000                	unimp
  10121c:	0000                	unimp
  10121e:	0000                	unimp
  101220:	0000                	unimp
  101222:	0000                	unimp
  101224:	0000                	unimp
  101226:	0000                	unimp
  101228:	0000                	unimp
  10122a:	0000                	unimp
  10122c:	0000                	unimp
  10122e:	0000                	unimp
  101230:	0000                	unimp
  101232:	0000                	unimp
  101234:	0000                	unimp
  101236:	0000                	unimp
  101238:	0000                	unimp
  10123a:	0000                	unimp
  10123c:	0000                	unimp
  10123e:	0000                	unimp
  101240:	0000                	unimp
  101242:	0000                	unimp
  101244:	0000                	unimp
  101246:	0000                	unimp
  101248:	0000                	unimp
  10124a:	0000                	unimp
  10124c:	0000                	unimp
  10124e:	0000                	unimp
  101250:	0000                	unimp
  101252:	0000                	unimp
  101254:	0000                	unimp
  101256:	0000                	unimp
  101258:	0000                	unimp
  10125a:	0000                	unimp
  10125c:	0000                	unimp
  10125e:	0000                	unimp
  101260:	0000                	unimp
  101262:	0000                	unimp
  101264:	0000                	unimp
  101266:	0000                	unimp
  101268:	0000                	unimp
  10126a:	0000                	unimp
  10126c:	0000                	unimp
  10126e:	0000                	unimp
  101270:	0000                	unimp
  101272:	0000                	unimp
  101274:	0000                	unimp
  101276:	0000                	unimp
  101278:	0000                	unimp
  10127a:	0000                	unimp
  10127c:	0000                	unimp
  10127e:	0000                	unimp
  101280:	0000                	unimp
  101282:	0000                	unimp
  101284:	0000                	unimp
  101286:	0000                	unimp
  101288:	0000                	unimp
  10128a:	0000                	unimp
  10128c:	0000                	unimp
  10128e:	0000                	unimp
  101290:	0000                	unimp
  101292:	0000                	unimp
  101294:	0000                	unimp
  101296:	0000                	unimp
  101298:	0000                	unimp
  10129a:	0000                	unimp
  10129c:	0000                	unimp
  10129e:	0000                	unimp
  1012a0:	0000                	unimp
  1012a2:	0000                	unimp
  1012a4:	0000                	unimp
  1012a6:	0000                	unimp
  1012a8:	0000                	unimp
  1012aa:	0000                	unimp
  1012ac:	0000                	unimp
  1012ae:	0000                	unimp
  1012b0:	0000                	unimp
  1012b2:	0000                	unimp
  1012b4:	0000                	unimp
  1012b6:	0000                	unimp
  1012b8:	0000                	unimp
  1012ba:	0000                	unimp
  1012bc:	0000                	unimp
  1012be:	0000                	unimp
  1012c0:	0000                	unimp
  1012c2:	0000                	unimp
  1012c4:	0000                	unimp
  1012c6:	0000                	unimp
  1012c8:	0000                	unimp
  1012ca:	0000                	unimp
  1012cc:	0000                	unimp
  1012ce:	0000                	unimp
  1012d0:	0000                	unimp
  1012d2:	0000                	unimp
  1012d4:	0000                	unimp
  1012d6:	0000                	unimp
  1012d8:	0000                	unimp
  1012da:	0000                	unimp
  1012dc:	0000                	unimp
  1012de:	0000                	unimp
  1012e0:	0000                	unimp
  1012e2:	0000                	unimp
  1012e4:	0000                	unimp
  1012e6:	0000                	unimp
  1012e8:	0000                	unimp
  1012ea:	0000                	unimp
  1012ec:	0000                	unimp
  1012ee:	0000                	unimp
  1012f0:	0000                	unimp
  1012f2:	0000                	unimp
  1012f4:	0000                	unimp
  1012f6:	0000                	unimp
  1012f8:	0000                	unimp
  1012fa:	0000                	unimp
  1012fc:	0000                	unimp
  1012fe:	0000                	unimp
  101300:	0000                	unimp
  101302:	0000                	unimp
  101304:	0000                	unimp
  101306:	0000                	unimp
  101308:	0000                	unimp
  10130a:	0000                	unimp
  10130c:	0000                	unimp
  10130e:	0000                	unimp
  101310:	0000                	unimp
  101312:	0000                	unimp
  101314:	0000                	unimp
  101316:	0000                	unimp
  101318:	0000                	unimp
  10131a:	0000                	unimp
  10131c:	0000                	unimp
  10131e:	0000                	unimp
  101320:	0000                	unimp
  101322:	0000                	unimp
  101324:	0000                	unimp
  101326:	0000                	unimp
  101328:	0000                	unimp
  10132a:	0000                	unimp
  10132c:	0000                	unimp
  10132e:	0000                	unimp
  101330:	0000                	unimp
  101332:	0000                	unimp
  101334:	0000                	unimp
  101336:	0000                	unimp
  101338:	0000                	unimp
  10133a:	0000                	unimp
  10133c:	0000                	unimp
  10133e:	0000                	unimp
  101340:	0000                	unimp
  101342:	0000                	unimp
  101344:	0000                	unimp
  101346:	0000                	unimp
  101348:	0000                	unimp
  10134a:	0000                	unimp
  10134c:	0000                	unimp
  10134e:	0000                	unimp
  101350:	0000                	unimp
  101352:	0000                	unimp
  101354:	0000                	unimp
  101356:	0000                	unimp
  101358:	0000                	unimp
  10135a:	0000                	unimp
  10135c:	0000                	unimp
  10135e:	0000                	unimp
  101360:	0000                	unimp
  101362:	0000                	unimp
  101364:	0000                	unimp
  101366:	0000                	unimp
  101368:	0000                	unimp
  10136a:	0000                	unimp
  10136c:	0000                	unimp
  10136e:	0000                	unimp
  101370:	0000                	unimp
  101372:	0000                	unimp
  101374:	0000                	unimp
  101376:	0000                	unimp
  101378:	0000                	unimp
  10137a:	0000                	unimp
  10137c:	0000                	unimp
  10137e:	0000                	unimp
  101380:	0000                	unimp
  101382:	0000                	unimp
  101384:	0000                	unimp
  101386:	0000                	unimp
  101388:	0000                	unimp
  10138a:	0000                	unimp
  10138c:	0000                	unimp
  10138e:	0000                	unimp
  101390:	0000                	unimp
  101392:	0000                	unimp
  101394:	0000                	unimp
  101396:	0000                	unimp
  101398:	0000                	unimp
  10139a:	0000                	unimp
  10139c:	0000                	unimp
  10139e:	0000                	unimp
  1013a0:	0000                	unimp
  1013a2:	0000                	unimp
  1013a4:	0000                	unimp
  1013a6:	0000                	unimp
  1013a8:	0000                	unimp
  1013aa:	0000                	unimp
  1013ac:	0000                	unimp
  1013ae:	0000                	unimp
  1013b0:	0000                	unimp
  1013b2:	0000                	unimp
  1013b4:	0000                	unimp
  1013b6:	0000                	unimp
  1013b8:	0000                	unimp
  1013ba:	0000                	unimp
  1013bc:	0000                	unimp
  1013be:	0000                	unimp
  1013c0:	0000                	unimp
  1013c2:	0000                	unimp
  1013c4:	0000                	unimp
  1013c6:	0000                	unimp
  1013c8:	0000                	unimp
  1013ca:	0000                	unimp
  1013cc:	0000                	unimp
  1013ce:	0000                	unimp
  1013d0:	0000                	unimp
  1013d2:	0000                	unimp
  1013d4:	0000                	unimp
  1013d6:	0000                	unimp
  1013d8:	0000                	unimp
  1013da:	0000                	unimp
  1013dc:	0000                	unimp
  1013de:	0000                	unimp
  1013e0:	0000                	unimp
  1013e2:	0000                	unimp
  1013e4:	0000                	unimp
  1013e6:	0000                	unimp
  1013e8:	0000                	unimp
  1013ea:	0000                	unimp
  1013ec:	0000                	unimp
  1013ee:	0000                	unimp
  1013f0:	0000                	unimp
  1013f2:	0000                	unimp
  1013f4:	0000                	unimp
  1013f6:	0000                	unimp
  1013f8:	0000                	unimp
  1013fa:	0000                	unimp
  1013fc:	0000                	unimp
  1013fe:	0000                	unimp
  101400:	0000                	unimp
  101402:	0000                	unimp
  101404:	0000                	unimp
  101406:	0000                	unimp
  101408:	0000                	unimp
  10140a:	0000                	unimp
  10140c:	0000                	unimp
  10140e:	0000                	unimp
  101410:	0000                	unimp
  101412:	0000                	unimp
  101414:	0000                	unimp
  101416:	0000                	unimp
  101418:	0000                	unimp
  10141a:	0000                	unimp
  10141c:	0000                	unimp
  10141e:	0000                	unimp
  101420:	0000                	unimp
  101422:	0000                	unimp
  101424:	0000                	unimp
  101426:	0000                	unimp
  101428:	0000                	unimp
  10142a:	0000                	unimp
  10142c:	0000                	unimp
  10142e:	0000                	unimp
  101430:	0000                	unimp
  101432:	0000                	unimp
  101434:	0000                	unimp
  101436:	0000                	unimp
  101438:	0000                	unimp
  10143a:	0000                	unimp
  10143c:	0000                	unimp
  10143e:	0000                	unimp
  101440:	0000                	unimp
  101442:	0000                	unimp
  101444:	0000                	unimp
  101446:	0000                	unimp
  101448:	0000                	unimp
  10144a:	0000                	unimp
  10144c:	0000                	unimp
  10144e:	0000                	unimp
  101450:	0000                	unimp
  101452:	0000                	unimp
  101454:	0000                	unimp
  101456:	0000                	unimp
  101458:	0000                	unimp
  10145a:	0000                	unimp
  10145c:	0000                	unimp
  10145e:	0000                	unimp
  101460:	0000                	unimp
  101462:	0000                	unimp
  101464:	0000                	unimp
  101466:	0000                	unimp
  101468:	0000                	unimp
  10146a:	0000                	unimp
  10146c:	0000                	unimp
  10146e:	0000                	unimp
  101470:	0000                	unimp
  101472:	0000                	unimp
  101474:	0000                	unimp
  101476:	0000                	unimp
  101478:	0000                	unimp
  10147a:	0000                	unimp
  10147c:	0000                	unimp
  10147e:	0000                	unimp
  101480:	0000                	unimp
  101482:	0000                	unimp
  101484:	0000                	unimp
  101486:	0000                	unimp
  101488:	0000                	unimp
  10148a:	0000                	unimp
  10148c:	0000                	unimp
  10148e:	0000                	unimp
  101490:	0000                	unimp
  101492:	0000                	unimp
  101494:	0000                	unimp
  101496:	0000                	unimp
  101498:	0000                	unimp
  10149a:	0000                	unimp
  10149c:	0000                	unimp
  10149e:	0000                	unimp
  1014a0:	0000                	unimp
  1014a2:	0000                	unimp
  1014a4:	0000                	unimp
  1014a6:	0000                	unimp
  1014a8:	0000                	unimp
  1014aa:	0000                	unimp
  1014ac:	0000                	unimp
  1014ae:	0000                	unimp
  1014b0:	0000                	unimp
  1014b2:	0000                	unimp
  1014b4:	0000                	unimp
  1014b6:	0000                	unimp
  1014b8:	0000                	unimp
  1014ba:	0000                	unimp
  1014bc:	0000                	unimp
  1014be:	0000                	unimp
  1014c0:	0000                	unimp
  1014c2:	0000                	unimp
  1014c4:	0000                	unimp
  1014c6:	0000                	unimp
  1014c8:	0000                	unimp
  1014ca:	0000                	unimp
  1014cc:	0000                	unimp
  1014ce:	0000                	unimp
  1014d0:	0000                	unimp
  1014d2:	0000                	unimp
  1014d4:	0000                	unimp
  1014d6:	0000                	unimp
  1014d8:	0000                	unimp
  1014da:	0000                	unimp
  1014dc:	0000                	unimp
  1014de:	0000                	unimp
  1014e0:	0000                	unimp
  1014e2:	0000                	unimp
  1014e4:	0000                	unimp
  1014e6:	0000                	unimp
  1014e8:	0000                	unimp
  1014ea:	0000                	unimp
  1014ec:	0000                	unimp
  1014ee:	0000                	unimp
  1014f0:	0000                	unimp
  1014f2:	0000                	unimp
  1014f4:	0000                	unimp
  1014f6:	0000                	unimp
  1014f8:	0000                	unimp
  1014fa:	0000                	unimp
  1014fc:	0000                	unimp
  1014fe:	0000                	unimp
  101500:	0000                	unimp
  101502:	0000                	unimp
  101504:	0000                	unimp
  101506:	0000                	unimp
  101508:	0000                	unimp
  10150a:	0000                	unimp
  10150c:	0000                	unimp
  10150e:	0000                	unimp
  101510:	0000                	unimp
  101512:	0000                	unimp
  101514:	0000                	unimp
  101516:	0000                	unimp
  101518:	0000                	unimp
  10151a:	0000                	unimp
  10151c:	0000                	unimp
  10151e:	0000                	unimp
  101520:	0000                	unimp
  101522:	0000                	unimp
  101524:	0000                	unimp
  101526:	0000                	unimp
  101528:	0000                	unimp
  10152a:	0000                	unimp
  10152c:	0000                	unimp
  10152e:	0000                	unimp
  101530:	0000                	unimp
  101532:	0000                	unimp
  101534:	0000                	unimp
  101536:	0000                	unimp
  101538:	0000                	unimp
  10153a:	0000                	unimp
  10153c:	0000                	unimp
  10153e:	0000                	unimp
  101540:	0000                	unimp
  101542:	0000                	unimp
  101544:	0000                	unimp
  101546:	0000                	unimp
  101548:	0000                	unimp
  10154a:	0000                	unimp
  10154c:	0000                	unimp
  10154e:	0000                	unimp
  101550:	0000                	unimp
  101552:	0000                	unimp
  101554:	0000                	unimp
  101556:	0000                	unimp
  101558:	0000                	unimp
  10155a:	0000                	unimp
  10155c:	0000                	unimp
  10155e:	0000                	unimp
  101560:	0000                	unimp
  101562:	0000                	unimp
  101564:	0000                	unimp
  101566:	0000                	unimp
  101568:	0000                	unimp
  10156a:	0000                	unimp
  10156c:	0000                	unimp
  10156e:	0000                	unimp
  101570:	0000                	unimp
  101572:	0000                	unimp
  101574:	0000                	unimp
  101576:	0000                	unimp
  101578:	0000                	unimp
  10157a:	0000                	unimp
  10157c:	0000                	unimp
  10157e:	0000                	unimp
  101580:	0000                	unimp
  101582:	0000                	unimp
  101584:	0000                	unimp
  101586:	0000                	unimp
  101588:	0000                	unimp
  10158a:	0000                	unimp
  10158c:	0000                	unimp
  10158e:	0000                	unimp
  101590:	0000                	unimp
  101592:	0000                	unimp
  101594:	0000                	unimp
  101596:	0000                	unimp
  101598:	0000                	unimp
  10159a:	0000                	unimp
  10159c:	0000                	unimp
  10159e:	0000                	unimp
  1015a0:	0000                	unimp
  1015a2:	0000                	unimp
  1015a4:	0000                	unimp
  1015a6:	0000                	unimp
  1015a8:	0000                	unimp
  1015aa:	0000                	unimp
  1015ac:	0000                	unimp
  1015ae:	0000                	unimp
  1015b0:	0000                	unimp
  1015b2:	0000                	unimp
  1015b4:	0000                	unimp
  1015b6:	0000                	unimp
  1015b8:	0000                	unimp
  1015ba:	0000                	unimp
  1015bc:	0000                	unimp
  1015be:	0000                	unimp
  1015c0:	0000                	unimp
  1015c2:	0000                	unimp
  1015c4:	0000                	unimp
  1015c6:	0000                	unimp
  1015c8:	0000                	unimp
  1015ca:	0000                	unimp
  1015cc:	0000                	unimp
  1015ce:	0000                	unimp
  1015d0:	0000                	unimp
  1015d2:	0000                	unimp
  1015d4:	0000                	unimp
  1015d6:	0000                	unimp
  1015d8:	0000                	unimp
  1015da:	0000                	unimp
  1015dc:	0000                	unimp
  1015de:	0000                	unimp
  1015e0:	0000                	unimp
  1015e2:	0000                	unimp
  1015e4:	0000                	unimp
  1015e6:	0000                	unimp
  1015e8:	0000                	unimp
  1015ea:	0000                	unimp

001015ec <canvas>:
  1015ec:	0000                	unimp
  1015ee:	0000                	unimp
  1015f0:	0000                	unimp
  1015f2:	0000                	unimp
  1015f4:	0000                	unimp
  1015f6:	0000                	unimp
  1015f8:	0000                	unimp
  1015fa:	0000                	unimp
  1015fc:	0000                	unimp
  1015fe:	0000                	unimp
  101600:	0000                	unimp
  101602:	0000                	unimp
  101604:	0000                	unimp
  101606:	0000                	unimp
  101608:	0000                	unimp
  10160a:	0000                	unimp
  10160c:	0000                	unimp
  10160e:	0000                	unimp
  101610:	0000                	unimp
  101612:	0000                	unimp
  101614:	0000                	unimp
  101616:	0000                	unimp
  101618:	0000                	unimp
  10161a:	0000                	unimp
  10161c:	0000                	unimp
  10161e:	0000                	unimp
  101620:	0000                	unimp
  101622:	0000                	unimp
  101624:	0000                	unimp
  101626:	0000                	unimp
  101628:	0000                	unimp
  10162a:	0000                	unimp
  10162c:	0000                	unimp
  10162e:	0000                	unimp
  101630:	0000                	unimp
  101632:	0000                	unimp
  101634:	0000                	unimp
  101636:	0000                	unimp
  101638:	0000                	unimp
  10163a:	0000                	unimp
  10163c:	0000                	unimp
  10163e:	0000                	unimp
  101640:	0000                	unimp
  101642:	0000                	unimp
  101644:	0000                	unimp
  101646:	0000                	unimp
  101648:	0000                	unimp
  10164a:	0000                	unimp
  10164c:	0000                	unimp
  10164e:	0000                	unimp
  101650:	0000                	unimp
  101652:	0000                	unimp
  101654:	0000                	unimp
  101656:	0000                	unimp
  101658:	0000                	unimp
  10165a:	0000                	unimp
  10165c:	0000                	unimp
  10165e:	0000                	unimp
  101660:	0000                	unimp
  101662:	0000                	unimp
  101664:	0000                	unimp
  101666:	0000                	unimp
  101668:	0000                	unimp
  10166a:	0000                	unimp
  10166c:	0000                	unimp
  10166e:	0000                	unimp
  101670:	0000                	unimp
  101672:	0000                	unimp
  101674:	0000                	unimp
  101676:	0000                	unimp
  101678:	0000                	unimp
  10167a:	0000                	unimp
  10167c:	0000                	unimp
  10167e:	0000                	unimp
  101680:	0000                	unimp
  101682:	0000                	unimp
  101684:	0000                	unimp
  101686:	0000                	unimp
  101688:	0000                	unimp
  10168a:	0000                	unimp
  10168c:	0000                	unimp
  10168e:	0000                	unimp
  101690:	0000                	unimp
  101692:	0000                	unimp
  101694:	0000                	unimp
  101696:	0000                	unimp
  101698:	0000                	unimp
  10169a:	0000                	unimp
  10169c:	0000                	unimp
  10169e:	0000                	unimp
  1016a0:	0000                	unimp
  1016a2:	0000                	unimp
  1016a4:	0000                	unimp
  1016a6:	0000                	unimp
  1016a8:	0000                	unimp
  1016aa:	0000                	unimp
  1016ac:	0000                	unimp
  1016ae:	0000                	unimp
  1016b0:	0000                	unimp
  1016b2:	0000                	unimp
  1016b4:	0000                	unimp
  1016b6:	0000                	unimp
  1016b8:	0000                	unimp
  1016ba:	0000                	unimp
  1016bc:	0000                	unimp
  1016be:	0000                	unimp
  1016c0:	0000                	unimp
  1016c2:	0000                	unimp
  1016c4:	0000                	unimp
  1016c6:	0000                	unimp
  1016c8:	0000                	unimp
  1016ca:	0000                	unimp
  1016cc:	0000                	unimp
  1016ce:	0000                	unimp
  1016d0:	0000                	unimp
  1016d2:	0000                	unimp
  1016d4:	0000                	unimp
  1016d6:	0000                	unimp
  1016d8:	0000                	unimp
  1016da:	0000                	unimp
  1016dc:	0000                	unimp
  1016de:	0000                	unimp
  1016e0:	0000                	unimp
  1016e2:	0000                	unimp
  1016e4:	0000                	unimp
  1016e6:	0000                	unimp
  1016e8:	0000                	unimp
  1016ea:	0000                	unimp
  1016ec:	0000                	unimp
  1016ee:	0000                	unimp
  1016f0:	0000                	unimp
  1016f2:	0000                	unimp
  1016f4:	0000                	unimp
  1016f6:	0000                	unimp
  1016f8:	0000                	unimp
  1016fa:	0000                	unimp
  1016fc:	0000                	unimp
  1016fe:	0000                	unimp
  101700:	0000                	unimp
  101702:	0000                	unimp
  101704:	0000                	unimp
  101706:	0000                	unimp
  101708:	0000                	unimp
  10170a:	0000                	unimp
  10170c:	0000                	unimp
  10170e:	0000                	unimp
  101710:	0000                	unimp
  101712:	0000                	unimp
  101714:	0000                	unimp
  101716:	0000                	unimp
  101718:	0000                	unimp
  10171a:	0000                	unimp
  10171c:	0000                	unimp
  10171e:	0000                	unimp
  101720:	0000                	unimp
  101722:	0000                	unimp
  101724:	0000                	unimp
  101726:	0000                	unimp
  101728:	0000                	unimp
  10172a:	0000                	unimp
  10172c:	0000                	unimp
  10172e:	0000                	unimp
  101730:	0000                	unimp
  101732:	0000                	unimp
  101734:	0000                	unimp
  101736:	0000                	unimp
  101738:	0000                	unimp
  10173a:	0000                	unimp
  10173c:	0000                	unimp
  10173e:	0000                	unimp
  101740:	0000                	unimp
  101742:	0000                	unimp
  101744:	0000                	unimp
  101746:	0000                	unimp
  101748:	0000                	unimp
  10174a:	0000                	unimp
  10174c:	0000                	unimp
  10174e:	0000                	unimp
  101750:	0000                	unimp
  101752:	0000                	unimp
  101754:	0000                	unimp
  101756:	0000                	unimp
  101758:	0000                	unimp
  10175a:	0000                	unimp
  10175c:	0000                	unimp
  10175e:	0000                	unimp
  101760:	0000                	unimp
  101762:	0000                	unimp
  101764:	0000                	unimp
  101766:	0000                	unimp
  101768:	0000                	unimp
  10176a:	0000                	unimp
  10176c:	0000                	unimp
  10176e:	0000                	unimp
  101770:	0000                	unimp
  101772:	0000                	unimp
  101774:	0000                	unimp
  101776:	0000                	unimp
  101778:	0000                	unimp
  10177a:	0000                	unimp
  10177c:	0000                	unimp
  10177e:	0000                	unimp
  101780:	0000                	unimp
  101782:	0000                	unimp
  101784:	0000                	unimp
  101786:	0000                	unimp
  101788:	0000                	unimp
  10178a:	0000                	unimp
  10178c:	0000                	unimp
  10178e:	0000                	unimp
  101790:	0000                	unimp
  101792:	0000                	unimp
  101794:	0000                	unimp
  101796:	0000                	unimp
  101798:	0000                	unimp
  10179a:	0000                	unimp
  10179c:	0000                	unimp
  10179e:	0000                	unimp
  1017a0:	0000                	unimp
  1017a2:	0000                	unimp
  1017a4:	0000                	unimp
  1017a6:	0000                	unimp
  1017a8:	0000                	unimp
  1017aa:	0000                	unimp
  1017ac:	0000                	unimp
  1017ae:	0000                	unimp
  1017b0:	0000                	unimp
  1017b2:	0000                	unimp
  1017b4:	0000                	unimp
  1017b6:	0000                	unimp
  1017b8:	0000                	unimp
  1017ba:	0000                	unimp
  1017bc:	0000                	unimp
  1017be:	0000                	unimp
  1017c0:	0000                	unimp
  1017c2:	0000                	unimp
  1017c4:	0000                	unimp
  1017c6:	0000                	unimp
  1017c8:	0000                	unimp
  1017ca:	0000                	unimp
  1017cc:	0000                	unimp
  1017ce:	0000                	unimp
  1017d0:	0000                	unimp
  1017d2:	0000                	unimp
  1017d4:	0000                	unimp
  1017d6:	0000                	unimp
  1017d8:	0000                	unimp
  1017da:	0000                	unimp
  1017dc:	0000                	unimp
  1017de:	0000                	unimp
  1017e0:	0000                	unimp
  1017e2:	0000                	unimp
  1017e4:	0000                	unimp
  1017e6:	0000                	unimp
  1017e8:	0000                	unimp
  1017ea:	0000                	unimp
  1017ec:	0000                	unimp
  1017ee:	0000                	unimp
  1017f0:	0000                	unimp
  1017f2:	0000                	unimp
  1017f4:	0000                	unimp
  1017f6:	0000                	unimp
  1017f8:	0000                	unimp
  1017fa:	0000                	unimp
  1017fc:	0000                	unimp
  1017fe:	0000                	unimp
  101800:	0000                	unimp
  101802:	0000                	unimp
  101804:	0000                	unimp
  101806:	0000                	unimp
  101808:	0000                	unimp
  10180a:	0000                	unimp
  10180c:	0000                	unimp
  10180e:	0000                	unimp
  101810:	0000                	unimp
  101812:	0000                	unimp
  101814:	0000                	unimp
  101816:	0000                	unimp
  101818:	0000                	unimp
  10181a:	0000                	unimp
  10181c:	0000                	unimp
  10181e:	0000                	unimp
  101820:	0000                	unimp
  101822:	0000                	unimp
  101824:	0000                	unimp
  101826:	0000                	unimp
  101828:	0000                	unimp
  10182a:	0000                	unimp
  10182c:	0000                	unimp
  10182e:	0000                	unimp
  101830:	0000                	unimp
  101832:	0000                	unimp
  101834:	0000                	unimp
  101836:	0000                	unimp
  101838:	0000                	unimp
  10183a:	0000                	unimp
  10183c:	0000                	unimp
  10183e:	0000                	unimp
  101840:	0000                	unimp
  101842:	0000                	unimp
  101844:	0000                	unimp
  101846:	0000                	unimp
  101848:	0000                	unimp
  10184a:	0000                	unimp
  10184c:	0000                	unimp
  10184e:	0000                	unimp
  101850:	0000                	unimp
  101852:	0000                	unimp
  101854:	0000                	unimp
  101856:	0000                	unimp
  101858:	0000                	unimp
  10185a:	0000                	unimp
  10185c:	0000                	unimp
  10185e:	0000                	unimp
  101860:	0000                	unimp
  101862:	0000                	unimp
  101864:	0000                	unimp
  101866:	0000                	unimp
  101868:	0000                	unimp
  10186a:	0000                	unimp
  10186c:	0000                	unimp
  10186e:	0000                	unimp
  101870:	0000                	unimp
  101872:	0000                	unimp
  101874:	0000                	unimp
  101876:	0000                	unimp
  101878:	0000                	unimp
  10187a:	0000                	unimp
  10187c:	0000                	unimp
  10187e:	0000                	unimp
  101880:	0000                	unimp
  101882:	0000                	unimp
  101884:	0000                	unimp
  101886:	0000                	unimp
  101888:	0000                	unimp
  10188a:	0000                	unimp
  10188c:	0000                	unimp
  10188e:	0000                	unimp
  101890:	0000                	unimp
  101892:	0000                	unimp
  101894:	0000                	unimp
  101896:	0000                	unimp
  101898:	0000                	unimp
  10189a:	0000                	unimp
  10189c:	0000                	unimp
  10189e:	0000                	unimp
  1018a0:	0000                	unimp
  1018a2:	0000                	unimp
  1018a4:	0000                	unimp
  1018a6:	0000                	unimp
  1018a8:	0000                	unimp
  1018aa:	0000                	unimp
  1018ac:	0000                	unimp
  1018ae:	0000                	unimp
  1018b0:	0000                	unimp
  1018b2:	0000                	unimp
  1018b4:	0000                	unimp
  1018b6:	0000                	unimp
  1018b8:	0000                	unimp
  1018ba:	0000                	unimp
  1018bc:	0000                	unimp
  1018be:	0000                	unimp
  1018c0:	0000                	unimp
  1018c2:	0000                	unimp
  1018c4:	0000                	unimp
  1018c6:	0000                	unimp
  1018c8:	0000                	unimp
  1018ca:	0000                	unimp
  1018cc:	0000                	unimp
  1018ce:	0000                	unimp
  1018d0:	0000                	unimp
  1018d2:	0000                	unimp
  1018d4:	0000                	unimp
  1018d6:	0000                	unimp
  1018d8:	0000                	unimp
  1018da:	0000                	unimp
  1018dc:	0000                	unimp
  1018de:	0000                	unimp
  1018e0:	0000                	unimp
  1018e2:	0000                	unimp
  1018e4:	0000                	unimp
  1018e6:	0000                	unimp
  1018e8:	0000                	unimp
  1018ea:	0000                	unimp
  1018ec:	0000                	unimp
  1018ee:	0000                	unimp
  1018f0:	0000                	unimp
  1018f2:	0000                	unimp
  1018f4:	0000                	unimp
  1018f6:	0000                	unimp
  1018f8:	0000                	unimp
  1018fa:	0000                	unimp
  1018fc:	0000                	unimp
  1018fe:	0000                	unimp
  101900:	0000                	unimp
  101902:	0000                	unimp
  101904:	0000                	unimp
  101906:	0000                	unimp
  101908:	0000                	unimp
  10190a:	0000                	unimp
  10190c:	0000                	unimp
  10190e:	0000                	unimp
  101910:	0000                	unimp
  101912:	0000                	unimp
  101914:	0000                	unimp
  101916:	0000                	unimp
  101918:	0000                	unimp
  10191a:	0000                	unimp
  10191c:	0000                	unimp
  10191e:	0000                	unimp
  101920:	0000                	unimp
  101922:	0000                	unimp
  101924:	0000                	unimp
  101926:	0000                	unimp
  101928:	0000                	unimp
  10192a:	0000                	unimp
  10192c:	0000                	unimp
  10192e:	0000                	unimp
  101930:	0000                	unimp
  101932:	0000                	unimp
  101934:	0000                	unimp
  101936:	0000                	unimp
  101938:	0000                	unimp
  10193a:	0000                	unimp
  10193c:	0000                	unimp
  10193e:	0000                	unimp
  101940:	0000                	unimp
  101942:	0000                	unimp
  101944:	0000                	unimp
  101946:	0000                	unimp
  101948:	0000                	unimp
  10194a:	0000                	unimp
  10194c:	0000                	unimp
  10194e:	0000                	unimp
  101950:	0000                	unimp
  101952:	0000                	unimp
  101954:	0000                	unimp
  101956:	0000                	unimp
  101958:	0000                	unimp
  10195a:	0000                	unimp
  10195c:	0000                	unimp
  10195e:	0000                	unimp
  101960:	0000                	unimp
  101962:	0000                	unimp
  101964:	0000                	unimp
  101966:	0000                	unimp
  101968:	0000                	unimp
  10196a:	0000                	unimp
  10196c:	0000                	unimp
  10196e:	0000                	unimp
  101970:	0000                	unimp
  101972:	0000                	unimp
  101974:	0000                	unimp
  101976:	0000                	unimp
  101978:	0000                	unimp
  10197a:	0000                	unimp
  10197c:	0000                	unimp
  10197e:	0000                	unimp
  101980:	0000                	unimp
  101982:	0000                	unimp
  101984:	0000                	unimp
  101986:	0000                	unimp
  101988:	0000                	unimp
  10198a:	0000                	unimp
  10198c:	0000                	unimp
  10198e:	0000                	unimp
  101990:	0000                	unimp
  101992:	0000                	unimp
  101994:	0000                	unimp
  101996:	0000                	unimp
  101998:	0000                	unimp
  10199a:	0000                	unimp
  10199c:	0000                	unimp
  10199e:	0000                	unimp
  1019a0:	0000                	unimp
  1019a2:	0000                	unimp
  1019a4:	0000                	unimp
  1019a6:	0000                	unimp
  1019a8:	0000                	unimp
  1019aa:	0000                	unimp
  1019ac:	0000                	unimp
  1019ae:	0000                	unimp
  1019b0:	0000                	unimp
  1019b2:	0000                	unimp
  1019b4:	0000                	unimp
  1019b6:	0000                	unimp
  1019b8:	0000                	unimp
  1019ba:	0000                	unimp
  1019bc:	0000                	unimp
  1019be:	0000                	unimp
  1019c0:	0000                	unimp
  1019c2:	0000                	unimp
  1019c4:	0000                	unimp
  1019c6:	0000                	unimp
  1019c8:	0000                	unimp
  1019ca:	0000                	unimp
  1019cc:	0000                	unimp
  1019ce:	0000                	unimp
  1019d0:	0000                	unimp
  1019d2:	0000                	unimp
  1019d4:	0000                	unimp
  1019d6:	0000                	unimp
  1019d8:	0000                	unimp
  1019da:	0000                	unimp
  1019dc:	0000                	unimp
  1019de:	0000                	unimp
  1019e0:	0000                	unimp
  1019e2:	0000                	unimp
  1019e4:	0000                	unimp
  1019e6:	0000                	unimp
  1019e8:	0000                	unimp
  1019ea:	0000                	unimp
  1019ec:	0000                	unimp
  1019ee:	0000                	unimp
  1019f0:	0000                	unimp
  1019f2:	0000                	unimp
  1019f4:	0000                	unimp
  1019f6:	0000                	unimp
  1019f8:	0000                	unimp
  1019fa:	0000                	unimp
  1019fc:	0000                	unimp
  1019fe:	0000                	unimp
  101a00:	0000                	unimp
  101a02:	0000                	unimp
  101a04:	0000                	unimp
  101a06:	0000                	unimp
  101a08:	0000                	unimp
  101a0a:	0000                	unimp
  101a0c:	0000                	unimp
  101a0e:	0000                	unimp
  101a10:	0000                	unimp
  101a12:	0000                	unimp
  101a14:	0000                	unimp
  101a16:	0000                	unimp
  101a18:	0000                	unimp
  101a1a:	0000                	unimp
  101a1c:	0000                	unimp
  101a1e:	0000                	unimp
  101a20:	0000                	unimp
  101a22:	0000                	unimp
  101a24:	0000                	unimp
  101a26:	0000                	unimp
  101a28:	0000                	unimp
  101a2a:	0000                	unimp
  101a2c:	0000                	unimp
  101a2e:	0000                	unimp
  101a30:	0000                	unimp
  101a32:	0000                	unimp
  101a34:	0000                	unimp
  101a36:	0000                	unimp
  101a38:	0000                	unimp
  101a3a:	0000                	unimp
  101a3c:	0000                	unimp
  101a3e:	0000                	unimp
  101a40:	0000                	unimp
  101a42:	0000                	unimp
  101a44:	0000                	unimp
  101a46:	0000                	unimp
  101a48:	0000                	unimp
  101a4a:	0000                	unimp
  101a4c:	0000                	unimp
  101a4e:	0000                	unimp
  101a50:	0000                	unimp
  101a52:	0000                	unimp
  101a54:	0000                	unimp
  101a56:	0000                	unimp
  101a58:	0000                	unimp
  101a5a:	0000                	unimp
  101a5c:	0000                	unimp
  101a5e:	0000                	unimp
  101a60:	0000                	unimp
  101a62:	0000                	unimp
  101a64:	0000                	unimp
  101a66:	0000                	unimp
  101a68:	0000                	unimp
  101a6a:	0000                	unimp
  101a6c:	0000                	unimp
  101a6e:	0000                	unimp
  101a70:	0000                	unimp
  101a72:	0000                	unimp
  101a74:	0000                	unimp
  101a76:	0000                	unimp
  101a78:	0000                	unimp
  101a7a:	0000                	unimp
  101a7c:	0000                	unimp
  101a7e:	0000                	unimp
  101a80:	0000                	unimp
  101a82:	0000                	unimp
  101a84:	0000                	unimp
  101a86:	0000                	unimp
  101a88:	0000                	unimp
  101a8a:	0000                	unimp
  101a8c:	0000                	unimp
  101a8e:	0000                	unimp
  101a90:	0000                	unimp
  101a92:	0000                	unimp
  101a94:	0000                	unimp
  101a96:	0000                	unimp
  101a98:	0000                	unimp
  101a9a:	0000                	unimp
  101a9c:	0000                	unimp
  101a9e:	0000                	unimp
  101aa0:	0000                	unimp
  101aa2:	0000                	unimp
  101aa4:	0000                	unimp
  101aa6:	0000                	unimp
  101aa8:	0000                	unimp
  101aaa:	0000                	unimp
  101aac:	0000                	unimp
  101aae:	0000                	unimp
  101ab0:	0000                	unimp
  101ab2:	0000                	unimp
  101ab4:	0000                	unimp
  101ab6:	0000                	unimp
  101ab8:	0000                	unimp
  101aba:	0000                	unimp
  101abc:	0000                	unimp
  101abe:	0000                	unimp
  101ac0:	0000                	unimp
  101ac2:	0000                	unimp
  101ac4:	0000                	unimp
  101ac6:	0000                	unimp
  101ac8:	0000                	unimp
  101aca:	0000                	unimp
  101acc:	0000                	unimp
  101ace:	0000                	unimp
  101ad0:	0000                	unimp
  101ad2:	0000                	unimp
  101ad4:	0000                	unimp
  101ad6:	0000                	unimp
  101ad8:	0000                	unimp
  101ada:	0000                	unimp
  101adc:	0000                	unimp
  101ade:	0000                	unimp
  101ae0:	0000                	unimp
  101ae2:	0000                	unimp
  101ae4:	0000                	unimp
  101ae6:	0000                	unimp
  101ae8:	0000                	unimp
  101aea:	0000                	unimp
  101aec:	0000                	unimp
  101aee:	0000                	unimp
  101af0:	0000                	unimp
  101af2:	0000                	unimp
  101af4:	0000                	unimp
  101af6:	0000                	unimp
  101af8:	0000                	unimp
  101afa:	0000                	unimp
  101afc:	0000                	unimp
  101afe:	0000                	unimp
  101b00:	0000                	unimp
  101b02:	0000                	unimp
  101b04:	0000                	unimp
  101b06:	0000                	unimp
  101b08:	0000                	unimp
  101b0a:	0000                	unimp
  101b0c:	0000                	unimp
  101b0e:	0000                	unimp
  101b10:	0000                	unimp
  101b12:	0000                	unimp
  101b14:	0000                	unimp
  101b16:	0000                	unimp
  101b18:	0000                	unimp
  101b1a:	0000                	unimp
  101b1c:	0000                	unimp
  101b1e:	0000                	unimp
  101b20:	0000                	unimp
  101b22:	0000                	unimp
  101b24:	0000                	unimp
  101b26:	0000                	unimp
  101b28:	0000                	unimp
  101b2a:	0000                	unimp
  101b2c:	0000                	unimp
  101b2e:	0000                	unimp
  101b30:	0000                	unimp
  101b32:	0000                	unimp
  101b34:	0000                	unimp
  101b36:	0000                	unimp
  101b38:	0000                	unimp
  101b3a:	0000                	unimp
  101b3c:	0000                	unimp
  101b3e:	0000                	unimp
  101b40:	0000                	unimp
  101b42:	0000                	unimp
  101b44:	0000                	unimp
  101b46:	0000                	unimp
  101b48:	0000                	unimp
  101b4a:	0000                	unimp
  101b4c:	0000                	unimp
  101b4e:	0000                	unimp
  101b50:	0000                	unimp
  101b52:	0000                	unimp
  101b54:	0000                	unimp
  101b56:	0000                	unimp
  101b58:	0000                	unimp
  101b5a:	0000                	unimp
  101b5c:	0000                	unimp
  101b5e:	0000                	unimp
  101b60:	0000                	unimp
  101b62:	0000                	unimp
  101b64:	0000                	unimp
  101b66:	0000                	unimp
  101b68:	0000                	unimp
  101b6a:	0000                	unimp
  101b6c:	0000                	unimp
  101b6e:	0000                	unimp
  101b70:	0000                	unimp
  101b72:	0000                	unimp
  101b74:	0000                	unimp
  101b76:	0000                	unimp
  101b78:	0000                	unimp
  101b7a:	0000                	unimp
  101b7c:	0000                	unimp
  101b7e:	0000                	unimp
  101b80:	0000                	unimp
  101b82:	0000                	unimp
  101b84:	0000                	unimp
  101b86:	0000                	unimp
  101b88:	0000                	unimp
  101b8a:	0000                	unimp
  101b8c:	0000                	unimp
  101b8e:	0000                	unimp
  101b90:	0000                	unimp
  101b92:	0000                	unimp
  101b94:	0000                	unimp
  101b96:	0000                	unimp
  101b98:	0000                	unimp
  101b9a:	0000                	unimp
  101b9c:	0000                	unimp
  101b9e:	0000                	unimp
  101ba0:	0000                	unimp
  101ba2:	0000                	unimp
  101ba4:	0000                	unimp
  101ba6:	0000                	unimp
  101ba8:	0000                	unimp
  101baa:	0000                	unimp
  101bac:	0000                	unimp
  101bae:	0000                	unimp
  101bb0:	0000                	unimp
  101bb2:	0000                	unimp
  101bb4:	0000                	unimp
  101bb6:	0000                	unimp
  101bb8:	0000                	unimp
  101bba:	0000                	unimp
  101bbc:	0000                	unimp
  101bbe:	0000                	unimp
  101bc0:	0000                	unimp
  101bc2:	0000                	unimp
  101bc4:	0000                	unimp
  101bc6:	0000                	unimp
  101bc8:	0000                	unimp
  101bca:	0000                	unimp
  101bcc:	0000                	unimp
  101bce:	0000                	unimp
  101bd0:	0000                	unimp
  101bd2:	0000                	unimp
  101bd4:	0000                	unimp
  101bd6:	0000                	unimp
  101bd8:	0000                	unimp
  101bda:	0000                	unimp
  101bdc:	0000                	unimp
  101bde:	0000                	unimp
  101be0:	0000                	unimp
  101be2:	0000                	unimp
  101be4:	0000                	unimp
  101be6:	0000                	unimp
  101be8:	0000                	unimp
  101bea:	0000                	unimp
  101bec:	0000                	unimp
  101bee:	0000                	unimp
  101bf0:	0000                	unimp
  101bf2:	0000                	unimp
  101bf4:	0000                	unimp
  101bf6:	0000                	unimp
  101bf8:	0000                	unimp
  101bfa:	0000                	unimp
  101bfc:	0000                	unimp
  101bfe:	0000                	unimp
  101c00:	0000                	unimp
  101c02:	0000                	unimp
  101c04:	0000                	unimp
  101c06:	0000                	unimp
  101c08:	0000                	unimp
  101c0a:	0000                	unimp
  101c0c:	0000                	unimp
  101c0e:	0000                	unimp
  101c10:	0000                	unimp
  101c12:	0000                	unimp
  101c14:	0000                	unimp
  101c16:	0000                	unimp
  101c18:	0000                	unimp
  101c1a:	0000                	unimp
  101c1c:	0000                	unimp
  101c1e:	0000                	unimp
  101c20:	0000                	unimp
  101c22:	0000                	unimp
  101c24:	0000                	unimp
  101c26:	0000                	unimp
  101c28:	0000                	unimp
  101c2a:	0000                	unimp
  101c2c:	0000                	unimp
  101c2e:	0000                	unimp
  101c30:	0000                	unimp
  101c32:	0000                	unimp
  101c34:	0000                	unimp
  101c36:	0000                	unimp
  101c38:	0000                	unimp
  101c3a:	0000                	unimp
  101c3c:	0000                	unimp
  101c3e:	0000                	unimp
  101c40:	0000                	unimp
  101c42:	0000                	unimp
  101c44:	0000                	unimp
  101c46:	0000                	unimp
  101c48:	0000                	unimp
  101c4a:	0000                	unimp
  101c4c:	0000                	unimp
  101c4e:	0000                	unimp
  101c50:	0000                	unimp
  101c52:	0000                	unimp
  101c54:	0000                	unimp
  101c56:	0000                	unimp
  101c58:	0000                	unimp
  101c5a:	0000                	unimp
  101c5c:	0000                	unimp
  101c5e:	0000                	unimp
  101c60:	0000                	unimp
  101c62:	0000                	unimp
  101c64:	0000                	unimp
  101c66:	0000                	unimp
  101c68:	0000                	unimp
  101c6a:	0000                	unimp
  101c6c:	0000                	unimp
  101c6e:	0000                	unimp
  101c70:	0000                	unimp
  101c72:	0000                	unimp
  101c74:	0000                	unimp
  101c76:	0000                	unimp
  101c78:	0000                	unimp
  101c7a:	0000                	unimp
  101c7c:	0000                	unimp
  101c7e:	0000                	unimp
  101c80:	0000                	unimp
  101c82:	0000                	unimp
  101c84:	0000                	unimp
  101c86:	0000                	unimp
  101c88:	0000                	unimp
  101c8a:	0000                	unimp
  101c8c:	0000                	unimp
  101c8e:	0000                	unimp
  101c90:	0000                	unimp
  101c92:	0000                	unimp
  101c94:	0000                	unimp
  101c96:	0000                	unimp
  101c98:	0000                	unimp
  101c9a:	0000                	unimp
  101c9c:	0000                	unimp
  101c9e:	0000                	unimp
  101ca0:	0000                	unimp
  101ca2:	0000                	unimp
  101ca4:	0000                	unimp
  101ca6:	0000                	unimp
  101ca8:	0000                	unimp
  101caa:	0000                	unimp
  101cac:	0000                	unimp
  101cae:	0000                	unimp
  101cb0:	0000                	unimp
  101cb2:	0000                	unimp
  101cb4:	0000                	unimp
  101cb6:	0000                	unimp
  101cb8:	0000                	unimp
  101cba:	0000                	unimp
  101cbc:	0000                	unimp
  101cbe:	0000                	unimp
  101cc0:	0000                	unimp
  101cc2:	0000                	unimp
  101cc4:	0000                	unimp
  101cc6:	0000                	unimp
  101cc8:	0000                	unimp
  101cca:	0000                	unimp
  101ccc:	0000                	unimp
  101cce:	0000                	unimp
  101cd0:	0000                	unimp
  101cd2:	0000                	unimp
  101cd4:	0000                	unimp
  101cd6:	0000                	unimp
  101cd8:	0000                	unimp
  101cda:	0000                	unimp
  101cdc:	0000                	unimp
  101cde:	0000                	unimp
  101ce0:	0000                	unimp
  101ce2:	0000                	unimp
  101ce4:	0000                	unimp
  101ce6:	0000                	unimp
  101ce8:	0000                	unimp
  101cea:	0000                	unimp
  101cec:	0000                	unimp
  101cee:	0000                	unimp
  101cf0:	0000                	unimp
  101cf2:	0000                	unimp
  101cf4:	0000                	unimp
  101cf6:	0000                	unimp
  101cf8:	0000                	unimp
  101cfa:	0000                	unimp
  101cfc:	0000                	unimp
  101cfe:	0000                	unimp
  101d00:	0000                	unimp
  101d02:	0000                	unimp
  101d04:	0000                	unimp
  101d06:	0000                	unimp
  101d08:	0000                	unimp
  101d0a:	0000                	unimp
  101d0c:	0000                	unimp
  101d0e:	0000                	unimp
  101d10:	0000                	unimp
  101d12:	0000                	unimp
  101d14:	0000                	unimp
  101d16:	0000                	unimp
  101d18:	0000                	unimp
  101d1a:	0000                	unimp
  101d1c:	0000                	unimp
  101d1e:	0000                	unimp
  101d20:	0000                	unimp
  101d22:	0000                	unimp
  101d24:	0000                	unimp
  101d26:	0000                	unimp
  101d28:	0000                	unimp
  101d2a:	0000                	unimp
  101d2c:	0000                	unimp
  101d2e:	0000                	unimp
  101d30:	0000                	unimp
  101d32:	0000                	unimp
  101d34:	0000                	unimp
  101d36:	0000                	unimp
  101d38:	0000                	unimp
  101d3a:	0000                	unimp
  101d3c:	0000                	unimp
  101d3e:	0000                	unimp
  101d40:	0000                	unimp
  101d42:	0000                	unimp
  101d44:	0000                	unimp
  101d46:	0000                	unimp
  101d48:	0000                	unimp
  101d4a:	0000                	unimp
  101d4c:	0000                	unimp
  101d4e:	0000                	unimp
  101d50:	0000                	unimp
  101d52:	0000                	unimp
  101d54:	0000                	unimp
  101d56:	0000                	unimp
  101d58:	0000                	unimp
  101d5a:	0000                	unimp
  101d5c:	0000                	unimp
  101d5e:	0000                	unimp
  101d60:	0000                	unimp
  101d62:	0000                	unimp
  101d64:	0000                	unimp
  101d66:	0000                	unimp
  101d68:	0000                	unimp
  101d6a:	0000                	unimp
  101d6c:	0000                	unimp
  101d6e:	0000                	unimp
  101d70:	0000                	unimp
  101d72:	0000                	unimp
  101d74:	0000                	unimp
  101d76:	0000                	unimp
  101d78:	0000                	unimp
  101d7a:	0000                	unimp
  101d7c:	0000                	unimp
  101d7e:	0000                	unimp
  101d80:	0000                	unimp
  101d82:	0000                	unimp
  101d84:	0000                	unimp
  101d86:	0000                	unimp
  101d88:	0000                	unimp
  101d8a:	0000                	unimp
  101d8c:	0000                	unimp
  101d8e:	0000                	unimp
  101d90:	0000                	unimp
  101d92:	0000                	unimp
  101d94:	0000                	unimp
  101d96:	0000                	unimp
  101d98:	0000                	unimp
  101d9a:	0000                	unimp
  101d9c:	0000                	unimp
  101d9e:	0000                	unimp
  101da0:	0000                	unimp
  101da2:	0000                	unimp
  101da4:	0000                	unimp
  101da6:	0000                	unimp
  101da8:	0000                	unimp
  101daa:	0000                	unimp
  101dac:	0000                	unimp
  101dae:	0000                	unimp
  101db0:	0000                	unimp
  101db2:	0000                	unimp
  101db4:	0000                	unimp
  101db6:	0000                	unimp
  101db8:	0000                	unimp
  101dba:	0000                	unimp
  101dbc:	0000                	unimp
  101dbe:	0000                	unimp
  101dc0:	0000                	unimp
  101dc2:	0000                	unimp
  101dc4:	0000                	unimp
  101dc6:	0000                	unimp
  101dc8:	0000                	unimp
  101dca:	0000                	unimp
  101dcc:	0000                	unimp
  101dce:	0000                	unimp
  101dd0:	0000                	unimp
  101dd2:	0000                	unimp
  101dd4:	0000                	unimp
  101dd6:	0000                	unimp
  101dd8:	0000                	unimp
  101dda:	0000                	unimp
  101ddc:	0000                	unimp
  101dde:	0000                	unimp
  101de0:	0000                	unimp
  101de2:	0000                	unimp
  101de4:	0000                	unimp
  101de6:	0000                	unimp
  101de8:	0000                	unimp
  101dea:	0000                	unimp
  101dec:	0000                	unimp
  101dee:	0000                	unimp
  101df0:	0000                	unimp
  101df2:	0000                	unimp
  101df4:	0000                	unimp
  101df6:	0000                	unimp
  101df8:	0000                	unimp
  101dfa:	0000                	unimp
  101dfc:	0000                	unimp
  101dfe:	0000                	unimp
  101e00:	0000                	unimp
  101e02:	0000                	unimp
  101e04:	0000                	unimp
  101e06:	0000                	unimp
  101e08:	0000                	unimp
  101e0a:	0000                	unimp
  101e0c:	0000                	unimp
  101e0e:	0000                	unimp
  101e10:	0000                	unimp
  101e12:	0000                	unimp
  101e14:	0000                	unimp
  101e16:	0000                	unimp
  101e18:	0000                	unimp
  101e1a:	0000                	unimp
  101e1c:	0000                	unimp
  101e1e:	0000                	unimp
  101e20:	0000                	unimp
  101e22:	0000                	unimp
  101e24:	0000                	unimp
  101e26:	0000                	unimp
  101e28:	0000                	unimp
  101e2a:	0000                	unimp
  101e2c:	0000                	unimp
  101e2e:	0000                	unimp
  101e30:	0000                	unimp
  101e32:	0000                	unimp
  101e34:	0000                	unimp
  101e36:	0000                	unimp
  101e38:	0000                	unimp
  101e3a:	0000                	unimp
  101e3c:	0000                	unimp
  101e3e:	0000                	unimp
  101e40:	0000                	unimp
  101e42:	0000                	unimp
  101e44:	0000                	unimp
  101e46:	0000                	unimp
  101e48:	0000                	unimp
  101e4a:	0000                	unimp
  101e4c:	0000                	unimp
  101e4e:	0000                	unimp
  101e50:	0000                	unimp
  101e52:	0000                	unimp
  101e54:	0000                	unimp
  101e56:	0000                	unimp
  101e58:	0000                	unimp
  101e5a:	0000                	unimp
  101e5c:	0000                	unimp
  101e5e:	0000                	unimp
  101e60:	0000                	unimp
  101e62:	0000                	unimp
  101e64:	0000                	unimp
  101e66:	0000                	unimp
  101e68:	0000                	unimp
  101e6a:	0000                	unimp
  101e6c:	0000                	unimp
  101e6e:	0000                	unimp
  101e70:	0000                	unimp
  101e72:	0000                	unimp
  101e74:	0000                	unimp
  101e76:	0000                	unimp
  101e78:	0000                	unimp
  101e7a:	0000                	unimp
  101e7c:	0000                	unimp
  101e7e:	0000                	unimp
  101e80:	0000                	unimp
  101e82:	0000                	unimp
  101e84:	0000                	unimp
  101e86:	0000                	unimp
  101e88:	0000                	unimp
  101e8a:	0000                	unimp
  101e8c:	0000                	unimp
  101e8e:	0000                	unimp
  101e90:	0000                	unimp
  101e92:	0000                	unimp
  101e94:	0000                	unimp
  101e96:	0000                	unimp
  101e98:	0000                	unimp
  101e9a:	0000                	unimp
  101e9c:	0000                	unimp
  101e9e:	0000                	unimp
  101ea0:	0000                	unimp
  101ea2:	0000                	unimp
  101ea4:	0000                	unimp
  101ea6:	0000                	unimp
  101ea8:	0000                	unimp
  101eaa:	0000                	unimp
  101eac:	0000                	unimp
  101eae:	0000                	unimp
  101eb0:	0000                	unimp
  101eb2:	0000                	unimp
  101eb4:	0000                	unimp
  101eb6:	0000                	unimp
  101eb8:	0000                	unimp
  101eba:	0000                	unimp
  101ebc:	0000                	unimp
  101ebe:	0000                	unimp
  101ec0:	0000                	unimp
  101ec2:	0000                	unimp
  101ec4:	0000                	unimp
  101ec6:	0000                	unimp
  101ec8:	0000                	unimp
  101eca:	0000                	unimp
  101ecc:	0000                	unimp
  101ece:	0000                	unimp
  101ed0:	0000                	unimp
  101ed2:	0000                	unimp
  101ed4:	0000                	unimp
  101ed6:	0000                	unimp
  101ed8:	0000                	unimp
  101eda:	0000                	unimp
  101edc:	0000                	unimp
  101ede:	0000                	unimp
  101ee0:	0000                	unimp
  101ee2:	0000                	unimp
  101ee4:	0000                	unimp
  101ee6:	0000                	unimp
  101ee8:	0000                	unimp
  101eea:	0000                	unimp
  101eec:	0000                	unimp
  101eee:	0000                	unimp
  101ef0:	0000                	unimp
  101ef2:	0000                	unimp
  101ef4:	0000                	unimp
  101ef6:	0000                	unimp
  101ef8:	0000                	unimp
  101efa:	0000                	unimp
  101efc:	0000                	unimp
  101efe:	0000                	unimp
  101f00:	0000                	unimp
  101f02:	0000                	unimp
  101f04:	0000                	unimp
  101f06:	0000                	unimp
  101f08:	0000                	unimp
  101f0a:	0000                	unimp
  101f0c:	0000                	unimp
  101f0e:	0000                	unimp
  101f10:	0000                	unimp
  101f12:	0000                	unimp
  101f14:	0000                	unimp
  101f16:	0000                	unimp
  101f18:	0000                	unimp
  101f1a:	0000                	unimp
  101f1c:	0000                	unimp
  101f1e:	0000                	unimp
  101f20:	0000                	unimp
  101f22:	0000                	unimp
  101f24:	0000                	unimp
  101f26:	0000                	unimp
  101f28:	0000                	unimp
  101f2a:	0000                	unimp
  101f2c:	0000                	unimp
  101f2e:	0000                	unimp
  101f30:	0000                	unimp
  101f32:	0000                	unimp
  101f34:	0000                	unimp
  101f36:	0000                	unimp
  101f38:	0000                	unimp
  101f3a:	0000                	unimp
  101f3c:	0000                	unimp
  101f3e:	0000                	unimp
  101f40:	0000                	unimp
  101f42:	0000                	unimp
  101f44:	0000                	unimp
  101f46:	0000                	unimp
  101f48:	0000                	unimp
  101f4a:	0000                	unimp
  101f4c:	0000                	unimp
  101f4e:	0000                	unimp
  101f50:	0000                	unimp
  101f52:	0000                	unimp
  101f54:	0000                	unimp
  101f56:	0000                	unimp
  101f58:	0000                	unimp
  101f5a:	0000                	unimp
  101f5c:	0000                	unimp
  101f5e:	0000                	unimp
  101f60:	0000                	unimp
  101f62:	0000                	unimp
  101f64:	0000                	unimp
  101f66:	0000                	unimp
  101f68:	0000                	unimp
  101f6a:	0000                	unimp
  101f6c:	0000                	unimp
  101f6e:	0000                	unimp
  101f70:	0000                	unimp
  101f72:	0000                	unimp
  101f74:	0000                	unimp
  101f76:	0000                	unimp
  101f78:	0000                	unimp
  101f7a:	0000                	unimp
  101f7c:	0000                	unimp
  101f7e:	0000                	unimp
  101f80:	0000                	unimp
  101f82:	0000                	unimp
  101f84:	0000                	unimp
  101f86:	0000                	unimp
  101f88:	0000                	unimp
  101f8a:	0000                	unimp
  101f8c:	0000                	unimp
  101f8e:	0000                	unimp
  101f90:	0000                	unimp
  101f92:	0000                	unimp
  101f94:	0000                	unimp
  101f96:	0000                	unimp
  101f98:	0000                	unimp
  101f9a:	0000                	unimp
  101f9c:	0000                	unimp
  101f9e:	0000                	unimp
  101fa0:	0000                	unimp
  101fa2:	0000                	unimp
  101fa4:	0000                	unimp
  101fa6:	0000                	unimp
  101fa8:	0000                	unimp
  101faa:	0000                	unimp
  101fac:	0000                	unimp
  101fae:	0000                	unimp
  101fb0:	0000                	unimp
  101fb2:	0000                	unimp
  101fb4:	0000                	unimp
  101fb6:	0000                	unimp
  101fb8:	0000                	unimp
  101fba:	0000                	unimp
  101fbc:	0000                	unimp
  101fbe:	0000                	unimp
  101fc0:	0000                	unimp
  101fc2:	0000                	unimp
  101fc4:	0000                	unimp
  101fc6:	0000                	unimp
  101fc8:	0000                	unimp
  101fca:	0000                	unimp
  101fcc:	0000                	unimp
  101fce:	0000                	unimp
  101fd0:	0000                	unimp
  101fd2:	0000                	unimp
  101fd4:	0000                	unimp
  101fd6:	0000                	unimp
  101fd8:	0000                	unimp
  101fda:	0000                	unimp
  101fdc:	0000                	unimp
  101fde:	0000                	unimp
  101fe0:	0000                	unimp
  101fe2:	0000                	unimp
  101fe4:	0000                	unimp
  101fe6:	0000                	unimp
  101fe8:	0000                	unimp
  101fea:	0000                	unimp
  101fec:	0000                	unimp
  101fee:	0000                	unimp
  101ff0:	0000                	unimp
  101ff2:	0000                	unimp
  101ff4:	0000                	unimp
  101ff6:	0000                	unimp
  101ff8:	0000                	unimp
  101ffa:	0000                	unimp
  101ffc:	0000                	unimp
  101ffe:	0000                	unimp
  102000:	0000                	unimp
  102002:	0000                	unimp
  102004:	0000                	unimp
  102006:	0000                	unimp
  102008:	0000                	unimp
  10200a:	0000                	unimp
  10200c:	0000                	unimp
  10200e:	0000                	unimp
  102010:	0000                	unimp
  102012:	0000                	unimp
  102014:	0000                	unimp
  102016:	0000                	unimp
  102018:	0000                	unimp
  10201a:	0000                	unimp
  10201c:	0000                	unimp
  10201e:	0000                	unimp
  102020:	0000                	unimp
  102022:	0000                	unimp
  102024:	0000                	unimp
  102026:	0000                	unimp
  102028:	0000                	unimp
  10202a:	0000                	unimp
  10202c:	0000                	unimp
  10202e:	0000                	unimp
  102030:	0000                	unimp
  102032:	0000                	unimp
  102034:	0000                	unimp
  102036:	0000                	unimp
  102038:	0000                	unimp
  10203a:	0000                	unimp
  10203c:	0000                	unimp
  10203e:	0000                	unimp
  102040:	0000                	unimp
  102042:	0000                	unimp
  102044:	0000                	unimp
  102046:	0000                	unimp
  102048:	0000                	unimp
  10204a:	0000                	unimp
  10204c:	0000                	unimp
  10204e:	0000                	unimp
  102050:	0000                	unimp
  102052:	0000                	unimp
  102054:	0000                	unimp
  102056:	0000                	unimp
  102058:	0000                	unimp
  10205a:	0000                	unimp
  10205c:	0000                	unimp
  10205e:	0000                	unimp
  102060:	0000                	unimp
  102062:	0000                	unimp
  102064:	0000                	unimp
  102066:	0000                	unimp
  102068:	0000                	unimp
  10206a:	0000                	unimp
  10206c:	0000                	unimp
  10206e:	0000                	unimp
  102070:	0000                	unimp
  102072:	0000                	unimp
  102074:	0000                	unimp
  102076:	0000                	unimp
  102078:	0000                	unimp
  10207a:	0000                	unimp
  10207c:	0000                	unimp
  10207e:	0000                	unimp
  102080:	0000                	unimp
  102082:	0000                	unimp
  102084:	0000                	unimp
  102086:	0000                	unimp
  102088:	0000                	unimp
  10208a:	0000                	unimp
  10208c:	0000                	unimp
  10208e:	0000                	unimp
  102090:	0000                	unimp
  102092:	0000                	unimp
  102094:	0000                	unimp
  102096:	0000                	unimp
  102098:	0000                	unimp
  10209a:	0000                	unimp
  10209c:	0000                	unimp
  10209e:	0000                	unimp
  1020a0:	0000                	unimp
  1020a2:	0000                	unimp
  1020a4:	0000                	unimp
  1020a6:	0000                	unimp
  1020a8:	0000                	unimp
  1020aa:	0000                	unimp
  1020ac:	0000                	unimp
  1020ae:	0000                	unimp
  1020b0:	0000                	unimp
  1020b2:	0000                	unimp
  1020b4:	0000                	unimp
  1020b6:	0000                	unimp
  1020b8:	0000                	unimp
  1020ba:	0000                	unimp
  1020bc:	0000                	unimp
  1020be:	0000                	unimp
  1020c0:	0000                	unimp
  1020c2:	0000                	unimp
  1020c4:	0000                	unimp
  1020c6:	0000                	unimp
  1020c8:	0000                	unimp
  1020ca:	0000                	unimp
  1020cc:	0000                	unimp
  1020ce:	0000                	unimp
  1020d0:	0000                	unimp
  1020d2:	0000                	unimp
  1020d4:	0000                	unimp
  1020d6:	0000                	unimp
  1020d8:	0000                	unimp
  1020da:	0000                	unimp
  1020dc:	0000                	unimp
  1020de:	0000                	unimp
  1020e0:	0000                	unimp
  1020e2:	0000                	unimp
  1020e4:	0000                	unimp
  1020e6:	0000                	unimp
  1020e8:	0000                	unimp
  1020ea:	0000                	unimp
  1020ec:	0000                	unimp
  1020ee:	0000                	unimp
  1020f0:	0000                	unimp
  1020f2:	0000                	unimp
  1020f4:	0000                	unimp
  1020f6:	0000                	unimp
  1020f8:	0000                	unimp
  1020fa:	0000                	unimp
  1020fc:	0000                	unimp
  1020fe:	0000                	unimp
  102100:	0000                	unimp
  102102:	0000                	unimp
  102104:	0000                	unimp
  102106:	0000                	unimp
  102108:	0000                	unimp
  10210a:	0000                	unimp
  10210c:	0000                	unimp
  10210e:	0000                	unimp
  102110:	0000                	unimp
  102112:	0000                	unimp
  102114:	0000                	unimp
  102116:	0000                	unimp
  102118:	0000                	unimp
  10211a:	0000                	unimp
  10211c:	0000                	unimp
  10211e:	0000                	unimp
  102120:	0000                	unimp
  102122:	0000                	unimp
  102124:	0000                	unimp
  102126:	0000                	unimp
  102128:	0000                	unimp
  10212a:	0000                	unimp
  10212c:	0000                	unimp
  10212e:	0000                	unimp
  102130:	0000                	unimp
  102132:	0000                	unimp
  102134:	0000                	unimp
  102136:	0000                	unimp
  102138:	0000                	unimp
  10213a:	0000                	unimp
  10213c:	0000                	unimp
  10213e:	0000                	unimp
  102140:	0000                	unimp
  102142:	0000                	unimp
  102144:	0000                	unimp
  102146:	0000                	unimp
  102148:	0000                	unimp
  10214a:	0000                	unimp
  10214c:	0000                	unimp
  10214e:	0000                	unimp
  102150:	0000                	unimp
  102152:	0000                	unimp
  102154:	0000                	unimp
  102156:	0000                	unimp
  102158:	0000                	unimp
  10215a:	0000                	unimp
  10215c:	0000                	unimp
  10215e:	0000                	unimp
  102160:	0000                	unimp
  102162:	0000                	unimp
  102164:	0000                	unimp
  102166:	0000                	unimp
  102168:	0000                	unimp
  10216a:	0000                	unimp
  10216c:	0000                	unimp
  10216e:	0000                	unimp
  102170:	0000                	unimp
  102172:	0000                	unimp
  102174:	0000                	unimp
  102176:	0000                	unimp
  102178:	0000                	unimp
  10217a:	0000                	unimp
  10217c:	0000                	unimp
  10217e:	0000                	unimp
  102180:	0000                	unimp
  102182:	0000                	unimp
  102184:	0000                	unimp
  102186:	0000                	unimp
  102188:	0000                	unimp
  10218a:	0000                	unimp
  10218c:	0000                	unimp
  10218e:	0000                	unimp
  102190:	0000                	unimp
  102192:	0000                	unimp
  102194:	0000                	unimp
  102196:	0000                	unimp
  102198:	0000                	unimp
  10219a:	0000                	unimp
  10219c:	0000                	unimp
  10219e:	0000                	unimp
  1021a0:	0000                	unimp
  1021a2:	0000                	unimp
  1021a4:	0000                	unimp
  1021a6:	0000                	unimp
  1021a8:	0000                	unimp
  1021aa:	0000                	unimp
  1021ac:	0000                	unimp
  1021ae:	0000                	unimp
  1021b0:	0000                	unimp
  1021b2:	0000                	unimp
  1021b4:	0000                	unimp
  1021b6:	0000                	unimp
  1021b8:	0000                	unimp
  1021ba:	0000                	unimp
  1021bc:	0000                	unimp
  1021be:	0000                	unimp
  1021c0:	0000                	unimp
  1021c2:	0000                	unimp
  1021c4:	0000                	unimp
  1021c6:	0000                	unimp
  1021c8:	0000                	unimp
  1021ca:	0000                	unimp
  1021cc:	0000                	unimp
  1021ce:	0000                	unimp
  1021d0:	0000                	unimp
  1021d2:	0000                	unimp
  1021d4:	0000                	unimp
  1021d6:	0000                	unimp
  1021d8:	0000                	unimp
  1021da:	0000                	unimp
  1021dc:	0000                	unimp
  1021de:	0000                	unimp
  1021e0:	0000                	unimp
  1021e2:	0000                	unimp
  1021e4:	0000                	unimp
  1021e6:	0000                	unimp
  1021e8:	0000                	unimp
  1021ea:	0000                	unimp
  1021ec:	0000                	unimp
  1021ee:	0000                	unimp
  1021f0:	0000                	unimp
  1021f2:	0000                	unimp
  1021f4:	0000                	unimp
  1021f6:	0000                	unimp
  1021f8:	0000                	unimp
  1021fa:	0000                	unimp
  1021fc:	0000                	unimp
  1021fe:	0000                	unimp
  102200:	0000                	unimp
  102202:	0000                	unimp
  102204:	0000                	unimp
  102206:	0000                	unimp
  102208:	0000                	unimp
  10220a:	0000                	unimp
  10220c:	0000                	unimp
  10220e:	0000                	unimp
  102210:	0000                	unimp
  102212:	0000                	unimp
  102214:	0000                	unimp
  102216:	0000                	unimp
  102218:	0000                	unimp
  10221a:	0000                	unimp
  10221c:	0000                	unimp
  10221e:	0000                	unimp
  102220:	0000                	unimp
  102222:	0000                	unimp
  102224:	0000                	unimp
  102226:	0000                	unimp
  102228:	0000                	unimp
  10222a:	0000                	unimp
  10222c:	0000                	unimp
  10222e:	0000                	unimp
  102230:	0000                	unimp
  102232:	0000                	unimp
  102234:	0000                	unimp
  102236:	0000                	unimp
  102238:	0000                	unimp
  10223a:	0000                	unimp
  10223c:	0000                	unimp
  10223e:	0000                	unimp
  102240:	0000                	unimp
  102242:	0000                	unimp
  102244:	0000                	unimp
  102246:	0000                	unimp
  102248:	0000                	unimp
  10224a:	0000                	unimp
  10224c:	0000                	unimp
  10224e:	0000                	unimp
  102250:	0000                	unimp
  102252:	0000                	unimp
  102254:	0000                	unimp
  102256:	0000                	unimp
  102258:	0000                	unimp
  10225a:	0000                	unimp
  10225c:	0000                	unimp
  10225e:	0000                	unimp
  102260:	0000                	unimp
  102262:	0000                	unimp
  102264:	0000                	unimp
  102266:	0000                	unimp
  102268:	0000                	unimp
  10226a:	0000                	unimp
  10226c:	0000                	unimp
  10226e:	0000                	unimp
  102270:	0000                	unimp
  102272:	0000                	unimp
  102274:	0000                	unimp
  102276:	0000                	unimp
  102278:	0000                	unimp
  10227a:	0000                	unimp
  10227c:	0000                	unimp
  10227e:	0000                	unimp
  102280:	0000                	unimp
  102282:	0000                	unimp
  102284:	0000                	unimp
  102286:	0000                	unimp
  102288:	0000                	unimp
  10228a:	0000                	unimp
  10228c:	0000                	unimp
  10228e:	0000                	unimp
  102290:	0000                	unimp
  102292:	0000                	unimp
  102294:	0000                	unimp
  102296:	0000                	unimp
  102298:	0000                	unimp
  10229a:	0000                	unimp
  10229c:	0000                	unimp
  10229e:	0000                	unimp
  1022a0:	0000                	unimp
  1022a2:	0000                	unimp
  1022a4:	0000                	unimp
  1022a6:	0000                	unimp
  1022a8:	0000                	unimp
  1022aa:	0000                	unimp
  1022ac:	0000                	unimp
  1022ae:	0000                	unimp
  1022b0:	0000                	unimp
  1022b2:	0000                	unimp
  1022b4:	0000                	unimp
  1022b6:	0000                	unimp
  1022b8:	0000                	unimp
  1022ba:	0000                	unimp
  1022bc:	0000                	unimp
  1022be:	0000                	unimp
  1022c0:	0000                	unimp
  1022c2:	0000                	unimp
  1022c4:	0000                	unimp
  1022c6:	0000                	unimp
  1022c8:	0000                	unimp
  1022ca:	0000                	unimp
  1022cc:	0000                	unimp
  1022ce:	0000                	unimp
  1022d0:	0000                	unimp
  1022d2:	0000                	unimp
  1022d4:	0000                	unimp
  1022d6:	0000                	unimp
  1022d8:	0000                	unimp
  1022da:	0000                	unimp
  1022dc:	0000                	unimp
  1022de:	0000                	unimp
  1022e0:	0000                	unimp
  1022e2:	0000                	unimp
  1022e4:	0000                	unimp
  1022e6:	0000                	unimp
  1022e8:	0000                	unimp
  1022ea:	0000                	unimp
  1022ec:	0000                	unimp
  1022ee:	0000                	unimp
  1022f0:	0000                	unimp
  1022f2:	0000                	unimp
  1022f4:	0000                	unimp
  1022f6:	0000                	unimp
  1022f8:	0000                	unimp
  1022fa:	0000                	unimp
  1022fc:	0000                	unimp
  1022fe:	0000                	unimp
  102300:	0000                	unimp
  102302:	0000                	unimp
  102304:	0000                	unimp
  102306:	0000                	unimp
  102308:	0000                	unimp
  10230a:	0000                	unimp
  10230c:	0000                	unimp
  10230e:	0000                	unimp
  102310:	0000                	unimp
  102312:	0000                	unimp
  102314:	0000                	unimp
  102316:	0000                	unimp
  102318:	0000                	unimp
  10231a:	0000                	unimp
  10231c:	0000                	unimp
  10231e:	0000                	unimp
  102320:	0000                	unimp
  102322:	0000                	unimp
  102324:	0000                	unimp
  102326:	0000                	unimp
  102328:	0000                	unimp
  10232a:	0000                	unimp
  10232c:	0000                	unimp
  10232e:	0000                	unimp
  102330:	0000                	unimp
  102332:	0000                	unimp
  102334:	0000                	unimp
  102336:	0000                	unimp
  102338:	0000                	unimp
  10233a:	0000                	unimp
  10233c:	0000                	unimp
  10233e:	0000                	unimp
  102340:	0000                	unimp
  102342:	0000                	unimp
  102344:	0000                	unimp
  102346:	0000                	unimp
  102348:	0000                	unimp
  10234a:	0000                	unimp
  10234c:	0000                	unimp
  10234e:	0000                	unimp
  102350:	0000                	unimp
  102352:	0000                	unimp
  102354:	0000                	unimp
  102356:	0000                	unimp
  102358:	0000                	unimp
  10235a:	0000                	unimp
  10235c:	0000                	unimp
  10235e:	0000                	unimp
  102360:	0000                	unimp
  102362:	0000                	unimp
  102364:	0000                	unimp
  102366:	0000                	unimp
  102368:	0000                	unimp
  10236a:	0000                	unimp
  10236c:	0000                	unimp
  10236e:	0000                	unimp
  102370:	0000                	unimp
  102372:	0000                	unimp
  102374:	0000                	unimp
  102376:	0000                	unimp
  102378:	0000                	unimp
  10237a:	0000                	unimp
  10237c:	0000                	unimp
  10237e:	0000                	unimp
  102380:	0000                	unimp
  102382:	0000                	unimp
  102384:	0000                	unimp
  102386:	0000                	unimp
  102388:	0000                	unimp
  10238a:	0000                	unimp
  10238c:	0000                	unimp
  10238e:	0000                	unimp
  102390:	0000                	unimp
  102392:	0000                	unimp
  102394:	0000                	unimp
  102396:	0000                	unimp
  102398:	0000                	unimp
  10239a:	0000                	unimp
  10239c:	0000                	unimp
  10239e:	0000                	unimp
  1023a0:	0000                	unimp
  1023a2:	0000                	unimp
  1023a4:	0000                	unimp
  1023a6:	0000                	unimp
  1023a8:	0000                	unimp
  1023aa:	0000                	unimp
  1023ac:	0000                	unimp
  1023ae:	0000                	unimp
  1023b0:	0000                	unimp
  1023b2:	0000                	unimp
  1023b4:	0000                	unimp
  1023b6:	0000                	unimp
  1023b8:	0000                	unimp
  1023ba:	0000                	unimp
  1023bc:	0000                	unimp
  1023be:	0000                	unimp
  1023c0:	0000                	unimp
  1023c2:	0000                	unimp
  1023c4:	0000                	unimp
  1023c6:	0000                	unimp
  1023c8:	0000                	unimp
  1023ca:	0000                	unimp
  1023cc:	0000                	unimp
  1023ce:	0000                	unimp
  1023d0:	0000                	unimp
  1023d2:	0000                	unimp
  1023d4:	0000                	unimp
  1023d6:	0000                	unimp
  1023d8:	0000                	unimp
  1023da:	0000                	unimp
  1023dc:	0000                	unimp
  1023de:	0000                	unimp
  1023e0:	0000                	unimp
  1023e2:	0000                	unimp
  1023e4:	0000                	unimp
  1023e6:	0000                	unimp
  1023e8:	0000                	unimp
  1023ea:	0000                	unimp
  1023ec:	0000                	unimp
  1023ee:	0000                	unimp
  1023f0:	0000                	unimp
  1023f2:	0000                	unimp
  1023f4:	0000                	unimp
  1023f6:	0000                	unimp
  1023f8:	0000                	unimp
  1023fa:	0000                	unimp
  1023fc:	0000                	unimp
  1023fe:	0000                	unimp
  102400:	0000                	unimp
  102402:	0000                	unimp
  102404:	0000                	unimp
  102406:	0000                	unimp
  102408:	0000                	unimp
  10240a:	0000                	unimp
  10240c:	0000                	unimp
  10240e:	0000                	unimp
  102410:	0000                	unimp
  102412:	0000                	unimp
  102414:	0000                	unimp
  102416:	0000                	unimp
  102418:	0000                	unimp
  10241a:	0000                	unimp
  10241c:	0000                	unimp
  10241e:	0000                	unimp
  102420:	0000                	unimp
  102422:	0000                	unimp
  102424:	0000                	unimp
  102426:	0000                	unimp
  102428:	0000                	unimp
  10242a:	0000                	unimp
  10242c:	0000                	unimp
  10242e:	0000                	unimp
  102430:	0000                	unimp
  102432:	0000                	unimp
  102434:	0000                	unimp
  102436:	0000                	unimp
  102438:	0000                	unimp
  10243a:	0000                	unimp
  10243c:	0000                	unimp
  10243e:	0000                	unimp
  102440:	0000                	unimp
  102442:	0000                	unimp
  102444:	0000                	unimp
  102446:	0000                	unimp
  102448:	0000                	unimp
  10244a:	0000                	unimp
  10244c:	0000                	unimp
  10244e:	0000                	unimp
  102450:	0000                	unimp
  102452:	0000                	unimp
  102454:	0000                	unimp
  102456:	0000                	unimp
  102458:	0000                	unimp
  10245a:	0000                	unimp
  10245c:	0000                	unimp
  10245e:	0000                	unimp
  102460:	0000                	unimp
  102462:	0000                	unimp
  102464:	0000                	unimp
  102466:	0000                	unimp
  102468:	0000                	unimp
  10246a:	0000                	unimp
  10246c:	0000                	unimp
  10246e:	0000                	unimp
  102470:	0000                	unimp
  102472:	0000                	unimp
  102474:	0000                	unimp
  102476:	0000                	unimp
  102478:	0000                	unimp
  10247a:	0000                	unimp
  10247c:	0000                	unimp
  10247e:	0000                	unimp
  102480:	0000                	unimp
  102482:	0000                	unimp
  102484:	0000                	unimp
  102486:	0000                	unimp
  102488:	0000                	unimp
  10248a:	0000                	unimp
  10248c:	0000                	unimp
  10248e:	0000                	unimp
  102490:	0000                	unimp
  102492:	0000                	unimp
  102494:	0000                	unimp
  102496:	0000                	unimp
  102498:	0000                	unimp
  10249a:	0000                	unimp
  10249c:	0000                	unimp
  10249e:	0000                	unimp
  1024a0:	0000                	unimp
  1024a2:	0000                	unimp
  1024a4:	0000                	unimp
  1024a6:	0000                	unimp
  1024a8:	0000                	unimp
  1024aa:	0000                	unimp
  1024ac:	0000                	unimp
  1024ae:	0000                	unimp
  1024b0:	0000                	unimp
  1024b2:	0000                	unimp
  1024b4:	0000                	unimp
  1024b6:	0000                	unimp
  1024b8:	0000                	unimp
  1024ba:	0000                	unimp
  1024bc:	0000                	unimp
  1024be:	0000                	unimp
  1024c0:	0000                	unimp
  1024c2:	0000                	unimp
  1024c4:	0000                	unimp
  1024c6:	0000                	unimp
  1024c8:	0000                	unimp
  1024ca:	0000                	unimp
  1024cc:	0000                	unimp
  1024ce:	0000                	unimp
  1024d0:	0000                	unimp
  1024d2:	0000                	unimp
  1024d4:	0000                	unimp
  1024d6:	0000                	unimp
  1024d8:	0000                	unimp
  1024da:	0000                	unimp
  1024dc:	0000                	unimp
  1024de:	0000                	unimp
  1024e0:	0000                	unimp
  1024e2:	0000                	unimp
  1024e4:	0000                	unimp
  1024e6:	0000                	unimp
  1024e8:	0000                	unimp
  1024ea:	0000                	unimp
  1024ec:	0000                	unimp
  1024ee:	0000                	unimp
  1024f0:	0000                	unimp
  1024f2:	0000                	unimp
  1024f4:	0000                	unimp
  1024f6:	0000                	unimp
  1024f8:	0000                	unimp
  1024fa:	0000                	unimp
  1024fc:	0000                	unimp
  1024fe:	0000                	unimp
  102500:	0000                	unimp
  102502:	0000                	unimp
  102504:	0000                	unimp
  102506:	0000                	unimp
  102508:	0000                	unimp
  10250a:	0000                	unimp
  10250c:	0000                	unimp
  10250e:	0000                	unimp
  102510:	0000                	unimp
  102512:	0000                	unimp
  102514:	0000                	unimp
  102516:	0000                	unimp
  102518:	0000                	unimp
  10251a:	0000                	unimp
  10251c:	0000                	unimp
  10251e:	0000                	unimp
  102520:	0000                	unimp
  102522:	0000                	unimp
  102524:	0000                	unimp
  102526:	0000                	unimp
  102528:	0000                	unimp
  10252a:	0000                	unimp
  10252c:	0000                	unimp
  10252e:	0000                	unimp
  102530:	0000                	unimp
  102532:	0000                	unimp
  102534:	0000                	unimp
  102536:	0000                	unimp
  102538:	0000                	unimp
  10253a:	0000                	unimp
  10253c:	0000                	unimp
  10253e:	0000                	unimp
  102540:	0000                	unimp
  102542:	0000                	unimp
  102544:	0000                	unimp
  102546:	0000                	unimp
  102548:	0000                	unimp
  10254a:	0000                	unimp
  10254c:	0000                	unimp
  10254e:	0000                	unimp
  102550:	0000                	unimp
  102552:	0000                	unimp
  102554:	0000                	unimp
  102556:	0000                	unimp
  102558:	0000                	unimp
  10255a:	0000                	unimp
  10255c:	0000                	unimp
  10255e:	0000                	unimp
  102560:	0000                	unimp
  102562:	0000                	unimp
  102564:	0000                	unimp
  102566:	0000                	unimp
  102568:	0000                	unimp
  10256a:	0000                	unimp
  10256c:	0000                	unimp
  10256e:	0000                	unimp
  102570:	0000                	unimp
  102572:	0000                	unimp
  102574:	0000                	unimp
  102576:	0000                	unimp
  102578:	0000                	unimp
  10257a:	0000                	unimp
  10257c:	0000                	unimp
  10257e:	0000                	unimp
  102580:	0000                	unimp
  102582:	0000                	unimp
  102584:	0000                	unimp
  102586:	0000                	unimp
  102588:	0000                	unimp
  10258a:	0000                	unimp
  10258c:	0000                	unimp
  10258e:	0000                	unimp
  102590:	0000                	unimp
  102592:	0000                	unimp
  102594:	0000                	unimp
  102596:	0000                	unimp
  102598:	0000                	unimp
  10259a:	0000                	unimp
  10259c:	0000                	unimp
  10259e:	0000                	unimp
  1025a0:	0000                	unimp
  1025a2:	0000                	unimp
  1025a4:	0000                	unimp
  1025a6:	0000                	unimp
  1025a8:	0000                	unimp
  1025aa:	0000                	unimp
  1025ac:	0000                	unimp
  1025ae:	0000                	unimp
  1025b0:	0000                	unimp
  1025b2:	0000                	unimp
  1025b4:	0000                	unimp
  1025b6:	0000                	unimp
  1025b8:	0000                	unimp
  1025ba:	0000                	unimp
  1025bc:	0000                	unimp
  1025be:	0000                	unimp
  1025c0:	0000                	unimp
  1025c2:	0000                	unimp
  1025c4:	0000                	unimp
  1025c6:	0000                	unimp
  1025c8:	0000                	unimp
  1025ca:	0000                	unimp
  1025cc:	0000                	unimp
  1025ce:	0000                	unimp
  1025d0:	0000                	unimp
  1025d2:	0000                	unimp
  1025d4:	0000                	unimp
  1025d6:	0000                	unimp
  1025d8:	0000                	unimp
  1025da:	0000                	unimp
  1025dc:	0000                	unimp
  1025de:	0000                	unimp
  1025e0:	0000                	unimp
  1025e2:	0000                	unimp
  1025e4:	0000                	unimp
  1025e6:	0000                	unimp
  1025e8:	0000                	unimp
  1025ea:	0000                	unimp

001025ec <used>:
  1025ec:	0000                	unimp
  1025ee:	0000                	unimp
  1025f0:	0000                	unimp
  1025f2:	0000                	unimp
  1025f4:	0000                	unimp
  1025f6:	0000                	unimp
  1025f8:	0000                	unimp
  1025fa:	0000                	unimp
  1025fc:	0000                	unimp
  1025fe:	0000                	unimp
  102600:	0000                	unimp
  102602:	0000                	unimp
  102604:	0000                	unimp
  102606:	0000                	unimp
  102608:	0000                	unimp
  10260a:	0000                	unimp
  10260c:	0000                	unimp
  10260e:	0000                	unimp
  102610:	0000                	unimp
  102612:	0000                	unimp
  102614:	0000                	unimp
  102616:	0000                	unimp
  102618:	0000                	unimp
  10261a:	0000                	unimp
  10261c:	0000                	unimp
  10261e:	0000                	unimp
  102620:	0000                	unimp
  102622:	0000                	unimp
  102624:	0000                	unimp
  102626:	0000                	unimp
  102628:	0000                	unimp
  10262a:	0000                	unimp
  10262c:	0000                	unimp
  10262e:	0000                	unimp
  102630:	0000                	unimp
  102632:	0000                	unimp
  102634:	0000                	unimp
  102636:	0000                	unimp
  102638:	0000                	unimp
  10263a:	0000                	unimp
  10263c:	0000                	unimp
  10263e:	0000                	unimp
  102640:	0000                	unimp
  102642:	0000                	unimp
  102644:	0000                	unimp
  102646:	0000                	unimp
  102648:	0000                	unimp
  10264a:	0000                	unimp
  10264c:	0000                	unimp
  10264e:	0000                	unimp
  102650:	0000                	unimp
  102652:	0000                	unimp
  102654:	0000                	unimp
  102656:	0000                	unimp
  102658:	0000                	unimp
  10265a:	0000                	unimp
  10265c:	0000                	unimp
  10265e:	0000                	unimp
  102660:	0000                	unimp
  102662:	0000                	unimp
  102664:	0000                	unimp
  102666:	0000                	unimp
  102668:	0000                	unimp
  10266a:	0000                	unimp
  10266c:	0000                	unimp
  10266e:	0000                	unimp
  102670:	0000                	unimp
  102672:	0000                	unimp
  102674:	0000                	unimp
  102676:	0000                	unimp
  102678:	0000                	unimp
  10267a:	0000                	unimp
  10267c:	0000                	unimp
  10267e:	0000                	unimp
  102680:	0000                	unimp
  102682:	0000                	unimp
  102684:	0000                	unimp
  102686:	0000                	unimp
  102688:	0000                	unimp
  10268a:	0000                	unimp
  10268c:	0000                	unimp
  10268e:	0000                	unimp
  102690:	0000                	unimp
  102692:	0000                	unimp
  102694:	0000                	unimp
  102696:	0000                	unimp
  102698:	0000                	unimp
  10269a:	0000                	unimp
  10269c:	0000                	unimp
  10269e:	0000                	unimp
  1026a0:	0000                	unimp
  1026a2:	0000                	unimp
  1026a4:	0000                	unimp
  1026a6:	0000                	unimp
  1026a8:	0000                	unimp
  1026aa:	0000                	unimp
  1026ac:	0000                	unimp
  1026ae:	0000                	unimp
  1026b0:	0000                	unimp
  1026b2:	0000                	unimp
  1026b4:	0000                	unimp
  1026b6:	0000                	unimp
  1026b8:	0000                	unimp
  1026ba:	0000                	unimp
  1026bc:	0000                	unimp
  1026be:	0000                	unimp
  1026c0:	0000                	unimp
  1026c2:	0000                	unimp
  1026c4:	0000                	unimp
  1026c6:	0000                	unimp
  1026c8:	0000                	unimp
  1026ca:	0000                	unimp
  1026cc:	0000                	unimp
  1026ce:	0000                	unimp
  1026d0:	0000                	unimp
  1026d2:	0000                	unimp
  1026d4:	0000                	unimp
  1026d6:	0000                	unimp
  1026d8:	0000                	unimp
  1026da:	0000                	unimp
  1026dc:	0000                	unimp
  1026de:	0000                	unimp
  1026e0:	0000                	unimp
  1026e2:	0000                	unimp
  1026e4:	0000                	unimp
  1026e6:	0000                	unimp
  1026e8:	0000                	unimp
  1026ea:	0000                	unimp
  1026ec:	0000                	unimp
  1026ee:	0000                	unimp
  1026f0:	0000                	unimp
  1026f2:	0000                	unimp
  1026f4:	0000                	unimp
  1026f6:	0000                	unimp
  1026f8:	0000                	unimp
  1026fa:	0000                	unimp
  1026fc:	0000                	unimp
  1026fe:	0000                	unimp
  102700:	0000                	unimp
  102702:	0000                	unimp
  102704:	0000                	unimp
  102706:	0000                	unimp
  102708:	0000                	unimp
  10270a:	0000                	unimp
  10270c:	0000                	unimp
  10270e:	0000                	unimp
  102710:	0000                	unimp
  102712:	0000                	unimp
  102714:	0000                	unimp
  102716:	0000                	unimp
  102718:	0000                	unimp
  10271a:	0000                	unimp
  10271c:	0000                	unimp
  10271e:	0000                	unimp
  102720:	0000                	unimp
  102722:	0000                	unimp
  102724:	0000                	unimp
  102726:	0000                	unimp
  102728:	0000                	unimp
  10272a:	0000                	unimp
  10272c:	0000                	unimp
  10272e:	0000                	unimp
  102730:	0000                	unimp
  102732:	0000                	unimp
  102734:	0000                	unimp
  102736:	0000                	unimp
  102738:	0000                	unimp
  10273a:	0000                	unimp
  10273c:	0000                	unimp
  10273e:	0000                	unimp
  102740:	0000                	unimp
  102742:	0000                	unimp
  102744:	0000                	unimp
  102746:	0000                	unimp
  102748:	0000                	unimp
  10274a:	0000                	unimp
  10274c:	0000                	unimp
  10274e:	0000                	unimp
  102750:	0000                	unimp
  102752:	0000                	unimp
  102754:	0000                	unimp
  102756:	0000                	unimp
  102758:	0000                	unimp
  10275a:	0000                	unimp
  10275c:	0000                	unimp
  10275e:	0000                	unimp
  102760:	0000                	unimp
  102762:	0000                	unimp
  102764:	0000                	unimp
  102766:	0000                	unimp
  102768:	0000                	unimp
  10276a:	0000                	unimp
  10276c:	0000                	unimp
  10276e:	0000                	unimp
  102770:	0000                	unimp
  102772:	0000                	unimp
  102774:	0000                	unimp
  102776:	0000                	unimp
  102778:	0000                	unimp
  10277a:	0000                	unimp
  10277c:	0000                	unimp
  10277e:	0000                	unimp
  102780:	0000                	unimp
  102782:	0000                	unimp
  102784:	0000                	unimp
  102786:	0000                	unimp
  102788:	0000                	unimp
  10278a:	0000                	unimp
  10278c:	0000                	unimp
  10278e:	0000                	unimp
  102790:	0000                	unimp
  102792:	0000                	unimp
  102794:	0000                	unimp
  102796:	0000                	unimp
  102798:	0000                	unimp
  10279a:	0000                	unimp
  10279c:	0000                	unimp
  10279e:	0000                	unimp
  1027a0:	0000                	unimp
  1027a2:	0000                	unimp
  1027a4:	0000                	unimp
  1027a6:	0000                	unimp
  1027a8:	0000                	unimp
  1027aa:	0000                	unimp
  1027ac:	0000                	unimp
  1027ae:	0000                	unimp
  1027b0:	0000                	unimp
  1027b2:	0000                	unimp
  1027b4:	0000                	unimp
  1027b6:	0000                	unimp
  1027b8:	0000                	unimp
  1027ba:	0000                	unimp
  1027bc:	0000                	unimp
  1027be:	0000                	unimp
  1027c0:	0000                	unimp
  1027c2:	0000                	unimp
  1027c4:	0000                	unimp
  1027c6:	0000                	unimp
  1027c8:	0000                	unimp
  1027ca:	0000                	unimp
  1027cc:	0000                	unimp
  1027ce:	0000                	unimp
  1027d0:	0000                	unimp
  1027d2:	0000                	unimp
  1027d4:	0000                	unimp
  1027d6:	0000                	unimp
  1027d8:	0000                	unimp
  1027da:	0000                	unimp
  1027dc:	0000                	unimp
  1027de:	0000                	unimp
  1027e0:	0000                	unimp
  1027e2:	0000                	unimp
  1027e4:	0000                	unimp
  1027e6:	0000                	unimp
  1027e8:	0000                	unimp
  1027ea:	0000                	unimp
  1027ec:	0000                	unimp
  1027ee:	0000                	unimp
  1027f0:	0000                	unimp
  1027f2:	0000                	unimp
  1027f4:	0000                	unimp
  1027f6:	0000                	unimp
  1027f8:	0000                	unimp
  1027fa:	0000                	unimp
  1027fc:	0000                	unimp
  1027fe:	0000                	unimp
  102800:	0000                	unimp
  102802:	0000                	unimp
  102804:	0000                	unimp
  102806:	0000                	unimp
  102808:	0000                	unimp
  10280a:	0000                	unimp
  10280c:	0000                	unimp
  10280e:	0000                	unimp
  102810:	0000                	unimp
  102812:	0000                	unimp
  102814:	0000                	unimp
  102816:	0000                	unimp
  102818:	0000                	unimp
  10281a:	0000                	unimp
  10281c:	0000                	unimp
  10281e:	0000                	unimp
  102820:	0000                	unimp
  102822:	0000                	unimp
  102824:	0000                	unimp
  102826:	0000                	unimp
  102828:	0000                	unimp
  10282a:	0000                	unimp
  10282c:	0000                	unimp
  10282e:	0000                	unimp
  102830:	0000                	unimp
  102832:	0000                	unimp
  102834:	0000                	unimp
  102836:	0000                	unimp
  102838:	0000                	unimp
  10283a:	0000                	unimp
  10283c:	0000                	unimp
  10283e:	0000                	unimp
  102840:	0000                	unimp
  102842:	0000                	unimp
  102844:	0000                	unimp
  102846:	0000                	unimp
  102848:	0000                	unimp
  10284a:	0000                	unimp
  10284c:	0000                	unimp
  10284e:	0000                	unimp
  102850:	0000                	unimp
  102852:	0000                	unimp
  102854:	0000                	unimp
  102856:	0000                	unimp
  102858:	0000                	unimp
  10285a:	0000                	unimp
  10285c:	0000                	unimp
  10285e:	0000                	unimp
  102860:	0000                	unimp
  102862:	0000                	unimp
  102864:	0000                	unimp
  102866:	0000                	unimp
  102868:	0000                	unimp
  10286a:	0000                	unimp
  10286c:	0000                	unimp
  10286e:	0000                	unimp
  102870:	0000                	unimp
  102872:	0000                	unimp
  102874:	0000                	unimp
  102876:	0000                	unimp
  102878:	0000                	unimp
  10287a:	0000                	unimp
  10287c:	0000                	unimp
  10287e:	0000                	unimp
  102880:	0000                	unimp
  102882:	0000                	unimp
  102884:	0000                	unimp
  102886:	0000                	unimp
  102888:	0000                	unimp
  10288a:	0000                	unimp
  10288c:	0000                	unimp
  10288e:	0000                	unimp
  102890:	0000                	unimp
  102892:	0000                	unimp
  102894:	0000                	unimp
  102896:	0000                	unimp
  102898:	0000                	unimp
  10289a:	0000                	unimp
  10289c:	0000                	unimp
  10289e:	0000                	unimp
  1028a0:	0000                	unimp
  1028a2:	0000                	unimp
  1028a4:	0000                	unimp
  1028a6:	0000                	unimp
  1028a8:	0000                	unimp
  1028aa:	0000                	unimp
  1028ac:	0000                	unimp
  1028ae:	0000                	unimp
  1028b0:	0000                	unimp
  1028b2:	0000                	unimp
  1028b4:	0000                	unimp
  1028b6:	0000                	unimp
  1028b8:	0000                	unimp
  1028ba:	0000                	unimp
  1028bc:	0000                	unimp
  1028be:	0000                	unimp
  1028c0:	0000                	unimp
  1028c2:	0000                	unimp
  1028c4:	0000                	unimp
  1028c6:	0000                	unimp
  1028c8:	0000                	unimp
  1028ca:	0000                	unimp
  1028cc:	0000                	unimp
  1028ce:	0000                	unimp
  1028d0:	0000                	unimp
  1028d2:	0000                	unimp
  1028d4:	0000                	unimp
  1028d6:	0000                	unimp
  1028d8:	0000                	unimp
  1028da:	0000                	unimp
  1028dc:	0000                	unimp
  1028de:	0000                	unimp
  1028e0:	0000                	unimp
  1028e2:	0000                	unimp
  1028e4:	0000                	unimp
  1028e6:	0000                	unimp
  1028e8:	0000                	unimp
  1028ea:	0000                	unimp
  1028ec:	0000                	unimp
  1028ee:	0000                	unimp
  1028f0:	0000                	unimp
  1028f2:	0000                	unimp
  1028f4:	0000                	unimp
  1028f6:	0000                	unimp
  1028f8:	0000                	unimp
  1028fa:	0000                	unimp
  1028fc:	0000                	unimp
  1028fe:	0000                	unimp
  102900:	0000                	unimp
  102902:	0000                	unimp
  102904:	0000                	unimp
  102906:	0000                	unimp
  102908:	0000                	unimp
  10290a:	0000                	unimp
  10290c:	0000                	unimp
  10290e:	0000                	unimp
  102910:	0000                	unimp
  102912:	0000                	unimp
  102914:	0000                	unimp
  102916:	0000                	unimp
  102918:	0000                	unimp
  10291a:	0000                	unimp
  10291c:	0000                	unimp
  10291e:	0000                	unimp
  102920:	0000                	unimp
  102922:	0000                	unimp
  102924:	0000                	unimp
  102926:	0000                	unimp
  102928:	0000                	unimp
  10292a:	0000                	unimp
  10292c:	0000                	unimp
  10292e:	0000                	unimp
  102930:	0000                	unimp
  102932:	0000                	unimp
  102934:	0000                	unimp
  102936:	0000                	unimp
  102938:	0000                	unimp
  10293a:	0000                	unimp
  10293c:	0000                	unimp
  10293e:	0000                	unimp
  102940:	0000                	unimp
  102942:	0000                	unimp
  102944:	0000                	unimp
  102946:	0000                	unimp
  102948:	0000                	unimp
  10294a:	0000                	unimp
  10294c:	0000                	unimp
  10294e:	0000                	unimp
  102950:	0000                	unimp
  102952:	0000                	unimp
  102954:	0000                	unimp
  102956:	0000                	unimp
  102958:	0000                	unimp
  10295a:	0000                	unimp
  10295c:	0000                	unimp
  10295e:	0000                	unimp
  102960:	0000                	unimp
  102962:	0000                	unimp
  102964:	0000                	unimp
  102966:	0000                	unimp
  102968:	0000                	unimp
  10296a:	0000                	unimp
  10296c:	0000                	unimp
  10296e:	0000                	unimp
  102970:	0000                	unimp
  102972:	0000                	unimp
  102974:	0000                	unimp
  102976:	0000                	unimp
  102978:	0000                	unimp
  10297a:	0000                	unimp
  10297c:	0000                	unimp
  10297e:	0000                	unimp
  102980:	0000                	unimp
  102982:	0000                	unimp
  102984:	0000                	unimp
  102986:	0000                	unimp
  102988:	0000                	unimp
  10298a:	0000                	unimp
  10298c:	0000                	unimp
  10298e:	0000                	unimp
  102990:	0000                	unimp
  102992:	0000                	unimp
  102994:	0000                	unimp
  102996:	0000                	unimp
  102998:	0000                	unimp
  10299a:	0000                	unimp
  10299c:	0000                	unimp
  10299e:	0000                	unimp
  1029a0:	0000                	unimp
  1029a2:	0000                	unimp
  1029a4:	0000                	unimp
  1029a6:	0000                	unimp
  1029a8:	0000                	unimp
  1029aa:	0000                	unimp
  1029ac:	0000                	unimp
  1029ae:	0000                	unimp
  1029b0:	0000                	unimp
  1029b2:	0000                	unimp
  1029b4:	0000                	unimp
  1029b6:	0000                	unimp
  1029b8:	0000                	unimp
  1029ba:	0000                	unimp
  1029bc:	0000                	unimp
  1029be:	0000                	unimp
  1029c0:	0000                	unimp
  1029c2:	0000                	unimp
  1029c4:	0000                	unimp
  1029c6:	0000                	unimp
  1029c8:	0000                	unimp
  1029ca:	0000                	unimp
  1029cc:	0000                	unimp
  1029ce:	0000                	unimp
  1029d0:	0000                	unimp
  1029d2:	0000                	unimp
  1029d4:	0000                	unimp
  1029d6:	0000                	unimp
  1029d8:	0000                	unimp
  1029da:	0000                	unimp
  1029dc:	0000                	unimp
  1029de:	0000                	unimp
  1029e0:	0000                	unimp
  1029e2:	0000                	unimp
  1029e4:	0000                	unimp
  1029e6:	0000                	unimp
  1029e8:	0000                	unimp
  1029ea:	0000                	unimp
  1029ec:	0000                	unimp
  1029ee:	0000                	unimp
  1029f0:	0000                	unimp
  1029f2:	0000                	unimp
  1029f4:	0000                	unimp
  1029f6:	0000                	unimp
  1029f8:	0000                	unimp
  1029fa:	0000                	unimp
  1029fc:	0000                	unimp
  1029fe:	0000                	unimp
  102a00:	0000                	unimp
  102a02:	0000                	unimp
  102a04:	0000                	unimp
  102a06:	0000                	unimp
  102a08:	0000                	unimp
  102a0a:	0000                	unimp
  102a0c:	0000                	unimp
  102a0e:	0000                	unimp
  102a10:	0000                	unimp
  102a12:	0000                	unimp
  102a14:	0000                	unimp
  102a16:	0000                	unimp
  102a18:	0000                	unimp
  102a1a:	0000                	unimp
  102a1c:	0000                	unimp
  102a1e:	0000                	unimp
  102a20:	0000                	unimp
  102a22:	0000                	unimp
  102a24:	0000                	unimp
  102a26:	0000                	unimp
  102a28:	0000                	unimp
  102a2a:	0000                	unimp
  102a2c:	0000                	unimp
  102a2e:	0000                	unimp
  102a30:	0000                	unimp
  102a32:	0000                	unimp
  102a34:	0000                	unimp
  102a36:	0000                	unimp
  102a38:	0000                	unimp
  102a3a:	0000                	unimp
  102a3c:	0000                	unimp
  102a3e:	0000                	unimp
  102a40:	0000                	unimp
  102a42:	0000                	unimp
  102a44:	0000                	unimp
  102a46:	0000                	unimp
  102a48:	0000                	unimp
  102a4a:	0000                	unimp
  102a4c:	0000                	unimp
  102a4e:	0000                	unimp
  102a50:	0000                	unimp
  102a52:	0000                	unimp
  102a54:	0000                	unimp
  102a56:	0000                	unimp
  102a58:	0000                	unimp
  102a5a:	0000                	unimp
  102a5c:	0000                	unimp
  102a5e:	0000                	unimp
  102a60:	0000                	unimp
  102a62:	0000                	unimp
  102a64:	0000                	unimp
  102a66:	0000                	unimp
  102a68:	0000                	unimp
  102a6a:	0000                	unimp
  102a6c:	0000                	unimp
  102a6e:	0000                	unimp
  102a70:	0000                	unimp
  102a72:	0000                	unimp
  102a74:	0000                	unimp
  102a76:	0000                	unimp
  102a78:	0000                	unimp
  102a7a:	0000                	unimp
  102a7c:	0000                	unimp
  102a7e:	0000                	unimp
  102a80:	0000                	unimp
  102a82:	0000                	unimp
  102a84:	0000                	unimp
  102a86:	0000                	unimp
  102a88:	0000                	unimp
  102a8a:	0000                	unimp
  102a8c:	0000                	unimp
  102a8e:	0000                	unimp
  102a90:	0000                	unimp
  102a92:	0000                	unimp
  102a94:	0000                	unimp
  102a96:	0000                	unimp
  102a98:	0000                	unimp
  102a9a:	0000                	unimp
  102a9c:	0000                	unimp
  102a9e:	0000                	unimp
  102aa0:	0000                	unimp
  102aa2:	0000                	unimp
  102aa4:	0000                	unimp
  102aa6:	0000                	unimp
  102aa8:	0000                	unimp
  102aaa:	0000                	unimp
  102aac:	0000                	unimp
  102aae:	0000                	unimp
  102ab0:	0000                	unimp
  102ab2:	0000                	unimp
  102ab4:	0000                	unimp
  102ab6:	0000                	unimp
  102ab8:	0000                	unimp
  102aba:	0000                	unimp
  102abc:	0000                	unimp
  102abe:	0000                	unimp
  102ac0:	0000                	unimp
  102ac2:	0000                	unimp
  102ac4:	0000                	unimp
  102ac6:	0000                	unimp
  102ac8:	0000                	unimp
  102aca:	0000                	unimp
  102acc:	0000                	unimp
  102ace:	0000                	unimp
  102ad0:	0000                	unimp
  102ad2:	0000                	unimp
  102ad4:	0000                	unimp
  102ad6:	0000                	unimp
  102ad8:	0000                	unimp
  102ada:	0000                	unimp
  102adc:	0000                	unimp
  102ade:	0000                	unimp
  102ae0:	0000                	unimp
  102ae2:	0000                	unimp
  102ae4:	0000                	unimp
  102ae6:	0000                	unimp
  102ae8:	0000                	unimp
  102aea:	0000                	unimp
  102aec:	0000                	unimp
  102aee:	0000                	unimp
  102af0:	0000                	unimp
  102af2:	0000                	unimp
  102af4:	0000                	unimp
  102af6:	0000                	unimp
  102af8:	0000                	unimp
  102afa:	0000                	unimp
  102afc:	0000                	unimp
  102afe:	0000                	unimp
  102b00:	0000                	unimp
  102b02:	0000                	unimp
  102b04:	0000                	unimp
  102b06:	0000                	unimp
  102b08:	0000                	unimp
  102b0a:	0000                	unimp
  102b0c:	0000                	unimp
  102b0e:	0000                	unimp
  102b10:	0000                	unimp
  102b12:	0000                	unimp
  102b14:	0000                	unimp
  102b16:	0000                	unimp
  102b18:	0000                	unimp
  102b1a:	0000                	unimp
  102b1c:	0000                	unimp
  102b1e:	0000                	unimp
  102b20:	0000                	unimp
  102b22:	0000                	unimp
  102b24:	0000                	unimp
  102b26:	0000                	unimp
  102b28:	0000                	unimp
  102b2a:	0000                	unimp
  102b2c:	0000                	unimp
  102b2e:	0000                	unimp
  102b30:	0000                	unimp
  102b32:	0000                	unimp
  102b34:	0000                	unimp
  102b36:	0000                	unimp
  102b38:	0000                	unimp
  102b3a:	0000                	unimp
  102b3c:	0000                	unimp
  102b3e:	0000                	unimp
  102b40:	0000                	unimp
  102b42:	0000                	unimp
  102b44:	0000                	unimp
  102b46:	0000                	unimp
  102b48:	0000                	unimp
  102b4a:	0000                	unimp
  102b4c:	0000                	unimp
  102b4e:	0000                	unimp
  102b50:	0000                	unimp
  102b52:	0000                	unimp
  102b54:	0000                	unimp
  102b56:	0000                	unimp
  102b58:	0000                	unimp
  102b5a:	0000                	unimp
  102b5c:	0000                	unimp
  102b5e:	0000                	unimp
  102b60:	0000                	unimp
  102b62:	0000                	unimp
  102b64:	0000                	unimp
  102b66:	0000                	unimp
  102b68:	0000                	unimp
  102b6a:	0000                	unimp
  102b6c:	0000                	unimp
  102b6e:	0000                	unimp
  102b70:	0000                	unimp
  102b72:	0000                	unimp
  102b74:	0000                	unimp
  102b76:	0000                	unimp
  102b78:	0000                	unimp
  102b7a:	0000                	unimp
  102b7c:	0000                	unimp
  102b7e:	0000                	unimp
  102b80:	0000                	unimp
  102b82:	0000                	unimp
  102b84:	0000                	unimp
  102b86:	0000                	unimp
  102b88:	0000                	unimp
  102b8a:	0000                	unimp
  102b8c:	0000                	unimp
  102b8e:	0000                	unimp
  102b90:	0000                	unimp
  102b92:	0000                	unimp
  102b94:	0000                	unimp
  102b96:	0000                	unimp
  102b98:	0000                	unimp
  102b9a:	0000                	unimp
  102b9c:	0000                	unimp
  102b9e:	0000                	unimp
  102ba0:	0000                	unimp
  102ba2:	0000                	unimp
  102ba4:	0000                	unimp
  102ba6:	0000                	unimp
  102ba8:	0000                	unimp
  102baa:	0000                	unimp
  102bac:	0000                	unimp
  102bae:	0000                	unimp
  102bb0:	0000                	unimp
  102bb2:	0000                	unimp
  102bb4:	0000                	unimp
  102bb6:	0000                	unimp
  102bb8:	0000                	unimp
  102bba:	0000                	unimp
  102bbc:	0000                	unimp
  102bbe:	0000                	unimp
  102bc0:	0000                	unimp
  102bc2:	0000                	unimp
  102bc4:	0000                	unimp
  102bc6:	0000                	unimp
  102bc8:	0000                	unimp
  102bca:	0000                	unimp
  102bcc:	0000                	unimp
  102bce:	0000                	unimp
  102bd0:	0000                	unimp
  102bd2:	0000                	unimp
  102bd4:	0000                	unimp
  102bd6:	0000                	unimp
  102bd8:	0000                	unimp
  102bda:	0000                	unimp
  102bdc:	0000                	unimp
  102bde:	0000                	unimp
  102be0:	0000                	unimp
  102be2:	0000                	unimp
  102be4:	0000                	unimp
  102be6:	0000                	unimp
  102be8:	0000                	unimp
  102bea:	0000                	unimp
  102bec:	0000                	unimp
  102bee:	0000                	unimp
  102bf0:	0000                	unimp
  102bf2:	0000                	unimp
  102bf4:	0000                	unimp
  102bf6:	0000                	unimp
  102bf8:	0000                	unimp
  102bfa:	0000                	unimp
  102bfc:	0000                	unimp
  102bfe:	0000                	unimp
  102c00:	0000                	unimp
  102c02:	0000                	unimp
  102c04:	0000                	unimp
  102c06:	0000                	unimp
  102c08:	0000                	unimp
  102c0a:	0000                	unimp
  102c0c:	0000                	unimp
  102c0e:	0000                	unimp
  102c10:	0000                	unimp
  102c12:	0000                	unimp
  102c14:	0000                	unimp
  102c16:	0000                	unimp
  102c18:	0000                	unimp
  102c1a:	0000                	unimp
  102c1c:	0000                	unimp
  102c1e:	0000                	unimp
  102c20:	0000                	unimp
  102c22:	0000                	unimp
  102c24:	0000                	unimp
  102c26:	0000                	unimp
  102c28:	0000                	unimp
  102c2a:	0000                	unimp
  102c2c:	0000                	unimp
  102c2e:	0000                	unimp
  102c30:	0000                	unimp
  102c32:	0000                	unimp
  102c34:	0000                	unimp
  102c36:	0000                	unimp
  102c38:	0000                	unimp
  102c3a:	0000                	unimp
  102c3c:	0000                	unimp
  102c3e:	0000                	unimp
  102c40:	0000                	unimp
  102c42:	0000                	unimp
  102c44:	0000                	unimp
  102c46:	0000                	unimp
  102c48:	0000                	unimp
  102c4a:	0000                	unimp
  102c4c:	0000                	unimp
  102c4e:	0000                	unimp
  102c50:	0000                	unimp
  102c52:	0000                	unimp
  102c54:	0000                	unimp
  102c56:	0000                	unimp
  102c58:	0000                	unimp
  102c5a:	0000                	unimp
  102c5c:	0000                	unimp
  102c5e:	0000                	unimp
  102c60:	0000                	unimp
  102c62:	0000                	unimp
  102c64:	0000                	unimp
  102c66:	0000                	unimp
  102c68:	0000                	unimp
  102c6a:	0000                	unimp
  102c6c:	0000                	unimp
  102c6e:	0000                	unimp
  102c70:	0000                	unimp
  102c72:	0000                	unimp
  102c74:	0000                	unimp
  102c76:	0000                	unimp
  102c78:	0000                	unimp
  102c7a:	0000                	unimp
  102c7c:	0000                	unimp
  102c7e:	0000                	unimp
  102c80:	0000                	unimp
  102c82:	0000                	unimp
  102c84:	0000                	unimp
  102c86:	0000                	unimp
  102c88:	0000                	unimp
  102c8a:	0000                	unimp
  102c8c:	0000                	unimp
  102c8e:	0000                	unimp
  102c90:	0000                	unimp
  102c92:	0000                	unimp
  102c94:	0000                	unimp
  102c96:	0000                	unimp
  102c98:	0000                	unimp
  102c9a:	0000                	unimp
  102c9c:	0000                	unimp
  102c9e:	0000                	unimp
  102ca0:	0000                	unimp
  102ca2:	0000                	unimp
  102ca4:	0000                	unimp
  102ca6:	0000                	unimp
  102ca8:	0000                	unimp
  102caa:	0000                	unimp
  102cac:	0000                	unimp
  102cae:	0000                	unimp
  102cb0:	0000                	unimp
  102cb2:	0000                	unimp
  102cb4:	0000                	unimp
  102cb6:	0000                	unimp
  102cb8:	0000                	unimp
  102cba:	0000                	unimp
  102cbc:	0000                	unimp
  102cbe:	0000                	unimp
  102cc0:	0000                	unimp
  102cc2:	0000                	unimp
  102cc4:	0000                	unimp
  102cc6:	0000                	unimp
  102cc8:	0000                	unimp
  102cca:	0000                	unimp
  102ccc:	0000                	unimp
  102cce:	0000                	unimp
  102cd0:	0000                	unimp
  102cd2:	0000                	unimp
  102cd4:	0000                	unimp
  102cd6:	0000                	unimp
  102cd8:	0000                	unimp
  102cda:	0000                	unimp
  102cdc:	0000                	unimp
  102cde:	0000                	unimp
  102ce0:	0000                	unimp
  102ce2:	0000                	unimp
  102ce4:	0000                	unimp
  102ce6:	0000                	unimp
  102ce8:	0000                	unimp
  102cea:	0000                	unimp
  102cec:	0000                	unimp
  102cee:	0000                	unimp
  102cf0:	0000                	unimp
  102cf2:	0000                	unimp
  102cf4:	0000                	unimp
  102cf6:	0000                	unimp
  102cf8:	0000                	unimp
  102cfa:	0000                	unimp
  102cfc:	0000                	unimp
  102cfe:	0000                	unimp
  102d00:	0000                	unimp
  102d02:	0000                	unimp
  102d04:	0000                	unimp
  102d06:	0000                	unimp
  102d08:	0000                	unimp
  102d0a:	0000                	unimp
  102d0c:	0000                	unimp
  102d0e:	0000                	unimp
  102d10:	0000                	unimp
  102d12:	0000                	unimp
  102d14:	0000                	unimp
  102d16:	0000                	unimp
  102d18:	0000                	unimp
  102d1a:	0000                	unimp
  102d1c:	0000                	unimp
  102d1e:	0000                	unimp
  102d20:	0000                	unimp
  102d22:	0000                	unimp
  102d24:	0000                	unimp
  102d26:	0000                	unimp
  102d28:	0000                	unimp
  102d2a:	0000                	unimp
  102d2c:	0000                	unimp
  102d2e:	0000                	unimp
  102d30:	0000                	unimp
  102d32:	0000                	unimp
  102d34:	0000                	unimp
  102d36:	0000                	unimp
  102d38:	0000                	unimp
  102d3a:	0000                	unimp
  102d3c:	0000                	unimp
  102d3e:	0000                	unimp
  102d40:	0000                	unimp
  102d42:	0000                	unimp
  102d44:	0000                	unimp
  102d46:	0000                	unimp
  102d48:	0000                	unimp
  102d4a:	0000                	unimp
  102d4c:	0000                	unimp
  102d4e:	0000                	unimp
  102d50:	0000                	unimp
  102d52:	0000                	unimp
  102d54:	0000                	unimp
  102d56:	0000                	unimp
  102d58:	0000                	unimp
  102d5a:	0000                	unimp
  102d5c:	0000                	unimp
  102d5e:	0000                	unimp
  102d60:	0000                	unimp
  102d62:	0000                	unimp
  102d64:	0000                	unimp
  102d66:	0000                	unimp
  102d68:	0000                	unimp
  102d6a:	0000                	unimp
  102d6c:	0000                	unimp
  102d6e:	0000                	unimp
  102d70:	0000                	unimp
  102d72:	0000                	unimp
  102d74:	0000                	unimp
  102d76:	0000                	unimp
  102d78:	0000                	unimp
  102d7a:	0000                	unimp
  102d7c:	0000                	unimp
  102d7e:	0000                	unimp
  102d80:	0000                	unimp
  102d82:	0000                	unimp
  102d84:	0000                	unimp
  102d86:	0000                	unimp
  102d88:	0000                	unimp
  102d8a:	0000                	unimp
  102d8c:	0000                	unimp
  102d8e:	0000                	unimp
  102d90:	0000                	unimp
  102d92:	0000                	unimp
  102d94:	0000                	unimp
  102d96:	0000                	unimp
  102d98:	0000                	unimp
  102d9a:	0000                	unimp
  102d9c:	0000                	unimp
  102d9e:	0000                	unimp
  102da0:	0000                	unimp
  102da2:	0000                	unimp
  102da4:	0000                	unimp
  102da6:	0000                	unimp
  102da8:	0000                	unimp
  102daa:	0000                	unimp
  102dac:	0000                	unimp
  102dae:	0000                	unimp
  102db0:	0000                	unimp
  102db2:	0000                	unimp
  102db4:	0000                	unimp
  102db6:	0000                	unimp
  102db8:	0000                	unimp
  102dba:	0000                	unimp
  102dbc:	0000                	unimp
  102dbe:	0000                	unimp
  102dc0:	0000                	unimp
  102dc2:	0000                	unimp
  102dc4:	0000                	unimp
  102dc6:	0000                	unimp
  102dc8:	0000                	unimp
  102dca:	0000                	unimp
  102dcc:	0000                	unimp
  102dce:	0000                	unimp
  102dd0:	0000                	unimp
  102dd2:	0000                	unimp
  102dd4:	0000                	unimp
  102dd6:	0000                	unimp
  102dd8:	0000                	unimp
  102dda:	0000                	unimp
  102ddc:	0000                	unimp
  102dde:	0000                	unimp
  102de0:	0000                	unimp
  102de2:	0000                	unimp
  102de4:	0000                	unimp
  102de6:	0000                	unimp
  102de8:	0000                	unimp
  102dea:	0000                	unimp
  102dec:	0000                	unimp
  102dee:	0000                	unimp
  102df0:	0000                	unimp
  102df2:	0000                	unimp
  102df4:	0000                	unimp
  102df6:	0000                	unimp
  102df8:	0000                	unimp
  102dfa:	0000                	unimp
  102dfc:	0000                	unimp
  102dfe:	0000                	unimp
  102e00:	0000                	unimp
  102e02:	0000                	unimp
  102e04:	0000                	unimp
  102e06:	0000                	unimp
  102e08:	0000                	unimp
  102e0a:	0000                	unimp
  102e0c:	0000                	unimp
  102e0e:	0000                	unimp
  102e10:	0000                	unimp
  102e12:	0000                	unimp
  102e14:	0000                	unimp
  102e16:	0000                	unimp
  102e18:	0000                	unimp
  102e1a:	0000                	unimp
  102e1c:	0000                	unimp
  102e1e:	0000                	unimp
  102e20:	0000                	unimp
  102e22:	0000                	unimp
  102e24:	0000                	unimp
  102e26:	0000                	unimp
  102e28:	0000                	unimp
  102e2a:	0000                	unimp
  102e2c:	0000                	unimp
  102e2e:	0000                	unimp
  102e30:	0000                	unimp
  102e32:	0000                	unimp
  102e34:	0000                	unimp
  102e36:	0000                	unimp
  102e38:	0000                	unimp
  102e3a:	0000                	unimp
  102e3c:	0000                	unimp
  102e3e:	0000                	unimp
  102e40:	0000                	unimp
  102e42:	0000                	unimp
  102e44:	0000                	unimp
  102e46:	0000                	unimp
  102e48:	0000                	unimp
  102e4a:	0000                	unimp
  102e4c:	0000                	unimp
  102e4e:	0000                	unimp
  102e50:	0000                	unimp
  102e52:	0000                	unimp
  102e54:	0000                	unimp
  102e56:	0000                	unimp
  102e58:	0000                	unimp
  102e5a:	0000                	unimp
  102e5c:	0000                	unimp
  102e5e:	0000                	unimp
  102e60:	0000                	unimp
  102e62:	0000                	unimp
  102e64:	0000                	unimp
  102e66:	0000                	unimp
  102e68:	0000                	unimp
  102e6a:	0000                	unimp
  102e6c:	0000                	unimp
  102e6e:	0000                	unimp
  102e70:	0000                	unimp
  102e72:	0000                	unimp
  102e74:	0000                	unimp
  102e76:	0000                	unimp
  102e78:	0000                	unimp
  102e7a:	0000                	unimp
  102e7c:	0000                	unimp
  102e7e:	0000                	unimp
  102e80:	0000                	unimp
  102e82:	0000                	unimp
  102e84:	0000                	unimp
  102e86:	0000                	unimp
  102e88:	0000                	unimp
  102e8a:	0000                	unimp
  102e8c:	0000                	unimp
  102e8e:	0000                	unimp
  102e90:	0000                	unimp
  102e92:	0000                	unimp
  102e94:	0000                	unimp
  102e96:	0000                	unimp
  102e98:	0000                	unimp
  102e9a:	0000                	unimp
  102e9c:	0000                	unimp
  102e9e:	0000                	unimp
  102ea0:	0000                	unimp
  102ea2:	0000                	unimp
  102ea4:	0000                	unimp
  102ea6:	0000                	unimp
  102ea8:	0000                	unimp
  102eaa:	0000                	unimp
  102eac:	0000                	unimp
  102eae:	0000                	unimp
  102eb0:	0000                	unimp
  102eb2:	0000                	unimp
  102eb4:	0000                	unimp
  102eb6:	0000                	unimp
  102eb8:	0000                	unimp
  102eba:	0000                	unimp
  102ebc:	0000                	unimp
  102ebe:	0000                	unimp
  102ec0:	0000                	unimp
  102ec2:	0000                	unimp
  102ec4:	0000                	unimp
  102ec6:	0000                	unimp
  102ec8:	0000                	unimp
  102eca:	0000                	unimp
  102ecc:	0000                	unimp
  102ece:	0000                	unimp
  102ed0:	0000                	unimp
  102ed2:	0000                	unimp
  102ed4:	0000                	unimp
  102ed6:	0000                	unimp
  102ed8:	0000                	unimp
  102eda:	0000                	unimp
  102edc:	0000                	unimp
  102ede:	0000                	unimp
  102ee0:	0000                	unimp
  102ee2:	0000                	unimp
  102ee4:	0000                	unimp
  102ee6:	0000                	unimp
  102ee8:	0000                	unimp
  102eea:	0000                	unimp
  102eec:	0000                	unimp
  102eee:	0000                	unimp
  102ef0:	0000                	unimp
  102ef2:	0000                	unimp
  102ef4:	0000                	unimp
  102ef6:	0000                	unimp
  102ef8:	0000                	unimp
  102efa:	0000                	unimp
  102efc:	0000                	unimp
  102efe:	0000                	unimp
  102f00:	0000                	unimp
  102f02:	0000                	unimp
  102f04:	0000                	unimp
  102f06:	0000                	unimp
  102f08:	0000                	unimp
  102f0a:	0000                	unimp
  102f0c:	0000                	unimp
  102f0e:	0000                	unimp
  102f10:	0000                	unimp
  102f12:	0000                	unimp
  102f14:	0000                	unimp
  102f16:	0000                	unimp
  102f18:	0000                	unimp
  102f1a:	0000                	unimp
  102f1c:	0000                	unimp
  102f1e:	0000                	unimp
  102f20:	0000                	unimp
  102f22:	0000                	unimp
  102f24:	0000                	unimp
  102f26:	0000                	unimp
  102f28:	0000                	unimp
  102f2a:	0000                	unimp
  102f2c:	0000                	unimp
  102f2e:	0000                	unimp
  102f30:	0000                	unimp
  102f32:	0000                	unimp
  102f34:	0000                	unimp
  102f36:	0000                	unimp
  102f38:	0000                	unimp
  102f3a:	0000                	unimp
  102f3c:	0000                	unimp
  102f3e:	0000                	unimp
  102f40:	0000                	unimp
  102f42:	0000                	unimp
  102f44:	0000                	unimp
  102f46:	0000                	unimp
  102f48:	0000                	unimp
  102f4a:	0000                	unimp
  102f4c:	0000                	unimp
  102f4e:	0000                	unimp
  102f50:	0000                	unimp
  102f52:	0000                	unimp
  102f54:	0000                	unimp
  102f56:	0000                	unimp
  102f58:	0000                	unimp
  102f5a:	0000                	unimp
  102f5c:	0000                	unimp
  102f5e:	0000                	unimp
  102f60:	0000                	unimp
  102f62:	0000                	unimp
  102f64:	0000                	unimp
  102f66:	0000                	unimp
  102f68:	0000                	unimp
  102f6a:	0000                	unimp
  102f6c:	0000                	unimp
  102f6e:	0000                	unimp
  102f70:	0000                	unimp
  102f72:	0000                	unimp
  102f74:	0000                	unimp
  102f76:	0000                	unimp
  102f78:	0000                	unimp
  102f7a:	0000                	unimp
  102f7c:	0000                	unimp
  102f7e:	0000                	unimp
  102f80:	0000                	unimp
  102f82:	0000                	unimp
  102f84:	0000                	unimp
  102f86:	0000                	unimp
  102f88:	0000                	unimp
  102f8a:	0000                	unimp
  102f8c:	0000                	unimp
  102f8e:	0000                	unimp
  102f90:	0000                	unimp
  102f92:	0000                	unimp
  102f94:	0000                	unimp
  102f96:	0000                	unimp
  102f98:	0000                	unimp
  102f9a:	0000                	unimp
  102f9c:	0000                	unimp
  102f9e:	0000                	unimp
  102fa0:	0000                	unimp
  102fa2:	0000                	unimp
  102fa4:	0000                	unimp
  102fa6:	0000                	unimp
  102fa8:	0000                	unimp
  102faa:	0000                	unimp
  102fac:	0000                	unimp
  102fae:	0000                	unimp
  102fb0:	0000                	unimp
  102fb2:	0000                	unimp
  102fb4:	0000                	unimp
  102fb6:	0000                	unimp
  102fb8:	0000                	unimp
  102fba:	0000                	unimp
  102fbc:	0000                	unimp
  102fbe:	0000                	unimp
  102fc0:	0000                	unimp
  102fc2:	0000                	unimp
  102fc4:	0000                	unimp
  102fc6:	0000                	unimp
  102fc8:	0000                	unimp
  102fca:	0000                	unimp
  102fcc:	0000                	unimp
  102fce:	0000                	unimp
  102fd0:	0000                	unimp
  102fd2:	0000                	unimp
  102fd4:	0000                	unimp
  102fd6:	0000                	unimp
  102fd8:	0000                	unimp
  102fda:	0000                	unimp
  102fdc:	0000                	unimp
  102fde:	0000                	unimp
  102fe0:	0000                	unimp
  102fe2:	0000                	unimp
  102fe4:	0000                	unimp
  102fe6:	0000                	unimp
  102fe8:	0000                	unimp
  102fea:	0000                	unimp
  102fec:	0000                	unimp
  102fee:	0000                	unimp
  102ff0:	0000                	unimp
  102ff2:	0000                	unimp
  102ff4:	0000                	unimp
  102ff6:	0000                	unimp
  102ff8:	0000                	unimp
  102ffa:	0000                	unimp
  102ffc:	0000                	unimp
  102ffe:	0000                	unimp
  103000:	0000                	unimp
  103002:	0000                	unimp
  103004:	0000                	unimp
  103006:	0000                	unimp
  103008:	0000                	unimp
  10300a:	0000                	unimp
  10300c:	0000                	unimp
  10300e:	0000                	unimp
  103010:	0000                	unimp
  103012:	0000                	unimp
  103014:	0000                	unimp
  103016:	0000                	unimp
  103018:	0000                	unimp
  10301a:	0000                	unimp
  10301c:	0000                	unimp
  10301e:	0000                	unimp
  103020:	0000                	unimp
  103022:	0000                	unimp
  103024:	0000                	unimp
  103026:	0000                	unimp
  103028:	0000                	unimp
  10302a:	0000                	unimp
  10302c:	0000                	unimp
  10302e:	0000                	unimp
  103030:	0000                	unimp
  103032:	0000                	unimp
  103034:	0000                	unimp
  103036:	0000                	unimp
  103038:	0000                	unimp
  10303a:	0000                	unimp
  10303c:	0000                	unimp
  10303e:	0000                	unimp
  103040:	0000                	unimp
  103042:	0000                	unimp
  103044:	0000                	unimp
  103046:	0000                	unimp
  103048:	0000                	unimp
  10304a:	0000                	unimp
  10304c:	0000                	unimp
  10304e:	0000                	unimp
  103050:	0000                	unimp
  103052:	0000                	unimp
  103054:	0000                	unimp
  103056:	0000                	unimp
  103058:	0000                	unimp
  10305a:	0000                	unimp
  10305c:	0000                	unimp
  10305e:	0000                	unimp
  103060:	0000                	unimp
  103062:	0000                	unimp
  103064:	0000                	unimp
  103066:	0000                	unimp
  103068:	0000                	unimp
  10306a:	0000                	unimp
  10306c:	0000                	unimp
  10306e:	0000                	unimp
  103070:	0000                	unimp
  103072:	0000                	unimp
  103074:	0000                	unimp
  103076:	0000                	unimp
  103078:	0000                	unimp
  10307a:	0000                	unimp
  10307c:	0000                	unimp
  10307e:	0000                	unimp
  103080:	0000                	unimp
  103082:	0000                	unimp
  103084:	0000                	unimp
  103086:	0000                	unimp
  103088:	0000                	unimp
  10308a:	0000                	unimp
  10308c:	0000                	unimp
  10308e:	0000                	unimp
  103090:	0000                	unimp
  103092:	0000                	unimp
  103094:	0000                	unimp
  103096:	0000                	unimp
  103098:	0000                	unimp
  10309a:	0000                	unimp
  10309c:	0000                	unimp
  10309e:	0000                	unimp
  1030a0:	0000                	unimp
  1030a2:	0000                	unimp
  1030a4:	0000                	unimp
  1030a6:	0000                	unimp
  1030a8:	0000                	unimp
  1030aa:	0000                	unimp
  1030ac:	0000                	unimp
  1030ae:	0000                	unimp
  1030b0:	0000                	unimp
  1030b2:	0000                	unimp
  1030b4:	0000                	unimp
  1030b6:	0000                	unimp
  1030b8:	0000                	unimp
  1030ba:	0000                	unimp
  1030bc:	0000                	unimp
  1030be:	0000                	unimp
  1030c0:	0000                	unimp
  1030c2:	0000                	unimp
  1030c4:	0000                	unimp
  1030c6:	0000                	unimp
  1030c8:	0000                	unimp
  1030ca:	0000                	unimp
  1030cc:	0000                	unimp
  1030ce:	0000                	unimp
  1030d0:	0000                	unimp
  1030d2:	0000                	unimp
  1030d4:	0000                	unimp
  1030d6:	0000                	unimp
  1030d8:	0000                	unimp
  1030da:	0000                	unimp
  1030dc:	0000                	unimp
  1030de:	0000                	unimp
  1030e0:	0000                	unimp
  1030e2:	0000                	unimp
  1030e4:	0000                	unimp
  1030e6:	0000                	unimp
  1030e8:	0000                	unimp
  1030ea:	0000                	unimp
  1030ec:	0000                	unimp
  1030ee:	0000                	unimp
  1030f0:	0000                	unimp
  1030f2:	0000                	unimp
  1030f4:	0000                	unimp
  1030f6:	0000                	unimp
  1030f8:	0000                	unimp
  1030fa:	0000                	unimp
  1030fc:	0000                	unimp
  1030fe:	0000                	unimp
  103100:	0000                	unimp
  103102:	0000                	unimp
  103104:	0000                	unimp
  103106:	0000                	unimp
  103108:	0000                	unimp
  10310a:	0000                	unimp
  10310c:	0000                	unimp
  10310e:	0000                	unimp
  103110:	0000                	unimp
  103112:	0000                	unimp
  103114:	0000                	unimp
  103116:	0000                	unimp
  103118:	0000                	unimp
  10311a:	0000                	unimp
  10311c:	0000                	unimp
  10311e:	0000                	unimp
  103120:	0000                	unimp
  103122:	0000                	unimp
  103124:	0000                	unimp
  103126:	0000                	unimp
  103128:	0000                	unimp
  10312a:	0000                	unimp
  10312c:	0000                	unimp
  10312e:	0000                	unimp
  103130:	0000                	unimp
  103132:	0000                	unimp
  103134:	0000                	unimp
  103136:	0000                	unimp
  103138:	0000                	unimp
  10313a:	0000                	unimp
  10313c:	0000                	unimp
  10313e:	0000                	unimp
  103140:	0000                	unimp
  103142:	0000                	unimp
  103144:	0000                	unimp
  103146:	0000                	unimp
  103148:	0000                	unimp
  10314a:	0000                	unimp
  10314c:	0000                	unimp
  10314e:	0000                	unimp
  103150:	0000                	unimp
  103152:	0000                	unimp
  103154:	0000                	unimp
  103156:	0000                	unimp
  103158:	0000                	unimp
  10315a:	0000                	unimp
  10315c:	0000                	unimp
  10315e:	0000                	unimp
  103160:	0000                	unimp
  103162:	0000                	unimp
  103164:	0000                	unimp
  103166:	0000                	unimp
  103168:	0000                	unimp
  10316a:	0000                	unimp
  10316c:	0000                	unimp
  10316e:	0000                	unimp
  103170:	0000                	unimp
  103172:	0000                	unimp
  103174:	0000                	unimp
  103176:	0000                	unimp
  103178:	0000                	unimp
  10317a:	0000                	unimp
  10317c:	0000                	unimp
  10317e:	0000                	unimp
  103180:	0000                	unimp
  103182:	0000                	unimp
  103184:	0000                	unimp
  103186:	0000                	unimp
  103188:	0000                	unimp
  10318a:	0000                	unimp
  10318c:	0000                	unimp
  10318e:	0000                	unimp
  103190:	0000                	unimp
  103192:	0000                	unimp
  103194:	0000                	unimp
  103196:	0000                	unimp
  103198:	0000                	unimp
  10319a:	0000                	unimp
  10319c:	0000                	unimp
  10319e:	0000                	unimp
  1031a0:	0000                	unimp
  1031a2:	0000                	unimp
  1031a4:	0000                	unimp
  1031a6:	0000                	unimp
  1031a8:	0000                	unimp
  1031aa:	0000                	unimp
  1031ac:	0000                	unimp
  1031ae:	0000                	unimp
  1031b0:	0000                	unimp
  1031b2:	0000                	unimp
  1031b4:	0000                	unimp
  1031b6:	0000                	unimp
  1031b8:	0000                	unimp
  1031ba:	0000                	unimp
  1031bc:	0000                	unimp
  1031be:	0000                	unimp
  1031c0:	0000                	unimp
  1031c2:	0000                	unimp
  1031c4:	0000                	unimp
  1031c6:	0000                	unimp
  1031c8:	0000                	unimp
  1031ca:	0000                	unimp
  1031cc:	0000                	unimp
  1031ce:	0000                	unimp
  1031d0:	0000                	unimp
  1031d2:	0000                	unimp
  1031d4:	0000                	unimp
  1031d6:	0000                	unimp
  1031d8:	0000                	unimp
  1031da:	0000                	unimp
  1031dc:	0000                	unimp
  1031de:	0000                	unimp
  1031e0:	0000                	unimp
  1031e2:	0000                	unimp
  1031e4:	0000                	unimp
  1031e6:	0000                	unimp
  1031e8:	0000                	unimp
  1031ea:	0000                	unimp
  1031ec:	0000                	unimp
  1031ee:	0000                	unimp
  1031f0:	0000                	unimp
  1031f2:	0000                	unimp
  1031f4:	0000                	unimp
  1031f6:	0000                	unimp
  1031f8:	0000                	unimp
  1031fa:	0000                	unimp
  1031fc:	0000                	unimp
  1031fe:	0000                	unimp
  103200:	0000                	unimp
  103202:	0000                	unimp
  103204:	0000                	unimp
  103206:	0000                	unimp
  103208:	0000                	unimp
  10320a:	0000                	unimp
  10320c:	0000                	unimp
  10320e:	0000                	unimp
  103210:	0000                	unimp
  103212:	0000                	unimp
  103214:	0000                	unimp
  103216:	0000                	unimp
  103218:	0000                	unimp
  10321a:	0000                	unimp
  10321c:	0000                	unimp
  10321e:	0000                	unimp
  103220:	0000                	unimp
  103222:	0000                	unimp
  103224:	0000                	unimp
  103226:	0000                	unimp
  103228:	0000                	unimp
  10322a:	0000                	unimp
  10322c:	0000                	unimp
  10322e:	0000                	unimp
  103230:	0000                	unimp
  103232:	0000                	unimp
  103234:	0000                	unimp
  103236:	0000                	unimp
  103238:	0000                	unimp
  10323a:	0000                	unimp
  10323c:	0000                	unimp
  10323e:	0000                	unimp
  103240:	0000                	unimp
  103242:	0000                	unimp
  103244:	0000                	unimp
  103246:	0000                	unimp
  103248:	0000                	unimp
  10324a:	0000                	unimp
  10324c:	0000                	unimp
  10324e:	0000                	unimp
  103250:	0000                	unimp
  103252:	0000                	unimp
  103254:	0000                	unimp
  103256:	0000                	unimp
  103258:	0000                	unimp
  10325a:	0000                	unimp
  10325c:	0000                	unimp
  10325e:	0000                	unimp
  103260:	0000                	unimp
  103262:	0000                	unimp
  103264:	0000                	unimp
  103266:	0000                	unimp
  103268:	0000                	unimp
  10326a:	0000                	unimp
  10326c:	0000                	unimp
  10326e:	0000                	unimp
  103270:	0000                	unimp
  103272:	0000                	unimp
  103274:	0000                	unimp
  103276:	0000                	unimp
  103278:	0000                	unimp
  10327a:	0000                	unimp
  10327c:	0000                	unimp
  10327e:	0000                	unimp
  103280:	0000                	unimp
  103282:	0000                	unimp
  103284:	0000                	unimp
  103286:	0000                	unimp
  103288:	0000                	unimp
  10328a:	0000                	unimp
  10328c:	0000                	unimp
  10328e:	0000                	unimp
  103290:	0000                	unimp
  103292:	0000                	unimp
  103294:	0000                	unimp
  103296:	0000                	unimp
  103298:	0000                	unimp
  10329a:	0000                	unimp
  10329c:	0000                	unimp
  10329e:	0000                	unimp
  1032a0:	0000                	unimp
  1032a2:	0000                	unimp
  1032a4:	0000                	unimp
  1032a6:	0000                	unimp
  1032a8:	0000                	unimp
  1032aa:	0000                	unimp
  1032ac:	0000                	unimp
  1032ae:	0000                	unimp
  1032b0:	0000                	unimp
  1032b2:	0000                	unimp
  1032b4:	0000                	unimp
  1032b6:	0000                	unimp
  1032b8:	0000                	unimp
  1032ba:	0000                	unimp
  1032bc:	0000                	unimp
  1032be:	0000                	unimp
  1032c0:	0000                	unimp
  1032c2:	0000                	unimp
  1032c4:	0000                	unimp
  1032c6:	0000                	unimp
  1032c8:	0000                	unimp
  1032ca:	0000                	unimp
  1032cc:	0000                	unimp
  1032ce:	0000                	unimp
  1032d0:	0000                	unimp
  1032d2:	0000                	unimp
  1032d4:	0000                	unimp
  1032d6:	0000                	unimp
  1032d8:	0000                	unimp
  1032da:	0000                	unimp
  1032dc:	0000                	unimp
  1032de:	0000                	unimp
  1032e0:	0000                	unimp
  1032e2:	0000                	unimp
  1032e4:	0000                	unimp
  1032e6:	0000                	unimp
  1032e8:	0000                	unimp
  1032ea:	0000                	unimp
  1032ec:	0000                	unimp
  1032ee:	0000                	unimp
  1032f0:	0000                	unimp
  1032f2:	0000                	unimp
  1032f4:	0000                	unimp
  1032f6:	0000                	unimp
  1032f8:	0000                	unimp
  1032fa:	0000                	unimp
  1032fc:	0000                	unimp
  1032fe:	0000                	unimp
  103300:	0000                	unimp
  103302:	0000                	unimp
  103304:	0000                	unimp
  103306:	0000                	unimp
  103308:	0000                	unimp
  10330a:	0000                	unimp
  10330c:	0000                	unimp
  10330e:	0000                	unimp
  103310:	0000                	unimp
  103312:	0000                	unimp
  103314:	0000                	unimp
  103316:	0000                	unimp
  103318:	0000                	unimp
  10331a:	0000                	unimp
  10331c:	0000                	unimp
  10331e:	0000                	unimp
  103320:	0000                	unimp
  103322:	0000                	unimp
  103324:	0000                	unimp
  103326:	0000                	unimp
  103328:	0000                	unimp
  10332a:	0000                	unimp
  10332c:	0000                	unimp
  10332e:	0000                	unimp
  103330:	0000                	unimp
  103332:	0000                	unimp
  103334:	0000                	unimp
  103336:	0000                	unimp
  103338:	0000                	unimp
  10333a:	0000                	unimp
  10333c:	0000                	unimp
  10333e:	0000                	unimp
  103340:	0000                	unimp
  103342:	0000                	unimp
  103344:	0000                	unimp
  103346:	0000                	unimp
  103348:	0000                	unimp
  10334a:	0000                	unimp
  10334c:	0000                	unimp
  10334e:	0000                	unimp
  103350:	0000                	unimp
  103352:	0000                	unimp
  103354:	0000                	unimp
  103356:	0000                	unimp
  103358:	0000                	unimp
  10335a:	0000                	unimp
  10335c:	0000                	unimp
  10335e:	0000                	unimp
  103360:	0000                	unimp
  103362:	0000                	unimp
  103364:	0000                	unimp
  103366:	0000                	unimp
  103368:	0000                	unimp
  10336a:	0000                	unimp
  10336c:	0000                	unimp
  10336e:	0000                	unimp
  103370:	0000                	unimp
  103372:	0000                	unimp
  103374:	0000                	unimp
  103376:	0000                	unimp
  103378:	0000                	unimp
  10337a:	0000                	unimp
  10337c:	0000                	unimp
  10337e:	0000                	unimp
  103380:	0000                	unimp
  103382:	0000                	unimp
  103384:	0000                	unimp
  103386:	0000                	unimp
  103388:	0000                	unimp
  10338a:	0000                	unimp
  10338c:	0000                	unimp
  10338e:	0000                	unimp
  103390:	0000                	unimp
  103392:	0000                	unimp
  103394:	0000                	unimp
  103396:	0000                	unimp
  103398:	0000                	unimp
  10339a:	0000                	unimp
  10339c:	0000                	unimp
  10339e:	0000                	unimp
  1033a0:	0000                	unimp
  1033a2:	0000                	unimp
  1033a4:	0000                	unimp
  1033a6:	0000                	unimp
  1033a8:	0000                	unimp
  1033aa:	0000                	unimp
  1033ac:	0000                	unimp
  1033ae:	0000                	unimp
  1033b0:	0000                	unimp
  1033b2:	0000                	unimp
  1033b4:	0000                	unimp
  1033b6:	0000                	unimp
  1033b8:	0000                	unimp
  1033ba:	0000                	unimp
  1033bc:	0000                	unimp
  1033be:	0000                	unimp
  1033c0:	0000                	unimp
  1033c2:	0000                	unimp
  1033c4:	0000                	unimp
  1033c6:	0000                	unimp
  1033c8:	0000                	unimp
  1033ca:	0000                	unimp
  1033cc:	0000                	unimp
  1033ce:	0000                	unimp
  1033d0:	0000                	unimp
  1033d2:	0000                	unimp
  1033d4:	0000                	unimp
  1033d6:	0000                	unimp
  1033d8:	0000                	unimp
  1033da:	0000                	unimp
  1033dc:	0000                	unimp
  1033de:	0000                	unimp
  1033e0:	0000                	unimp
  1033e2:	0000                	unimp
  1033e4:	0000                	unimp
  1033e6:	0000                	unimp
  1033e8:	0000                	unimp
  1033ea:	0000                	unimp
  1033ec:	0000                	unimp
  1033ee:	0000                	unimp
  1033f0:	0000                	unimp
  1033f2:	0000                	unimp
  1033f4:	0000                	unimp
  1033f6:	0000                	unimp
  1033f8:	0000                	unimp
  1033fa:	0000                	unimp
  1033fc:	0000                	unimp
  1033fe:	0000                	unimp
  103400:	0000                	unimp
  103402:	0000                	unimp
  103404:	0000                	unimp
  103406:	0000                	unimp
  103408:	0000                	unimp
  10340a:	0000                	unimp
  10340c:	0000                	unimp
  10340e:	0000                	unimp
  103410:	0000                	unimp
  103412:	0000                	unimp
  103414:	0000                	unimp
  103416:	0000                	unimp
  103418:	0000                	unimp
  10341a:	0000                	unimp
  10341c:	0000                	unimp
  10341e:	0000                	unimp
  103420:	0000                	unimp
  103422:	0000                	unimp
  103424:	0000                	unimp
  103426:	0000                	unimp
  103428:	0000                	unimp
  10342a:	0000                	unimp
  10342c:	0000                	unimp
  10342e:	0000                	unimp
  103430:	0000                	unimp
  103432:	0000                	unimp
  103434:	0000                	unimp
  103436:	0000                	unimp
  103438:	0000                	unimp
  10343a:	0000                	unimp
  10343c:	0000                	unimp
  10343e:	0000                	unimp
  103440:	0000                	unimp
  103442:	0000                	unimp
  103444:	0000                	unimp
  103446:	0000                	unimp
  103448:	0000                	unimp
  10344a:	0000                	unimp
  10344c:	0000                	unimp
  10344e:	0000                	unimp
  103450:	0000                	unimp
  103452:	0000                	unimp
  103454:	0000                	unimp
  103456:	0000                	unimp
  103458:	0000                	unimp
  10345a:	0000                	unimp
  10345c:	0000                	unimp
  10345e:	0000                	unimp
  103460:	0000                	unimp
  103462:	0000                	unimp
  103464:	0000                	unimp
  103466:	0000                	unimp
  103468:	0000                	unimp
  10346a:	0000                	unimp
  10346c:	0000                	unimp
  10346e:	0000                	unimp
  103470:	0000                	unimp
  103472:	0000                	unimp
  103474:	0000                	unimp
  103476:	0000                	unimp
  103478:	0000                	unimp
  10347a:	0000                	unimp
  10347c:	0000                	unimp
  10347e:	0000                	unimp
  103480:	0000                	unimp
  103482:	0000                	unimp
  103484:	0000                	unimp
  103486:	0000                	unimp
  103488:	0000                	unimp
  10348a:	0000                	unimp
  10348c:	0000                	unimp
  10348e:	0000                	unimp
  103490:	0000                	unimp
  103492:	0000                	unimp
  103494:	0000                	unimp
  103496:	0000                	unimp
  103498:	0000                	unimp
  10349a:	0000                	unimp
  10349c:	0000                	unimp
  10349e:	0000                	unimp
  1034a0:	0000                	unimp
  1034a2:	0000                	unimp
  1034a4:	0000                	unimp
  1034a6:	0000                	unimp
  1034a8:	0000                	unimp
  1034aa:	0000                	unimp
  1034ac:	0000                	unimp
  1034ae:	0000                	unimp
  1034b0:	0000                	unimp
  1034b2:	0000                	unimp
  1034b4:	0000                	unimp
  1034b6:	0000                	unimp
  1034b8:	0000                	unimp
  1034ba:	0000                	unimp
  1034bc:	0000                	unimp
  1034be:	0000                	unimp
  1034c0:	0000                	unimp
  1034c2:	0000                	unimp
  1034c4:	0000                	unimp
  1034c6:	0000                	unimp
  1034c8:	0000                	unimp
  1034ca:	0000                	unimp
  1034cc:	0000                	unimp
  1034ce:	0000                	unimp
  1034d0:	0000                	unimp
  1034d2:	0000                	unimp
  1034d4:	0000                	unimp
  1034d6:	0000                	unimp
  1034d8:	0000                	unimp
  1034da:	0000                	unimp
  1034dc:	0000                	unimp
  1034de:	0000                	unimp
  1034e0:	0000                	unimp
  1034e2:	0000                	unimp
  1034e4:	0000                	unimp
  1034e6:	0000                	unimp
  1034e8:	0000                	unimp
  1034ea:	0000                	unimp
  1034ec:	0000                	unimp
  1034ee:	0000                	unimp
  1034f0:	0000                	unimp
  1034f2:	0000                	unimp
  1034f4:	0000                	unimp
  1034f6:	0000                	unimp
  1034f8:	0000                	unimp
  1034fa:	0000                	unimp
  1034fc:	0000                	unimp
  1034fe:	0000                	unimp
  103500:	0000                	unimp
  103502:	0000                	unimp
  103504:	0000                	unimp
  103506:	0000                	unimp
  103508:	0000                	unimp
  10350a:	0000                	unimp
  10350c:	0000                	unimp
  10350e:	0000                	unimp
  103510:	0000                	unimp
  103512:	0000                	unimp
  103514:	0000                	unimp
  103516:	0000                	unimp
  103518:	0000                	unimp
  10351a:	0000                	unimp
  10351c:	0000                	unimp
  10351e:	0000                	unimp
  103520:	0000                	unimp
  103522:	0000                	unimp
  103524:	0000                	unimp
  103526:	0000                	unimp
  103528:	0000                	unimp
  10352a:	0000                	unimp
  10352c:	0000                	unimp
  10352e:	0000                	unimp
  103530:	0000                	unimp
  103532:	0000                	unimp
  103534:	0000                	unimp
  103536:	0000                	unimp
  103538:	0000                	unimp
  10353a:	0000                	unimp
  10353c:	0000                	unimp
  10353e:	0000                	unimp
  103540:	0000                	unimp
  103542:	0000                	unimp
  103544:	0000                	unimp
  103546:	0000                	unimp
  103548:	0000                	unimp
  10354a:	0000                	unimp
  10354c:	0000                	unimp
  10354e:	0000                	unimp
  103550:	0000                	unimp
  103552:	0000                	unimp
  103554:	0000                	unimp
  103556:	0000                	unimp
  103558:	0000                	unimp
  10355a:	0000                	unimp
  10355c:	0000                	unimp
  10355e:	0000                	unimp
  103560:	0000                	unimp
  103562:	0000                	unimp
  103564:	0000                	unimp
  103566:	0000                	unimp
  103568:	0000                	unimp
  10356a:	0000                	unimp
  10356c:	0000                	unimp
  10356e:	0000                	unimp
  103570:	0000                	unimp
  103572:	0000                	unimp
  103574:	0000                	unimp
  103576:	0000                	unimp
  103578:	0000                	unimp
  10357a:	0000                	unimp
  10357c:	0000                	unimp
  10357e:	0000                	unimp
  103580:	0000                	unimp
  103582:	0000                	unimp
  103584:	0000                	unimp
  103586:	0000                	unimp
  103588:	0000                	unimp
  10358a:	0000                	unimp
  10358c:	0000                	unimp
  10358e:	0000                	unimp
  103590:	0000                	unimp
  103592:	0000                	unimp
  103594:	0000                	unimp
  103596:	0000                	unimp
  103598:	0000                	unimp
  10359a:	0000                	unimp
  10359c:	0000                	unimp
  10359e:	0000                	unimp
  1035a0:	0000                	unimp
  1035a2:	0000                	unimp
  1035a4:	0000                	unimp
  1035a6:	0000                	unimp
  1035a8:	0000                	unimp
  1035aa:	0000                	unimp
  1035ac:	0000                	unimp
  1035ae:	0000                	unimp
  1035b0:	0000                	unimp
  1035b2:	0000                	unimp
  1035b4:	0000                	unimp
  1035b6:	0000                	unimp
  1035b8:	0000                	unimp
  1035ba:	0000                	unimp
  1035bc:	0000                	unimp
  1035be:	0000                	unimp
  1035c0:	0000                	unimp
  1035c2:	0000                	unimp
  1035c4:	0000                	unimp
  1035c6:	0000                	unimp
  1035c8:	0000                	unimp
  1035ca:	0000                	unimp
  1035cc:	0000                	unimp
  1035ce:	0000                	unimp
  1035d0:	0000                	unimp
  1035d2:	0000                	unimp
  1035d4:	0000                	unimp
  1035d6:	0000                	unimp
  1035d8:	0000                	unimp
  1035da:	0000                	unimp
  1035dc:	0000                	unimp
  1035de:	0000                	unimp
  1035e0:	0000                	unimp
  1035e2:	0000                	unimp
  1035e4:	0000                	unimp
  1035e6:	0000                	unimp
  1035e8:	0000                	unimp
  1035ea:	0000                	unimp

001035ec <color_buf>:
  1035ec:	0000                	unimp
  1035ee:	0000                	unimp
  1035f0:	0000                	unimp
  1035f2:	0000                	unimp
  1035f4:	0000                	unimp
  1035f6:	0000                	unimp
  1035f8:	0000                	unimp
  1035fa:	0000                	unimp
  1035fc:	0000                	unimp
  1035fe:	0000                	unimp
  103600:	0000                	unimp
  103602:	0000                	unimp
  103604:	0000                	unimp
  103606:	0000                	unimp
  103608:	0000                	unimp
  10360a:	0000                	unimp
  10360c:	0000                	unimp
  10360e:	0000                	unimp
  103610:	0000                	unimp
  103612:	0000                	unimp
  103614:	0000                	unimp
  103616:	0000                	unimp
  103618:	0000                	unimp
  10361a:	0000                	unimp
  10361c:	0000                	unimp
  10361e:	0000                	unimp
  103620:	0000                	unimp
  103622:	0000                	unimp
  103624:	0000                	unimp
  103626:	0000                	unimp
  103628:	0000                	unimp
  10362a:	0000                	unimp
  10362c:	0000                	unimp
  10362e:	0000                	unimp
  103630:	0000                	unimp
  103632:	0000                	unimp
  103634:	0000                	unimp
  103636:	0000                	unimp
  103638:	0000                	unimp
  10363a:	0000                	unimp
  10363c:	0000                	unimp
  10363e:	0000                	unimp
  103640:	0000                	unimp
  103642:	0000                	unimp
  103644:	0000                	unimp
  103646:	0000                	unimp
  103648:	0000                	unimp
  10364a:	0000                	unimp
  10364c:	0000                	unimp
  10364e:	0000                	unimp
  103650:	0000                	unimp
  103652:	0000                	unimp
  103654:	0000                	unimp
  103656:	0000                	unimp
  103658:	0000                	unimp
  10365a:	0000                	unimp
  10365c:	0000                	unimp
  10365e:	0000                	unimp
  103660:	0000                	unimp
  103662:	0000                	unimp
  103664:	0000                	unimp
  103666:	0000                	unimp
  103668:	0000                	unimp
  10366a:	0000                	unimp
  10366c:	0000                	unimp
  10366e:	0000                	unimp
  103670:	0000                	unimp
  103672:	0000                	unimp
  103674:	0000                	unimp
  103676:	0000                	unimp
  103678:	0000                	unimp
  10367a:	0000                	unimp
  10367c:	0000                	unimp
  10367e:	0000                	unimp
  103680:	0000                	unimp
  103682:	0000                	unimp
  103684:	0000                	unimp
  103686:	0000                	unimp
  103688:	0000                	unimp
  10368a:	0000                	unimp
  10368c:	0000                	unimp
  10368e:	0000                	unimp
  103690:	0000                	unimp
  103692:	0000                	unimp
  103694:	0000                	unimp
  103696:	0000                	unimp
  103698:	0000                	unimp
  10369a:	0000                	unimp
  10369c:	0000                	unimp
  10369e:	0000                	unimp
  1036a0:	0000                	unimp
  1036a2:	0000                	unimp
  1036a4:	0000                	unimp
  1036a6:	0000                	unimp
  1036a8:	0000                	unimp
  1036aa:	0000                	unimp
  1036ac:	0000                	unimp
  1036ae:	0000                	unimp
  1036b0:	0000                	unimp
  1036b2:	0000                	unimp
  1036b4:	0000                	unimp
  1036b6:	0000                	unimp
  1036b8:	0000                	unimp
  1036ba:	0000                	unimp
  1036bc:	0000                	unimp
  1036be:	0000                	unimp
  1036c0:	0000                	unimp
  1036c2:	0000                	unimp
  1036c4:	0000                	unimp
  1036c6:	0000                	unimp
  1036c8:	0000                	unimp
  1036ca:	0000                	unimp
  1036cc:	0000                	unimp
  1036ce:	0000                	unimp
  1036d0:	0000                	unimp
  1036d2:	0000                	unimp
  1036d4:	0000                	unimp
  1036d6:	0000                	unimp
  1036d8:	0000                	unimp
  1036da:	0000                	unimp
  1036dc:	0000                	unimp
  1036de:	0000                	unimp
  1036e0:	0000                	unimp
  1036e2:	0000                	unimp
  1036e4:	0000                	unimp
  1036e6:	0000                	unimp
  1036e8:	0000                	unimp
  1036ea:	0000                	unimp
  1036ec:	0000                	unimp
  1036ee:	0000                	unimp
  1036f0:	0000                	unimp
  1036f2:	0000                	unimp
  1036f4:	0000                	unimp
  1036f6:	0000                	unimp
  1036f8:	0000                	unimp
  1036fa:	0000                	unimp
  1036fc:	0000                	unimp
  1036fe:	0000                	unimp
  103700:	0000                	unimp
  103702:	0000                	unimp
  103704:	0000                	unimp
  103706:	0000                	unimp
  103708:	0000                	unimp
  10370a:	0000                	unimp
  10370c:	0000                	unimp
  10370e:	0000                	unimp
  103710:	0000                	unimp
  103712:	0000                	unimp
  103714:	0000                	unimp
  103716:	0000                	unimp
  103718:	0000                	unimp
  10371a:	0000                	unimp
  10371c:	0000                	unimp
  10371e:	0000                	unimp
  103720:	0000                	unimp
  103722:	0000                	unimp
  103724:	0000                	unimp
  103726:	0000                	unimp
  103728:	0000                	unimp
  10372a:	0000                	unimp
  10372c:	0000                	unimp
  10372e:	0000                	unimp
  103730:	0000                	unimp
  103732:	0000                	unimp
  103734:	0000                	unimp
  103736:	0000                	unimp
  103738:	0000                	unimp
  10373a:	0000                	unimp
  10373c:	0000                	unimp
  10373e:	0000                	unimp
  103740:	0000                	unimp
  103742:	0000                	unimp
  103744:	0000                	unimp
  103746:	0000                	unimp
  103748:	0000                	unimp
  10374a:	0000                	unimp
  10374c:	0000                	unimp
  10374e:	0000                	unimp
  103750:	0000                	unimp
  103752:	0000                	unimp
  103754:	0000                	unimp
  103756:	0000                	unimp
  103758:	0000                	unimp
  10375a:	0000                	unimp
  10375c:	0000                	unimp
  10375e:	0000                	unimp
  103760:	0000                	unimp
  103762:	0000                	unimp
  103764:	0000                	unimp
  103766:	0000                	unimp
  103768:	0000                	unimp
  10376a:	0000                	unimp
  10376c:	0000                	unimp
  10376e:	0000                	unimp
  103770:	0000                	unimp
  103772:	0000                	unimp
  103774:	0000                	unimp
  103776:	0000                	unimp
  103778:	0000                	unimp
  10377a:	0000                	unimp
  10377c:	0000                	unimp
  10377e:	0000                	unimp
  103780:	0000                	unimp
  103782:	0000                	unimp
  103784:	0000                	unimp
  103786:	0000                	unimp
  103788:	0000                	unimp
  10378a:	0000                	unimp
  10378c:	0000                	unimp
  10378e:	0000                	unimp
  103790:	0000                	unimp
  103792:	0000                	unimp
  103794:	0000                	unimp
  103796:	0000                	unimp
  103798:	0000                	unimp
  10379a:	0000                	unimp
  10379c:	0000                	unimp
  10379e:	0000                	unimp
  1037a0:	0000                	unimp
  1037a2:	0000                	unimp
  1037a4:	0000                	unimp
  1037a6:	0000                	unimp
  1037a8:	0000                	unimp
  1037aa:	0000                	unimp
  1037ac:	0000                	unimp
  1037ae:	0000                	unimp
  1037b0:	0000                	unimp
  1037b2:	0000                	unimp
  1037b4:	0000                	unimp
  1037b6:	0000                	unimp
  1037b8:	0000                	unimp
  1037ba:	0000                	unimp
  1037bc:	0000                	unimp
  1037be:	0000                	unimp
  1037c0:	0000                	unimp
  1037c2:	0000                	unimp
  1037c4:	0000                	unimp
  1037c6:	0000                	unimp
  1037c8:	0000                	unimp
  1037ca:	0000                	unimp
  1037cc:	0000                	unimp
  1037ce:	0000                	unimp
  1037d0:	0000                	unimp
  1037d2:	0000                	unimp
  1037d4:	0000                	unimp
  1037d6:	0000                	unimp
  1037d8:	0000                	unimp
  1037da:	0000                	unimp
  1037dc:	0000                	unimp
  1037de:	0000                	unimp
  1037e0:	0000                	unimp
  1037e2:	0000                	unimp
  1037e4:	0000                	unimp
  1037e6:	0000                	unimp
  1037e8:	0000                	unimp
  1037ea:	0000                	unimp
  1037ec:	0000                	unimp
  1037ee:	0000                	unimp
  1037f0:	0000                	unimp
  1037f2:	0000                	unimp
  1037f4:	0000                	unimp
  1037f6:	0000                	unimp
  1037f8:	0000                	unimp
  1037fa:	0000                	unimp
  1037fc:	0000                	unimp
  1037fe:	0000                	unimp
  103800:	0000                	unimp
  103802:	0000                	unimp
  103804:	0000                	unimp
  103806:	0000                	unimp
  103808:	0000                	unimp
  10380a:	0000                	unimp
  10380c:	0000                	unimp
  10380e:	0000                	unimp
  103810:	0000                	unimp
  103812:	0000                	unimp
  103814:	0000                	unimp
  103816:	0000                	unimp
  103818:	0000                	unimp
  10381a:	0000                	unimp
  10381c:	0000                	unimp
  10381e:	0000                	unimp
  103820:	0000                	unimp
  103822:	0000                	unimp
  103824:	0000                	unimp
  103826:	0000                	unimp
  103828:	0000                	unimp
  10382a:	0000                	unimp
  10382c:	0000                	unimp
  10382e:	0000                	unimp
  103830:	0000                	unimp
  103832:	0000                	unimp
  103834:	0000                	unimp
  103836:	0000                	unimp
  103838:	0000                	unimp
  10383a:	0000                	unimp
  10383c:	0000                	unimp
  10383e:	0000                	unimp
  103840:	0000                	unimp
  103842:	0000                	unimp
  103844:	0000                	unimp
  103846:	0000                	unimp
  103848:	0000                	unimp
  10384a:	0000                	unimp
  10384c:	0000                	unimp
  10384e:	0000                	unimp
  103850:	0000                	unimp
  103852:	0000                	unimp
  103854:	0000                	unimp
  103856:	0000                	unimp
  103858:	0000                	unimp
  10385a:	0000                	unimp
  10385c:	0000                	unimp
  10385e:	0000                	unimp
  103860:	0000                	unimp
  103862:	0000                	unimp
  103864:	0000                	unimp
  103866:	0000                	unimp
  103868:	0000                	unimp
  10386a:	0000                	unimp
  10386c:	0000                	unimp
  10386e:	0000                	unimp
  103870:	0000                	unimp
  103872:	0000                	unimp
  103874:	0000                	unimp
  103876:	0000                	unimp
  103878:	0000                	unimp
  10387a:	0000                	unimp
  10387c:	0000                	unimp
  10387e:	0000                	unimp
  103880:	0000                	unimp
  103882:	0000                	unimp
  103884:	0000                	unimp
  103886:	0000                	unimp
  103888:	0000                	unimp
  10388a:	0000                	unimp
  10388c:	0000                	unimp
  10388e:	0000                	unimp
  103890:	0000                	unimp
  103892:	0000                	unimp
  103894:	0000                	unimp
  103896:	0000                	unimp
  103898:	0000                	unimp
  10389a:	0000                	unimp
  10389c:	0000                	unimp
  10389e:	0000                	unimp
  1038a0:	0000                	unimp
  1038a2:	0000                	unimp
  1038a4:	0000                	unimp
  1038a6:	0000                	unimp
  1038a8:	0000                	unimp
  1038aa:	0000                	unimp
  1038ac:	0000                	unimp
  1038ae:	0000                	unimp
  1038b0:	0000                	unimp
  1038b2:	0000                	unimp
  1038b4:	0000                	unimp
  1038b6:	0000                	unimp
  1038b8:	0000                	unimp
  1038ba:	0000                	unimp
  1038bc:	0000                	unimp
  1038be:	0000                	unimp
  1038c0:	0000                	unimp
  1038c2:	0000                	unimp
  1038c4:	0000                	unimp
  1038c6:	0000                	unimp
  1038c8:	0000                	unimp
  1038ca:	0000                	unimp
  1038cc:	0000                	unimp
  1038ce:	0000                	unimp
  1038d0:	0000                	unimp
  1038d2:	0000                	unimp
  1038d4:	0000                	unimp
  1038d6:	0000                	unimp
  1038d8:	0000                	unimp
  1038da:	0000                	unimp
  1038dc:	0000                	unimp
  1038de:	0000                	unimp
  1038e0:	0000                	unimp
  1038e2:	0000                	unimp
  1038e4:	0000                	unimp
  1038e6:	0000                	unimp
  1038e8:	0000                	unimp
  1038ea:	0000                	unimp
  1038ec:	0000                	unimp
  1038ee:	0000                	unimp
  1038f0:	0000                	unimp
  1038f2:	0000                	unimp
  1038f4:	0000                	unimp
  1038f6:	0000                	unimp
  1038f8:	0000                	unimp
  1038fa:	0000                	unimp
  1038fc:	0000                	unimp
  1038fe:	0000                	unimp
  103900:	0000                	unimp
  103902:	0000                	unimp
  103904:	0000                	unimp
  103906:	0000                	unimp
  103908:	0000                	unimp
  10390a:	0000                	unimp
  10390c:	0000                	unimp
  10390e:	0000                	unimp
  103910:	0000                	unimp
  103912:	0000                	unimp
  103914:	0000                	unimp
  103916:	0000                	unimp
  103918:	0000                	unimp
  10391a:	0000                	unimp
  10391c:	0000                	unimp
  10391e:	0000                	unimp
  103920:	0000                	unimp
  103922:	0000                	unimp
  103924:	0000                	unimp
  103926:	0000                	unimp
  103928:	0000                	unimp
  10392a:	0000                	unimp
  10392c:	0000                	unimp
  10392e:	0000                	unimp
  103930:	0000                	unimp
  103932:	0000                	unimp
  103934:	0000                	unimp
  103936:	0000                	unimp
  103938:	0000                	unimp
  10393a:	0000                	unimp
  10393c:	0000                	unimp
  10393e:	0000                	unimp
  103940:	0000                	unimp
  103942:	0000                	unimp
  103944:	0000                	unimp
  103946:	0000                	unimp
  103948:	0000                	unimp
  10394a:	0000                	unimp
  10394c:	0000                	unimp
  10394e:	0000                	unimp
  103950:	0000                	unimp
  103952:	0000                	unimp
  103954:	0000                	unimp
  103956:	0000                	unimp
  103958:	0000                	unimp
  10395a:	0000                	unimp
  10395c:	0000                	unimp
  10395e:	0000                	unimp
  103960:	0000                	unimp
  103962:	0000                	unimp
  103964:	0000                	unimp
  103966:	0000                	unimp
  103968:	0000                	unimp
  10396a:	0000                	unimp
  10396c:	0000                	unimp
  10396e:	0000                	unimp
  103970:	0000                	unimp
  103972:	0000                	unimp
  103974:	0000                	unimp
  103976:	0000                	unimp
  103978:	0000                	unimp
  10397a:	0000                	unimp
  10397c:	0000                	unimp
  10397e:	0000                	unimp
  103980:	0000                	unimp
  103982:	0000                	unimp
  103984:	0000                	unimp
  103986:	0000                	unimp
  103988:	0000                	unimp
  10398a:	0000                	unimp
  10398c:	0000                	unimp
  10398e:	0000                	unimp
  103990:	0000                	unimp
  103992:	0000                	unimp
  103994:	0000                	unimp
  103996:	0000                	unimp
  103998:	0000                	unimp
  10399a:	0000                	unimp
  10399c:	0000                	unimp
  10399e:	0000                	unimp
  1039a0:	0000                	unimp
  1039a2:	0000                	unimp
  1039a4:	0000                	unimp
  1039a6:	0000                	unimp
  1039a8:	0000                	unimp
  1039aa:	0000                	unimp
  1039ac:	0000                	unimp
  1039ae:	0000                	unimp
  1039b0:	0000                	unimp
  1039b2:	0000                	unimp
  1039b4:	0000                	unimp
  1039b6:	0000                	unimp
  1039b8:	0000                	unimp
  1039ba:	0000                	unimp
  1039bc:	0000                	unimp
  1039be:	0000                	unimp
  1039c0:	0000                	unimp
  1039c2:	0000                	unimp
  1039c4:	0000                	unimp
  1039c6:	0000                	unimp
  1039c8:	0000                	unimp
  1039ca:	0000                	unimp
  1039cc:	0000                	unimp
  1039ce:	0000                	unimp
  1039d0:	0000                	unimp
  1039d2:	0000                	unimp
  1039d4:	0000                	unimp
  1039d6:	0000                	unimp
  1039d8:	0000                	unimp
  1039da:	0000                	unimp
  1039dc:	0000                	unimp
  1039de:	0000                	unimp
  1039e0:	0000                	unimp
  1039e2:	0000                	unimp
  1039e4:	0000                	unimp
  1039e6:	0000                	unimp
  1039e8:	0000                	unimp
  1039ea:	0000                	unimp
  1039ec:	0000                	unimp
  1039ee:	0000                	unimp
  1039f0:	0000                	unimp
  1039f2:	0000                	unimp
  1039f4:	0000                	unimp
  1039f6:	0000                	unimp
  1039f8:	0000                	unimp
  1039fa:	0000                	unimp
  1039fc:	0000                	unimp
  1039fe:	0000                	unimp
  103a00:	0000                	unimp
  103a02:	0000                	unimp
  103a04:	0000                	unimp
  103a06:	0000                	unimp
  103a08:	0000                	unimp
  103a0a:	0000                	unimp
  103a0c:	0000                	unimp
  103a0e:	0000                	unimp
  103a10:	0000                	unimp
  103a12:	0000                	unimp
  103a14:	0000                	unimp
  103a16:	0000                	unimp
  103a18:	0000                	unimp
  103a1a:	0000                	unimp
  103a1c:	0000                	unimp
  103a1e:	0000                	unimp
  103a20:	0000                	unimp
  103a22:	0000                	unimp
  103a24:	0000                	unimp
  103a26:	0000                	unimp
  103a28:	0000                	unimp
  103a2a:	0000                	unimp
  103a2c:	0000                	unimp
  103a2e:	0000                	unimp
  103a30:	0000                	unimp
  103a32:	0000                	unimp
  103a34:	0000                	unimp
  103a36:	0000                	unimp
  103a38:	0000                	unimp
  103a3a:	0000                	unimp
  103a3c:	0000                	unimp
  103a3e:	0000                	unimp
  103a40:	0000                	unimp
  103a42:	0000                	unimp
  103a44:	0000                	unimp
  103a46:	0000                	unimp
  103a48:	0000                	unimp
  103a4a:	0000                	unimp
  103a4c:	0000                	unimp
  103a4e:	0000                	unimp
  103a50:	0000                	unimp
  103a52:	0000                	unimp
  103a54:	0000                	unimp
  103a56:	0000                	unimp
  103a58:	0000                	unimp
  103a5a:	0000                	unimp
  103a5c:	0000                	unimp
  103a5e:	0000                	unimp
  103a60:	0000                	unimp
  103a62:	0000                	unimp
  103a64:	0000                	unimp
  103a66:	0000                	unimp
  103a68:	0000                	unimp
  103a6a:	0000                	unimp
  103a6c:	0000                	unimp
  103a6e:	0000                	unimp
  103a70:	0000                	unimp
  103a72:	0000                	unimp
  103a74:	0000                	unimp
  103a76:	0000                	unimp
  103a78:	0000                	unimp
  103a7a:	0000                	unimp
  103a7c:	0000                	unimp
  103a7e:	0000                	unimp
  103a80:	0000                	unimp
  103a82:	0000                	unimp
  103a84:	0000                	unimp
  103a86:	0000                	unimp
  103a88:	0000                	unimp
  103a8a:	0000                	unimp
  103a8c:	0000                	unimp
  103a8e:	0000                	unimp
  103a90:	0000                	unimp
  103a92:	0000                	unimp
  103a94:	0000                	unimp
  103a96:	0000                	unimp
  103a98:	0000                	unimp
  103a9a:	0000                	unimp
  103a9c:	0000                	unimp
  103a9e:	0000                	unimp
  103aa0:	0000                	unimp
  103aa2:	0000                	unimp
  103aa4:	0000                	unimp
  103aa6:	0000                	unimp
  103aa8:	0000                	unimp
  103aaa:	0000                	unimp
  103aac:	0000                	unimp
  103aae:	0000                	unimp
  103ab0:	0000                	unimp
  103ab2:	0000                	unimp
  103ab4:	0000                	unimp
  103ab6:	0000                	unimp
  103ab8:	0000                	unimp
  103aba:	0000                	unimp
  103abc:	0000                	unimp
  103abe:	0000                	unimp
  103ac0:	0000                	unimp
  103ac2:	0000                	unimp
  103ac4:	0000                	unimp
  103ac6:	0000                	unimp
  103ac8:	0000                	unimp
  103aca:	0000                	unimp
  103acc:	0000                	unimp
  103ace:	0000                	unimp
  103ad0:	0000                	unimp
  103ad2:	0000                	unimp
  103ad4:	0000                	unimp
  103ad6:	0000                	unimp
  103ad8:	0000                	unimp
  103ada:	0000                	unimp
  103adc:	0000                	unimp
  103ade:	0000                	unimp
  103ae0:	0000                	unimp
  103ae2:	0000                	unimp
  103ae4:	0000                	unimp
  103ae6:	0000                	unimp
  103ae8:	0000                	unimp
  103aea:	0000                	unimp
  103aec:	0000                	unimp
  103aee:	0000                	unimp
  103af0:	0000                	unimp
  103af2:	0000                	unimp
  103af4:	0000                	unimp
  103af6:	0000                	unimp
  103af8:	0000                	unimp
  103afa:	0000                	unimp
  103afc:	0000                	unimp
  103afe:	0000                	unimp
  103b00:	0000                	unimp
  103b02:	0000                	unimp
  103b04:	0000                	unimp
  103b06:	0000                	unimp
  103b08:	0000                	unimp
  103b0a:	0000                	unimp
  103b0c:	0000                	unimp
  103b0e:	0000                	unimp
  103b10:	0000                	unimp
  103b12:	0000                	unimp
  103b14:	0000                	unimp
  103b16:	0000                	unimp
  103b18:	0000                	unimp
  103b1a:	0000                	unimp
  103b1c:	0000                	unimp
  103b1e:	0000                	unimp
  103b20:	0000                	unimp
  103b22:	0000                	unimp
  103b24:	0000                	unimp
  103b26:	0000                	unimp
  103b28:	0000                	unimp
  103b2a:	0000                	unimp
  103b2c:	0000                	unimp
  103b2e:	0000                	unimp
  103b30:	0000                	unimp
  103b32:	0000                	unimp
  103b34:	0000                	unimp
  103b36:	0000                	unimp
  103b38:	0000                	unimp
  103b3a:	0000                	unimp
  103b3c:	0000                	unimp
  103b3e:	0000                	unimp
  103b40:	0000                	unimp
  103b42:	0000                	unimp
  103b44:	0000                	unimp
  103b46:	0000                	unimp
  103b48:	0000                	unimp
  103b4a:	0000                	unimp
  103b4c:	0000                	unimp
  103b4e:	0000                	unimp
  103b50:	0000                	unimp
  103b52:	0000                	unimp
  103b54:	0000                	unimp
  103b56:	0000                	unimp
  103b58:	0000                	unimp
  103b5a:	0000                	unimp
  103b5c:	0000                	unimp
  103b5e:	0000                	unimp
  103b60:	0000                	unimp
  103b62:	0000                	unimp
  103b64:	0000                	unimp
  103b66:	0000                	unimp
  103b68:	0000                	unimp
  103b6a:	0000                	unimp
  103b6c:	0000                	unimp
  103b6e:	0000                	unimp
  103b70:	0000                	unimp
  103b72:	0000                	unimp
  103b74:	0000                	unimp
  103b76:	0000                	unimp
  103b78:	0000                	unimp
  103b7a:	0000                	unimp
  103b7c:	0000                	unimp
  103b7e:	0000                	unimp
  103b80:	0000                	unimp
  103b82:	0000                	unimp
  103b84:	0000                	unimp
  103b86:	0000                	unimp
  103b88:	0000                	unimp
  103b8a:	0000                	unimp
  103b8c:	0000                	unimp
  103b8e:	0000                	unimp
  103b90:	0000                	unimp
  103b92:	0000                	unimp
  103b94:	0000                	unimp
  103b96:	0000                	unimp
  103b98:	0000                	unimp
  103b9a:	0000                	unimp
  103b9c:	0000                	unimp
  103b9e:	0000                	unimp
  103ba0:	0000                	unimp
  103ba2:	0000                	unimp
  103ba4:	0000                	unimp
  103ba6:	0000                	unimp
  103ba8:	0000                	unimp
  103baa:	0000                	unimp
  103bac:	0000                	unimp
  103bae:	0000                	unimp
  103bb0:	0000                	unimp
  103bb2:	0000                	unimp
  103bb4:	0000                	unimp
  103bb6:	0000                	unimp
  103bb8:	0000                	unimp
  103bba:	0000                	unimp
  103bbc:	0000                	unimp
  103bbe:	0000                	unimp
  103bc0:	0000                	unimp
  103bc2:	0000                	unimp
  103bc4:	0000                	unimp
  103bc6:	0000                	unimp
  103bc8:	0000                	unimp
  103bca:	0000                	unimp
  103bcc:	0000                	unimp
  103bce:	0000                	unimp
  103bd0:	0000                	unimp
  103bd2:	0000                	unimp
  103bd4:	0000                	unimp
  103bd6:	0000                	unimp
  103bd8:	0000                	unimp
  103bda:	0000                	unimp
  103bdc:	0000                	unimp
  103bde:	0000                	unimp
  103be0:	0000                	unimp
  103be2:	0000                	unimp
  103be4:	0000                	unimp
  103be6:	0000                	unimp
  103be8:	0000                	unimp
  103bea:	0000                	unimp
  103bec:	0000                	unimp
  103bee:	0000                	unimp
  103bf0:	0000                	unimp
  103bf2:	0000                	unimp
  103bf4:	0000                	unimp
  103bf6:	0000                	unimp
  103bf8:	0000                	unimp
  103bfa:	0000                	unimp
  103bfc:	0000                	unimp
  103bfe:	0000                	unimp
  103c00:	0000                	unimp
  103c02:	0000                	unimp
  103c04:	0000                	unimp
  103c06:	0000                	unimp
  103c08:	0000                	unimp
  103c0a:	0000                	unimp
  103c0c:	0000                	unimp
  103c0e:	0000                	unimp
  103c10:	0000                	unimp
  103c12:	0000                	unimp
  103c14:	0000                	unimp
  103c16:	0000                	unimp
  103c18:	0000                	unimp
  103c1a:	0000                	unimp
  103c1c:	0000                	unimp
  103c1e:	0000                	unimp
  103c20:	0000                	unimp
  103c22:	0000                	unimp
  103c24:	0000                	unimp
  103c26:	0000                	unimp
  103c28:	0000                	unimp
  103c2a:	0000                	unimp
  103c2c:	0000                	unimp
  103c2e:	0000                	unimp
  103c30:	0000                	unimp
  103c32:	0000                	unimp
  103c34:	0000                	unimp
  103c36:	0000                	unimp
  103c38:	0000                	unimp
  103c3a:	0000                	unimp
  103c3c:	0000                	unimp
  103c3e:	0000                	unimp
  103c40:	0000                	unimp
  103c42:	0000                	unimp
  103c44:	0000                	unimp
  103c46:	0000                	unimp
  103c48:	0000                	unimp
  103c4a:	0000                	unimp
  103c4c:	0000                	unimp
  103c4e:	0000                	unimp
  103c50:	0000                	unimp
  103c52:	0000                	unimp
  103c54:	0000                	unimp
  103c56:	0000                	unimp
  103c58:	0000                	unimp
  103c5a:	0000                	unimp
  103c5c:	0000                	unimp
  103c5e:	0000                	unimp
  103c60:	0000                	unimp
  103c62:	0000                	unimp
  103c64:	0000                	unimp
  103c66:	0000                	unimp
  103c68:	0000                	unimp
  103c6a:	0000                	unimp
  103c6c:	0000                	unimp
  103c6e:	0000                	unimp
  103c70:	0000                	unimp
  103c72:	0000                	unimp
  103c74:	0000                	unimp
  103c76:	0000                	unimp
  103c78:	0000                	unimp
  103c7a:	0000                	unimp
  103c7c:	0000                	unimp
  103c7e:	0000                	unimp
  103c80:	0000                	unimp
  103c82:	0000                	unimp
  103c84:	0000                	unimp
  103c86:	0000                	unimp
  103c88:	0000                	unimp
  103c8a:	0000                	unimp
  103c8c:	0000                	unimp
  103c8e:	0000                	unimp
  103c90:	0000                	unimp
  103c92:	0000                	unimp
  103c94:	0000                	unimp
  103c96:	0000                	unimp
  103c98:	0000                	unimp
  103c9a:	0000                	unimp
  103c9c:	0000                	unimp
  103c9e:	0000                	unimp
  103ca0:	0000                	unimp
  103ca2:	0000                	unimp
  103ca4:	0000                	unimp
  103ca6:	0000                	unimp
  103ca8:	0000                	unimp
  103caa:	0000                	unimp
  103cac:	0000                	unimp
  103cae:	0000                	unimp
  103cb0:	0000                	unimp
  103cb2:	0000                	unimp
  103cb4:	0000                	unimp
  103cb6:	0000                	unimp
  103cb8:	0000                	unimp
  103cba:	0000                	unimp
  103cbc:	0000                	unimp
  103cbe:	0000                	unimp
  103cc0:	0000                	unimp
  103cc2:	0000                	unimp
  103cc4:	0000                	unimp
  103cc6:	0000                	unimp
  103cc8:	0000                	unimp
  103cca:	0000                	unimp
  103ccc:	0000                	unimp
  103cce:	0000                	unimp
  103cd0:	0000                	unimp
  103cd2:	0000                	unimp
  103cd4:	0000                	unimp
  103cd6:	0000                	unimp
  103cd8:	0000                	unimp
  103cda:	0000                	unimp
  103cdc:	0000                	unimp
  103cde:	0000                	unimp
  103ce0:	0000                	unimp
  103ce2:	0000                	unimp
  103ce4:	0000                	unimp
  103ce6:	0000                	unimp
  103ce8:	0000                	unimp
  103cea:	0000                	unimp
  103cec:	0000                	unimp
  103cee:	0000                	unimp
  103cf0:	0000                	unimp
  103cf2:	0000                	unimp
  103cf4:	0000                	unimp
  103cf6:	0000                	unimp
  103cf8:	0000                	unimp
  103cfa:	0000                	unimp
  103cfc:	0000                	unimp
  103cfe:	0000                	unimp
  103d00:	0000                	unimp
  103d02:	0000                	unimp
  103d04:	0000                	unimp
  103d06:	0000                	unimp
  103d08:	0000                	unimp
  103d0a:	0000                	unimp
  103d0c:	0000                	unimp
  103d0e:	0000                	unimp
  103d10:	0000                	unimp
  103d12:	0000                	unimp
  103d14:	0000                	unimp
  103d16:	0000                	unimp
  103d18:	0000                	unimp
  103d1a:	0000                	unimp
  103d1c:	0000                	unimp
  103d1e:	0000                	unimp
  103d20:	0000                	unimp
  103d22:	0000                	unimp
  103d24:	0000                	unimp
  103d26:	0000                	unimp
  103d28:	0000                	unimp
  103d2a:	0000                	unimp
  103d2c:	0000                	unimp
  103d2e:	0000                	unimp
  103d30:	0000                	unimp
  103d32:	0000                	unimp
  103d34:	0000                	unimp
  103d36:	0000                	unimp
  103d38:	0000                	unimp
  103d3a:	0000                	unimp
  103d3c:	0000                	unimp
  103d3e:	0000                	unimp
  103d40:	0000                	unimp
  103d42:	0000                	unimp
  103d44:	0000                	unimp
  103d46:	0000                	unimp
  103d48:	0000                	unimp
  103d4a:	0000                	unimp
  103d4c:	0000                	unimp
  103d4e:	0000                	unimp
  103d50:	0000                	unimp
  103d52:	0000                	unimp
  103d54:	0000                	unimp
  103d56:	0000                	unimp
  103d58:	0000                	unimp
  103d5a:	0000                	unimp
  103d5c:	0000                	unimp
  103d5e:	0000                	unimp
  103d60:	0000                	unimp
  103d62:	0000                	unimp
  103d64:	0000                	unimp
  103d66:	0000                	unimp
  103d68:	0000                	unimp
  103d6a:	0000                	unimp
  103d6c:	0000                	unimp
  103d6e:	0000                	unimp
  103d70:	0000                	unimp
  103d72:	0000                	unimp
  103d74:	0000                	unimp
  103d76:	0000                	unimp
  103d78:	0000                	unimp
  103d7a:	0000                	unimp
  103d7c:	0000                	unimp
  103d7e:	0000                	unimp
  103d80:	0000                	unimp
  103d82:	0000                	unimp
  103d84:	0000                	unimp
  103d86:	0000                	unimp
  103d88:	0000                	unimp
  103d8a:	0000                	unimp
  103d8c:	0000                	unimp
  103d8e:	0000                	unimp
  103d90:	0000                	unimp
  103d92:	0000                	unimp
  103d94:	0000                	unimp
  103d96:	0000                	unimp
  103d98:	0000                	unimp
  103d9a:	0000                	unimp
  103d9c:	0000                	unimp
  103d9e:	0000                	unimp
  103da0:	0000                	unimp
  103da2:	0000                	unimp
  103da4:	0000                	unimp
  103da6:	0000                	unimp
  103da8:	0000                	unimp
  103daa:	0000                	unimp
  103dac:	0000                	unimp
  103dae:	0000                	unimp
  103db0:	0000                	unimp
  103db2:	0000                	unimp
  103db4:	0000                	unimp
  103db6:	0000                	unimp
  103db8:	0000                	unimp
  103dba:	0000                	unimp
  103dbc:	0000                	unimp
  103dbe:	0000                	unimp
  103dc0:	0000                	unimp
  103dc2:	0000                	unimp
  103dc4:	0000                	unimp
  103dc6:	0000                	unimp
  103dc8:	0000                	unimp
  103dca:	0000                	unimp
  103dcc:	0000                	unimp
  103dce:	0000                	unimp
  103dd0:	0000                	unimp
  103dd2:	0000                	unimp
  103dd4:	0000                	unimp
  103dd6:	0000                	unimp
  103dd8:	0000                	unimp
  103dda:	0000                	unimp
  103ddc:	0000                	unimp
  103dde:	0000                	unimp
  103de0:	0000                	unimp
  103de2:	0000                	unimp
  103de4:	0000                	unimp
  103de6:	0000                	unimp
  103de8:	0000                	unimp
  103dea:	0000                	unimp
  103dec:	0000                	unimp
  103dee:	0000                	unimp
  103df0:	0000                	unimp
  103df2:	0000                	unimp
  103df4:	0000                	unimp
  103df6:	0000                	unimp
  103df8:	0000                	unimp
  103dfa:	0000                	unimp
  103dfc:	0000                	unimp
  103dfe:	0000                	unimp
  103e00:	0000                	unimp
  103e02:	0000                	unimp
  103e04:	0000                	unimp
  103e06:	0000                	unimp
  103e08:	0000                	unimp
  103e0a:	0000                	unimp
  103e0c:	0000                	unimp
  103e0e:	0000                	unimp
  103e10:	0000                	unimp
  103e12:	0000                	unimp
  103e14:	0000                	unimp
  103e16:	0000                	unimp
  103e18:	0000                	unimp
  103e1a:	0000                	unimp
  103e1c:	0000                	unimp
  103e1e:	0000                	unimp
  103e20:	0000                	unimp
  103e22:	0000                	unimp
  103e24:	0000                	unimp
  103e26:	0000                	unimp
  103e28:	0000                	unimp
  103e2a:	0000                	unimp
  103e2c:	0000                	unimp
  103e2e:	0000                	unimp
  103e30:	0000                	unimp
  103e32:	0000                	unimp
  103e34:	0000                	unimp
  103e36:	0000                	unimp
  103e38:	0000                	unimp
  103e3a:	0000                	unimp
  103e3c:	0000                	unimp
  103e3e:	0000                	unimp
  103e40:	0000                	unimp
  103e42:	0000                	unimp
  103e44:	0000                	unimp
  103e46:	0000                	unimp
  103e48:	0000                	unimp
  103e4a:	0000                	unimp
  103e4c:	0000                	unimp
  103e4e:	0000                	unimp
  103e50:	0000                	unimp
  103e52:	0000                	unimp
  103e54:	0000                	unimp
  103e56:	0000                	unimp
  103e58:	0000                	unimp
  103e5a:	0000                	unimp
  103e5c:	0000                	unimp
  103e5e:	0000                	unimp
  103e60:	0000                	unimp
  103e62:	0000                	unimp
  103e64:	0000                	unimp
  103e66:	0000                	unimp
  103e68:	0000                	unimp
  103e6a:	0000                	unimp
  103e6c:	0000                	unimp
  103e6e:	0000                	unimp
  103e70:	0000                	unimp
  103e72:	0000                	unimp
  103e74:	0000                	unimp
  103e76:	0000                	unimp
  103e78:	0000                	unimp
  103e7a:	0000                	unimp
  103e7c:	0000                	unimp
  103e7e:	0000                	unimp
  103e80:	0000                	unimp
  103e82:	0000                	unimp
  103e84:	0000                	unimp
  103e86:	0000                	unimp
  103e88:	0000                	unimp
  103e8a:	0000                	unimp
  103e8c:	0000                	unimp
  103e8e:	0000                	unimp
  103e90:	0000                	unimp
  103e92:	0000                	unimp
  103e94:	0000                	unimp
  103e96:	0000                	unimp
  103e98:	0000                	unimp
  103e9a:	0000                	unimp
  103e9c:	0000                	unimp
  103e9e:	0000                	unimp
  103ea0:	0000                	unimp
  103ea2:	0000                	unimp
  103ea4:	0000                	unimp
  103ea6:	0000                	unimp
  103ea8:	0000                	unimp
  103eaa:	0000                	unimp
  103eac:	0000                	unimp
  103eae:	0000                	unimp
  103eb0:	0000                	unimp
  103eb2:	0000                	unimp
  103eb4:	0000                	unimp
  103eb6:	0000                	unimp
  103eb8:	0000                	unimp
  103eba:	0000                	unimp
  103ebc:	0000                	unimp
  103ebe:	0000                	unimp
  103ec0:	0000                	unimp
  103ec2:	0000                	unimp
  103ec4:	0000                	unimp
  103ec6:	0000                	unimp
  103ec8:	0000                	unimp
  103eca:	0000                	unimp
  103ecc:	0000                	unimp
  103ece:	0000                	unimp
  103ed0:	0000                	unimp
  103ed2:	0000                	unimp
  103ed4:	0000                	unimp
  103ed6:	0000                	unimp
  103ed8:	0000                	unimp
  103eda:	0000                	unimp
  103edc:	0000                	unimp
  103ede:	0000                	unimp
  103ee0:	0000                	unimp
  103ee2:	0000                	unimp
  103ee4:	0000                	unimp
  103ee6:	0000                	unimp
  103ee8:	0000                	unimp
  103eea:	0000                	unimp
  103eec:	0000                	unimp
  103eee:	0000                	unimp
  103ef0:	0000                	unimp
  103ef2:	0000                	unimp
  103ef4:	0000                	unimp
  103ef6:	0000                	unimp
  103ef8:	0000                	unimp
  103efa:	0000                	unimp
  103efc:	0000                	unimp
  103efe:	0000                	unimp
  103f00:	0000                	unimp
  103f02:	0000                	unimp
  103f04:	0000                	unimp
  103f06:	0000                	unimp
  103f08:	0000                	unimp
  103f0a:	0000                	unimp
  103f0c:	0000                	unimp
  103f0e:	0000                	unimp
  103f10:	0000                	unimp
  103f12:	0000                	unimp
  103f14:	0000                	unimp
  103f16:	0000                	unimp
  103f18:	0000                	unimp
  103f1a:	0000                	unimp
  103f1c:	0000                	unimp
  103f1e:	0000                	unimp
  103f20:	0000                	unimp
  103f22:	0000                	unimp
  103f24:	0000                	unimp
  103f26:	0000                	unimp
  103f28:	0000                	unimp
  103f2a:	0000                	unimp
  103f2c:	0000                	unimp
  103f2e:	0000                	unimp
  103f30:	0000                	unimp
  103f32:	0000                	unimp
  103f34:	0000                	unimp
  103f36:	0000                	unimp
  103f38:	0000                	unimp
  103f3a:	0000                	unimp
  103f3c:	0000                	unimp
  103f3e:	0000                	unimp
  103f40:	0000                	unimp
  103f42:	0000                	unimp
  103f44:	0000                	unimp
  103f46:	0000                	unimp
  103f48:	0000                	unimp
  103f4a:	0000                	unimp
  103f4c:	0000                	unimp
  103f4e:	0000                	unimp
  103f50:	0000                	unimp
  103f52:	0000                	unimp
  103f54:	0000                	unimp
  103f56:	0000                	unimp
  103f58:	0000                	unimp
  103f5a:	0000                	unimp
  103f5c:	0000                	unimp
  103f5e:	0000                	unimp
  103f60:	0000                	unimp
  103f62:	0000                	unimp
  103f64:	0000                	unimp
  103f66:	0000                	unimp
  103f68:	0000                	unimp
  103f6a:	0000                	unimp
  103f6c:	0000                	unimp
  103f6e:	0000                	unimp
  103f70:	0000                	unimp
  103f72:	0000                	unimp
  103f74:	0000                	unimp
  103f76:	0000                	unimp
  103f78:	0000                	unimp
  103f7a:	0000                	unimp
  103f7c:	0000                	unimp
  103f7e:	0000                	unimp
  103f80:	0000                	unimp
  103f82:	0000                	unimp
  103f84:	0000                	unimp
  103f86:	0000                	unimp
  103f88:	0000                	unimp
  103f8a:	0000                	unimp
  103f8c:	0000                	unimp
  103f8e:	0000                	unimp
  103f90:	0000                	unimp
  103f92:	0000                	unimp
  103f94:	0000                	unimp
  103f96:	0000                	unimp
  103f98:	0000                	unimp
  103f9a:	0000                	unimp
  103f9c:	0000                	unimp
  103f9e:	0000                	unimp
  103fa0:	0000                	unimp
  103fa2:	0000                	unimp
  103fa4:	0000                	unimp
  103fa6:	0000                	unimp
  103fa8:	0000                	unimp
  103faa:	0000                	unimp
  103fac:	0000                	unimp
  103fae:	0000                	unimp
  103fb0:	0000                	unimp
  103fb2:	0000                	unimp
  103fb4:	0000                	unimp
  103fb6:	0000                	unimp
  103fb8:	0000                	unimp
  103fba:	0000                	unimp
  103fbc:	0000                	unimp
  103fbe:	0000                	unimp
  103fc0:	0000                	unimp
  103fc2:	0000                	unimp
  103fc4:	0000                	unimp
  103fc6:	0000                	unimp
  103fc8:	0000                	unimp
  103fca:	0000                	unimp
  103fcc:	0000                	unimp
  103fce:	0000                	unimp
  103fd0:	0000                	unimp
  103fd2:	0000                	unimp
  103fd4:	0000                	unimp
  103fd6:	0000                	unimp
  103fd8:	0000                	unimp
  103fda:	0000                	unimp
  103fdc:	0000                	unimp
  103fde:	0000                	unimp
  103fe0:	0000                	unimp
  103fe2:	0000                	unimp
  103fe4:	0000                	unimp
  103fe6:	0000                	unimp
  103fe8:	0000                	unimp
  103fea:	0000                	unimp
  103fec:	0000                	unimp
  103fee:	0000                	unimp
  103ff0:	0000                	unimp
  103ff2:	0000                	unimp
  103ff4:	0000                	unimp
  103ff6:	0000                	unimp
  103ff8:	0000                	unimp
  103ffa:	0000                	unimp
  103ffc:	0000                	unimp
  103ffe:	0000                	unimp
  104000:	0000                	unimp
  104002:	0000                	unimp
  104004:	0000                	unimp
  104006:	0000                	unimp
  104008:	0000                	unimp
  10400a:	0000                	unimp
  10400c:	0000                	unimp
  10400e:	0000                	unimp
  104010:	0000                	unimp
  104012:	0000                	unimp
  104014:	0000                	unimp
  104016:	0000                	unimp
  104018:	0000                	unimp
  10401a:	0000                	unimp
  10401c:	0000                	unimp
  10401e:	0000                	unimp
  104020:	0000                	unimp
  104022:	0000                	unimp
  104024:	0000                	unimp
  104026:	0000                	unimp
  104028:	0000                	unimp
  10402a:	0000                	unimp
  10402c:	0000                	unimp
  10402e:	0000                	unimp
  104030:	0000                	unimp
  104032:	0000                	unimp
  104034:	0000                	unimp
  104036:	0000                	unimp
  104038:	0000                	unimp
  10403a:	0000                	unimp
  10403c:	0000                	unimp
  10403e:	0000                	unimp
  104040:	0000                	unimp
  104042:	0000                	unimp
  104044:	0000                	unimp
  104046:	0000                	unimp
  104048:	0000                	unimp
  10404a:	0000                	unimp
  10404c:	0000                	unimp
  10404e:	0000                	unimp
  104050:	0000                	unimp
  104052:	0000                	unimp
  104054:	0000                	unimp
  104056:	0000                	unimp
  104058:	0000                	unimp
  10405a:	0000                	unimp
  10405c:	0000                	unimp
  10405e:	0000                	unimp
  104060:	0000                	unimp
  104062:	0000                	unimp
  104064:	0000                	unimp
  104066:	0000                	unimp
  104068:	0000                	unimp
  10406a:	0000                	unimp
  10406c:	0000                	unimp
  10406e:	0000                	unimp
  104070:	0000                	unimp
  104072:	0000                	unimp
  104074:	0000                	unimp
  104076:	0000                	unimp
  104078:	0000                	unimp
  10407a:	0000                	unimp
  10407c:	0000                	unimp
  10407e:	0000                	unimp
  104080:	0000                	unimp
  104082:	0000                	unimp
  104084:	0000                	unimp
  104086:	0000                	unimp
  104088:	0000                	unimp
  10408a:	0000                	unimp
  10408c:	0000                	unimp
  10408e:	0000                	unimp
  104090:	0000                	unimp
  104092:	0000                	unimp
  104094:	0000                	unimp
  104096:	0000                	unimp
  104098:	0000                	unimp
  10409a:	0000                	unimp
  10409c:	0000                	unimp
  10409e:	0000                	unimp
  1040a0:	0000                	unimp
  1040a2:	0000                	unimp
  1040a4:	0000                	unimp
  1040a6:	0000                	unimp
  1040a8:	0000                	unimp
  1040aa:	0000                	unimp
  1040ac:	0000                	unimp
  1040ae:	0000                	unimp
  1040b0:	0000                	unimp
  1040b2:	0000                	unimp
  1040b4:	0000                	unimp
  1040b6:	0000                	unimp
  1040b8:	0000                	unimp
  1040ba:	0000                	unimp
  1040bc:	0000                	unimp
  1040be:	0000                	unimp
  1040c0:	0000                	unimp
  1040c2:	0000                	unimp
  1040c4:	0000                	unimp
  1040c6:	0000                	unimp
  1040c8:	0000                	unimp
  1040ca:	0000                	unimp
  1040cc:	0000                	unimp
  1040ce:	0000                	unimp
  1040d0:	0000                	unimp
  1040d2:	0000                	unimp
  1040d4:	0000                	unimp
  1040d6:	0000                	unimp
  1040d8:	0000                	unimp
  1040da:	0000                	unimp
  1040dc:	0000                	unimp
  1040de:	0000                	unimp
  1040e0:	0000                	unimp
  1040e2:	0000                	unimp
  1040e4:	0000                	unimp
  1040e6:	0000                	unimp
  1040e8:	0000                	unimp
  1040ea:	0000                	unimp
  1040ec:	0000                	unimp
  1040ee:	0000                	unimp
  1040f0:	0000                	unimp
  1040f2:	0000                	unimp
  1040f4:	0000                	unimp
  1040f6:	0000                	unimp
  1040f8:	0000                	unimp
  1040fa:	0000                	unimp
  1040fc:	0000                	unimp
  1040fe:	0000                	unimp
  104100:	0000                	unimp
  104102:	0000                	unimp
  104104:	0000                	unimp
  104106:	0000                	unimp
  104108:	0000                	unimp
  10410a:	0000                	unimp
  10410c:	0000                	unimp
  10410e:	0000                	unimp
  104110:	0000                	unimp
  104112:	0000                	unimp
  104114:	0000                	unimp
  104116:	0000                	unimp
  104118:	0000                	unimp
  10411a:	0000                	unimp
  10411c:	0000                	unimp
  10411e:	0000                	unimp
  104120:	0000                	unimp
  104122:	0000                	unimp
  104124:	0000                	unimp
  104126:	0000                	unimp
  104128:	0000                	unimp
  10412a:	0000                	unimp
  10412c:	0000                	unimp
  10412e:	0000                	unimp
  104130:	0000                	unimp
  104132:	0000                	unimp
  104134:	0000                	unimp
  104136:	0000                	unimp
  104138:	0000                	unimp
  10413a:	0000                	unimp
  10413c:	0000                	unimp
  10413e:	0000                	unimp
  104140:	0000                	unimp
  104142:	0000                	unimp
  104144:	0000                	unimp
  104146:	0000                	unimp
  104148:	0000                	unimp
  10414a:	0000                	unimp
  10414c:	0000                	unimp
  10414e:	0000                	unimp
  104150:	0000                	unimp
  104152:	0000                	unimp
  104154:	0000                	unimp
  104156:	0000                	unimp
  104158:	0000                	unimp
  10415a:	0000                	unimp
  10415c:	0000                	unimp
  10415e:	0000                	unimp
  104160:	0000                	unimp
  104162:	0000                	unimp
  104164:	0000                	unimp
  104166:	0000                	unimp
  104168:	0000                	unimp
  10416a:	0000                	unimp
  10416c:	0000                	unimp
  10416e:	0000                	unimp
  104170:	0000                	unimp
  104172:	0000                	unimp
  104174:	0000                	unimp
  104176:	0000                	unimp
  104178:	0000                	unimp
  10417a:	0000                	unimp
  10417c:	0000                	unimp
  10417e:	0000                	unimp
  104180:	0000                	unimp
  104182:	0000                	unimp
  104184:	0000                	unimp
  104186:	0000                	unimp
  104188:	0000                	unimp
  10418a:	0000                	unimp
  10418c:	0000                	unimp
  10418e:	0000                	unimp
  104190:	0000                	unimp
  104192:	0000                	unimp
  104194:	0000                	unimp
  104196:	0000                	unimp
  104198:	0000                	unimp
  10419a:	0000                	unimp
  10419c:	0000                	unimp
  10419e:	0000                	unimp
  1041a0:	0000                	unimp
  1041a2:	0000                	unimp
  1041a4:	0000                	unimp
  1041a6:	0000                	unimp
  1041a8:	0000                	unimp
  1041aa:	0000                	unimp
  1041ac:	0000                	unimp
  1041ae:	0000                	unimp
  1041b0:	0000                	unimp
  1041b2:	0000                	unimp
  1041b4:	0000                	unimp
  1041b6:	0000                	unimp
  1041b8:	0000                	unimp
  1041ba:	0000                	unimp
  1041bc:	0000                	unimp
  1041be:	0000                	unimp
  1041c0:	0000                	unimp
  1041c2:	0000                	unimp
  1041c4:	0000                	unimp
  1041c6:	0000                	unimp
  1041c8:	0000                	unimp
  1041ca:	0000                	unimp
  1041cc:	0000                	unimp
  1041ce:	0000                	unimp
  1041d0:	0000                	unimp
  1041d2:	0000                	unimp
  1041d4:	0000                	unimp
  1041d6:	0000                	unimp
  1041d8:	0000                	unimp
  1041da:	0000                	unimp
  1041dc:	0000                	unimp
  1041de:	0000                	unimp
  1041e0:	0000                	unimp
  1041e2:	0000                	unimp
  1041e4:	0000                	unimp
  1041e6:	0000                	unimp
  1041e8:	0000                	unimp
  1041ea:	0000                	unimp
  1041ec:	0000                	unimp
  1041ee:	0000                	unimp
  1041f0:	0000                	unimp
  1041f2:	0000                	unimp
  1041f4:	0000                	unimp
  1041f6:	0000                	unimp
  1041f8:	0000                	unimp
  1041fa:	0000                	unimp
  1041fc:	0000                	unimp
  1041fe:	0000                	unimp
  104200:	0000                	unimp
  104202:	0000                	unimp
  104204:	0000                	unimp
  104206:	0000                	unimp
  104208:	0000                	unimp
  10420a:	0000                	unimp
  10420c:	0000                	unimp
  10420e:	0000                	unimp
  104210:	0000                	unimp
  104212:	0000                	unimp
  104214:	0000                	unimp
  104216:	0000                	unimp
  104218:	0000                	unimp
  10421a:	0000                	unimp
  10421c:	0000                	unimp
  10421e:	0000                	unimp
  104220:	0000                	unimp
  104222:	0000                	unimp
  104224:	0000                	unimp
  104226:	0000                	unimp
  104228:	0000                	unimp
  10422a:	0000                	unimp
  10422c:	0000                	unimp
  10422e:	0000                	unimp
  104230:	0000                	unimp
  104232:	0000                	unimp
  104234:	0000                	unimp
  104236:	0000                	unimp
  104238:	0000                	unimp
  10423a:	0000                	unimp
  10423c:	0000                	unimp
  10423e:	0000                	unimp
  104240:	0000                	unimp
  104242:	0000                	unimp
  104244:	0000                	unimp
  104246:	0000                	unimp
  104248:	0000                	unimp
  10424a:	0000                	unimp
  10424c:	0000                	unimp
  10424e:	0000                	unimp
  104250:	0000                	unimp
  104252:	0000                	unimp
  104254:	0000                	unimp
  104256:	0000                	unimp
  104258:	0000                	unimp
  10425a:	0000                	unimp
  10425c:	0000                	unimp
  10425e:	0000                	unimp
  104260:	0000                	unimp
  104262:	0000                	unimp
  104264:	0000                	unimp
  104266:	0000                	unimp
  104268:	0000                	unimp
  10426a:	0000                	unimp
  10426c:	0000                	unimp
  10426e:	0000                	unimp
  104270:	0000                	unimp
  104272:	0000                	unimp
  104274:	0000                	unimp
  104276:	0000                	unimp
  104278:	0000                	unimp
  10427a:	0000                	unimp
  10427c:	0000                	unimp
  10427e:	0000                	unimp
  104280:	0000                	unimp
  104282:	0000                	unimp
  104284:	0000                	unimp
  104286:	0000                	unimp
  104288:	0000                	unimp
  10428a:	0000                	unimp
  10428c:	0000                	unimp
  10428e:	0000                	unimp
  104290:	0000                	unimp
  104292:	0000                	unimp
  104294:	0000                	unimp
  104296:	0000                	unimp
  104298:	0000                	unimp
  10429a:	0000                	unimp
  10429c:	0000                	unimp
  10429e:	0000                	unimp
  1042a0:	0000                	unimp
  1042a2:	0000                	unimp
  1042a4:	0000                	unimp
  1042a6:	0000                	unimp
  1042a8:	0000                	unimp
  1042aa:	0000                	unimp
  1042ac:	0000                	unimp
  1042ae:	0000                	unimp
  1042b0:	0000                	unimp
  1042b2:	0000                	unimp
  1042b4:	0000                	unimp
  1042b6:	0000                	unimp
  1042b8:	0000                	unimp
  1042ba:	0000                	unimp
  1042bc:	0000                	unimp
  1042be:	0000                	unimp
  1042c0:	0000                	unimp
  1042c2:	0000                	unimp
  1042c4:	0000                	unimp
  1042c6:	0000                	unimp
  1042c8:	0000                	unimp
  1042ca:	0000                	unimp
  1042cc:	0000                	unimp
  1042ce:	0000                	unimp
  1042d0:	0000                	unimp
  1042d2:	0000                	unimp
  1042d4:	0000                	unimp
  1042d6:	0000                	unimp
  1042d8:	0000                	unimp
  1042da:	0000                	unimp
  1042dc:	0000                	unimp
  1042de:	0000                	unimp
  1042e0:	0000                	unimp
  1042e2:	0000                	unimp
  1042e4:	0000                	unimp
  1042e6:	0000                	unimp
  1042e8:	0000                	unimp
  1042ea:	0000                	unimp
  1042ec:	0000                	unimp
  1042ee:	0000                	unimp
  1042f0:	0000                	unimp
  1042f2:	0000                	unimp
  1042f4:	0000                	unimp
  1042f6:	0000                	unimp
  1042f8:	0000                	unimp
  1042fa:	0000                	unimp
  1042fc:	0000                	unimp
  1042fe:	0000                	unimp
  104300:	0000                	unimp
  104302:	0000                	unimp
  104304:	0000                	unimp
  104306:	0000                	unimp
  104308:	0000                	unimp
  10430a:	0000                	unimp
  10430c:	0000                	unimp
  10430e:	0000                	unimp
  104310:	0000                	unimp
  104312:	0000                	unimp
  104314:	0000                	unimp
  104316:	0000                	unimp
  104318:	0000                	unimp
  10431a:	0000                	unimp
  10431c:	0000                	unimp
  10431e:	0000                	unimp
  104320:	0000                	unimp
  104322:	0000                	unimp
  104324:	0000                	unimp
  104326:	0000                	unimp
  104328:	0000                	unimp
  10432a:	0000                	unimp
  10432c:	0000                	unimp
  10432e:	0000                	unimp
  104330:	0000                	unimp
  104332:	0000                	unimp
  104334:	0000                	unimp
  104336:	0000                	unimp
  104338:	0000                	unimp
  10433a:	0000                	unimp
  10433c:	0000                	unimp
  10433e:	0000                	unimp
  104340:	0000                	unimp
  104342:	0000                	unimp
  104344:	0000                	unimp
  104346:	0000                	unimp
  104348:	0000                	unimp
  10434a:	0000                	unimp
  10434c:	0000                	unimp
  10434e:	0000                	unimp
  104350:	0000                	unimp
  104352:	0000                	unimp
  104354:	0000                	unimp
  104356:	0000                	unimp
  104358:	0000                	unimp
  10435a:	0000                	unimp
  10435c:	0000                	unimp
  10435e:	0000                	unimp
  104360:	0000                	unimp
  104362:	0000                	unimp
  104364:	0000                	unimp
  104366:	0000                	unimp
  104368:	0000                	unimp
  10436a:	0000                	unimp
  10436c:	0000                	unimp
  10436e:	0000                	unimp
  104370:	0000                	unimp
  104372:	0000                	unimp
  104374:	0000                	unimp
  104376:	0000                	unimp
  104378:	0000                	unimp
  10437a:	0000                	unimp
  10437c:	0000                	unimp
  10437e:	0000                	unimp
  104380:	0000                	unimp
  104382:	0000                	unimp
  104384:	0000                	unimp
  104386:	0000                	unimp
  104388:	0000                	unimp
  10438a:	0000                	unimp
  10438c:	0000                	unimp
  10438e:	0000                	unimp
  104390:	0000                	unimp
  104392:	0000                	unimp
  104394:	0000                	unimp
  104396:	0000                	unimp
  104398:	0000                	unimp
  10439a:	0000                	unimp
  10439c:	0000                	unimp
  10439e:	0000                	unimp
  1043a0:	0000                	unimp
  1043a2:	0000                	unimp
  1043a4:	0000                	unimp
  1043a6:	0000                	unimp
  1043a8:	0000                	unimp
  1043aa:	0000                	unimp
  1043ac:	0000                	unimp
  1043ae:	0000                	unimp
  1043b0:	0000                	unimp
  1043b2:	0000                	unimp
  1043b4:	0000                	unimp
  1043b6:	0000                	unimp
  1043b8:	0000                	unimp
  1043ba:	0000                	unimp
  1043bc:	0000                	unimp
  1043be:	0000                	unimp
  1043c0:	0000                	unimp
  1043c2:	0000                	unimp
  1043c4:	0000                	unimp
  1043c6:	0000                	unimp
  1043c8:	0000                	unimp
  1043ca:	0000                	unimp
  1043cc:	0000                	unimp
  1043ce:	0000                	unimp
  1043d0:	0000                	unimp
  1043d2:	0000                	unimp
  1043d4:	0000                	unimp
  1043d6:	0000                	unimp
  1043d8:	0000                	unimp
  1043da:	0000                	unimp
  1043dc:	0000                	unimp
  1043de:	0000                	unimp
  1043e0:	0000                	unimp
  1043e2:	0000                	unimp
  1043e4:	0000                	unimp
  1043e6:	0000                	unimp
  1043e8:	0000                	unimp
  1043ea:	0000                	unimp
  1043ec:	0000                	unimp
  1043ee:	0000                	unimp
  1043f0:	0000                	unimp
  1043f2:	0000                	unimp
  1043f4:	0000                	unimp
  1043f6:	0000                	unimp
  1043f8:	0000                	unimp
  1043fa:	0000                	unimp
  1043fc:	0000                	unimp
  1043fe:	0000                	unimp
  104400:	0000                	unimp
  104402:	0000                	unimp
  104404:	0000                	unimp
  104406:	0000                	unimp
  104408:	0000                	unimp
  10440a:	0000                	unimp
  10440c:	0000                	unimp
  10440e:	0000                	unimp
  104410:	0000                	unimp
  104412:	0000                	unimp
  104414:	0000                	unimp
  104416:	0000                	unimp
  104418:	0000                	unimp
  10441a:	0000                	unimp
  10441c:	0000                	unimp
  10441e:	0000                	unimp
  104420:	0000                	unimp
  104422:	0000                	unimp
  104424:	0000                	unimp
  104426:	0000                	unimp
  104428:	0000                	unimp
  10442a:	0000                	unimp
  10442c:	0000                	unimp
  10442e:	0000                	unimp
  104430:	0000                	unimp
  104432:	0000                	unimp
  104434:	0000                	unimp
  104436:	0000                	unimp
  104438:	0000                	unimp
  10443a:	0000                	unimp
  10443c:	0000                	unimp
  10443e:	0000                	unimp
  104440:	0000                	unimp
  104442:	0000                	unimp
  104444:	0000                	unimp
  104446:	0000                	unimp
  104448:	0000                	unimp
  10444a:	0000                	unimp
  10444c:	0000                	unimp
  10444e:	0000                	unimp
  104450:	0000                	unimp
  104452:	0000                	unimp
  104454:	0000                	unimp
  104456:	0000                	unimp
  104458:	0000                	unimp
  10445a:	0000                	unimp
  10445c:	0000                	unimp
  10445e:	0000                	unimp
  104460:	0000                	unimp
  104462:	0000                	unimp
  104464:	0000                	unimp
  104466:	0000                	unimp
  104468:	0000                	unimp
  10446a:	0000                	unimp
  10446c:	0000                	unimp
  10446e:	0000                	unimp
  104470:	0000                	unimp
  104472:	0000                	unimp
  104474:	0000                	unimp
  104476:	0000                	unimp
  104478:	0000                	unimp
  10447a:	0000                	unimp
  10447c:	0000                	unimp
  10447e:	0000                	unimp
  104480:	0000                	unimp
  104482:	0000                	unimp
  104484:	0000                	unimp
  104486:	0000                	unimp
  104488:	0000                	unimp
  10448a:	0000                	unimp
  10448c:	0000                	unimp
  10448e:	0000                	unimp
  104490:	0000                	unimp
  104492:	0000                	unimp
  104494:	0000                	unimp
  104496:	0000                	unimp
  104498:	0000                	unimp
  10449a:	0000                	unimp
  10449c:	0000                	unimp
  10449e:	0000                	unimp
  1044a0:	0000                	unimp
  1044a2:	0000                	unimp
  1044a4:	0000                	unimp
  1044a6:	0000                	unimp
  1044a8:	0000                	unimp
  1044aa:	0000                	unimp
  1044ac:	0000                	unimp
  1044ae:	0000                	unimp
  1044b0:	0000                	unimp
  1044b2:	0000                	unimp
  1044b4:	0000                	unimp
  1044b6:	0000                	unimp
  1044b8:	0000                	unimp
  1044ba:	0000                	unimp
  1044bc:	0000                	unimp
  1044be:	0000                	unimp
  1044c0:	0000                	unimp
  1044c2:	0000                	unimp
  1044c4:	0000                	unimp
  1044c6:	0000                	unimp
  1044c8:	0000                	unimp
  1044ca:	0000                	unimp
  1044cc:	0000                	unimp
  1044ce:	0000                	unimp
  1044d0:	0000                	unimp
  1044d2:	0000                	unimp
  1044d4:	0000                	unimp
  1044d6:	0000                	unimp
  1044d8:	0000                	unimp
  1044da:	0000                	unimp
  1044dc:	0000                	unimp
  1044de:	0000                	unimp
  1044e0:	0000                	unimp
  1044e2:	0000                	unimp
  1044e4:	0000                	unimp
  1044e6:	0000                	unimp
  1044e8:	0000                	unimp
  1044ea:	0000                	unimp
  1044ec:	0000                	unimp
  1044ee:	0000                	unimp
  1044f0:	0000                	unimp
  1044f2:	0000                	unimp
  1044f4:	0000                	unimp
  1044f6:	0000                	unimp
  1044f8:	0000                	unimp
  1044fa:	0000                	unimp
  1044fc:	0000                	unimp
  1044fe:	0000                	unimp
  104500:	0000                	unimp
  104502:	0000                	unimp
  104504:	0000                	unimp
  104506:	0000                	unimp
  104508:	0000                	unimp
  10450a:	0000                	unimp
  10450c:	0000                	unimp
  10450e:	0000                	unimp
  104510:	0000                	unimp
  104512:	0000                	unimp
  104514:	0000                	unimp
  104516:	0000                	unimp
  104518:	0000                	unimp
  10451a:	0000                	unimp
  10451c:	0000                	unimp
  10451e:	0000                	unimp
  104520:	0000                	unimp
  104522:	0000                	unimp
  104524:	0000                	unimp
  104526:	0000                	unimp
  104528:	0000                	unimp
  10452a:	0000                	unimp
  10452c:	0000                	unimp
  10452e:	0000                	unimp
  104530:	0000                	unimp
  104532:	0000                	unimp
  104534:	0000                	unimp
  104536:	0000                	unimp
  104538:	0000                	unimp
  10453a:	0000                	unimp
  10453c:	0000                	unimp
  10453e:	0000                	unimp
  104540:	0000                	unimp
  104542:	0000                	unimp
  104544:	0000                	unimp
  104546:	0000                	unimp
  104548:	0000                	unimp
  10454a:	0000                	unimp
  10454c:	0000                	unimp
  10454e:	0000                	unimp
  104550:	0000                	unimp
  104552:	0000                	unimp
  104554:	0000                	unimp
  104556:	0000                	unimp
  104558:	0000                	unimp
  10455a:	0000                	unimp
  10455c:	0000                	unimp
  10455e:	0000                	unimp
  104560:	0000                	unimp
  104562:	0000                	unimp
  104564:	0000                	unimp
  104566:	0000                	unimp
  104568:	0000                	unimp
  10456a:	0000                	unimp
  10456c:	0000                	unimp
  10456e:	0000                	unimp
  104570:	0000                	unimp
  104572:	0000                	unimp
  104574:	0000                	unimp
  104576:	0000                	unimp
  104578:	0000                	unimp
  10457a:	0000                	unimp
  10457c:	0000                	unimp
  10457e:	0000                	unimp
  104580:	0000                	unimp
  104582:	0000                	unimp
  104584:	0000                	unimp
  104586:	0000                	unimp
  104588:	0000                	unimp
  10458a:	0000                	unimp
  10458c:	0000                	unimp
  10458e:	0000                	unimp
  104590:	0000                	unimp
  104592:	0000                	unimp
  104594:	0000                	unimp
  104596:	0000                	unimp
  104598:	0000                	unimp
  10459a:	0000                	unimp
  10459c:	0000                	unimp
  10459e:	0000                	unimp
  1045a0:	0000                	unimp
  1045a2:	0000                	unimp
  1045a4:	0000                	unimp
  1045a6:	0000                	unimp
  1045a8:	0000                	unimp
  1045aa:	0000                	unimp
  1045ac:	0000                	unimp
  1045ae:	0000                	unimp
  1045b0:	0000                	unimp
  1045b2:	0000                	unimp
  1045b4:	0000                	unimp
  1045b6:	0000                	unimp
  1045b8:	0000                	unimp
  1045ba:	0000                	unimp
  1045bc:	0000                	unimp
  1045be:	0000                	unimp
  1045c0:	0000                	unimp
  1045c2:	0000                	unimp
  1045c4:	0000                	unimp
  1045c6:	0000                	unimp
  1045c8:	0000                	unimp
  1045ca:	0000                	unimp
  1045cc:	0000                	unimp
  1045ce:	0000                	unimp
  1045d0:	0000                	unimp
  1045d2:	0000                	unimp
  1045d4:	0000                	unimp
  1045d6:	0000                	unimp
  1045d8:	0000                	unimp
  1045da:	0000                	unimp
  1045dc:	0000                	unimp
  1045de:	0000                	unimp
  1045e0:	0000                	unimp
  1045e2:	0000                	unimp
  1045e4:	0000                	unimp
  1045e6:	0000                	unimp
  1045e8:	0000                	unimp
  1045ea:	0000                	unimp

001045ec <tsc.2>:
  1045ec:	0000                	unimp
  1045ee:	0000                	unimp

001045f0 <static_memblk>:
  1045f0:	0000                	unimp
  1045f2:	0000                	unimp
  1045f4:	0000                	unimp
  1045f6:	0000                	unimp
  1045f8:	0000                	unimp
  1045fa:	0000                	unimp
  1045fc:	0000                	unimp
  1045fe:	0000                	unimp
  104600:	0000                	unimp
  104602:	0000                	unimp
  104604:	0000                	unimp
  104606:	0000                	unimp
  104608:	0000                	unimp
  10460a:	0000                	unimp
  10460c:	0000                	unimp
  10460e:	0000                	unimp
  104610:	0000                	unimp
  104612:	0000                	unimp
  104614:	0000                	unimp
  104616:	0000                	unimp
  104618:	0000                	unimp
  10461a:	0000                	unimp
  10461c:	0000                	unimp
  10461e:	0000                	unimp
  104620:	0000                	unimp
  104622:	0000                	unimp
  104624:	0000                	unimp
  104626:	0000                	unimp
  104628:	0000                	unimp
  10462a:	0000                	unimp
  10462c:	0000                	unimp
  10462e:	0000                	unimp
  104630:	0000                	unimp
  104632:	0000                	unimp
  104634:	0000                	unimp
  104636:	0000                	unimp
  104638:	0000                	unimp
  10463a:	0000                	unimp
  10463c:	0000                	unimp
  10463e:	0000                	unimp
  104640:	0000                	unimp
  104642:	0000                	unimp
  104644:	0000                	unimp
  104646:	0000                	unimp
  104648:	0000                	unimp
  10464a:	0000                	unimp
  10464c:	0000                	unimp
  10464e:	0000                	unimp
  104650:	0000                	unimp
  104652:	0000                	unimp
  104654:	0000                	unimp
  104656:	0000                	unimp
  104658:	0000                	unimp
  10465a:	0000                	unimp
  10465c:	0000                	unimp
  10465e:	0000                	unimp
  104660:	0000                	unimp
  104662:	0000                	unimp
  104664:	0000                	unimp
  104666:	0000                	unimp
  104668:	0000                	unimp
  10466a:	0000                	unimp
  10466c:	0000                	unimp
  10466e:	0000                	unimp
  104670:	0000                	unimp
  104672:	0000                	unimp
  104674:	0000                	unimp
  104676:	0000                	unimp
  104678:	0000                	unimp
  10467a:	0000                	unimp
  10467c:	0000                	unimp
  10467e:	0000                	unimp
  104680:	0000                	unimp
  104682:	0000                	unimp
  104684:	0000                	unimp
  104686:	0000                	unimp
  104688:	0000                	unimp
  10468a:	0000                	unimp
  10468c:	0000                	unimp
  10468e:	0000                	unimp
  104690:	0000                	unimp
  104692:	0000                	unimp
  104694:	0000                	unimp
  104696:	0000                	unimp
  104698:	0000                	unimp
  10469a:	0000                	unimp
  10469c:	0000                	unimp
  10469e:	0000                	unimp
  1046a0:	0000                	unimp
  1046a2:	0000                	unimp
  1046a4:	0000                	unimp
  1046a6:	0000                	unimp
  1046a8:	0000                	unimp
  1046aa:	0000                	unimp
  1046ac:	0000                	unimp
  1046ae:	0000                	unimp
  1046b0:	0000                	unimp
  1046b2:	0000                	unimp
  1046b4:	0000                	unimp
  1046b6:	0000                	unimp
  1046b8:	0000                	unimp
  1046ba:	0000                	unimp
  1046bc:	0000                	unimp
  1046be:	0000                	unimp
  1046c0:	0000                	unimp
  1046c2:	0000                	unimp
  1046c4:	0000                	unimp
  1046c6:	0000                	unimp
  1046c8:	0000                	unimp
  1046ca:	0000                	unimp
  1046cc:	0000                	unimp
  1046ce:	0000                	unimp
  1046d0:	0000                	unimp
  1046d2:	0000                	unimp
  1046d4:	0000                	unimp
  1046d6:	0000                	unimp
  1046d8:	0000                	unimp
  1046da:	0000                	unimp
  1046dc:	0000                	unimp
  1046de:	0000                	unimp
  1046e0:	0000                	unimp
  1046e2:	0000                	unimp
  1046e4:	0000                	unimp
  1046e6:	0000                	unimp
  1046e8:	0000                	unimp
  1046ea:	0000                	unimp
  1046ec:	0000                	unimp
  1046ee:	0000                	unimp
  1046f0:	0000                	unimp
  1046f2:	0000                	unimp
  1046f4:	0000                	unimp
  1046f6:	0000                	unimp
  1046f8:	0000                	unimp
  1046fa:	0000                	unimp
  1046fc:	0000                	unimp
  1046fe:	0000                	unimp
  104700:	0000                	unimp
  104702:	0000                	unimp
  104704:	0000                	unimp
  104706:	0000                	unimp
  104708:	0000                	unimp
  10470a:	0000                	unimp
  10470c:	0000                	unimp
  10470e:	0000                	unimp
  104710:	0000                	unimp
  104712:	0000                	unimp
  104714:	0000                	unimp
  104716:	0000                	unimp
  104718:	0000                	unimp
  10471a:	0000                	unimp
  10471c:	0000                	unimp
  10471e:	0000                	unimp
  104720:	0000                	unimp
  104722:	0000                	unimp
  104724:	0000                	unimp
  104726:	0000                	unimp
  104728:	0000                	unimp
  10472a:	0000                	unimp
  10472c:	0000                	unimp
  10472e:	0000                	unimp
  104730:	0000                	unimp
  104732:	0000                	unimp
  104734:	0000                	unimp
  104736:	0000                	unimp
  104738:	0000                	unimp
  10473a:	0000                	unimp
  10473c:	0000                	unimp
  10473e:	0000                	unimp
  104740:	0000                	unimp
  104742:	0000                	unimp
  104744:	0000                	unimp
  104746:	0000                	unimp
  104748:	0000                	unimp
  10474a:	0000                	unimp
  10474c:	0000                	unimp
  10474e:	0000                	unimp
  104750:	0000                	unimp
  104752:	0000                	unimp
  104754:	0000                	unimp
  104756:	0000                	unimp
  104758:	0000                	unimp
  10475a:	0000                	unimp
  10475c:	0000                	unimp
  10475e:	0000                	unimp
  104760:	0000                	unimp
  104762:	0000                	unimp
  104764:	0000                	unimp
  104766:	0000                	unimp
  104768:	0000                	unimp
  10476a:	0000                	unimp
  10476c:	0000                	unimp
  10476e:	0000                	unimp
  104770:	0000                	unimp
  104772:	0000                	unimp
  104774:	0000                	unimp
  104776:	0000                	unimp
  104778:	0000                	unimp
  10477a:	0000                	unimp
  10477c:	0000                	unimp
  10477e:	0000                	unimp
  104780:	0000                	unimp
  104782:	0000                	unimp
  104784:	0000                	unimp
  104786:	0000                	unimp
  104788:	0000                	unimp
  10478a:	0000                	unimp
  10478c:	0000                	unimp
  10478e:	0000                	unimp
  104790:	0000                	unimp
  104792:	0000                	unimp
  104794:	0000                	unimp
  104796:	0000                	unimp
  104798:	0000                	unimp
  10479a:	0000                	unimp
  10479c:	0000                	unimp
  10479e:	0000                	unimp
  1047a0:	0000                	unimp
  1047a2:	0000                	unimp
  1047a4:	0000                	unimp
  1047a6:	0000                	unimp
  1047a8:	0000                	unimp
  1047aa:	0000                	unimp
  1047ac:	0000                	unimp
  1047ae:	0000                	unimp
  1047b0:	0000                	unimp
  1047b2:	0000                	unimp
  1047b4:	0000                	unimp
  1047b6:	0000                	unimp
  1047b8:	0000                	unimp
  1047ba:	0000                	unimp
  1047bc:	0000                	unimp
  1047be:	0000                	unimp
  1047c0:	0000                	unimp
  1047c2:	0000                	unimp
  1047c4:	0000                	unimp
  1047c6:	0000                	unimp
  1047c8:	0000                	unimp
  1047ca:	0000                	unimp
  1047cc:	0000                	unimp
  1047ce:	0000                	unimp
  1047d0:	0000                	unimp
  1047d2:	0000                	unimp
  1047d4:	0000                	unimp
  1047d6:	0000                	unimp
  1047d8:	0000                	unimp
  1047da:	0000                	unimp
  1047dc:	0000                	unimp
  1047de:	0000                	unimp
  1047e0:	0000                	unimp
  1047e2:	0000                	unimp
  1047e4:	0000                	unimp
  1047e6:	0000                	unimp
  1047e8:	0000                	unimp
  1047ea:	0000                	unimp
  1047ec:	0000                	unimp
  1047ee:	0000                	unimp
  1047f0:	0000                	unimp
  1047f2:	0000                	unimp
  1047f4:	0000                	unimp
  1047f6:	0000                	unimp
  1047f8:	0000                	unimp
  1047fa:	0000                	unimp
  1047fc:	0000                	unimp
  1047fe:	0000                	unimp
  104800:	0000                	unimp
  104802:	0000                	unimp
  104804:	0000                	unimp
  104806:	0000                	unimp
  104808:	0000                	unimp
  10480a:	0000                	unimp
  10480c:	0000                	unimp
  10480e:	0000                	unimp
  104810:	0000                	unimp
  104812:	0000                	unimp
  104814:	0000                	unimp
  104816:	0000                	unimp
  104818:	0000                	unimp
  10481a:	0000                	unimp
  10481c:	0000                	unimp
  10481e:	0000                	unimp
  104820:	0000                	unimp
  104822:	0000                	unimp
  104824:	0000                	unimp
  104826:	0000                	unimp
  104828:	0000                	unimp
  10482a:	0000                	unimp
  10482c:	0000                	unimp
  10482e:	0000                	unimp
  104830:	0000                	unimp
  104832:	0000                	unimp
  104834:	0000                	unimp
  104836:	0000                	unimp
  104838:	0000                	unimp
  10483a:	0000                	unimp
  10483c:	0000                	unimp
  10483e:	0000                	unimp
  104840:	0000                	unimp
  104842:	0000                	unimp
  104844:	0000                	unimp
  104846:	0000                	unimp
  104848:	0000                	unimp
  10484a:	0000                	unimp
  10484c:	0000                	unimp
  10484e:	0000                	unimp
  104850:	0000                	unimp
  104852:	0000                	unimp
  104854:	0000                	unimp
  104856:	0000                	unimp
  104858:	0000                	unimp
  10485a:	0000                	unimp
  10485c:	0000                	unimp
  10485e:	0000                	unimp
  104860:	0000                	unimp
  104862:	0000                	unimp
  104864:	0000                	unimp
  104866:	0000                	unimp
  104868:	0000                	unimp
  10486a:	0000                	unimp
  10486c:	0000                	unimp
  10486e:	0000                	unimp
  104870:	0000                	unimp
  104872:	0000                	unimp
  104874:	0000                	unimp
  104876:	0000                	unimp
  104878:	0000                	unimp
  10487a:	0000                	unimp
  10487c:	0000                	unimp
  10487e:	0000                	unimp
  104880:	0000                	unimp
  104882:	0000                	unimp
  104884:	0000                	unimp
  104886:	0000                	unimp
  104888:	0000                	unimp
  10488a:	0000                	unimp
  10488c:	0000                	unimp
  10488e:	0000                	unimp
  104890:	0000                	unimp
  104892:	0000                	unimp
  104894:	0000                	unimp
  104896:	0000                	unimp
  104898:	0000                	unimp
  10489a:	0000                	unimp
  10489c:	0000                	unimp
  10489e:	0000                	unimp
  1048a0:	0000                	unimp
  1048a2:	0000                	unimp
  1048a4:	0000                	unimp
  1048a6:	0000                	unimp
  1048a8:	0000                	unimp
  1048aa:	0000                	unimp
  1048ac:	0000                	unimp
  1048ae:	0000                	unimp
  1048b0:	0000                	unimp
  1048b2:	0000                	unimp
  1048b4:	0000                	unimp
  1048b6:	0000                	unimp
  1048b8:	0000                	unimp
  1048ba:	0000                	unimp
  1048bc:	0000                	unimp
  1048be:	0000                	unimp
  1048c0:	0000                	unimp
  1048c2:	0000                	unimp
  1048c4:	0000                	unimp
  1048c6:	0000                	unimp
  1048c8:	0000                	unimp
  1048ca:	0000                	unimp
  1048cc:	0000                	unimp
  1048ce:	0000                	unimp
  1048d0:	0000                	unimp
  1048d2:	0000                	unimp
  1048d4:	0000                	unimp
  1048d6:	0000                	unimp
  1048d8:	0000                	unimp
  1048da:	0000                	unimp
  1048dc:	0000                	unimp
  1048de:	0000                	unimp
  1048e0:	0000                	unimp
  1048e2:	0000                	unimp
  1048e4:	0000                	unimp
  1048e6:	0000                	unimp
  1048e8:	0000                	unimp
  1048ea:	0000                	unimp
  1048ec:	0000                	unimp
  1048ee:	0000                	unimp
  1048f0:	0000                	unimp
  1048f2:	0000                	unimp
  1048f4:	0000                	unimp
  1048f6:	0000                	unimp
  1048f8:	0000                	unimp
  1048fa:	0000                	unimp
  1048fc:	0000                	unimp
  1048fe:	0000                	unimp
  104900:	0000                	unimp
  104902:	0000                	unimp
  104904:	0000                	unimp
  104906:	0000                	unimp
  104908:	0000                	unimp
  10490a:	0000                	unimp
  10490c:	0000                	unimp
  10490e:	0000                	unimp
  104910:	0000                	unimp
  104912:	0000                	unimp
  104914:	0000                	unimp
  104916:	0000                	unimp
  104918:	0000                	unimp
  10491a:	0000                	unimp
  10491c:	0000                	unimp
  10491e:	0000                	unimp
  104920:	0000                	unimp
  104922:	0000                	unimp
  104924:	0000                	unimp
  104926:	0000                	unimp
  104928:	0000                	unimp
  10492a:	0000                	unimp
  10492c:	0000                	unimp
  10492e:	0000                	unimp
  104930:	0000                	unimp
  104932:	0000                	unimp
  104934:	0000                	unimp
  104936:	0000                	unimp
  104938:	0000                	unimp
  10493a:	0000                	unimp
  10493c:	0000                	unimp
  10493e:	0000                	unimp
  104940:	0000                	unimp
  104942:	0000                	unimp
  104944:	0000                	unimp
  104946:	0000                	unimp
  104948:	0000                	unimp
  10494a:	0000                	unimp
  10494c:	0000                	unimp
  10494e:	0000                	unimp
  104950:	0000                	unimp
  104952:	0000                	unimp
  104954:	0000                	unimp
  104956:	0000                	unimp
  104958:	0000                	unimp
  10495a:	0000                	unimp
  10495c:	0000                	unimp
  10495e:	0000                	unimp
  104960:	0000                	unimp
  104962:	0000                	unimp
  104964:	0000                	unimp
  104966:	0000                	unimp
  104968:	0000                	unimp
  10496a:	0000                	unimp
  10496c:	0000                	unimp
  10496e:	0000                	unimp
  104970:	0000                	unimp
  104972:	0000                	unimp
  104974:	0000                	unimp
  104976:	0000                	unimp
  104978:	0000                	unimp
  10497a:	0000                	unimp
  10497c:	0000                	unimp
  10497e:	0000                	unimp
  104980:	0000                	unimp
  104982:	0000                	unimp
  104984:	0000                	unimp
  104986:	0000                	unimp
  104988:	0000                	unimp
  10498a:	0000                	unimp
  10498c:	0000                	unimp
  10498e:	0000                	unimp
  104990:	0000                	unimp
  104992:	0000                	unimp
  104994:	0000                	unimp
  104996:	0000                	unimp
  104998:	0000                	unimp
  10499a:	0000                	unimp
  10499c:	0000                	unimp
  10499e:	0000                	unimp
  1049a0:	0000                	unimp
  1049a2:	0000                	unimp
  1049a4:	0000                	unimp
  1049a6:	0000                	unimp
  1049a8:	0000                	unimp
  1049aa:	0000                	unimp
  1049ac:	0000                	unimp
  1049ae:	0000                	unimp
  1049b0:	0000                	unimp
  1049b2:	0000                	unimp
  1049b4:	0000                	unimp
  1049b6:	0000                	unimp
  1049b8:	0000                	unimp
  1049ba:	0000                	unimp
  1049bc:	0000                	unimp
  1049be:	0000                	unimp
  1049c0:	0000                	unimp
  1049c2:	0000                	unimp
  1049c4:	0000                	unimp
  1049c6:	0000                	unimp
  1049c8:	0000                	unimp
  1049ca:	0000                	unimp
  1049cc:	0000                	unimp
  1049ce:	0000                	unimp
  1049d0:	0000                	unimp
  1049d2:	0000                	unimp
  1049d4:	0000                	unimp
  1049d6:	0000                	unimp
  1049d8:	0000                	unimp
  1049da:	0000                	unimp
  1049dc:	0000                	unimp
  1049de:	0000                	unimp
  1049e0:	0000                	unimp
  1049e2:	0000                	unimp
  1049e4:	0000                	unimp
  1049e6:	0000                	unimp
  1049e8:	0000                	unimp
  1049ea:	0000                	unimp
  1049ec:	0000                	unimp
  1049ee:	0000                	unimp
  1049f0:	0000                	unimp
  1049f2:	0000                	unimp
  1049f4:	0000                	unimp
  1049f6:	0000                	unimp
  1049f8:	0000                	unimp
  1049fa:	0000                	unimp
  1049fc:	0000                	unimp
  1049fe:	0000                	unimp
  104a00:	0000                	unimp
  104a02:	0000                	unimp
  104a04:	0000                	unimp
  104a06:	0000                	unimp
  104a08:	0000                	unimp
  104a0a:	0000                	unimp
  104a0c:	0000                	unimp
  104a0e:	0000                	unimp
  104a10:	0000                	unimp
  104a12:	0000                	unimp
  104a14:	0000                	unimp
  104a16:	0000                	unimp
  104a18:	0000                	unimp
  104a1a:	0000                	unimp
  104a1c:	0000                	unimp
  104a1e:	0000                	unimp
  104a20:	0000                	unimp
  104a22:	0000                	unimp
  104a24:	0000                	unimp
  104a26:	0000                	unimp
  104a28:	0000                	unimp
  104a2a:	0000                	unimp
  104a2c:	0000                	unimp
  104a2e:	0000                	unimp
  104a30:	0000                	unimp
  104a32:	0000                	unimp
  104a34:	0000                	unimp
  104a36:	0000                	unimp
  104a38:	0000                	unimp
  104a3a:	0000                	unimp
  104a3c:	0000                	unimp
  104a3e:	0000                	unimp
  104a40:	0000                	unimp
  104a42:	0000                	unimp
  104a44:	0000                	unimp
  104a46:	0000                	unimp
  104a48:	0000                	unimp
  104a4a:	0000                	unimp
  104a4c:	0000                	unimp
  104a4e:	0000                	unimp
  104a50:	0000                	unimp
  104a52:	0000                	unimp
  104a54:	0000                	unimp
  104a56:	0000                	unimp
  104a58:	0000                	unimp
  104a5a:	0000                	unimp
  104a5c:	0000                	unimp
  104a5e:	0000                	unimp
  104a60:	0000                	unimp
  104a62:	0000                	unimp
  104a64:	0000                	unimp
  104a66:	0000                	unimp
  104a68:	0000                	unimp
  104a6a:	0000                	unimp
  104a6c:	0000                	unimp
  104a6e:	0000                	unimp
  104a70:	0000                	unimp
  104a72:	0000                	unimp
  104a74:	0000                	unimp
  104a76:	0000                	unimp
  104a78:	0000                	unimp
  104a7a:	0000                	unimp
  104a7c:	0000                	unimp
  104a7e:	0000                	unimp
  104a80:	0000                	unimp
  104a82:	0000                	unimp
  104a84:	0000                	unimp
  104a86:	0000                	unimp
  104a88:	0000                	unimp
  104a8a:	0000                	unimp
  104a8c:	0000                	unimp
  104a8e:	0000                	unimp
  104a90:	0000                	unimp
  104a92:	0000                	unimp
  104a94:	0000                	unimp
  104a96:	0000                	unimp
  104a98:	0000                	unimp
  104a9a:	0000                	unimp
  104a9c:	0000                	unimp
  104a9e:	0000                	unimp
  104aa0:	0000                	unimp
  104aa2:	0000                	unimp
  104aa4:	0000                	unimp
  104aa6:	0000                	unimp
  104aa8:	0000                	unimp
  104aaa:	0000                	unimp
  104aac:	0000                	unimp
  104aae:	0000                	unimp
  104ab0:	0000                	unimp
  104ab2:	0000                	unimp
  104ab4:	0000                	unimp
  104ab6:	0000                	unimp
  104ab8:	0000                	unimp
  104aba:	0000                	unimp
  104abc:	0000                	unimp
  104abe:	0000                	unimp
  104ac0:	0000                	unimp
  104ac2:	0000                	unimp
  104ac4:	0000                	unimp
  104ac6:	0000                	unimp
  104ac8:	0000                	unimp
  104aca:	0000                	unimp
  104acc:	0000                	unimp
  104ace:	0000                	unimp
  104ad0:	0000                	unimp
  104ad2:	0000                	unimp
  104ad4:	0000                	unimp
  104ad6:	0000                	unimp
  104ad8:	0000                	unimp
  104ada:	0000                	unimp
  104adc:	0000                	unimp
  104ade:	0000                	unimp
  104ae0:	0000                	unimp
  104ae2:	0000                	unimp
  104ae4:	0000                	unimp
  104ae6:	0000                	unimp
  104ae8:	0000                	unimp
  104aea:	0000                	unimp
  104aec:	0000                	unimp
  104aee:	0000                	unimp
  104af0:	0000                	unimp
  104af2:	0000                	unimp
  104af4:	0000                	unimp
  104af6:	0000                	unimp
  104af8:	0000                	unimp
  104afa:	0000                	unimp
  104afc:	0000                	unimp
  104afe:	0000                	unimp
  104b00:	0000                	unimp
  104b02:	0000                	unimp
  104b04:	0000                	unimp
  104b06:	0000                	unimp
  104b08:	0000                	unimp
  104b0a:	0000                	unimp
  104b0c:	0000                	unimp
  104b0e:	0000                	unimp
  104b10:	0000                	unimp
  104b12:	0000                	unimp
  104b14:	0000                	unimp
  104b16:	0000                	unimp
  104b18:	0000                	unimp
  104b1a:	0000                	unimp
  104b1c:	0000                	unimp
  104b1e:	0000                	unimp
  104b20:	0000                	unimp
  104b22:	0000                	unimp
  104b24:	0000                	unimp
  104b26:	0000                	unimp
  104b28:	0000                	unimp
  104b2a:	0000                	unimp
  104b2c:	0000                	unimp
  104b2e:	0000                	unimp
  104b30:	0000                	unimp
  104b32:	0000                	unimp
  104b34:	0000                	unimp
  104b36:	0000                	unimp
  104b38:	0000                	unimp
  104b3a:	0000                	unimp
  104b3c:	0000                	unimp
  104b3e:	0000                	unimp
  104b40:	0000                	unimp
  104b42:	0000                	unimp
  104b44:	0000                	unimp
  104b46:	0000                	unimp
  104b48:	0000                	unimp
  104b4a:	0000                	unimp
  104b4c:	0000                	unimp
  104b4e:	0000                	unimp
  104b50:	0000                	unimp
  104b52:	0000                	unimp
  104b54:	0000                	unimp
  104b56:	0000                	unimp
  104b58:	0000                	unimp
  104b5a:	0000                	unimp
  104b5c:	0000                	unimp
  104b5e:	0000                	unimp
  104b60:	0000                	unimp
  104b62:	0000                	unimp
  104b64:	0000                	unimp
  104b66:	0000                	unimp
  104b68:	0000                	unimp
  104b6a:	0000                	unimp
  104b6c:	0000                	unimp
  104b6e:	0000                	unimp
  104b70:	0000                	unimp
  104b72:	0000                	unimp
  104b74:	0000                	unimp
  104b76:	0000                	unimp
  104b78:	0000                	unimp
  104b7a:	0000                	unimp
  104b7c:	0000                	unimp
  104b7e:	0000                	unimp
  104b80:	0000                	unimp
  104b82:	0000                	unimp
  104b84:	0000                	unimp
  104b86:	0000                	unimp
  104b88:	0000                	unimp
  104b8a:	0000                	unimp
  104b8c:	0000                	unimp
  104b8e:	0000                	unimp
  104b90:	0000                	unimp
  104b92:	0000                	unimp
  104b94:	0000                	unimp
  104b96:	0000                	unimp
  104b98:	0000                	unimp
  104b9a:	0000                	unimp
  104b9c:	0000                	unimp
  104b9e:	0000                	unimp
  104ba0:	0000                	unimp
  104ba2:	0000                	unimp
  104ba4:	0000                	unimp
  104ba6:	0000                	unimp
  104ba8:	0000                	unimp
  104baa:	0000                	unimp
  104bac:	0000                	unimp
  104bae:	0000                	unimp
  104bb0:	0000                	unimp
  104bb2:	0000                	unimp
  104bb4:	0000                	unimp
  104bb6:	0000                	unimp
  104bb8:	0000                	unimp
  104bba:	0000                	unimp
  104bbc:	0000                	unimp
  104bbe:	0000                	unimp
  104bc0:	0000                	unimp
  104bc2:	0000                	unimp
  104bc4:	0000                	unimp
  104bc6:	0000                	unimp
  104bc8:	0000                	unimp
  104bca:	0000                	unimp
  104bcc:	0000                	unimp
  104bce:	0000                	unimp
  104bd0:	0000                	unimp
  104bd2:	0000                	unimp
  104bd4:	0000                	unimp
  104bd6:	0000                	unimp
  104bd8:	0000                	unimp
  104bda:	0000                	unimp
  104bdc:	0000                	unimp
  104bde:	0000                	unimp
  104be0:	0000                	unimp
  104be2:	0000                	unimp
  104be4:	0000                	unimp
  104be6:	0000                	unimp
  104be8:	0000                	unimp
  104bea:	0000                	unimp
  104bec:	0000                	unimp
  104bee:	0000                	unimp
  104bf0:	0000                	unimp
  104bf2:	0000                	unimp
  104bf4:	0000                	unimp
  104bf6:	0000                	unimp
  104bf8:	0000                	unimp
  104bfa:	0000                	unimp
  104bfc:	0000                	unimp
  104bfe:	0000                	unimp
  104c00:	0000                	unimp
  104c02:	0000                	unimp
  104c04:	0000                	unimp
  104c06:	0000                	unimp
  104c08:	0000                	unimp
  104c0a:	0000                	unimp
  104c0c:	0000                	unimp
  104c0e:	0000                	unimp
  104c10:	0000                	unimp
  104c12:	0000                	unimp
  104c14:	0000                	unimp
  104c16:	0000                	unimp
  104c18:	0000                	unimp
  104c1a:	0000                	unimp
  104c1c:	0000                	unimp
  104c1e:	0000                	unimp
  104c20:	0000                	unimp
  104c22:	0000                	unimp
  104c24:	0000                	unimp
  104c26:	0000                	unimp
  104c28:	0000                	unimp
  104c2a:	0000                	unimp
  104c2c:	0000                	unimp
  104c2e:	0000                	unimp
  104c30:	0000                	unimp
  104c32:	0000                	unimp
  104c34:	0000                	unimp
  104c36:	0000                	unimp
  104c38:	0000                	unimp
  104c3a:	0000                	unimp
  104c3c:	0000                	unimp
  104c3e:	0000                	unimp
  104c40:	0000                	unimp
  104c42:	0000                	unimp
  104c44:	0000                	unimp
  104c46:	0000                	unimp
  104c48:	0000                	unimp
  104c4a:	0000                	unimp
  104c4c:	0000                	unimp
  104c4e:	0000                	unimp
  104c50:	0000                	unimp
  104c52:	0000                	unimp
  104c54:	0000                	unimp
  104c56:	0000                	unimp
  104c58:	0000                	unimp
  104c5a:	0000                	unimp
  104c5c:	0000                	unimp
  104c5e:	0000                	unimp
  104c60:	0000                	unimp
  104c62:	0000                	unimp
  104c64:	0000                	unimp
  104c66:	0000                	unimp
  104c68:	0000                	unimp
  104c6a:	0000                	unimp
  104c6c:	0000                	unimp
  104c6e:	0000                	unimp
  104c70:	0000                	unimp
  104c72:	0000                	unimp
  104c74:	0000                	unimp
  104c76:	0000                	unimp
  104c78:	0000                	unimp
  104c7a:	0000                	unimp
  104c7c:	0000                	unimp
  104c7e:	0000                	unimp
  104c80:	0000                	unimp
  104c82:	0000                	unimp
  104c84:	0000                	unimp
  104c86:	0000                	unimp
  104c88:	0000                	unimp
  104c8a:	0000                	unimp
  104c8c:	0000                	unimp
  104c8e:	0000                	unimp
  104c90:	0000                	unimp
  104c92:	0000                	unimp
  104c94:	0000                	unimp
  104c96:	0000                	unimp
  104c98:	0000                	unimp
  104c9a:	0000                	unimp
  104c9c:	0000                	unimp
  104c9e:	0000                	unimp
  104ca0:	0000                	unimp
  104ca2:	0000                	unimp
  104ca4:	0000                	unimp
  104ca6:	0000                	unimp
  104ca8:	0000                	unimp
  104caa:	0000                	unimp
  104cac:	0000                	unimp
  104cae:	0000                	unimp
  104cb0:	0000                	unimp
  104cb2:	0000                	unimp
  104cb4:	0000                	unimp
  104cb6:	0000                	unimp
  104cb8:	0000                	unimp
  104cba:	0000                	unimp
  104cbc:	0000                	unimp
  104cbe:	0000                	unimp
  104cc0:	0000                	unimp
  104cc2:	0000                	unimp
  104cc4:	0000                	unimp
  104cc6:	0000                	unimp
  104cc8:	0000                	unimp
  104cca:	0000                	unimp
  104ccc:	0000                	unimp
  104cce:	0000                	unimp
  104cd0:	0000                	unimp
  104cd2:	0000                	unimp
  104cd4:	0000                	unimp
  104cd6:	0000                	unimp
  104cd8:	0000                	unimp
  104cda:	0000                	unimp
  104cdc:	0000                	unimp
  104cde:	0000                	unimp
  104ce0:	0000                	unimp
  104ce2:	0000                	unimp
  104ce4:	0000                	unimp
  104ce6:	0000                	unimp
  104ce8:	0000                	unimp
  104cea:	0000                	unimp
  104cec:	0000                	unimp
  104cee:	0000                	unimp
  104cf0:	0000                	unimp
  104cf2:	0000                	unimp
  104cf4:	0000                	unimp
  104cf6:	0000                	unimp
  104cf8:	0000                	unimp
  104cfa:	0000                	unimp
  104cfc:	0000                	unimp
  104cfe:	0000                	unimp
  104d00:	0000                	unimp
  104d02:	0000                	unimp
  104d04:	0000                	unimp
  104d06:	0000                	unimp
  104d08:	0000                	unimp
  104d0a:	0000                	unimp
  104d0c:	0000                	unimp
  104d0e:	0000                	unimp
  104d10:	0000                	unimp
  104d12:	0000                	unimp
  104d14:	0000                	unimp
  104d16:	0000                	unimp
  104d18:	0000                	unimp
  104d1a:	0000                	unimp
  104d1c:	0000                	unimp
  104d1e:	0000                	unimp
  104d20:	0000                	unimp
  104d22:	0000                	unimp
  104d24:	0000                	unimp
  104d26:	0000                	unimp
  104d28:	0000                	unimp
  104d2a:	0000                	unimp
  104d2c:	0000                	unimp
  104d2e:	0000                	unimp
  104d30:	0000                	unimp
  104d32:	0000                	unimp
  104d34:	0000                	unimp
  104d36:	0000                	unimp
  104d38:	0000                	unimp
  104d3a:	0000                	unimp
  104d3c:	0000                	unimp
  104d3e:	0000                	unimp
  104d40:	0000                	unimp
  104d42:	0000                	unimp
  104d44:	0000                	unimp
  104d46:	0000                	unimp
  104d48:	0000                	unimp
  104d4a:	0000                	unimp
  104d4c:	0000                	unimp
  104d4e:	0000                	unimp
  104d50:	0000                	unimp
  104d52:	0000                	unimp
  104d54:	0000                	unimp
  104d56:	0000                	unimp
  104d58:	0000                	unimp
  104d5a:	0000                	unimp
  104d5c:	0000                	unimp
  104d5e:	0000                	unimp
  104d60:	0000                	unimp
  104d62:	0000                	unimp
  104d64:	0000                	unimp
  104d66:	0000                	unimp
  104d68:	0000                	unimp
  104d6a:	0000                	unimp
  104d6c:	0000                	unimp
  104d6e:	0000                	unimp
  104d70:	0000                	unimp
  104d72:	0000                	unimp
  104d74:	0000                	unimp
  104d76:	0000                	unimp
  104d78:	0000                	unimp
  104d7a:	0000                	unimp
  104d7c:	0000                	unimp
  104d7e:	0000                	unimp
  104d80:	0000                	unimp
  104d82:	0000                	unimp
  104d84:	0000                	unimp
  104d86:	0000                	unimp
  104d88:	0000                	unimp
  104d8a:	0000                	unimp
  104d8c:	0000                	unimp
  104d8e:	0000                	unimp
  104d90:	0000                	unimp
  104d92:	0000                	unimp
  104d94:	0000                	unimp
  104d96:	0000                	unimp
  104d98:	0000                	unimp
  104d9a:	0000                	unimp
  104d9c:	0000                	unimp
  104d9e:	0000                	unimp
  104da0:	0000                	unimp
  104da2:	0000                	unimp
  104da4:	0000                	unimp
  104da6:	0000                	unimp
  104da8:	0000                	unimp
  104daa:	0000                	unimp
  104dac:	0000                	unimp
  104dae:	0000                	unimp
  104db0:	0000                	unimp
  104db2:	0000                	unimp
  104db4:	0000                	unimp
  104db6:	0000                	unimp
  104db8:	0000                	unimp
  104dba:	0000                	unimp
  104dbc:	0000                	unimp
  104dbe:	0000                	unimp

00104dc0 <cmd>:
  104dc0:	0000                	unimp
  104dc2:	0000                	unimp
  104dc4:	0000                	unimp
  104dc6:	0000                	unimp
  104dc8:	0000                	unimp
  104dca:	0000                	unimp
  104dcc:	0000                	unimp
  104dce:	0000                	unimp
  104dd0:	0000                	unimp
  104dd2:	0000                	unimp
  104dd4:	0000                	unimp
  104dd6:	0000                	unimp
  104dd8:	0000                	unimp
  104dda:	0000                	unimp
  104ddc:	0000                	unimp
  104dde:	0000                	unimp
  104de0:	0000                	unimp
  104de2:	0000                	unimp
  104de4:	0000                	unimp
  104de6:	0000                	unimp
  104de8:	0000                	unimp
  104dea:	0000                	unimp
  104dec:	0000                	unimp
  104dee:	0000                	unimp
  104df0:	0000                	unimp
  104df2:	0000                	unimp
  104df4:	0000                	unimp
  104df6:	0000                	unimp
  104df8:	0000                	unimp
  104dfa:	0000                	unimp
  104dfc:	0000                	unimp
  104dfe:	0000                	unimp
  104e00:	0000                	unimp
  104e02:	0000                	unimp
  104e04:	0000                	unimp
  104e06:	0000                	unimp
  104e08:	0000                	unimp
  104e0a:	0000                	unimp
  104e0c:	0000                	unimp
  104e0e:	0000                	unimp
  104e10:	0000                	unimp
  104e12:	0000                	unimp
  104e14:	0000                	unimp
  104e16:	0000                	unimp
  104e18:	0000                	unimp
  104e1a:	0000                	unimp
  104e1c:	0000                	unimp
  104e1e:	0000                	unimp
  104e20:	0000                	unimp
  104e22:	0000                	unimp
  104e24:	0000                	unimp
  104e26:	0000                	unimp
  104e28:	0000                	unimp
  104e2a:	0000                	unimp
  104e2c:	0000                	unimp
  104e2e:	0000                	unimp
  104e30:	0000                	unimp
  104e32:	0000                	unimp
  104e34:	0000                	unimp
  104e36:	0000                	unimp
  104e38:	0000                	unimp
  104e3a:	0000                	unimp
  104e3c:	0000                	unimp
  104e3e:	0000                	unimp
  104e40:	0000                	unimp
  104e42:	0000                	unimp
  104e44:	0000                	unimp
  104e46:	0000                	unimp
  104e48:	0000                	unimp
  104e4a:	0000                	unimp
  104e4c:	0000                	unimp
  104e4e:	0000                	unimp
  104e50:	0000                	unimp
  104e52:	0000                	unimp
  104e54:	0000                	unimp
  104e56:	0000                	unimp
  104e58:	0000                	unimp
  104e5a:	0000                	unimp
  104e5c:	0000                	unimp
  104e5e:	0000                	unimp
  104e60:	0000                	unimp
  104e62:	0000                	unimp
  104e64:	0000                	unimp
  104e66:	0000                	unimp
  104e68:	0000                	unimp
  104e6a:	0000                	unimp
  104e6c:	0000                	unimp
  104e6e:	0000                	unimp
  104e70:	0000                	unimp
  104e72:	0000                	unimp
  104e74:	0000                	unimp
  104e76:	0000                	unimp
  104e78:	0000                	unimp
  104e7a:	0000                	unimp
  104e7c:	0000                	unimp
  104e7e:	0000                	unimp
  104e80:	0000                	unimp
  104e82:	0000                	unimp
  104e84:	0000                	unimp
  104e86:	0000                	unimp
  104e88:	0000                	unimp
  104e8a:	0000                	unimp
  104e8c:	0000                	unimp
  104e8e:	0000                	unimp
  104e90:	0000                	unimp
  104e92:	0000                	unimp
  104e94:	0000                	unimp
  104e96:	0000                	unimp
  104e98:	0000                	unimp
  104e9a:	0000                	unimp
  104e9c:	0000                	unimp
  104e9e:	0000                	unimp
  104ea0:	0000                	unimp
  104ea2:	0000                	unimp
  104ea4:	0000                	unimp
  104ea6:	0000                	unimp
  104ea8:	0000                	unimp
  104eaa:	0000                	unimp
  104eac:	0000                	unimp
  104eae:	0000                	unimp
  104eb0:	0000                	unimp
  104eb2:	0000                	unimp
  104eb4:	0000                	unimp
  104eb6:	0000                	unimp
  104eb8:	0000                	unimp
  104eba:	0000                	unimp
  104ebc:	0000                	unimp
  104ebe:	0000                	unimp
  104ec0:	0000                	unimp
  104ec2:	0000                	unimp
  104ec4:	0000                	unimp
  104ec6:	0000                	unimp
  104ec8:	0000                	unimp
  104eca:	0000                	unimp
  104ecc:	0000                	unimp
  104ece:	0000                	unimp
  104ed0:	0000                	unimp
  104ed2:	0000                	unimp
  104ed4:	0000                	unimp
  104ed6:	0000                	unimp
  104ed8:	0000                	unimp
  104eda:	0000                	unimp
  104edc:	0000                	unimp
  104ede:	0000                	unimp
  104ee0:	0000                	unimp
  104ee2:	0000                	unimp
  104ee4:	0000                	unimp
  104ee6:	0000                	unimp
  104ee8:	0000                	unimp
  104eea:	0000                	unimp
  104eec:	0000                	unimp
  104eee:	0000                	unimp
  104ef0:	0000                	unimp
  104ef2:	0000                	unimp
  104ef4:	0000                	unimp
  104ef6:	0000                	unimp
  104ef8:	0000                	unimp
  104efa:	0000                	unimp
  104efc:	0000                	unimp
  104efe:	0000                	unimp
  104f00:	0000                	unimp
  104f02:	0000                	unimp
  104f04:	0000                	unimp
  104f06:	0000                	unimp
  104f08:	0000                	unimp
  104f0a:	0000                	unimp
  104f0c:	0000                	unimp
  104f0e:	0000                	unimp
  104f10:	0000                	unimp
  104f12:	0000                	unimp
  104f14:	0000                	unimp
  104f16:	0000                	unimp
  104f18:	0000                	unimp
  104f1a:	0000                	unimp
  104f1c:	0000                	unimp
  104f1e:	0000                	unimp
  104f20:	0000                	unimp
  104f22:	0000                	unimp
  104f24:	0000                	unimp
  104f26:	0000                	unimp
  104f28:	0000                	unimp
  104f2a:	0000                	unimp
  104f2c:	0000                	unimp
  104f2e:	0000                	unimp
  104f30:	0000                	unimp
  104f32:	0000                	unimp
  104f34:	0000                	unimp
  104f36:	0000                	unimp
  104f38:	0000                	unimp
  104f3a:	0000                	unimp
  104f3c:	0000                	unimp
  104f3e:	0000                	unimp
  104f40:	0000                	unimp
  104f42:	0000                	unimp
  104f44:	0000                	unimp
  104f46:	0000                	unimp
  104f48:	0000                	unimp
  104f4a:	0000                	unimp
  104f4c:	0000                	unimp
  104f4e:	0000                	unimp
  104f50:	0000                	unimp
  104f52:	0000                	unimp
  104f54:	0000                	unimp
  104f56:	0000                	unimp
  104f58:	0000                	unimp
  104f5a:	0000                	unimp
  104f5c:	0000                	unimp
  104f5e:	0000                	unimp
  104f60:	0000                	unimp
  104f62:	0000                	unimp
  104f64:	0000                	unimp
  104f66:	0000                	unimp
  104f68:	0000                	unimp
  104f6a:	0000                	unimp
  104f6c:	0000                	unimp
  104f6e:	0000                	unimp
  104f70:	0000                	unimp
  104f72:	0000                	unimp
  104f74:	0000                	unimp
  104f76:	0000                	unimp
  104f78:	0000                	unimp
  104f7a:	0000                	unimp
  104f7c:	0000                	unimp
  104f7e:	0000                	unimp
  104f80:	0000                	unimp
  104f82:	0000                	unimp
  104f84:	0000                	unimp
  104f86:	0000                	unimp
  104f88:	0000                	unimp
  104f8a:	0000                	unimp
  104f8c:	0000                	unimp
  104f8e:	0000                	unimp
  104f90:	0000                	unimp
  104f92:	0000                	unimp
  104f94:	0000                	unimp
  104f96:	0000                	unimp
  104f98:	0000                	unimp
  104f9a:	0000                	unimp
  104f9c:	0000                	unimp
  104f9e:	0000                	unimp
  104fa0:	0000                	unimp
  104fa2:	0000                	unimp
  104fa4:	0000                	unimp
  104fa6:	0000                	unimp
  104fa8:	0000                	unimp
  104faa:	0000                	unimp
  104fac:	0000                	unimp
  104fae:	0000                	unimp
  104fb0:	0000                	unimp
  104fb2:	0000                	unimp
  104fb4:	0000                	unimp
  104fb6:	0000                	unimp
  104fb8:	0000                	unimp
  104fba:	0000                	unimp
  104fbc:	0000                	unimp
  104fbe:	0000                	unimp
  104fc0:	0000                	unimp
  104fc2:	0000                	unimp
  104fc4:	0000                	unimp
  104fc6:	0000                	unimp
  104fc8:	0000                	unimp
  104fca:	0000                	unimp
  104fcc:	0000                	unimp
  104fce:	0000                	unimp
  104fd0:	0000                	unimp
  104fd2:	0000                	unimp
  104fd4:	0000                	unimp
  104fd6:	0000                	unimp
  104fd8:	0000                	unimp
  104fda:	0000                	unimp
  104fdc:	0000                	unimp
  104fde:	0000                	unimp
  104fe0:	0000                	unimp
  104fe2:	0000                	unimp
  104fe4:	0000                	unimp
  104fe6:	0000                	unimp
  104fe8:	0000                	unimp
  104fea:	0000                	unimp
  104fec:	0000                	unimp
  104fee:	0000                	unimp
  104ff0:	0000                	unimp
  104ff2:	0000                	unimp
  104ff4:	0000                	unimp
  104ff6:	0000                	unimp
  104ff8:	0000                	unimp
  104ffa:	0000                	unimp
  104ffc:	0000                	unimp
  104ffe:	0000                	unimp
  105000:	0000                	unimp
  105002:	0000                	unimp
  105004:	0000                	unimp
  105006:	0000                	unimp
  105008:	0000                	unimp
  10500a:	0000                	unimp
  10500c:	0000                	unimp
  10500e:	0000                	unimp
  105010:	0000                	unimp
  105012:	0000                	unimp
  105014:	0000                	unimp
  105016:	0000                	unimp
  105018:	0000                	unimp
  10501a:	0000                	unimp
  10501c:	0000                	unimp
  10501e:	0000                	unimp
  105020:	0000                	unimp
  105022:	0000                	unimp
  105024:	0000                	unimp
  105026:	0000                	unimp
  105028:	0000                	unimp
  10502a:	0000                	unimp
  10502c:	0000                	unimp
  10502e:	0000                	unimp
  105030:	0000                	unimp
  105032:	0000                	unimp
  105034:	0000                	unimp
  105036:	0000                	unimp
  105038:	0000                	unimp
  10503a:	0000                	unimp
  10503c:	0000                	unimp
  10503e:	0000                	unimp
  105040:	0000                	unimp
  105042:	0000                	unimp
  105044:	0000                	unimp
  105046:	0000                	unimp
  105048:	0000                	unimp
  10504a:	0000                	unimp
  10504c:	0000                	unimp
  10504e:	0000                	unimp
  105050:	0000                	unimp
  105052:	0000                	unimp
  105054:	0000                	unimp
  105056:	0000                	unimp
  105058:	0000                	unimp
  10505a:	0000                	unimp
  10505c:	0000                	unimp
  10505e:	0000                	unimp
  105060:	0000                	unimp
  105062:	0000                	unimp
  105064:	0000                	unimp
  105066:	0000                	unimp
  105068:	0000                	unimp
  10506a:	0000                	unimp
  10506c:	0000                	unimp
  10506e:	0000                	unimp
  105070:	0000                	unimp
  105072:	0000                	unimp
  105074:	0000                	unimp
  105076:	0000                	unimp
  105078:	0000                	unimp
  10507a:	0000                	unimp
  10507c:	0000                	unimp
  10507e:	0000                	unimp
  105080:	0000                	unimp
  105082:	0000                	unimp
  105084:	0000                	unimp
  105086:	0000                	unimp
  105088:	0000                	unimp
  10508a:	0000                	unimp
  10508c:	0000                	unimp
  10508e:	0000                	unimp
  105090:	0000                	unimp
  105092:	0000                	unimp
  105094:	0000                	unimp
  105096:	0000                	unimp
  105098:	0000                	unimp
  10509a:	0000                	unimp
  10509c:	0000                	unimp
  10509e:	0000                	unimp
  1050a0:	0000                	unimp
  1050a2:	0000                	unimp
  1050a4:	0000                	unimp
  1050a6:	0000                	unimp
  1050a8:	0000                	unimp
  1050aa:	0000                	unimp
  1050ac:	0000                	unimp
  1050ae:	0000                	unimp
  1050b0:	0000                	unimp
  1050b2:	0000                	unimp
  1050b4:	0000                	unimp
  1050b6:	0000                	unimp
  1050b8:	0000                	unimp
  1050ba:	0000                	unimp
  1050bc:	0000                	unimp
  1050be:	0000                	unimp
  1050c0:	0000                	unimp
  1050c2:	0000                	unimp
  1050c4:	0000                	unimp
  1050c6:	0000                	unimp
  1050c8:	0000                	unimp
  1050ca:	0000                	unimp
  1050cc:	0000                	unimp
  1050ce:	0000                	unimp
  1050d0:	0000                	unimp
  1050d2:	0000                	unimp
  1050d4:	0000                	unimp
  1050d6:	0000                	unimp
  1050d8:	0000                	unimp
  1050da:	0000                	unimp
  1050dc:	0000                	unimp
  1050de:	0000                	unimp
  1050e0:	0000                	unimp
  1050e2:	0000                	unimp
  1050e4:	0000                	unimp
  1050e6:	0000                	unimp
  1050e8:	0000                	unimp
  1050ea:	0000                	unimp
  1050ec:	0000                	unimp
  1050ee:	0000                	unimp
  1050f0:	0000                	unimp
  1050f2:	0000                	unimp
  1050f4:	0000                	unimp
  1050f6:	0000                	unimp
  1050f8:	0000                	unimp
  1050fa:	0000                	unimp
  1050fc:	0000                	unimp
  1050fe:	0000                	unimp
  105100:	0000                	unimp
  105102:	0000                	unimp
  105104:	0000                	unimp
  105106:	0000                	unimp
  105108:	0000                	unimp
  10510a:	0000                	unimp
  10510c:	0000                	unimp
  10510e:	0000                	unimp
  105110:	0000                	unimp
  105112:	0000                	unimp
  105114:	0000                	unimp
  105116:	0000                	unimp
  105118:	0000                	unimp
  10511a:	0000                	unimp
  10511c:	0000                	unimp
  10511e:	0000                	unimp
  105120:	0000                	unimp
  105122:	0000                	unimp
  105124:	0000                	unimp
  105126:	0000                	unimp
  105128:	0000                	unimp
  10512a:	0000                	unimp
  10512c:	0000                	unimp
  10512e:	0000                	unimp
  105130:	0000                	unimp
  105132:	0000                	unimp
  105134:	0000                	unimp
  105136:	0000                	unimp
  105138:	0000                	unimp
  10513a:	0000                	unimp
  10513c:	0000                	unimp
  10513e:	0000                	unimp
  105140:	0000                	unimp
  105142:	0000                	unimp
  105144:	0000                	unimp
  105146:	0000                	unimp
  105148:	0000                	unimp
  10514a:	0000                	unimp
  10514c:	0000                	unimp
  10514e:	0000                	unimp
  105150:	0000                	unimp
  105152:	0000                	unimp
  105154:	0000                	unimp
  105156:	0000                	unimp
  105158:	0000                	unimp
  10515a:	0000                	unimp
  10515c:	0000                	unimp
  10515e:	0000                	unimp
  105160:	0000                	unimp
  105162:	0000                	unimp
  105164:	0000                	unimp
  105166:	0000                	unimp
  105168:	0000                	unimp
  10516a:	0000                	unimp
  10516c:	0000                	unimp
  10516e:	0000                	unimp
  105170:	0000                	unimp
  105172:	0000                	unimp
  105174:	0000                	unimp
  105176:	0000                	unimp
  105178:	0000                	unimp
  10517a:	0000                	unimp
  10517c:	0000                	unimp
  10517e:	0000                	unimp
  105180:	0000                	unimp
  105182:	0000                	unimp
  105184:	0000                	unimp
  105186:	0000                	unimp
  105188:	0000                	unimp
  10518a:	0000                	unimp
  10518c:	0000                	unimp
  10518e:	0000                	unimp
  105190:	0000                	unimp
  105192:	0000                	unimp
  105194:	0000                	unimp
  105196:	0000                	unimp
  105198:	0000                	unimp
  10519a:	0000                	unimp
  10519c:	0000                	unimp
  10519e:	0000                	unimp
  1051a0:	0000                	unimp
  1051a2:	0000                	unimp
  1051a4:	0000                	unimp
  1051a6:	0000                	unimp
  1051a8:	0000                	unimp
  1051aa:	0000                	unimp
  1051ac:	0000                	unimp
  1051ae:	0000                	unimp
  1051b0:	0000                	unimp
  1051b2:	0000                	unimp
  1051b4:	0000                	unimp
  1051b6:	0000                	unimp
  1051b8:	0000                	unimp
  1051ba:	0000                	unimp
  1051bc:	0000                	unimp
  1051be:	0000                	unimp
  1051c0:	0000                	unimp
  1051c2:	0000                	unimp
  1051c4:	0000                	unimp
  1051c6:	0000                	unimp
  1051c8:	0000                	unimp
  1051ca:	0000                	unimp
  1051cc:	0000                	unimp
  1051ce:	0000                	unimp
  1051d0:	0000                	unimp
  1051d2:	0000                	unimp
  1051d4:	0000                	unimp
  1051d6:	0000                	unimp
  1051d8:	0000                	unimp
  1051da:	0000                	unimp
  1051dc:	0000                	unimp
  1051de:	0000                	unimp
  1051e0:	0000                	unimp
  1051e2:	0000                	unimp
  1051e4:	0000                	unimp
  1051e6:	0000                	unimp
  1051e8:	0000                	unimp
  1051ea:	0000                	unimp
  1051ec:	0000                	unimp
  1051ee:	0000                	unimp
  1051f0:	0000                	unimp
  1051f2:	0000                	unimp
  1051f4:	0000                	unimp
  1051f6:	0000                	unimp
  1051f8:	0000                	unimp
  1051fa:	0000                	unimp
  1051fc:	0000                	unimp
  1051fe:	0000                	unimp
  105200:	0000                	unimp
  105202:	0000                	unimp
  105204:	0000                	unimp
  105206:	0000                	unimp
  105208:	0000                	unimp
  10520a:	0000                	unimp
  10520c:	0000                	unimp
  10520e:	0000                	unimp
  105210:	0000                	unimp
  105212:	0000                	unimp
  105214:	0000                	unimp
  105216:	0000                	unimp
  105218:	0000                	unimp
  10521a:	0000                	unimp
  10521c:	0000                	unimp
  10521e:	0000                	unimp
  105220:	0000                	unimp
  105222:	0000                	unimp
  105224:	0000                	unimp
  105226:	0000                	unimp
  105228:	0000                	unimp
  10522a:	0000                	unimp
  10522c:	0000                	unimp
  10522e:	0000                	unimp
  105230:	0000                	unimp
  105232:	0000                	unimp
  105234:	0000                	unimp
  105236:	0000                	unimp
  105238:	0000                	unimp
  10523a:	0000                	unimp
  10523c:	0000                	unimp
  10523e:	0000                	unimp
  105240:	0000                	unimp
  105242:	0000                	unimp
  105244:	0000                	unimp
  105246:	0000                	unimp
  105248:	0000                	unimp
  10524a:	0000                	unimp
  10524c:	0000                	unimp
  10524e:	0000                	unimp
  105250:	0000                	unimp
  105252:	0000                	unimp
  105254:	0000                	unimp
  105256:	0000                	unimp
  105258:	0000                	unimp
  10525a:	0000                	unimp
  10525c:	0000                	unimp
  10525e:	0000                	unimp
  105260:	0000                	unimp
  105262:	0000                	unimp
  105264:	0000                	unimp
  105266:	0000                	unimp
  105268:	0000                	unimp
  10526a:	0000                	unimp
  10526c:	0000                	unimp
  10526e:	0000                	unimp
  105270:	0000                	unimp
  105272:	0000                	unimp
  105274:	0000                	unimp
  105276:	0000                	unimp
  105278:	0000                	unimp
  10527a:	0000                	unimp
  10527c:	0000                	unimp
  10527e:	0000                	unimp
  105280:	0000                	unimp
  105282:	0000                	unimp
  105284:	0000                	unimp
  105286:	0000                	unimp
  105288:	0000                	unimp
  10528a:	0000                	unimp
  10528c:	0000                	unimp
  10528e:	0000                	unimp
  105290:	0000                	unimp
  105292:	0000                	unimp
  105294:	0000                	unimp
  105296:	0000                	unimp
  105298:	0000                	unimp
  10529a:	0000                	unimp
  10529c:	0000                	unimp
  10529e:	0000                	unimp
  1052a0:	0000                	unimp
  1052a2:	0000                	unimp
  1052a4:	0000                	unimp
  1052a6:	0000                	unimp
  1052a8:	0000                	unimp
  1052aa:	0000                	unimp
  1052ac:	0000                	unimp
  1052ae:	0000                	unimp
  1052b0:	0000                	unimp
  1052b2:	0000                	unimp
  1052b4:	0000                	unimp
  1052b6:	0000                	unimp
  1052b8:	0000                	unimp
  1052ba:	0000                	unimp
  1052bc:	0000                	unimp
  1052be:	0000                	unimp
  1052c0:	0000                	unimp
  1052c2:	0000                	unimp
  1052c4:	0000                	unimp
  1052c6:	0000                	unimp
  1052c8:	0000                	unimp
  1052ca:	0000                	unimp
  1052cc:	0000                	unimp
  1052ce:	0000                	unimp
  1052d0:	0000                	unimp
  1052d2:	0000                	unimp
  1052d4:	0000                	unimp
  1052d6:	0000                	unimp
  1052d8:	0000                	unimp
  1052da:	0000                	unimp
  1052dc:	0000                	unimp
  1052de:	0000                	unimp
  1052e0:	0000                	unimp
  1052e2:	0000                	unimp
  1052e4:	0000                	unimp
  1052e6:	0000                	unimp
  1052e8:	0000                	unimp
  1052ea:	0000                	unimp
  1052ec:	0000                	unimp
  1052ee:	0000                	unimp
  1052f0:	0000                	unimp
  1052f2:	0000                	unimp
  1052f4:	0000                	unimp
  1052f6:	0000                	unimp
  1052f8:	0000                	unimp
  1052fa:	0000                	unimp
  1052fc:	0000                	unimp
  1052fe:	0000                	unimp
  105300:	0000                	unimp
  105302:	0000                	unimp
  105304:	0000                	unimp
  105306:	0000                	unimp
  105308:	0000                	unimp
  10530a:	0000                	unimp
  10530c:	0000                	unimp
  10530e:	0000                	unimp
  105310:	0000                	unimp
  105312:	0000                	unimp
  105314:	0000                	unimp
  105316:	0000                	unimp
  105318:	0000                	unimp
  10531a:	0000                	unimp
  10531c:	0000                	unimp
  10531e:	0000                	unimp
  105320:	0000                	unimp
  105322:	0000                	unimp
  105324:	0000                	unimp
  105326:	0000                	unimp
  105328:	0000                	unimp
  10532a:	0000                	unimp
  10532c:	0000                	unimp
  10532e:	0000                	unimp
  105330:	0000                	unimp
  105332:	0000                	unimp
  105334:	0000                	unimp
  105336:	0000                	unimp
  105338:	0000                	unimp
  10533a:	0000                	unimp
  10533c:	0000                	unimp
  10533e:	0000                	unimp
  105340:	0000                	unimp
  105342:	0000                	unimp
  105344:	0000                	unimp
  105346:	0000                	unimp
  105348:	0000                	unimp
  10534a:	0000                	unimp
  10534c:	0000                	unimp
  10534e:	0000                	unimp
  105350:	0000                	unimp
  105352:	0000                	unimp
  105354:	0000                	unimp
  105356:	0000                	unimp
  105358:	0000                	unimp
  10535a:	0000                	unimp
  10535c:	0000                	unimp
  10535e:	0000                	unimp
  105360:	0000                	unimp
  105362:	0000                	unimp
  105364:	0000                	unimp
  105366:	0000                	unimp
  105368:	0000                	unimp
  10536a:	0000                	unimp
  10536c:	0000                	unimp
  10536e:	0000                	unimp
  105370:	0000                	unimp
  105372:	0000                	unimp
  105374:	0000                	unimp
  105376:	0000                	unimp
  105378:	0000                	unimp
  10537a:	0000                	unimp
  10537c:	0000                	unimp
  10537e:	0000                	unimp
  105380:	0000                	unimp
  105382:	0000                	unimp
  105384:	0000                	unimp
  105386:	0000                	unimp
  105388:	0000                	unimp
  10538a:	0000                	unimp
  10538c:	0000                	unimp
  10538e:	0000                	unimp
  105390:	0000                	unimp
  105392:	0000                	unimp
  105394:	0000                	unimp
  105396:	0000                	unimp
  105398:	0000                	unimp
  10539a:	0000                	unimp
  10539c:	0000                	unimp
  10539e:	0000                	unimp
  1053a0:	0000                	unimp
  1053a2:	0000                	unimp
  1053a4:	0000                	unimp
  1053a6:	0000                	unimp
  1053a8:	0000                	unimp
  1053aa:	0000                	unimp
  1053ac:	0000                	unimp
  1053ae:	0000                	unimp
  1053b0:	0000                	unimp
  1053b2:	0000                	unimp
  1053b4:	0000                	unimp
  1053b6:	0000                	unimp
  1053b8:	0000                	unimp
  1053ba:	0000                	unimp
  1053bc:	0000                	unimp
  1053be:	0000                	unimp
  1053c0:	0000                	unimp
  1053c2:	0000                	unimp
  1053c4:	0000                	unimp
  1053c6:	0000                	unimp
  1053c8:	0000                	unimp
  1053ca:	0000                	unimp
  1053cc:	0000                	unimp
  1053ce:	0000                	unimp
  1053d0:	0000                	unimp
  1053d2:	0000                	unimp
  1053d4:	0000                	unimp
  1053d6:	0000                	unimp
  1053d8:	0000                	unimp
  1053da:	0000                	unimp
  1053dc:	0000                	unimp
  1053de:	0000                	unimp
  1053e0:	0000                	unimp
  1053e2:	0000                	unimp
  1053e4:	0000                	unimp
  1053e6:	0000                	unimp
  1053e8:	0000                	unimp
  1053ea:	0000                	unimp
  1053ec:	0000                	unimp
  1053ee:	0000                	unimp
  1053f0:	0000                	unimp
  1053f2:	0000                	unimp
  1053f4:	0000                	unimp
  1053f6:	0000                	unimp
  1053f8:	0000                	unimp
  1053fa:	0000                	unimp
  1053fc:	0000                	unimp
  1053fe:	0000                	unimp
  105400:	0000                	unimp
  105402:	0000                	unimp
  105404:	0000                	unimp
  105406:	0000                	unimp
  105408:	0000                	unimp
  10540a:	0000                	unimp
  10540c:	0000                	unimp
  10540e:	0000                	unimp
  105410:	0000                	unimp
  105412:	0000                	unimp
  105414:	0000                	unimp
  105416:	0000                	unimp
  105418:	0000                	unimp
  10541a:	0000                	unimp
  10541c:	0000                	unimp
  10541e:	0000                	unimp
  105420:	0000                	unimp
  105422:	0000                	unimp
  105424:	0000                	unimp
  105426:	0000                	unimp
  105428:	0000                	unimp
  10542a:	0000                	unimp
  10542c:	0000                	unimp
  10542e:	0000                	unimp
  105430:	0000                	unimp
  105432:	0000                	unimp
  105434:	0000                	unimp
  105436:	0000                	unimp
  105438:	0000                	unimp
  10543a:	0000                	unimp
  10543c:	0000                	unimp
  10543e:	0000                	unimp
  105440:	0000                	unimp
  105442:	0000                	unimp
  105444:	0000                	unimp
  105446:	0000                	unimp
  105448:	0000                	unimp
  10544a:	0000                	unimp
  10544c:	0000                	unimp
  10544e:	0000                	unimp
  105450:	0000                	unimp
  105452:	0000                	unimp
  105454:	0000                	unimp
  105456:	0000                	unimp
  105458:	0000                	unimp
  10545a:	0000                	unimp
  10545c:	0000                	unimp
  10545e:	0000                	unimp
  105460:	0000                	unimp
  105462:	0000                	unimp
  105464:	0000                	unimp
  105466:	0000                	unimp
  105468:	0000                	unimp
  10546a:	0000                	unimp
  10546c:	0000                	unimp
  10546e:	0000                	unimp
  105470:	0000                	unimp
  105472:	0000                	unimp
  105474:	0000                	unimp
  105476:	0000                	unimp
  105478:	0000                	unimp
  10547a:	0000                	unimp
  10547c:	0000                	unimp
  10547e:	0000                	unimp
  105480:	0000                	unimp
  105482:	0000                	unimp
  105484:	0000                	unimp
  105486:	0000                	unimp
  105488:	0000                	unimp
  10548a:	0000                	unimp
  10548c:	0000                	unimp
  10548e:	0000                	unimp
  105490:	0000                	unimp
  105492:	0000                	unimp
  105494:	0000                	unimp
  105496:	0000                	unimp
  105498:	0000                	unimp
  10549a:	0000                	unimp
  10549c:	0000                	unimp
  10549e:	0000                	unimp
  1054a0:	0000                	unimp
  1054a2:	0000                	unimp
  1054a4:	0000                	unimp
  1054a6:	0000                	unimp
  1054a8:	0000                	unimp
  1054aa:	0000                	unimp
  1054ac:	0000                	unimp
  1054ae:	0000                	unimp
  1054b0:	0000                	unimp
  1054b2:	0000                	unimp
  1054b4:	0000                	unimp
  1054b6:	0000                	unimp
  1054b8:	0000                	unimp
  1054ba:	0000                	unimp
  1054bc:	0000                	unimp
  1054be:	0000                	unimp
  1054c0:	0000                	unimp
  1054c2:	0000                	unimp
  1054c4:	0000                	unimp
  1054c6:	0000                	unimp
  1054c8:	0000                	unimp
  1054ca:	0000                	unimp
  1054cc:	0000                	unimp
  1054ce:	0000                	unimp
  1054d0:	0000                	unimp
  1054d2:	0000                	unimp
  1054d4:	0000                	unimp
  1054d6:	0000                	unimp
  1054d8:	0000                	unimp
  1054da:	0000                	unimp
  1054dc:	0000                	unimp
  1054de:	0000                	unimp
  1054e0:	0000                	unimp
  1054e2:	0000                	unimp
  1054e4:	0000                	unimp
  1054e6:	0000                	unimp
  1054e8:	0000                	unimp
  1054ea:	0000                	unimp
  1054ec:	0000                	unimp
  1054ee:	0000                	unimp
  1054f0:	0000                	unimp
  1054f2:	0000                	unimp
  1054f4:	0000                	unimp
  1054f6:	0000                	unimp
  1054f8:	0000                	unimp
  1054fa:	0000                	unimp
  1054fc:	0000                	unimp
  1054fe:	0000                	unimp
  105500:	0000                	unimp
  105502:	0000                	unimp
  105504:	0000                	unimp
  105506:	0000                	unimp
  105508:	0000                	unimp
  10550a:	0000                	unimp
  10550c:	0000                	unimp
  10550e:	0000                	unimp
  105510:	0000                	unimp
  105512:	0000                	unimp
  105514:	0000                	unimp
  105516:	0000                	unimp
  105518:	0000                	unimp
  10551a:	0000                	unimp
  10551c:	0000                	unimp
  10551e:	0000                	unimp
  105520:	0000                	unimp
  105522:	0000                	unimp
  105524:	0000                	unimp
  105526:	0000                	unimp
  105528:	0000                	unimp
  10552a:	0000                	unimp
  10552c:	0000                	unimp
  10552e:	0000                	unimp
  105530:	0000                	unimp
  105532:	0000                	unimp
  105534:	0000                	unimp
  105536:	0000                	unimp
  105538:	0000                	unimp
  10553a:	0000                	unimp
  10553c:	0000                	unimp
  10553e:	0000                	unimp
  105540:	0000                	unimp
  105542:	0000                	unimp
  105544:	0000                	unimp
  105546:	0000                	unimp
  105548:	0000                	unimp
  10554a:	0000                	unimp
  10554c:	0000                	unimp
  10554e:	0000                	unimp
  105550:	0000                	unimp
  105552:	0000                	unimp
  105554:	0000                	unimp
  105556:	0000                	unimp
  105558:	0000                	unimp
  10555a:	0000                	unimp
  10555c:	0000                	unimp
  10555e:	0000                	unimp
  105560:	0000                	unimp
  105562:	0000                	unimp
  105564:	0000                	unimp
  105566:	0000                	unimp
  105568:	0000                	unimp
  10556a:	0000                	unimp
  10556c:	0000                	unimp
  10556e:	0000                	unimp
  105570:	0000                	unimp
  105572:	0000                	unimp
  105574:	0000                	unimp
  105576:	0000                	unimp
  105578:	0000                	unimp
  10557a:	0000                	unimp
  10557c:	0000                	unimp
  10557e:	0000                	unimp
  105580:	0000                	unimp
  105582:	0000                	unimp
  105584:	0000                	unimp
  105586:	0000                	unimp
  105588:	0000                	unimp
  10558a:	0000                	unimp
  10558c:	0000                	unimp
  10558e:	0000                	unimp
  105590:	0000                	unimp
  105592:	0000                	unimp
  105594:	0000                	unimp
  105596:	0000                	unimp
  105598:	0000                	unimp
  10559a:	0000                	unimp
  10559c:	0000                	unimp
  10559e:	0000                	unimp
  1055a0:	0000                	unimp
  1055a2:	0000                	unimp
  1055a4:	0000                	unimp
  1055a6:	0000                	unimp
  1055a8:	0000                	unimp
  1055aa:	0000                	unimp
  1055ac:	0000                	unimp
  1055ae:	0000                	unimp
  1055b0:	0000                	unimp
  1055b2:	0000                	unimp
  1055b4:	0000                	unimp
  1055b6:	0000                	unimp
  1055b8:	0000                	unimp
  1055ba:	0000                	unimp
  1055bc:	0000                	unimp
  1055be:	0000                	unimp
  1055c0:	0000                	unimp
  1055c2:	0000                	unimp
  1055c4:	0000                	unimp
  1055c6:	0000                	unimp
  1055c8:	0000                	unimp
  1055ca:	0000                	unimp
  1055cc:	0000                	unimp
  1055ce:	0000                	unimp
  1055d0:	0000                	unimp
  1055d2:	0000                	unimp
  1055d4:	0000                	unimp
  1055d6:	0000                	unimp
  1055d8:	0000                	unimp
  1055da:	0000                	unimp
  1055dc:	0000                	unimp
  1055de:	0000                	unimp
  1055e0:	0000                	unimp
  1055e2:	0000                	unimp
  1055e4:	0000                	unimp
  1055e6:	0000                	unimp
  1055e8:	0000                	unimp
  1055ea:	0000                	unimp
  1055ec:	0000                	unimp
  1055ee:	0000                	unimp
  1055f0:	0000                	unimp
  1055f2:	0000                	unimp

001055f4 <ascii_or_pixel.1>:
  1055f4:	0000                	unimp
  1055f6:	0000                	unimp

001055f8 <ch.0>:
  1055f8:	0000                	unimp
  1055fa:	0000                	unimp

001055fc <ntok>:
  1055fc:	0000                	unimp
  1055fe:	0000                	unimp

00105600 <seed1_volatile>:
  105600:	0000                	unimp
  105602:	0000                	unimp

00105604 <seed2_volatile>:
  105604:	0000                	unimp
  105606:	0000                	unimp

00105608 <seed5_volatile>:
  105608:	0000                	unimp
  10560a:	0000                	unimp

0010560c <start_time_val>:
  10560c:	0000                	unimp
  10560e:	0000                	unimp

00105610 <stop_time_val>:
  105610:	0000                	unimp
  105612:	0000                	unimp

00105614 <vga_line>:
  105614:	0000                	unimp
  105616:	0000                	unimp

00105618 <vga_ch>:
  105618:	0000                	unimp
  10561a:	0000                	unimp

Disassembly of section .comment:

00000000 <.comment>:
   0:	3a434347          	fmsub.d	ft6,ft6,ft4,ft7,rmm
   4:	2820                	fld	fs0,80(s0)
   6:	2029                	jal	10 <entry+0x10>
   8:	3031                	jal	fffff814 <_end+0xffef9c14>
   a:	322e                	fld	ft4,232(sp)
   c:	302e                	fld	ft0,232(sp)
   e:	00              	Address 0x000000000000000e is out of bounds.


Disassembly of section .riscv.attributes:

00000000 <.riscv.attributes>:
   0:	1b41                	addi	s6,s6,-16
   2:	0000                	unimp
   4:	7200                	flw	fs0,32(a2)
   6:	7369                	lui	t1,0xffffa
   8:	01007663          	bgeu	zero,a6,14 <entry+0x14>
   c:	0011                	c.nop	4
   e:	0000                	unimp
  10:	1004                	addi	s1,sp,32
  12:	7205                	lui	tp,0xfffe1
  14:	3376                	fld	ft6,376(sp)
  16:	6932                	flw	fs2,12(sp)
  18:	7032                	flw	ft0,44(sp)
  1a:	0030                	addi	a2,sp,8
